ccopy_reg
_reconstructor
p0
(cscisheets.ui.dt_table
DTTable
p1
c__builtin__
object
p2
Ntp3
Rp4
(dp5
S'_hidden_columns'
p6
(lp7
sS'_columns'
p8
(lp9
g0
(cscisheets.core.column
Column
p10
g2
Ntp11
Rp12
(dp13
S'_asis'
p14
I01
sS'_owning_table'
p15
g4
sS'_cells'
p16
(lp17
S'1'
p18
aS'2'
p19
aS'3'
p20
aS'4'
p21
aS'5'
p22
aS'6'
p23
aS'7'
p24
aS'8'
p25
aS'9'
p26
aS'10'
p27
aS'11'
p28
aS'12'
p29
aS'13'
p30
aS'14'
p31
aS'15'
p32
aS'16'
p33
aS'17'
p34
aS'18'
p35
aS'19'
p36
aS'20'
p37
aS'21'
p38
aS'22'
p39
aS'23'
p40
aS'24'
p41
aS'25'
p42
aS'26'
p43
aS'27'
p44
aS'28'
p45
aS'29'
p46
aS'30'
p47
aS'31'
p48
aS'32'
p49
aS'33'
p50
aS'34'
p51
aS'35'
p52
aS'36'
p53
aS'37'
p54
aS'38'
p55
aS'39'
p56
aS'40'
p57
aS'41'
p58
aS'42'
p59
aS'43'
p60
aS'44'
p61
aS'45'
p62
aS'46'
p63
aS'47'
p64
aS'48'
p65
aS'49'
p66
aS'50'
p67
aS'51'
p68
aS'52'
p69
aS'53'
p70
aS'54'
p71
asS'_formula_statement'
p72
g0
(cscisheets.core.column
FormulaStatement
p73
g2
Ntp74
Rp75
(dp76
S'_statement'
p77
NsS'_column'
p78
g12
sS'_isExpression'
p79
I00
sS'_isStatement'
p80
I00
sS'_formula'
p81
NsbsS'_data_class'
p82
g0
(cscisheets.core.helpers.api_util
DataClass
p83
c__builtin__
tuple
p84
(cnumpy
ndarray
p85
cscisheets.core.helpers.api_util
makeArray
p86
tp87
tp88
Rp89
sS'_name'
p90
S'row'
p91
sbag0
(g10
g2
Ntp92
Rp93
(dp94
g14
I00
sg15
g4
sg16
(lp95
Vgene
p96
aVrun
p97
aVshow_raw
p98
aVshow_block1
p99
aVshow_block2
p100
aVshow_block3
p101
aVmax_std
p102
aVmin_eff
p103
aVnan
p104
aVnan
p105
aVnan
p106
aVnan
p107
aVnan
p108
aVnan
p109
aVnan
p110
aVnan
p111
aVnan
p112
aVnan
p113
aVnan
p114
aVnan
p115
aVnan
p116
aVnan
p117
aVnan
p118
aVnan
p119
aVnan
p120
aVnan
p121
aVnan
p122
aVnan
p123
aVnan
p124
aVnan
p125
aVnan
p126
aVnan
p127
aVnan
p128
aVnan
p129
aVnan
p130
aVnan
p131
aVnan
p132
aVnan
p133
aVnan
p134
aVnan
p135
aVnan
p136
aVnan
p137
aVnan
p138
aVnan
p139
aVnan
p140
aVnan
p141
aVnan
p142
aVnan
p143
aVnan
p144
aVnan
p145
aVnan
p146
aVnan
p147
aVnan
p148
aVnan
p149
asg72
g0
(g73
g2
Ntp150
Rp151
(dp152
g77
Nsg78
g93
sg79
I00
sg80
I00
sg81
Nsbsg82
g0
(g83
g84
(g85
g86
tp153
tp154
Rp155
sg90
VParmNames
p156
sbag0
(g10
g2
Ntp157
Rp158
(dp159
g14
I00
sg15
g4
sg16
(lp160
VFalse
p161
aVTrue
p162
aVFalse
p163
aVFalse
p164
aVFalse
p165
aVTrue
p166
aV0.5
p167
aV0.7
p168
aVnan
p169
aVnan
p170
aVnan
p171
aVnan
p172
aVnan
p173
aVnan
p174
aVnan
p175
aVnan
p176
aVnan
p177
aVnan
p178
aVnan
p179
aVnan
p180
aVnan
p181
aVnan
p182
aVnan
p183
aVnan
p184
aVnan
p185
aVnan
p186
aVnan
p187
aVnan
p188
aVnan
p189
aVnan
p190
aVnan
p191
aVnan
p192
aVnan
p193
aVnan
p194
aVnan
p195
aVnan
p196
aVnan
p197
aVnan
p198
aVnan
p199
aVnan
p200
aVnan
p201
aVnan
p202
aVnan
p203
aVnan
p204
aVnan
p205
aVnan
p206
aVnan
p207
aVnan
p208
aVnan
p209
aVnan
p210
aVnan
p211
aVnan
p212
aVnan
p213
aVnan
p214
asg72
g0
(g73
g2
Ntp215
Rp216
(dp217
g77
Vxlsx_path = '/mnt/hgfs/josephhellerstein/home/Technical/SciSheets/CaseStudies/Kristen/workbooks/data.xlsx'\u000as.setColumnVisibility()\u000agene = ParmValues[0]\u000arun = ParmValues[1] == 'True'\u000ashow_raw = ParmValues[2] == 'True'\u000ashow_block1 = ParmValues[3] == 'True'\u000ashow_block2 = ParmValues[4] == 'True'\u000ashow_block3 = ParmValues[5] == 'True'\u000amax_std  = float(ParmValues[6])\u000amin_eff = float(ParmValues[7])\u000aworksheet = gene + "-I"\u000aif False:\u000a  Groups = []\u000a  GroupedCt = []\u000a  GroupedEff = []\u000a  MeanCt = []\u000a  Imp = []\u000a  s.deleteColumn('Ct')\u000a  s.deleteColumn('RunType')\u000a  s.deleteColumn('BRpl')\u000a  s.deleteColumn('TRpl')\u000a  s.deleteColumn('Treatment')\u000a  s.deleteColumn('SmplName')\u000a  s.deleteColumn('Eff')\u000aif run:\u000a  importExcelToTable(s, xlsx_path, worksheet=worksheet)\u000a  BRpl = s.getColumnValues('BRpl')\u000a  Ct = s.getColumnValues('Ct')\u000a  Eff = s.getColumnValues('Eff')\u000a  RunType = s.getColumnValues('RunType')\u000a  TRpl = s.getColumnValues('TRpl')\u000a  Treatment = s.getColumnValues('Treatment')\u000as.setColumnVisibility(['SmplName'], False)\u000as.setColumnVisibility(['BRpl', 'Ct', 'Eff', 'RunType', 'TRpl', 'Treatment'], is_visible=show_raw)
p218
sg78
g158
sg79
I00
sg80
I00
sg81
Vxlsx_path = '/mnt/hgfs/josephhellerstein/home/Technical/SciSheets/CaseStudies/Kristen/workbooks/data.xlsx'\u000as.setColumnVisibility()\u000agene = ParmValues[0]\u000arun = ParmValues[1] == 'True'\u000ashow_raw = ParmValues[2] == 'True'\u000ashow_block1 = ParmValues[3] == 'True'\u000ashow_block2 = ParmValues[4] == 'True'\u000ashow_block3 = ParmValues[5] == 'True'\u000amax_std  = float(ParmValues[6])\u000amin_eff = float(ParmValues[7])\u000aworksheet = gene + "-I"\u000aif False:\u000a  Groups = []\u000a  GroupedCt = []\u000a  GroupedEff = []\u000a  MeanCt = []\u000a  Imp = []\u000a  s.deleteColumn('Ct')\u000a  s.deleteColumn('RunType')\u000a  s.deleteColumn('BRpl')\u000a  s.deleteColumn('TRpl')\u000a  s.deleteColumn('Treatment')\u000a  s.deleteColumn('SmplName')\u000a  s.deleteColumn('Eff')\u000aif run:\u000a  importExcelToTable(s, xlsx_path, worksheet=worksheet)\u000a  BRpl = s.getColumnValues('BRpl')\u000a  Ct = s.getColumnValues('Ct')\u000a  Eff = s.getColumnValues('Eff')\u000a  RunType = s.getColumnValues('RunType')\u000a  TRpl = s.getColumnValues('TRpl')\u000a  Treatment = s.getColumnValues('Treatment')\u000as.setColumnVisibility(['SmplName'], False)\u000as.setColumnVisibility(['BRpl', 'Ct', 'Eff', 'RunType', 'TRpl', 'Treatment'], is_visible=show_raw)
p219
sbsg82
g0
(g83
g84
(g85
g86
tp220
tp221
Rp222
sg90
VParmValues
p223
sbag0
(g10
g2
Ntp224
Rp225
(dp226
g14
I00
sg15
g4
sg16
(lp227
(cnumpy.core.multiarray
scalar
p228
(cnumpy
dtype
p229
(S'i8'
p230
I0
I1
tp231
Rp232
(I3
S'<'
p233
NNNI-1
I-1
I0
tp234
bS'\x00\x00\x00\x00\x00\x00\x00\x00'
p235
tp236
Rp237
g228
(g229
(S'U1'
p238
I0
I1
tp239
Rp240
(I3
S'<'
p241
NNNI4
I4
I8
tp242
bS'I\x00\x00\x00'
p243
tp244
Rp245
g228
(g232
S'\x01\x00\x00\x00\x00\x00\x00\x00'
p246
tp247
Rp248
tp249
a(g228
(g232
S'\x00\x00\x00\x00\x00\x00\x00\x00'
p250
tp251
Rp252
g228
(g229
(S'U2'
p253
I0
I1
tp254
Rp255
(I3
S'<'
p256
NNNI8
I4
I8
tp257
bS'R\x00\x00\x001\x00\x00\x00'
p258
tp259
Rp260
g228
(g232
S'\x01\x00\x00\x00\x00\x00\x00\x00'
p261
tp262
Rp263
tp264
a(g228
(g232
S'\x00\x00\x00\x00\x00\x00\x00\x00'
p265
tp266
Rp267
g228
(g229
(S'U2'
p268
I0
I1
tp269
Rp270
(I3
S'<'
p271
NNNI8
I4
I8
tp272
bS'R\x00\x00\x002\x00\x00\x00'
p273
tp274
Rp275
g228
(g232
S'\x01\x00\x00\x00\x00\x00\x00\x00'
p276
tp277
Rp278
tp279
a(g228
(g232
S'\x01\x00\x00\x00\x00\x00\x00\x00'
p280
tp281
Rp282
g245
g228
(g232
S'\x01\x00\x00\x00\x00\x00\x00\x00'
p283
tp284
Rp285
tp286
a(g228
(g232
S'\x01\x00\x00\x00\x00\x00\x00\x00'
p287
tp288
Rp289
g245
g228
(g232
S'\x02\x00\x00\x00\x00\x00\x00\x00'
p290
tp291
Rp292
tp293
a(g228
(g232
S'\x01\x00\x00\x00\x00\x00\x00\x00'
p294
tp295
Rp296
g245
g228
(g232
S'\x03\x00\x00\x00\x00\x00\x00\x00'
p297
tp298
Rp299
tp300
a(g228
(g232
S'\x01\x00\x00\x00\x00\x00\x00\x00'
p301
tp302
Rp303
g260
g228
(g232
S'\x01\x00\x00\x00\x00\x00\x00\x00'
p304
tp305
Rp306
tp307
a(g228
(g232
S'\x01\x00\x00\x00\x00\x00\x00\x00'
p308
tp309
Rp310
g260
g228
(g232
S'\x02\x00\x00\x00\x00\x00\x00\x00'
p311
tp312
Rp313
tp314
a(g228
(g232
S'\x01\x00\x00\x00\x00\x00\x00\x00'
p315
tp316
Rp317
g260
g228
(g232
S'\x03\x00\x00\x00\x00\x00\x00\x00'
p318
tp319
Rp320
tp321
a(g228
(g232
S'\x01\x00\x00\x00\x00\x00\x00\x00'
p322
tp323
Rp324
g275
g228
(g232
S'\x01\x00\x00\x00\x00\x00\x00\x00'
p325
tp326
Rp327
tp328
a(g228
(g232
S'\x01\x00\x00\x00\x00\x00\x00\x00'
p329
tp330
Rp331
g275
g228
(g232
S'\x02\x00\x00\x00\x00\x00\x00\x00'
p332
tp333
Rp334
tp335
a(g228
(g232
S'\x01\x00\x00\x00\x00\x00\x00\x00'
p336
tp337
Rp338
g275
g228
(g232
S'\x03\x00\x00\x00\x00\x00\x00\x00'
p339
tp340
Rp341
tp342
a(g228
(g232
S'\x02\x00\x00\x00\x00\x00\x00\x00'
p343
tp344
Rp345
g245
g228
(g232
S'\x01\x00\x00\x00\x00\x00\x00\x00'
p346
tp347
Rp348
tp349
a(g228
(g232
S'\x02\x00\x00\x00\x00\x00\x00\x00'
p350
tp351
Rp352
g260
g228
(g232
S'\x01\x00\x00\x00\x00\x00\x00\x00'
p353
tp354
Rp355
tp356
a(g228
(g232
S'\x02\x00\x00\x00\x00\x00\x00\x00'
p357
tp358
Rp359
g275
g228
(g232
S'\x01\x00\x00\x00\x00\x00\x00\x00'
p360
tp361
Rp362
tp363
a(g228
(g232
S'\x03\x00\x00\x00\x00\x00\x00\x00'
p364
tp365
Rp366
g245
g228
(g232
S'\x01\x00\x00\x00\x00\x00\x00\x00'
p367
tp368
Rp369
tp370
a(g228
(g232
S'\x03\x00\x00\x00\x00\x00\x00\x00'
p371
tp372
Rp373
g260
g228
(g232
S'\x01\x00\x00\x00\x00\x00\x00\x00'
p374
tp375
Rp376
tp377
a(g228
(g232
S'\x03\x00\x00\x00\x00\x00\x00\x00'
p378
tp379
Rp380
g275
g228
(g232
S'\x01\x00\x00\x00\x00\x00\x00\x00'
p381
tp382
Rp383
tp384
aNaNaNaNaNaNaNaNaNaNaNaNaNaNaNaNaNaNaNaNaNaNaNaNaNaNaNaNaNaNaNaNaNaNaNaNasg72
g0
(g73
g2
Ntp385
Rp386
(dp387
g77
Vif run:\u000a  sel = Eff > min_eff\u000a  unfiltrd_grouping_columns =   [\u000a      Treatment,\u000a       RunType, \u000a      BRpl,      \u000a    ]\u000a  grouping_columns =   [x[sel] for x in unfiltrd_grouping_columns]\u000a  Groups, UnfilteredEff = groupBy(\u000a    unfiltrd_grouping_columns, Eff)\u000a  UnfilteredEff = roundValues(UnfilteredEff, 2)\u000a  Groups, groupedCt = groupBy(\u000a    grouping_columns, Ct[sel])\u000a  Groups, groupedEff = groupBy(\u000a    grouping_columns, Eff[sel])\u000a  GroupedCt = roundValues(groupedCt,2)\u000a  GroupedEff = roundValues(groupedEff,2)
p388
sg78
g225
sg79
I00
sg80
I00
sg81
Vif run:\u000a  sel = Eff > min_eff\u000a  unfiltrd_grouping_columns =   [\u000a      Treatment,\u000a       RunType, \u000a      BRpl,      \u000a    ]\u000a  grouping_columns =   [x[sel] for x in unfiltrd_grouping_columns]\u000a  Groups, UnfilteredEff = groupBy(\u000a    unfiltrd_grouping_columns, Eff)\u000a  UnfilteredEff = roundValues(UnfilteredEff, 2)\u000a  Groups, groupedCt = groupBy(\u000a    grouping_columns, Ct[sel])\u000a  Groups, groupedEff = groupBy(\u000a    grouping_columns, Eff[sel])\u000a  GroupedCt = roundValues(groupedCt,2)\u000a  GroupedEff = roundValues(groupedEff,2)
p389
sbsg82
g0
(g83
g84
(g85
g86
tp390
tp391
Rp392
sg90
VGroups
p393
sbag0
(g10
g2
Ntp394
Rp395
(dp396
g14
I00
sg15
g4
sg16
(lp397
(lp398
F0.84
aF0.89
aF0.9
aa(lp399
F0.83
aF0.83
aF0.85
aa(lp400
F0.82
aF0.85
aF0.82
aa(lp401
F0.94
aF0.83
aF0.84
aa(lp402
F0.8
aF0.84
aF0.79
aa(lp403
F0.83
aF0.8
aF0.83
aa(lp404
F0.92
aF0.98
aF0.9
aa(lp405
F0.9
aF0.83
aF0.84
aa(lp406
F0.87
aF0.85
aF0.83
aa(lp407
F0.79
aF0.84
aF0.86
aa(lp408
F0.83
aF0.82
aF0.83
aa(lp409
F0.81
aF0.82
aF0.8
aa(lp410
F0.84
aF0.8
aF0.81
aa(lp411
F0.77
aF0.87
aF0.81
aa(lp412
F0.78
aF0.77
aF0.79
aa(lp413
F0.85
aF0.85
aF0.84
aa(lp414
F0.87
aF0.9
aF0.86
aa(lp415
F0.82
aF0.82
aF0.79
aaNaNaNaNaNaNaNaNaNaNaNaNaNaNaNaNaNaNaNaNaNaNaNaNaNaNaNaNaNaNaNaNaNaNaNaNasg72
g0
(g73
g2
Ntp416
Rp417
(dp418
g77
Nsg78
g395
sg79
I00
sg80
I00
sg81
Nsbsg82
g0
(g83
g84
(g85
g86
tp419
tp420
Rp421
sg90
VUnfilteredEff
p422
sbag0
(g10
g2
Ntp423
Rp424
(dp425
g14
I00
sg15
g4
sg16
(lp426
(lp427
F0.84
aF0.89
aF0.9
aa(lp428
F0.83
aF0.83
aF0.85
aa(lp429
F0.82
aF0.85
aF0.82
aa(lp430
F0.94
aF0.83
aF0.84
aa(lp431
F0.8
aF0.84
aF0.79
aa(lp432
F0.83
aF0.8
aF0.83
aa(lp433
F0.92
aF0.98
aF0.9
aa(lp434
F0.9
aF0.83
aF0.84
aa(lp435
F0.87
aF0.85
aF0.83
aa(lp436
F0.79
aF0.84
aF0.86
aa(lp437
F0.83
aF0.82
aF0.83
aa(lp438
F0.81
aF0.82
aF0.8
aa(lp439
F0.84
aF0.8
aF0.81
aa(lp440
F0.77
aF0.87
aF0.81
aa(lp441
F0.78
aF0.77
aF0.79
aa(lp442
F0.85
aF0.85
aF0.84
aa(lp443
F0.87
aF0.9
aF0.86
aa(lp444
F0.82
aF0.82
aF0.79
aaNaNaNaNaNaNaNaNaNaNaNaNaNaNaNaNaNaNaNaNaNaNaNaNaNaNaNaNaNaNaNaNaNaNaNaNasg72
g0
(g73
g2
Ntp445
Rp446
(dp447
g77
Nsg78
g424
sg79
I00
sg80
I00
sg81
Nsbsg82
g0
(g83
g84
(g85
g86
tp448
tp449
Rp450
sg90
VGroupedEff
p451
sbag0
(g10
g2
Ntp452
Rp453
(dp454
g14
I00
sg15
g4
sg16
(lp455
(lp456
F23.0
aF22.86
aF22.8
aa(lp457
F18.24
aF18.22
aF18.36
aa(lp458
F19.72
aF19.75
aF20.01
aa(lp459
F26.68
aF27.13
aF27.21
aa(lp460
F26.76
aF26.71
aF26.19
aa(lp461
F29.98
aF30.12
aF29.41
aa(lp462
F19.92
aF19.85
aF20.0
aa(lp463
F21.86
aF22.09
aF21.84
aa(lp464
F23.89
aF23.54
aF24.27
aa(lp465
F22.18
aF21.71
aF21.75
aa(lp466
F23.88
aF23.42
aF23.63
aa(lp467
F24.59
aF24.61
aF24.34
aa(lp468
F29.95
aF30.45
aF29.88
aa(lp469
F23.22
aF23.8
aF23.49
aa(lp470
F26.37
aF26.36
aF26.17
aa(lp471
F24.8
aF24.97
aF24.63
aa(lp472
F18.91
aF18.78
aF18.8
aa(lp473
F20.5
aF20.47
aF20.28
aaNaNaNaNaNaNaNaNaNaNaNaNaNaNaNaNaNaNaNaNaNaNaNaNaNaNaNaNaNaNaNaNaNaNaNaNasg72
g0
(g73
g2
Ntp474
Rp475
(dp476
g77
Nsg78
g453
sg79
I00
sg80
I00
sg81
Nsbsg82
g0
(g83
g84
(g85
g86
tp477
tp478
Rp479
sg90
VGroupedCt
p480
sbag0
(g10
g2
Ntp481
Rp482
(dp483
g14
I00
sg15
g4
sg16
(lp484
(lp485
F23.0
aF22.9
aF22.8
aa(lp486
F18.2
aF18.2
aF18.4
aa(lp487
F19.7
aF19.8
aF20.0
aa(lp488
F26.7
aF27.1
aF27.2
aa(lp489
F26.8
aF26.7
aF26.2
aa(lp490
F30.0
aF30.1
aF29.4
aa(lp491
F19.9
aF19.9
aF20.0
aa(lp492
F21.9
aF22.1
aF21.8
aa(lp493
F23.9
aF23.5
aF24.3
aa(lp494
F22.2
aF21.7
aF21.8
aa(lp495
F23.9
aF23.4
aF23.6
aa(lp496
F24.6
aF24.6
aF24.3
aa(lp497
F29.9
aF30.4
aF29.9
aa(lp498
F23.2
aF23.8
aF23.5
aa(lp499
F26.4
aF26.4
aF26.2
aa(lp500
F24.8
aF25.0
aF24.6
aa(lp501
F18.9
aF18.8
aF18.8
aa(lp502
F20.5
aF20.5
aF20.3
aaNaNaNaNaNaNaNaNaNaNaNaNaNaNaNaNaNaNaNaNaNaNaNaNaNaNaNaNaNaNaNaNaNaNaNaNasg72
g0
(g73
g2
Ntp503
Rp504
(dp505
g77
Vif run:\u000a  StdFilteredGroupedCt = roundValues([filterExtremes(g, max_std, 2) for g in pruneNulls(GroupedCt)])
p506
sg78
g482
sg79
I00
sg80
I00
sg81
Vif run:\u000a  StdFilteredGroupedCt = roundValues([filterExtremes(g, max_std, 2) for g in pruneNulls(GroupedCt)])
p507
sbsg82
g0
(g83
g84
(g85
g86
tp508
tp509
Rp510
sg90
VStdFilteredGroupedCt
p511
sbag0
(g10
g2
Ntp512
Rp513
(dp514
g14
I00
sg15
g4
sg16
(lp515
F22.9
aF18.3
aF19.8
aF27.0
aF26.6
aF29.8
aF19.9
aF21.9
aF23.9
aF21.9
aF23.6
aF24.5
aF30.1
aF23.5
aF26.3
aF24.8
aF18.8
aF20.4
aFnan
aFnan
aFnan
aFnan
aFnan
aFnan
aFnan
aFnan
aFnan
aFnan
aFnan
aFnan
aFnan
aFnan
aFnan
aFnan
aFnan
aFnan
aFnan
aFnan
aFnan
aFnan
aFnan
aFnan
aFnan
aFnan
aFnan
aFnan
aFnan
aFnan
aFnan
aFnan
aFnan
aFnan
aFnan
aFnan
asg72
g0
(g73
g2
Ntp516
Rp517
(dp518
g77
Vif run:\u000a  MeanCt = [np.mean(g) for g in StdFilteredGroupedCt]\u000a  MeanCt = roundValues(MeanCt,1)\u000a  StdCt = [np.std(g, ddof=1) for g in StdFilteredGroupedCt]\u000a  StdCt = roundValues(StdCt,3)\u000as.setColumnVisibility(['Groups', 'GroupedEff', 'GroupedCt', 'StdFilteredGroupedCt', 'MeanCt', 'StdCt', 'UnfilteredEff'], is_visible=show_block1)
p519
sg78
g513
sg79
I00
sg80
I00
sg81
Vif run:\u000a  MeanCt = [np.mean(g) for g in StdFilteredGroupedCt]\u000a  MeanCt = roundValues(MeanCt,1)\u000a  StdCt = [np.std(g, ddof=1) for g in StdFilteredGroupedCt]\u000a  StdCt = roundValues(StdCt,3)\u000as.setColumnVisibility(['Groups', 'GroupedEff', 'GroupedCt', 'StdFilteredGroupedCt', 'MeanCt', 'StdCt', 'UnfilteredEff'], is_visible=show_block1)
p520
sbsg82
g0
(g83
g84
(g85
g86
tp521
tp522
Rp523
sg90
VMeanCt
p524
sbag0
(g10
g2
Ntp525
Rp526
(dp527
g14
I00
sg15
g4
sg16
(lp528
F0.1
aF0.115
aF0.153
aF0.265
aF0.321
aF0.379
aF0.058
aF0.153
aF0.4
aF0.265
aF0.252
aF0.173
aF0.289
aF0.3
aF0.115
aF0.2
aF0.058
aF0.115
aFnan
aFnan
aFnan
aFnan
aFnan
aFnan
aFnan
aFnan
aFnan
aFnan
aFnan
aFnan
aFnan
aFnan
aFnan
aFnan
aFnan
aFnan
aFnan
aFnan
aFnan
aFnan
aFnan
aFnan
aFnan
aFnan
aFnan
aFnan
aFnan
aFnan
aFnan
aFnan
aFnan
aFnan
aFnan
aFnan
asg72
g0
(g73
g2
Ntp529
Rp530
(dp531
g77
Nsg78
g526
sg79
I00
sg80
I00
sg81
Nsbsg82
g0
(g83
g84
(g85
g86
tp532
tp533
Rp534
sg90
VStdCt
p535
sbag0
(g10
g2
Ntp536
Rp537
(dp538
g14
I00
sg15
g4
sg16
(lp539
(lp540
g237
ag248
aa(lp541
g282
ag285
aa(lp542
g289
ag292
aa(lp543
g296
ag299
aa(lp544
g345
ag348
aa(lp545
g366
ag369
aaNaNaNaNaNaNaNaNaNaNaNaNaNaNaNaNaNaNaNaNaNaNaNaNaNaNaNaNaNaNaNaNaNaNaNaNaNaNaNaNaNaNaNaNaNaNaNaNasg72
g0
(g73
g2
Ntp546
Rp547
(dp548
g77
Vif run:\u000a  tabularize(s, 'Groups', 1, 'MeanCt', \u000a      new_category_colnm='BioRuns',\u000a      values_colnm_prefix='Gene_')\u000a  BioRuns = s.getColumnValues('BioRuns')\u000a  Gene_I = s.getColumnValues('Gene_I')\u000a  Gene_R1 = s.getColumnValues('Gene_R1')\u000a  Gene_R2 = s.getColumnValues('Gene_R2')\u000a 
p549
sg78
g537
sg79
I00
sg80
I00
sg81
Vif run:\u000a  tabularize(s, 'Groups', 1, 'MeanCt', \u000a      new_category_colnm='BioRuns',\u000a      values_colnm_prefix='Gene_')\u000a  BioRuns = s.getColumnValues('BioRuns')\u000a  Gene_I = s.getColumnValues('Gene_I')\u000a  Gene_R1 = s.getColumnValues('Gene_R1')\u000a  Gene_R2 = s.getColumnValues('Gene_R2')\u000a 
p550
sbsg82
g0
(g83
g84
(g85
g86
tp551
tp552
Rp553
sg90
VBioRuns
p554
sbag0
(g10
g2
Ntp555
Rp556
(dp557
g14
I00
sg15
g4
sg16
(lp558
F22.9
aF27.0
aF26.6
aF29.8
aF30.1
aF24.8
aFnan
aFnan
aFnan
aFnan
aFnan
aFnan
aFnan
aFnan
aFnan
aFnan
aFnan
aFnan
aFnan
aFnan
aFnan
aFnan
aFnan
aFnan
aFnan
aFnan
aFnan
aFnan
aFnan
aFnan
aFnan
aFnan
aFnan
aFnan
aFnan
aFnan
aFnan
aFnan
aFnan
aFnan
aFnan
aFnan
aFnan
aFnan
aFnan
aFnan
aFnan
aFnan
aFnan
aFnan
aFnan
aFnan
aFnan
aFnan
asg72
g0
(g73
g2
Ntp559
Rp560
(dp561
g77
Nsg78
g556
sg79
I00
sg80
I00
sg81
Nsbsg82
g0
(g83
g84
(g85
g86
tp562
tp563
Rp564
sg90
S'Gene_I'
p565
sbag0
(g10
g2
Ntp566
Rp567
(dp568
g14
I00
sg15
g4
sg16
(lp569
F18.3
aF19.9
aF21.9
aF23.9
aF23.5
aF18.8
aFnan
aFnan
aFnan
aFnan
aFnan
aFnan
aFnan
aFnan
aFnan
aFnan
aFnan
aFnan
aFnan
aFnan
aFnan
aFnan
aFnan
aFnan
aFnan
aFnan
aFnan
aFnan
aFnan
aFnan
aFnan
aFnan
aFnan
aFnan
aFnan
aFnan
aFnan
aFnan
aFnan
aFnan
aFnan
aFnan
aFnan
aFnan
aFnan
aFnan
aFnan
aFnan
aFnan
aFnan
aFnan
aFnan
aFnan
aFnan
asg72
g0
(g73
g2
Ntp570
Rp571
(dp572
g77
Nsg78
g567
sg79
I00
sg80
I00
sg81
Nsbsg82
g564
sg90
S'Gene_R1'
p573
sbag0
(g10
g2
Ntp574
Rp575
(dp576
g14
I00
sg15
g4
sg16
(lp577
F19.8
aF21.9
aF23.6
aF24.5
aF26.3
aF20.4
aFnan
aFnan
aFnan
aFnan
aFnan
aFnan
aFnan
aFnan
aFnan
aFnan
aFnan
aFnan
aFnan
aFnan
aFnan
aFnan
aFnan
aFnan
aFnan
aFnan
aFnan
aFnan
aFnan
aFnan
aFnan
aFnan
aFnan
aFnan
aFnan
aFnan
aFnan
aFnan
aFnan
aFnan
aFnan
aFnan
aFnan
aFnan
aFnan
aFnan
aFnan
aFnan
aFnan
aFnan
aFnan
aFnan
aFnan
aFnan
asg72
g0
(g73
g2
Ntp578
Rp579
(dp580
g77
Nsg78
g575
sg79
I00
sg80
I00
sg81
Nsbsg82
g564
sg90
S'Gene_R2'
p581
sbag0
(g10
g2
Ntp582
Rp583
(dp584
g14
I00
sg15
g4
sg16
(lp585
F0.04123
aF0.00729
aF0.03847
aF0.01675
aF0.01031
aF0.01563
aFnan
aFnan
aFnan
aFnan
aFnan
aFnan
aFnan
aFnan
aFnan
aFnan
aFnan
aFnan
aFnan
aFnan
aFnan
aFnan
aFnan
aFnan
aFnan
aFnan
aFnan
aFnan
aFnan
aFnan
aFnan
aFnan
aFnan
aFnan
aFnan
aFnan
aFnan
aFnan
aFnan
aFnan
aFnan
aFnan
aFnan
aFnan
aFnan
aFnan
aFnan
aFnan
aFnan
aFnan
aFnan
aFnan
aFnan
aFnan
asg72
g0
(g73
g2
Ntp586
Rp587
(dp588
g77
VExprR1 = roundValues(2**(Gene_R1 - Gene_I),5)
p589
sg78
g583
sg79
I01
sg80
I00
sg81
VroundValues(2**(Gene_R1 - Gene_I),5)
p590
sbsg82
g0
(g83
g84
(g85
g86
tp591
tp592
Rp593
sg90
VExprR1
p594
sbag0
(g10
g2
Ntp595
Rp596
(dp597
g14
I00
sg15
g4
sg16
(lp598
F0.11663
aF0.02916
aF0.125
aF0.02538
aF0.07179
aF0.04737
aFnan
aFnan
aFnan
aFnan
aFnan
aFnan
aFnan
aFnan
aFnan
aFnan
aFnan
aFnan
aFnan
aFnan
aFnan
aFnan
aFnan
aFnan
aFnan
aFnan
aFnan
aFnan
aFnan
aFnan
aFnan
aFnan
aFnan
aFnan
aFnan
aFnan
aFnan
aFnan
aFnan
aFnan
aFnan
aFnan
aFnan
aFnan
aFnan
aFnan
aFnan
aFnan
aFnan
aFnan
aFnan
aFnan
aFnan
aFnan
asg72
g0
(g73
g2
Ntp599
Rp600
(dp601
g77
VExprR2 = roundValues(2**(Gene_R2 - Gene_I),5)
p602
sg78
g596
sg79
I01
sg80
I00
sg81
VroundValues(2**(Gene_R2 - Gene_I),5)
p603
sbsg82
g0
(g83
g84
(g85
g86
tp604
tp605
Rp606
sg90
VExprR2
p607
sbag0
(g10
g2
Ntp608
Rp609
(dp610
g14
I00
sg15
g4
sg16
(lp611
F0.069
aF0.015
aF0.069
aF0.021
aF0.027
aF0.027
aFnan
aFnan
aFnan
aFnan
aFnan
aFnan
aFnan
aFnan
aFnan
aFnan
aFnan
aFnan
aFnan
aFnan
aFnan
aFnan
aFnan
aFnan
aFnan
aFnan
aFnan
aFnan
aFnan
aFnan
aFnan
aFnan
aFnan
aFnan
aFnan
aFnan
aFnan
aFnan
aFnan
aFnan
aFnan
aFnan
aFnan
aFnan
aFnan
aFnan
aFnan
aFnan
aFnan
aFnan
aFnan
aFnan
aFnan
aFnan
asg72
g0
(g73
g2
Ntp612
Rp613
(dp614
g77
Vif run:\u000a  GeoMean = roundValues(np.sqrt(ExprR1*ExprR2), 3)\u000as.setColumnVisibility(['BioRuns', 'Gene_I', 'Gene_R1', 'Gene_R2', 'ExprR1', 'ExprR2', 'GeoMean'], is_visible=show_block2)
p615
sg78
g609
sg79
I00
sg80
I00
sg81
Vif run:\u000a  GeoMean = roundValues(np.sqrt(ExprR1*ExprR2), 3)\u000as.setColumnVisibility(['BioRuns', 'Gene_I', 'Gene_R1', 'Gene_R2', 'ExprR1', 'ExprR2', 'GeoMean'], is_visible=show_block2)
p616
sbsg82
g0
(g83
g84
(g85
g86
tp617
tp618
Rp619
sg90
VGeoMean
p620
sbag0
(g10
g2
Ntp621
Rp622
(dp623
g14
I00
sg15
g4
sg16
(lp624
F0.0
aF1.0
aF2.0
aF3.0
aFnan
aFnan
aFnan
aFnan
aFnan
aFnan
aFnan
aFnan
aFnan
aFnan
aFnan
aFnan
aFnan
aFnan
aFnan
aFnan
aFnan
aFnan
aFnan
aFnan
aFnan
aFnan
aFnan
aFnan
aFnan
aFnan
aFnan
aFnan
aFnan
aFnan
aFnan
aFnan
aFnan
aFnan
aFnan
aFnan
aFnan
aFnan
aFnan
aFnan
aFnan
aFnan
aFnan
aFnan
aFnan
aFnan
aFnan
aFnan
aFnan
aFnan
asg72
g0
(g73
g2
Ntp625
Rp626
(dp627
g77
Vif run:\u000a  cat_vals = [br[0] for br in pruneNulls(BioRuns)]\u000a  clean_geo = pruneNulls(GeoMean)\u000a  GeoGroups, groupedGeoMeans = groupBy(cat_vals, clean_geo)\u000a  GroupedGeoMeans = roundValues(groupedGeoMeans, 3)
p628
sg78
g622
sg79
I00
sg80
I00
sg81
Vif run:\u000a  cat_vals = [br[0] for br in pruneNulls(BioRuns)]\u000a  clean_geo = pruneNulls(GeoMean)\u000a  GeoGroups, groupedGeoMeans = groupBy(cat_vals, clean_geo)\u000a  GroupedGeoMeans = roundValues(groupedGeoMeans, 3)
p629
sbsg82
g0
(g83
g84
(g85
g86
tp630
tp631
Rp632
sg90
VGeoGroups
p633
sbag0
(g10
g2
Ntp634
Rp635
(dp636
g14
I00
sg15
g4
sg16
(lp637
cnumpy.core.multiarray
_reconstruct
p638
(g85
(I0
tp639
S'b'
p640
tp641
Rp642
(I1
(I1
tp643
g229
(S'f8'
p644
I0
I1
tp645
Rp646
(I3
S'<'
p647
NNNI-1
I-1
I0
tp648
bI00
S'D\x8bl\xe7\xfb\xa9\xb1?'
p649
tp650
bag638
(g85
(I0
tp651
g640
tp652
Rp653
(I1
(I3
tp654
g646
I00
S'\xb8\x1e\x85\xebQ\xb8\x8e?D\x8bl\xe7\xfb\xa9\xb1?\x1b/\xdd$\x06\x81\x95?'
p655
tp656
bag638
(g85
(I0
tp657
g640
tp658
Rp659
(I1
(I1
tp660
g646
I00
S'\xd9\xce\xf7S\xe3\xa5\x9b?'
p661
tp662
bag638
(g85
(I0
tp663
g640
tp664
Rp665
(I1
(I1
tp666
g646
I00
S'\xd9\xce\xf7S\xe3\xa5\x9b?'
p667
tp668
baNaNaNaNaNaNaNaNaNaNaNaNaNaNaNaNaNaNaNaNaNaNaNaNaNaNaNaNaNaNaNaNaNaNaNaNaNaNaNaNaNaNaNaNaNaNaNaNaNaNasg72
g0
(g73
g2
Ntp669
Rp670
(dp671
g77
Nsg78
g635
sg79
I00
sg80
I00
sg81
Nsbsg82
g0
(g83
g84
(g85
g86
tp672
tp673
Rp674
sg90
VGroupedGeoMeans
p675
sbag0
(g10
g2
Ntp676
Rp677
(dp678
g14
I00
sg15
g4
sg16
(lp679
g638
(g85
(I0
tp680
g640
tp681
Rp682
(I1
(I1
tp683
g646
I00
S'\x00\x00\x00\x00\x00\x00\xf0?'
p684
tp685
bag638
(g85
(I0
tp686
g640
tp687
Rp688
(I1
(I3
tp689
g646
I00
S'-\xb2\x9d\xef\xa7\xc6\xcb?\x00\x00\x00\x00\x00\x00\xf0?\xdb\xf9~j\xbct\xd3?'
p690
tp691
bag638
(g85
(I0
tp692
g640
tp693
Rp694
(I1
(I1
tp695
g646
I00
S'\xa0\x1a/\xdd$\x06\xd9?'
p696
tp697
bag638
(g85
(I0
tp698
g640
tp699
Rp700
(I1
(I1
tp701
g646
I00
S'\xa0\x1a/\xdd$\x06\xd9?'
p702
tp703
baNaNaNaNaNaNaNaNaNaNaNaNaNaNaNaNaNaNaNaNaNaNaNaNaNaNaNaNaNaNaNaNaNaNaNaNaNaNaNaNaNaNaNaNaNaNaNaNaNaNasg72
g0
(g73
g2
Ntp704
Rp705
(dp706
g77
Vif run:\u000a  ref = np.mean(GroupedGeoMeans[0])\u000a  NrmlGeoGroupedMeans = []\u000a  truncated_group = [g for g in GroupedGeoMeans if g is not None]\u000a  for g in truncated_group:\u000a    new_g = [x/ref for x in g]\u000a    NrmlGeoGroupedMeans.append(new_g)\u000a  NrmlGeoGroupedMeans = roundValues(NrmlGeoGroupedMeans, 3)
p707
sg78
g677
sg79
I00
sg80
I00
sg81
Vif run:\u000a  ref = np.mean(GroupedGeoMeans[0])\u000a  NrmlGeoGroupedMeans = []\u000a  truncated_group = [g for g in GroupedGeoMeans if g is not None]\u000a  for g in truncated_group:\u000a    new_g = [x/ref for x in g]\u000a    NrmlGeoGroupedMeans.append(new_g)\u000a  NrmlGeoGroupedMeans = roundValues(NrmlGeoGroupedMeans, 3)
p708
sbsg82
g0
(g83
g84
(g85
g86
tp709
tp710
Rp711
sg90
VNrmlGeoGroupedMeans
p712
sbag0
(g10
g2
Ntp713
Rp714
(dp715
g14
I00
sg15
g4
sg16
(lp716
F1.0
aF0.507
aF0.391
aF0.391
aFnan
aFnan
aFnan
aFnan
aFnan
aFnan
aFnan
aFnan
aFnan
aFnan
aFnan
aFnan
aFnan
aFnan
aFnan
aFnan
aFnan
aFnan
aFnan
aFnan
aFnan
aFnan
aFnan
aFnan
aFnan
aFnan
aFnan
aFnan
aFnan
aFnan
aFnan
aFnan
aFnan
aFnan
aFnan
aFnan
aFnan
aFnan
aFnan
aFnan
aFnan
aFnan
aFnan
aFnan
aFnan
aFnan
aFnan
aFnan
aFnan
aFnan
asg72
g0
(g73
g2
Ntp717
Rp718
(dp719
g77
Vif run:\u000a  MeanNrmlGeoGroups = [round(np.mean(g), 3) for g in NrmlGeoGroupedMeans]
p720
sg78
g714
sg79
I00
sg80
I00
sg81
Vif run:\u000a  MeanNrmlGeoGroups = [round(np.mean(g), 3) for g in NrmlGeoGroupedMeans]
p721
sbsg82
g0
(g83
g84
(g85
g86
tp722
tp723
Rp724
sg90
VMeanNrmlGeoGroups
p725
sbag0
(g10
g2
Ntp726
Rp727
(dp728
g14
I00
sg15
g4
sg16
(lp729
Fnan
aF0.429
aFnan
aFnan
aFnan
aFnan
aFnan
aFnan
aFnan
aFnan
aFnan
aFnan
aFnan
aFnan
aFnan
aFnan
aFnan
aFnan
aFnan
aFnan
aFnan
aFnan
aFnan
aFnan
aFnan
aFnan
aFnan
aFnan
aFnan
aFnan
aFnan
aFnan
aFnan
aFnan
aFnan
aFnan
aFnan
aFnan
aFnan
aFnan
aFnan
aFnan
aFnan
aFnan
aFnan
aFnan
aFnan
aFnan
aFnan
aFnan
aFnan
aFnan
aFnan
aFnan
asg72
g0
(g73
g2
Ntp730
Rp731
(dp732
g77
Vif run:\u000a  StdNrmlGeoGroups = [round(np.std(g, ddof=1), 3) for g in NrmlGeoGroupedMeans]\u000as.setColumnVisibility(['GeoGroups', 'GroupedGeoMeans', 'NrmlGeoGroupedMeans', 'MeanNrmlGeoGroups', 'StdNrmlGeoGroups'], is_visible=show_block3)
p733
sg78
g727
sg79
I00
sg80
I00
sg81
Vif run:\u000a  StdNrmlGeoGroups = [round(np.std(g, ddof=1), 3) for g in NrmlGeoGroupedMeans]\u000as.setColumnVisibility(['GeoGroups', 'GroupedGeoMeans', 'NrmlGeoGroupedMeans', 'MeanNrmlGeoGroups', 'StdNrmlGeoGroups'], is_visible=show_block3)
p734
sbsg82
g0
(g83
g84
(g85
g86
tp735
tp736
Rp737
sg90
VStdNrmlGeoGroups
p738
sbag0
(g10
g2
Ntp739
Rp740
(dp741
g14
I00
sg15
g4
sg16
(lp742
I1
aI1
aI1
aI2
aI2
aI2
aI3
aI3
aI3
aI1
aI1
aI1
aI1
aI1
aI1
aI1
aI1
aI1
aI1
aI1
aI1
aI2
aI2
aI2
aI3
aI3
aI3
aI1
aI1
aI1
aI1
aI1
aI1
aI1
aI1
aI1
aI1
aI1
aI1
aI2
aI2
aI2
aI3
aI3
aI3
aI1
aI1
aI1
aI1
aI1
aI1
aI1
aI1
aI1
asg72
g0
(g73
g2
Ntp743
Rp744
(dp745
g77
Nsg78
g740
sg79
I00
sg80
I00
sg81
Nsbsg82
g0
(g83
g84
(g85
g86
tp746
tp747
Rp748
sg90
S'BRpl'
p749
sbag0
(g10
g2
Ntp750
Rp751
(dp752
g14
I00
sg15
g4
sg16
(lp753
F26.68
aF27.13
aF27.21
aF26.76
aF26.71
aF26.19
aF29.98
aF30.12
aF29.41
aF29.95
aF30.45
aF29.88
aF24.8
aF24.97
aF24.63
aF23.0
aF22.86
aF22.8
aF19.92
aF19.85
aF20.0
aF21.86
aF22.09
aF21.84
aF23.89
aF23.54
aF24.27
aF23.22
aF23.8
aF23.49
aF18.91
aF18.78
aF18.8
aF18.24
aF18.22
aF18.36
aF22.18
aF21.71
aF21.75
aF23.88
aF23.42
aF23.63
aF24.59
aF24.61
aF24.34
aF26.37
aF26.36
aF26.17
aF20.5
aF20.47
aF20.28
aF19.72
aF19.75
aF20.01
asg72
g0
(g73
g2
Ntp754
Rp755
(dp756
g77
Nsg78
g751
sg79
I00
sg80
I00
sg81
Nsbsg82
g748
sg90
S'Ct'
p757
sbag0
(g10
g2
Ntp758
Rp759
(dp760
g14
I00
sg15
g4
sg16
(lp761
F0.9399
aF0.8296
aF0.8361
aF0.8039
aF0.8399
aF0.7935
aF0.8264
aF0.7974
aF0.8252
aF0.8418
aF0.7959
aF0.8071
aF0.8513
aF0.8485
aF0.8401
aF0.8371
aF0.891
aF0.8956
aF0.9179
aF0.9783
aF0.8971
aF0.8957
aF0.8287
aF0.8387
aF0.8746
aF0.8493
aF0.8349
aF0.7701
aF0.8746
aF0.8139
aF0.8715
aF0.8977
aF0.856
aF0.8266
aF0.8343
aF0.8496
aF0.7857
aF0.8427
aF0.8637
aF0.8281
aF0.8203
aF0.8288
aF0.8138
aF0.8242
aF0.804
aF0.7795
aF0.7676
aF0.7947
aF0.8179
aF0.8173
aF0.7894
aF0.8157
aF0.8543
aF0.8208
asg72
g0
(g73
g2
Ntp762
Rp763
(dp764
g77
Nsg78
g759
sg79
I00
sg80
I00
sg81
Nsbsg82
g748
sg90
S'Eff'
p765
sbag0
(g10
g2
Ntp766
Rp767
(dp768
g14
I00
sg15
g4
sg16
(lp769
VI
p770
ag770
ag770
ag770
ag770
ag770
ag770
ag770
ag770
ag770
ag770
ag770
ag770
ag770
ag770
ag770
ag770
ag770
aVR1
p771
aVR1
p772
aVR1
p773
aVR1
p774
aVR1
p775
aVR1
p776
aVR1
p777
aVR1
p778
aVR1
p779
aVR1
p780
aVR1
p781
aVR1
p782
aVR1
p783
aVR1
p784
aVR1
p785
aVR1
p786
aVR1
p787
aVR1
p788
aVR2
p789
aVR2
p790
aVR2
p791
aVR2
p792
aVR2
p793
aVR2
p794
aVR2
p795
aVR2
p796
aVR2
p797
aVR2
p798
aVR2
p799
aVR2
p800
aVR2
p801
aVR2
p802
aVR2
p803
aVR2
p804
aVR2
p805
aVR2
p806
asg72
g0
(g73
g2
Ntp807
Rp808
(dp809
g77
Nsg78
g767
sg79
I00
sg80
I00
sg81
Nsbsg82
g748
sg90
S'RunType'
p810
sbag0
(g10
g2
Ntp811
Rp812
(dp813
g14
I00
sg15
g4
sg16
(lp814
VSEP1 2012 P17F4 a
p815
aVSEP1 2012 P17F4 b
p816
aVSEP1 2012 P17F4 c
p817
aVSEP1 2012 P17F5 a
p818
aVSEP1 2012 P17F5 b
p819
aVSEP1 2012 P17F5 c
p820
aVSEP1 2012 P1F3 SEP1a
p821
aVSEP1 2012 P1F3 SEP1b
p822
aVSEP1 2012 P1F3 SEP1c
p823
aVSEP1-2 2012 P11aF2 a
p824
aVSEP1-2 2012 P11aF2 b
p825
aVSEP1-2 2012 P11aF2 c
p826
aVSEP1-3 2012 P15F2 a
p827
aVSEP1-3 2012 P15F2 b
p828
aVSEP1-3 2012 P15F2 c
p829
aVuntreated 2012 P12F1 SEP1 1:2a
p830
aVuntreated 2012 P12F1 SEP1 1:2b
p831
aVuntreated 2012 P12F1 SEP1 1:2c
p832
aVSEP1 2012 P17F4 ACTa
p833
aVSEP1 2012 P17F4 ACTb
p834
aVSEP1 2012 P17F4 ACTc
p835
aVSEP1 2012 P17F5 ACTa
p836
aVSEP1 2012 P17F5 ACTb
p837
aVSEP1 2012 P17F5 ACTc
p838
aVSEP1 2012 P1F3 ACTa
p839
aVSEP1 2012 P1F3 ACTb
p840
aVSEP1 2012 P1F3 ACTc
p841
aVSEP1-2 2012 P11aF2 ACTa
p842
aVSEP1-2 2012 P11aF2 ACTb
p843
aVSEP1-2 2012 P11aF2 ACTc
p844
aVSEP1-3 2012 P15F2 ACTa
p845
aVSEP1-3 2012 P15F2 ACTb
p846
aVSEP1-3 2012 P15F2 ACTc
p847
aVuntreated 2012 P12F1 ACTa
p848
aVuntreated 2012 P12F1 ACTb
p849
aVuntreated 2012 P12F1 ACTc
p850
aVSEP1 2012 P17F4 EEF1a
p851
aVSEP1 2012 P17F4 EEF1b
p852
aVSEP1 2012 P17F4 EEF1c
p853
aVSEP1 2012 P17F5 EEF1a
p854
aVSEP1 2012 P17F5 EEF1b
p855
aVSEP1 2012 P17F5 EEF1c
p856
aVSEP1 2012 P1F3 EEF1a
p857
aVSEP1 2012 P1F3 EEF1b
p858
aVSEP1 2012 P1F3 EEF1c
p859
aVSEP1-2 2012 P11aF2 EEF1a
p860
aVSEP1-2 2012 P11aF2 EEF1b
p861
aVSEP1-2 2012 P11aF2 EEF1c
p862
aVSEP1-3 2012 P15F2 EEF1a
p863
aVSEP1-3 2012 P15F2 EEF1b
p864
aVSEP1-3 2012 P15F2 EEF1c
p865
aVuntreated 2012 P12F1 EEF1a
p866
aVuntreated 2012 P12F1 EEF1b
p867
aVuntreated 2012 P12F1 EEF1c
p868
asg72
g0
(g73
g2
Ntp869
Rp870
(dp871
g77
Nsg78
g812
sg79
I00
sg80
I00
sg81
Nsbsg82
g748
sg90
S'SmplName'
p872
sbag0
(g10
g2
Ntp873
Rp874
(dp875
g14
I00
sg15
g4
sg16
(lp876
Va
p877
aVb
p878
aVc
p879
ag877
ag878
ag879
ag877
ag878
ag879
ag877
ag878
ag879
ag877
ag878
ag879
ag877
ag878
ag879
ag877
ag878
ag879
ag877
ag878
ag879
ag877
ag878
ag879
ag877
ag878
ag879
ag877
ag878
ag879
ag877
ag878
ag879
ag877
ag878
ag879
ag877
ag878
ag879
ag877
ag878
ag879
ag877
ag878
ag879
ag877
ag878
ag879
ag877
ag878
ag879
asg72
g0
(g73
g2
Ntp880
Rp881
(dp882
g77
Nsg78
g874
sg79
I00
sg80
I00
sg81
Nsbsg82
g748
sg90
S'TRpl'
p883
sbag0
(g10
g2
Ntp884
Rp885
(dp886
g14
I00
sg15
g4
sg16
(lp887
I1
aI1
aI1
aI1
aI1
aI1
aI1
aI1
aI1
aI2
aI2
aI2
aI3
aI3
aI3
aI0
aI0
aI0
aI1
aI1
aI1
aI1
aI1
aI1
aI1
aI1
aI1
aI2
aI2
aI2
aI3
aI3
aI3
aI0
aI0
aI0
aI1
aI1
aI1
aI1
aI1
aI1
aI1
aI1
aI1
aI2
aI2
aI2
aI3
aI3
aI3
aI0
aI0
aI0
asg72
g0
(g73
g2
Ntp888
Rp889
(dp890
g77
Nsg78
g885
sg79
I00
sg80
I00
sg81
Nsbsg82
g748
sg90
S'Treatment'
p891
sbasS'_filepath'
p892
V/home/ubuntu/SciSheets/mysite/user/guest/tables/kristen_single_gene.pcl
p893
sg90
VSingleGene
p894
sb.