ccopy_reg
_reconstructor
p0
(cscisheets.ui.dt_table
DTTable
p1
c__builtin__
object
p2
Ntp3
Rp4
(dp5
S'_versioned_file'
p6
g0
(cmysite.helpers.versioned_file
VersionedFile
p7
g2
Ntp8
Rp9
(dp10
S'_redo_stack'
p11
g0
(cmysite.helpers.file_stack
FileStack
p12
g2
Ntp13
Rp14
(dp15
S'_dirpath'
p16
S'/home/ubuntu/SciSheets/mysite/user/guest/tables/backup'
p17
sS'_max_depth'
p18
I5
sS'_filename_pfx'
p19
Vkristen_single_gene.r
p20
sbsS'_max_versions'
p21
I5
sS'_undo_stack'
p22
g0
(g12
g2
Ntp23
Rp24
(dp25
g16
g17
sg18
I5
sg19
Vkristen_single_gene.u
p26
sbsS'_checkpoint_history'
p27
(lp28
VCell/Update
p29
aVCell/Update
p30
aVCell/Update
p31
aVCell/Update
p32
aVCell/Update
p33
aVCell/Update
p34
aVCell/Update
p35
aVCell/Update
p36
aVCell/Update
p37
aVCell/Update
p38
aVCell/Update
p39
aVCell/Update
p40
aVColumn/Formula
p41
aVColumn/Formula
p42
aVColumn/Append
p43
aVColumn/Formula
p44
aVColumn/Delete
p45
aVCell/Update
p46
aVColumn/Formula
p47
aVCell/Update
p48
aVCell/Update
p49
aVColumn/Formula
p50
aVColumn/Formula
p51
aVCell/Update
p52
aVColumn/Formula
p53
aVColumn/Formula
p54
aVCell/Update
p55
aVCell/Update
p56
aVCell/Update
p57
aVCell/Update
p58
aVColumn/Formula
p59
aVCell/Update
p60
aVCell/Update
p61
aVCell/Update
p62
aVColumn/Formula
p63
aVCell/Update
p64
aVColumn/Formula
p65
aVColumn/Formula
p66
aVCell/Update
p67
aVCell/Update
p68
aVCell/Update
p69
aVCell/Update
p70
aVCell/Update
p71
aVCell/Update
p72
aVCell/Update
p73
aVCell/Update
p74
aVCell/Update
p75
aVColumn/Formula
p76
aVCell/Update
p77
aVCell/Update
p78
aVCell/Update
p79
aVCell/Update
p80
aVCell/Update
p81
aVCell/Update
p82
aVCell/Update
p83
aVCell/Update
p84
aVCell/Update
p85
aVCell/Update
p86
aVCell/Update
p87
aVCell/Update
p88
aVColumn/Formula
p89
aVColumn/Formula
p90
aVColumn/Formula
p91
aVCell/Update
p92
aVCell/Update
p93
aVCell/Update
p94
aVCell/Update
p95
aVCell/Update
p96
aVColumn/Formula
p97
aVCell/Update
p98
aVCell/Update
p99
aVCell/Update
p100
aVCell/Update
p101
aVCell/Update
p102
aVCell/Update
p103
aVCell/Update
p104
aVColumn/Formula
p105
aVColumn/Formula
p106
aVColumn/Formula
p107
aVCell/Update
p108
aVCell/Update
p109
aVColumn/Formula
p110
aVCell/Update
p111
aVCell/Update
p112
aVCell/Update
p113
aVCell/Update
p114
aVCell/Update
p115
aVCell/Update
p116
aVCell/Update
p117
aVCell/Update
p118
aVColumn/Formula
p119
aVCell/Update
p120
aVColumn/Formula
p121
aVColumn/Formula
p122
aVColumn/Formula
p123
aVCell/Update
p124
aVCell/Update
p125
aVColumn/Formula
p126
aVColumn/Formula
p127
aVColumn/Formula
p128
aVColumn/Formula
p129
aVCell/Update
p130
aVColumn/Formula
p131
aVColumn/Formula
p132
aVColumn/Formula
p133
aVCell/Update
p134
aVCell/Update
p135
aVCell/Update
p136
aVCell/Update
p137
aVCell/Update
p138
aVCell/Update
p139
aVCell/Update
p140
aVCell/Update
p141
aVCell/Update
p142
aVCell/Update
p143
aVColumn/Formula
p144
aVColumn/Formula
p145
aVColumn/Formula
p146
aVColumn/Formula
p147
aVCell/Update
p148
aVCell/Update
p149
aVColumn/Formula
p150
aVCell/Update
p151
aVCell/Update
p152
aVCell/Update
p153
aVCell/Update
p154
aVCell/Update
p155
aVCell/Update
p156
aVCell/Update
p157
aVCell/Update
p158
aVCell/Update
p159
aVCell/Update
p160
aVCell/Update
p161
aVCell/Update
p162
aVCell/Update
p163
aVColumn/Formula
p164
aVColumn/Formula
p165
aVCell/Update
p166
aVCell/Update
p167
aVCell/Update
p168
aVColumn/Formula
p169
aVCell/Update
p170
aVCell/Update
p171
aVCell/Update
p172
aVCell/Update
p173
aVColumn/Formula
p174
aVColumn/Formula
p175
aVColumn/Formula
p176
aVColumn/Formula
p177
aVCell/Update
p178
aVColumn/Formula
p179
aVCell/Update
p180
aVCell/Update
p181
aVCell/Update
p182
aVCell/Update
p183
aVCell/Update
p184
aVCell/Update
p185
aVCell/Update
p186
aVCell/Update
p187
aVCell/Update
p188
aVColumn/Formula
p189
aVCell/Update
p190
aVCell/Update
p191
aVCell/Update
p192
aVCell/Update
p193
aVCell/Update
p194
aVCell/Update
p195
aVCell/Update
p196
aVCell/Update
p197
aVCell/Update
p198
aVCell/Update
p199
aVCell/Update
p200
aVCell/Update
p201
aVCell/Update
p202
aVCell/Update
p203
aVCell/Update
p204
aVCell/Update
p205
aVCell/Update
p206
aVCell/Update
p207
aVCell/Update
p208
aVCell/Update
p209
aVCell/Update
p210
aVCell/Update
p211
aVCell/Update
p212
aVCell/Update
p213
aVCell/Update
p214
aVCell/Update
p215
aVCell/Update
p216
aVCell/Update
p217
aVCell/Update
p218
aVCell/Update
p219
aVCell/Update
p220
aVCell/Update
p221
aVCell/Update
p222
aVCell/Update
p223
aVCell/Update
p224
aVCell/Update
p225
aVCell/Update
p226
aVCell/Update
p227
aVCell/Update
p228
aVCell/Update
p229
aVCell/Update
p230
aVCell/Update
p231
aVCell/Update
p232
aVCell/Update
p233
aVCell/Update
p234
aVCell/Update
p235
aVCell/Update
p236
aVCell/Update
p237
aVCell/Update
p238
aVCell/Update
p239
aVCell/Update
p240
aVCell/Update
p241
aVCell/Update
p242
aVCell/Update
p243
aVCell/Update
p244
aVCell/Update
p245
aVCell/Update
p246
aVCell/Update
p247
aVCell/Update
p248
aVCell/Update
p249
aVCell/Update
p250
aVCell/Update
p251
aVCell/Update
p252
aVCell/Update
p253
aVCell/Update
p254
aVCell/Update
p255
aVCell/Update
p256
aVCell/Update
p257
aVCell/Update
p258
aVCell/Update
p259
aVCell/Update
p260
aVCell/Update
p261
aVCell/Update
p262
aVCell/Update
p263
aVCell/Update
p264
aVCell/Update
p265
aVCell/Update
p266
aVCell/Update
p267
aVCell/Update
p268
aVCell/Update
p269
aVCell/Update
p270
aVCell/Update
p271
aVColumn/Formula
p272
aVColumn/Formula
p273
aVCell/Update
p274
aVCell/Update
p275
aVCell/Update
p276
aVCell/Update
p277
aVColumn/Formula
p278
aVColumn/Formula
p279
aVColumn/Formula
p280
aVCell/Update
p281
aVCell/Update
p282
aVCell/Update
p283
aVCell/Update
p284
aVColumn/Formula
p285
aVColumn/Formula
p286
aVColumn/Formula
p287
aVCell/Update
p288
aVCell/Update
p289
aVColumn/Formula
p290
aVCell/Update
p291
aVCell/Update
p292
aVCell/Update
p293
aVCell/Update
p294
aVCell/Update
p295
aVCell/Update
p296
aVColumn/Formula
p297
aVCell/Update
p298
aVColumn/Formula
p299
aVCell/Update
p300
aVCell/Update
p301
aVColumn/Formula
p302
aVColumn/Formula
p303
aVCell/Update
p304
aVCell/Update
p305
aVCell/Update
p306
aVCell/Update
p307
aVColumn/Formula
p308
aVColumn/Formula
p309
aVColumn/Formula
p310
aVColumn/Formula
p311
aVColumn/Formula
p312
aVCell/Update
p313
aVCell/Update
p314
aVColumn/Formula
p315
aVCell/Update
p316
aVColumn/Formula
p317
aVColumn/Formula
p318
aVCell/Update
p319
aVCell/Update
p320
aVCell/Update
p321
aVColumn/Formula
p322
aVColumn/Formula
p323
aVColumn/Formula
p324
aVCell/Update
p325
aVColumn/Formula
p326
aVCell/Update
p327
aVColumn/Formula
p328
aVColumn/Formula
p329
aVColumn/Formula
p330
aVColumn/Formula
p331
aVColumn/Formula
p332
aVColumn/Formula
p333
aVCell/Update
p334
aVColumn/Formula
p335
aVCell/Update
p336
aVCell/Update
p337
aVCell/Update
p338
aVColumn/Formula
p339
aVColumn/Formula
p340
aVColumn/Formula
p341
aVColumn/Formula
p342
aVColumn/Formula
p343
aVCell/Update
p344
aVCell/Update
p345
aVCell/Update
p346
aVColumn/Formula
p347
aVCell/Update
p348
aVCell/Update
p349
aVColumn/Formula
p350
asS'_filepath'
p351
V/home/ubuntu/SciSheets/mysite/user/guest/tables/kristen_single_gene.pcl
p352
sS'_backup_dir'
p353
g17
sbsS'_namespace'
p354
(dp355
sS'_hidden_columns'
p356
(lp357
g0
(cscisheets.core.column
Column
p358
g2
Ntp359
Rp360
(dp361
S'_asis'
p362
I00
sS'_owning_table'
p363
g4
sS'_cells'
p364
(lp365
(lp366
cnumpy.core.multiarray
scalar
p367
(cnumpy
dtype
p368
(S'f8'
p369
I0
I1
tp370
Rp371
(I3
S'<'
p372
NNNI-1
I-1
I0
tp373
bS'\x00\x00\x00\x00\x00\x00\x00\x00'
p374
tp375
Rp376
aVI
p377
ag367
(g371
S'\x00\x00\x00\x00\x00\x00\xf0?'
p378
tp379
Rp380
aa(lp381
g367
(g371
S'\x00\x00\x00\x00\x00\x00\x00\x00'
p382
tp383
Rp384
aVR1
p385
ag367
(g371
S'\x00\x00\x00\x00\x00\x00\xf0?'
p386
tp387
Rp388
aa(lp389
g367
(g371
S'\x00\x00\x00\x00\x00\x00\x00\x00'
p390
tp391
Rp392
aVR2
p393
ag367
(g371
S'\x00\x00\x00\x00\x00\x00\xf0?'
p394
tp395
Rp396
aa(lp397
g367
(g371
S'\x00\x00\x00\x00\x00\x00\xf0?'
p398
tp399
Rp400
ag377
ag367
(g371
S'\x00\x00\x00\x00\x00\x00\xf0?'
p401
tp402
Rp403
aa(lp404
g367
(g371
S'\x00\x00\x00\x00\x00\x00\xf0?'
p405
tp406
Rp407
ag377
ag367
(g371
S'\x00\x00\x00\x00\x00\x00\x00@'
p408
tp409
Rp410
aa(lp411
g367
(g371
S'\x00\x00\x00\x00\x00\x00\xf0?'
p412
tp413
Rp414
ag377
ag367
(g371
S'\x00\x00\x00\x00\x00\x00\x08@'
p415
tp416
Rp417
aa(lp418
g367
(g371
S'\x00\x00\x00\x00\x00\x00\xf0?'
p419
tp420
Rp421
ag385
ag367
(g371
S'\x00\x00\x00\x00\x00\x00\xf0?'
p422
tp423
Rp424
aa(lp425
g367
(g371
S'\x00\x00\x00\x00\x00\x00\xf0?'
p426
tp427
Rp428
ag385
ag367
(g371
S'\x00\x00\x00\x00\x00\x00\x00@'
p429
tp430
Rp431
aa(lp432
g367
(g371
S'\x00\x00\x00\x00\x00\x00\xf0?'
p433
tp434
Rp435
ag385
ag367
(g371
S'\x00\x00\x00\x00\x00\x00\x08@'
p436
tp437
Rp438
aa(lp439
g367
(g371
S'\x00\x00\x00\x00\x00\x00\xf0?'
p440
tp441
Rp442
ag393
ag367
(g371
S'\x00\x00\x00\x00\x00\x00\xf0?'
p443
tp444
Rp445
aa(lp446
g367
(g371
S'\x00\x00\x00\x00\x00\x00\xf0?'
p447
tp448
Rp449
ag393
ag367
(g371
S'\x00\x00\x00\x00\x00\x00\x00@'
p450
tp451
Rp452
aa(lp453
g367
(g371
S'\x00\x00\x00\x00\x00\x00\xf0?'
p454
tp455
Rp456
ag393
ag367
(g371
S'\x00\x00\x00\x00\x00\x00\x08@'
p457
tp458
Rp459
aa(lp460
g367
(g371
S'\x00\x00\x00\x00\x00\x00\x00@'
p461
tp462
Rp463
ag377
ag367
(g371
S'\x00\x00\x00\x00\x00\x00\xf0?'
p464
tp465
Rp466
aa(lp467
g367
(g371
S'\x00\x00\x00\x00\x00\x00\x00@'
p468
tp469
Rp470
ag385
ag367
(g371
S'\x00\x00\x00\x00\x00\x00\xf0?'
p471
tp472
Rp473
aa(lp474
g367
(g371
S'\x00\x00\x00\x00\x00\x00\x00@'
p475
tp476
Rp477
ag393
ag367
(g371
S'\x00\x00\x00\x00\x00\x00\xf0?'
p478
tp479
Rp480
aa(lp481
g367
(g371
S'\x00\x00\x00\x00\x00\x00\x08@'
p482
tp483
Rp484
ag377
ag367
(g371
S'\x00\x00\x00\x00\x00\x00\xf0?'
p485
tp486
Rp487
aa(lp488
g367
(g371
S'\x00\x00\x00\x00\x00\x00\x08@'
p489
tp490
Rp491
ag385
ag367
(g371
S'\x00\x00\x00\x00\x00\x00\xf0?'
p492
tp493
Rp494
aa(lp495
g367
(g371
S'\x00\x00\x00\x00\x00\x00\x08@'
p496
tp497
Rp498
ag393
ag367
(g371
S'\x00\x00\x00\x00\x00\x00\xf0?'
p499
tp500
Rp501
aaNaNaNaNaNaNaNaNaNaNaNaNaNaNaNaNaNaNaNaNaNaNaNaNaNaNaNaNaNaNaNaNaNaNaNaNaNaNaNaNaNaNaNaNaNaNasS'_formula_statement'
p502
g0
(cscisheets.core.helpers.formula_statement
FormulaStatement
p503
g2
Ntp504
Rp505
(dp506
S'_statement'
p507
Vsel = Eff > min_eff\u000agrouping_columns = [\u000a    Treatment[sel],\u000a     RunType[sel], \u000a    BRpl[sel],      \u000a  ]\u000aGroups, groupedCt = groupBy(\u000a     grouping_columns, Ct[sel])\u000aGroups, groupedEff = groupBy(\u000a     grouping_columns, Eff[sel])\u000aGroups = [[g[0], g[1], g[2]] for g in Groups]\u000aGroupedCt = roundValues(groupedCt,2)\u000aGroupedEff = roundValues(groupedEff,2)
p508
sS'_name'
p509
VGroups
p510
sS'_isExpression'
p511
I00
sS'_isStatement'
p512
I00
sS'_formula'
p513
Vsel = Eff > min_eff\u000agrouping_columns = [\u000a    Treatment[sel],\u000a     RunType[sel], \u000a    BRpl[sel],      \u000a  ]\u000aGroups, groupedCt = groupBy(\u000a     grouping_columns, Ct[sel])\u000aGroups, groupedEff = groupBy(\u000a     grouping_columns, Eff[sel])\u000aGroups = [[g[0], g[1], g[2]] for g in Groups]\u000aGroupedCt = roundValues(groupedCt,2)\u000aGroupedEff = roundValues(groupedEff,2)
p514
sbsS'_data_class'
p515
g0
(cscisheets.core.helpers.api_util
DataClass
p516
c__builtin__
tuple
p517
(cnumpy
ndarray
p518
cscisheets.core.helpers.api_util
makeArray
p519
tp520
tp521
Rp522
sg509
g510
sbag0
(g358
g2
Ntp523
Rp524
(dp525
g362
I00
sg363
g4
sg364
(lp526
(lp527
F0.92
aF0.91
aF0.91
aa(lp528
F0.83
aF0.83
aF0.85
aa(lp529
F0.82
aF0.85
aF0.82
aa(lp530
F0.85
aF0.84
aF0.85
aa(lp531
F0.87
aF0.78
aF0.85
aa(lp532
F0.84
aF0.84
aF0.77
aa(lp533
F0.92
aF0.98
aF0.9
aa(lp534
F0.9
aF0.83
aF0.84
aa(lp535
F0.87
aF0.85
aF0.83
aa(lp536
F0.79
aF0.84
aF0.86
aa(lp537
F0.83
aF0.82
aF0.83
aa(lp538
F0.81
aF0.82
aF0.8
aa(lp539
F0.84
aF0.79
aF0.81
aa(lp540
F0.77
aF0.87
aF0.81
aa(lp541
F0.78
aF0.77
aF0.79
aa(lp542
F0.88
aF0.86
aF0.89
aa(lp543
F0.87
aF0.9
aF0.86
aa(lp544
F0.82
aF0.82
aF0.79
aaNaNaNaNaNaNaNaNaNaNaNaNaNaNaNaNaNaNaNaNaNaNaNaNaNaNaNaNaNaNaNaNaNaNaNaNaNaNaNaNaNaNaNaNaNaNasg502
g0
(g503
g2
Ntp545
Rp546
(dp547
g507
NsS'_column'
p548
g524
sg511
I00
sg512
I00
sg513
Nsbsg515
g0
(g516
g517
(g518
g519
tp549
tp550
Rp551
sg509
VGroupedEff
p552
sbag0
(g358
g2
Ntp553
Rp554
(dp555
g362
I00
sg363
g4
sg364
(lp556
(lp557
F18.31
aF18.29
aF18.15
aa(lp558
F18.24
aF18.22
aF18.36
aa(lp559
F19.72
aF19.75
aF20.01
aa(lp560
F22.42
aF22.5
aF22.44
aa(lp561
F21.92
aF22.03
aF21.94
aa(lp562
F23.4
aF23.47
aF23.41
aa(lp563
F19.92
aF19.85
aF20.0
aa(lp564
F21.86
aF22.09
aF21.84
aa(lp565
F23.89
aF23.54
aF24.27
aa(lp566
F22.18
aF21.71
aF21.75
aa(lp567
F23.88
aF23.42
aF23.63
aa(lp568
F24.59
aF24.61
aF24.34
aa(lp569
F23.48
aF23.31
aF23.45
aa(lp570
F23.22
aF23.8
aF23.49
aa(lp571
F26.37
aF26.36
aF26.17
aa(lp572
F18.82
aF18.97
aF18.92
aa(lp573
F18.91
aF18.78
aF18.8
aa(lp574
F20.5
aF20.47
aF20.28
aaNaNaNaNaNaNaNaNaNaNaNaNaNaNaNaNaNaNaNaNaNaNaNaNaNaNaNaNaNaNaNaNaNaNaNaNaNaNaNaNaNaNaNaNaNaNasg502
g0
(g503
g2
Ntp575
Rp576
(dp577
g507
Nsg548
g554
sg511
I00
sg512
I00
sg513
Nsbsg515
g0
(g516
g517
(g518
g519
tp578
tp579
Rp580
sg509
VGroupedCt
p581
sbag0
(g358
g2
Ntp582
Rp583
(dp584
g362
I00
sg363
g4
sg364
(lp585
(lp586
F18.3
aF18.3
aF18.1
aa(lp587
F18.2
aF18.2
aF18.4
aa(lp588
F19.7
aF19.8
aF20.0
aa(lp589
F22.4
aF22.5
aF22.4
aa(lp590
F21.9
aF22.0
aF21.9
aa(lp591
F23.4
aF23.5
aF23.4
aa(lp592
F19.9
aF19.9
aF20.0
aa(lp593
F21.9
aF22.1
aF21.8
aa(lp594
F23.9
aF23.5
aF24.3
aa(lp595
F22.2
aF21.7
aF21.8
aa(lp596
F23.9
aF23.4
aF23.6
aa(lp597
F24.6
aF24.6
aF24.3
aa(lp598
F23.5
aF23.3
aF23.4
aa(lp599
F23.2
aF23.8
aF23.5
aa(lp600
F26.4
aF26.4
aF26.2
aa(lp601
F18.8
aF19.0
aF18.9
aa(lp602
F18.9
aF18.8
aF18.8
aa(lp603
F20.5
aF20.5
aF20.3
aaNaNaNaNaNaNaNaNaNaNaNaNaNaNaNaNaNaNaNaNaNaNaNaNaNaNaNaNaNaNaNaNaNaNaNaNaNaNaNaNaNaNaNaNaNaNasg502
g0
(g503
g2
Ntp604
Rp605
(dp606
g507
Vlength = len(Groups)\u000aStdFilteredGroupedCt = roundValues([filterExtremes(g, max_std, 2) for g in pruneNulls(GroupedCt)])\u000a 
p607
sg509
VStdFilteredGroupedCt
p608
sg511
I00
sg512
I00
sg513
Vlength = len(Groups)\u000aStdFilteredGroupedCt = roundValues([filterExtremes(g, max_std, 2) for g in pruneNulls(GroupedCt)])\u000a 
p609
sbsg515
g0
(g516
g517
(g518
g519
tp610
tp611
Rp612
sg509
g608
sbag0
(g358
g2
Ntp613
Rp614
(dp615
g362
I00
sg363
g4
sg364
(lp616
F18.2
aF18.3
aF19.8
aF22.4
aF21.9
aF23.4
aF19.9
aF21.9
aF23.9
aF21.9
aF23.6
aF24.5
aF23.4
aF23.5
aF26.3
aF18.9
aF18.8
aF20.4
aFnan
aFnan
aFnan
aFnan
aFnan
aFnan
aFnan
aFnan
aFnan
aFnan
aFnan
aFnan
aFnan
aFnan
aFnan
aFnan
aFnan
aFnan
aFnan
aFnan
aFnan
aFnan
aFnan
aFnan
aFnan
aFnan
aFnan
aFnan
aFnan
aFnan
aFnan
aFnan
aFnan
aFnan
aFnan
aFnan
aFnan
aFnan
aFnan
aFnan
aFnan
aFnan
aFnan
aFnan
aFnan
aFnan
asg502
g0
(g503
g2
Ntp617
Rp618
(dp619
g507
VMeanCt = [np.mean(g) for g in StdFilteredGroupedCt]\u000aMeanCt = roundValues(MeanCt,1)\u000aStdCt = [np.std(g, ddof=1) for g in StdFilteredGroupedCt]\u000aStdCt = roundValues(StdCt,3)
p620
sg509
VMeanCt
p621
sg511
I00
sg512
I00
sg513
VMeanCt = [np.mean(g) for g in StdFilteredGroupedCt]\u000aMeanCt = roundValues(MeanCt,1)\u000aStdCt = [np.std(g, ddof=1) for g in StdFilteredGroupedCt]\u000aStdCt = roundValues(StdCt,3)
p622
sbsg515
g0
(g516
g517
(g518
g519
tp623
tp624
Rp625
sg509
g621
sbag0
(g358
g2
Ntp626
Rp627
(dp628
g362
I00
sg363
g4
sg364
(lp629
F0.115
aF0.115
aF0.153
aF0.058
aF0.058
aF0.058
aF0.058
aF0.153
aF0.4
aF0.265
aF0.252
aF0.173
aF0.1
aF0.3
aF0.115
aF0.1
aF0.058
aF0.115
aFnan
aFnan
aFnan
aFnan
aFnan
aFnan
aFnan
aFnan
aFnan
aFnan
aFnan
aFnan
aFnan
aFnan
aFnan
aFnan
aFnan
aFnan
aFnan
aFnan
aFnan
aFnan
aFnan
aFnan
aFnan
aFnan
aFnan
aFnan
aFnan
aFnan
aFnan
aFnan
aFnan
aFnan
aFnan
aFnan
aFnan
aFnan
aFnan
aFnan
aFnan
aFnan
aFnan
aFnan
aFnan
aFnan
asg502
g0
(g503
g2
Ntp630
Rp631
(dp632
g507
Nsg548
g627
sg511
I00
sg512
I00
sg513
Nsbsg515
g0
(g516
g517
(g518
g519
tp633
tp634
Rp635
sg509
VStdCt
p636
sbag0
(g358
g2
Ntp637
Rp638
(dp639
g362
I00
sg363
g4
sg364
(lp640
(lp641
g367
(g371
S'\x00\x00\x00\x00\x00\x00\x00\x00'
p642
tp643
Rp644
ag367
(g371
S'\x00\x00\x00\x00\x00\x00\xf0?'
p645
tp646
Rp647
aa(lp648
g367
(g371
S'\x00\x00\x00\x00\x00\x00\xf0?'
p649
tp650
Rp651
ag367
(g371
S'\x00\x00\x00\x00\x00\x00\xf0?'
p652
tp653
Rp654
aa(lp655
g367
(g371
S'\x00\x00\x00\x00\x00\x00\xf0?'
p656
tp657
Rp658
ag367
(g371
S'\x00\x00\x00\x00\x00\x00\x00@'
p659
tp660
Rp661
aa(lp662
g367
(g371
S'\x00\x00\x00\x00\x00\x00\xf0?'
p663
tp664
Rp665
ag367
(g371
S'\x00\x00\x00\x00\x00\x00\x08@'
p666
tp667
Rp668
aa(lp669
g367
(g371
S'\x00\x00\x00\x00\x00\x00\x00@'
p670
tp671
Rp672
ag367
(g371
S'\x00\x00\x00\x00\x00\x00\xf0?'
p673
tp674
Rp675
aa(lp676
g367
(g371
S'\x00\x00\x00\x00\x00\x00\x08@'
p677
tp678
Rp679
ag367
(g371
S'\x00\x00\x00\x00\x00\x00\xf0?'
p680
tp681
Rp682
aaNaNaNaNaNaNaNaNaNaNaNaNaNaNaNaNaNaNaNaNaNaNaNaNaNaNaNaNaNaNaNaNaNaNaNaNaNaNaNaNaNaNaNaNaNaNaNaNaNaNaNaNaNaNaNaNaNaNasg502
g0
(g503
g2
Ntp683
Rp684
(dp685
g507
Vdummy = tabularize(s, 'Groups', 1, 'MeanCt', \u000a          new_category_colnm='BioRuns',\u000a          values_colnm_prefix='Gene_')
p686
sg509
VBioRuns
p687
sg511
I00
sg512
I00
sg513
Vdummy = tabularize(s, 'Groups', 1, 'MeanCt', \u000a          new_category_colnm='BioRuns',\u000a          values_colnm_prefix='Gene_')
p688
sbsg515
g0
(g516
g517
(g518
g519
tp689
tp690
Rp691
sg509
g687
sbag0
(g358
g2
Ntp692
Rp693
(dp694
g362
I00
sg363
g4
sg364
(lp695
F18.2
aF22.4
aF21.9
aF23.4
aF23.4
aF18.9
aFnan
aFnan
aFnan
aFnan
aFnan
aFnan
aFnan
aFnan
aFnan
aFnan
aFnan
aFnan
aFnan
aFnan
aFnan
aFnan
aFnan
aFnan
aFnan
aFnan
aFnan
aFnan
aFnan
aFnan
aFnan
aFnan
aFnan
aFnan
aFnan
aFnan
aFnan
aFnan
aFnan
aFnan
aFnan
aFnan
aFnan
aFnan
aFnan
aFnan
aFnan
aFnan
aFnan
aFnan
aFnan
aFnan
aFnan
aFnan
aFnan
aFnan
aFnan
aFnan
aFnan
aFnan
aFnan
aFnan
aFnan
aFnan
asg502
g0
(g503
g2
Ntp696
Rp697
(dp698
g507
Nsg548
g693
sg511
I00
sg512
I00
sg513
Nsbsg515
g0
(g516
g517
(g518
g519
tp699
tp700
Rp701
sg509
S'Gene_I'
p702
sbag0
(g358
g2
Ntp703
Rp704
(dp705
g362
I00
sg363
g4
sg364
(lp706
F18.3
aF19.9
aF21.9
aF23.9
aF23.5
aF18.8
aFnan
aFnan
aFnan
aFnan
aFnan
aFnan
aFnan
aFnan
aFnan
aFnan
aFnan
aFnan
aFnan
aFnan
aFnan
aFnan
aFnan
aFnan
aFnan
aFnan
aFnan
aFnan
aFnan
aFnan
aFnan
aFnan
aFnan
aFnan
aFnan
aFnan
aFnan
aFnan
aFnan
aFnan
aFnan
aFnan
aFnan
aFnan
aFnan
aFnan
aFnan
aFnan
aFnan
aFnan
aFnan
aFnan
aFnan
aFnan
aFnan
aFnan
aFnan
aFnan
aFnan
aFnan
aFnan
aFnan
aFnan
aFnan
asg502
g0
(g503
g2
Ntp707
Rp708
(dp709
g507
Nsg548
g704
sg511
I00
sg512
I00
sg513
Nsbsg515
g701
sg509
S'Gene_R1'
p710
sbag0
(g358
g2
Ntp711
Rp712
(dp713
g362
I00
sg363
g4
sg364
(lp714
F19.8
aF21.9
aF23.6
aF24.5
aF26.3
aF20.4
aFnan
aFnan
aFnan
aFnan
aFnan
aFnan
aFnan
aFnan
aFnan
aFnan
aFnan
aFnan
aFnan
aFnan
aFnan
aFnan
aFnan
aFnan
aFnan
aFnan
aFnan
aFnan
aFnan
aFnan
aFnan
aFnan
aFnan
aFnan
aFnan
aFnan
aFnan
aFnan
aFnan
aFnan
aFnan
aFnan
aFnan
aFnan
aFnan
aFnan
aFnan
aFnan
aFnan
aFnan
aFnan
aFnan
aFnan
aFnan
aFnan
aFnan
aFnan
aFnan
aFnan
aFnan
aFnan
aFnan
aFnan
aFnan
asg502
g0
(g503
g2
Ntp715
Rp716
(dp717
g507
Nsg548
g712
sg511
I00
sg512
I00
sg513
Nsbsg515
g701
sg509
S'Gene_R2'
p718
sbag0
(g358
g2
Ntp719
Rp720
(dp721
g362
I00
sg363
g4
sg364
(lp722
F1.07177
aF0.17678
aF1.0
aF1.41421
aF1.07177
aF0.93303
aFnan
aFnan
aFnan
aFnan
aFnan
aFnan
aFnan
aFnan
aFnan
aFnan
aFnan
aFnan
aFnan
aFnan
aFnan
aFnan
aFnan
aFnan
aFnan
aFnan
aFnan
aFnan
aFnan
aFnan
aFnan
aFnan
aFnan
aFnan
aFnan
aFnan
aFnan
aFnan
aFnan
aFnan
aFnan
aFnan
aFnan
aFnan
aFnan
aFnan
aFnan
aFnan
aFnan
aFnan
aFnan
aFnan
aFnan
aFnan
aFnan
aFnan
aFnan
aFnan
aFnan
aFnan
aFnan
aFnan
aFnan
aFnan
asg502
g0
(g503
g2
Ntp723
Rp724
(dp725
g507
VExprR1 = roundValues(2**(Gene_R1 - Gene_I),5)
p726
sg509
VExprR1
p727
sg511
I01
sg512
I00
sg513
VroundValues(2**(Gene_R1 - Gene_I),5)
p728
sbsg515
g0
(g516
g517
(g518
g519
tp729
tp730
Rp731
sg509
g727
sbag0
(g358
g2
Ntp732
Rp733
(dp734
g362
I00
sg363
g4
sg364
(lp735
F3.03143
aF0.70711
aF3.24901
aF2.14355
aF7.46426
aF2.82843
aFnan
aFnan
aFnan
aFnan
aFnan
aFnan
aFnan
aFnan
aFnan
aFnan
aFnan
aFnan
aFnan
aFnan
aFnan
aFnan
aFnan
aFnan
aFnan
aFnan
aFnan
aFnan
aFnan
aFnan
aFnan
aFnan
aFnan
aFnan
aFnan
aFnan
aFnan
aFnan
aFnan
aFnan
aFnan
aFnan
aFnan
aFnan
aFnan
aFnan
aFnan
aFnan
aFnan
aFnan
aFnan
aFnan
aFnan
aFnan
aFnan
aFnan
aFnan
aFnan
aFnan
aFnan
aFnan
aFnan
aFnan
aFnan
asg502
g0
(g503
g2
Ntp736
Rp737
(dp738
g507
VExprR2 = roundValues(2**(Gene_R2 - Gene_I),5)
p739
sg509
VExprR2
p740
sg511
I01
sg512
I00
sg513
VroundValues(2**(Gene_R2 - Gene_I),5)
p741
sbsg515
g0
(g516
g517
(g518
g519
tp742
tp743
Rp744
sg509
g740
sbag0
(g358
g2
Ntp745
Rp746
(dp747
g362
I00
sg363
g4
sg364
(lp748
F1.802
aF0.354
aF1.803
aF1.741
aF2.828
aF1.625
aFnan
aFnan
aFnan
aFnan
aFnan
aFnan
aFnan
aFnan
aFnan
aFnan
aFnan
aFnan
aFnan
aFnan
aFnan
aFnan
aFnan
aFnan
aFnan
aFnan
aFnan
aFnan
aFnan
aFnan
aFnan
aFnan
aFnan
aFnan
aFnan
aFnan
aFnan
aFnan
aFnan
aFnan
aFnan
aFnan
aFnan
aFnan
aFnan
aFnan
aFnan
aFnan
aFnan
aFnan
aFnan
aFnan
aFnan
aFnan
aFnan
aFnan
aFnan
aFnan
aFnan
aFnan
aFnan
aFnan
aFnan
aFnan
asg502
g0
(g503
g2
Ntp749
Rp750
(dp751
g507
VGeoMean = roundValues(np.sqrt(ExprR1*ExprR2), 3)
p752
sg509
VGeoMean
p753
sg511
I01
sg512
I00
sg513
VroundValues(np.sqrt(ExprR1*ExprR2), 3)
p754
sbsg515
g0
(g516
g517
(g518
g519
tp755
tp756
Rp757
sg509
g753
sbasS'_is_evaluate_formulas'
p758
I00
sS'_prologue'
p759
g0
(g503
g2
Ntp760
Rp761
(dp762
g507
V# Prologue\u000aimport math as mt\u000aimport numpy as np\u000afrom os import listdir\u000afrom os.path import isfile, join\u000aimport pandas as pd\u000aimport scipy as sp\u000afrom numpy import nan  # Must follow sympy import \u000a\u000axlsx_path =   '/mnt/hgfs/josephhellerstein/home/Technical/SciSheets/CaseStudies/Kristen/workbooks/data.xlsx'\u000agene = ParmValues[0]\u000arun = ParmValues[1] == 'True'\u000ashow_raw = ParmValues[2] == 'True'\u000ashow_block1 = ParmValues[3] == 'True'\u000ashow_block2 = ParmValues[4] == 'True'\u000ashow_block3 = ParmValues[5] == 'True'\u000ashow_params = ParmValues[8] == 'True'\u000a#show_params = True\u000amax_std  = float(ParmValues[6])\u000amin_eff = float(ParmValues[7])\u000aworksheet = gene + "-I"\u000as.getTable().setIsEvaluateFormulas(run)\u000as.setColumnVisibility()\u000as.setColumnVisibility(['Groups', 'GroupedEff', 'GroupedCt', 'StdFilteredGroupedCt', 'MeanCt',\u000a    'StdCt'], is_visible=show_block1)\u000as.setColumnVisibility(['BioRuns', 'Gene_I', 'Gene_R1', 'Gene_R2', 'ExprR1', 'ExprR2', \u000a    'GeoMean'], is_visible=show_block2)\u000as.setColumnVisibility(['GeoGroups', 'GroupedGeoMeans', 'NrmlGeoGroupedMeans', \u000a    'MeanNrmlGeoGroups', 'StdNrmlGeoGroups'], is_visible=show_block3)\u000aif run:\u000a  Groups = []\u000a  GroupedCt = []\u000a  GroupedEff = []\u000a  MeanCt = []\u000a  Imp = []\u000a  s.deleteColumn('Ct')\u000a  s.deleteColumn('RunType')\u000a  s.deleteColumn('BRpl')\u000a  s.deleteColumn('TRpl')\u000a  s.deleteColumn('Treatment')\u000a  s.deleteColumn('Eff')\u000aif run:\u000a  importExcelToTable(s, xlsx_path, worksheet=worksheet,\u000a      column_position='ParmValues',\u000a      names=['Treatment', 'RunType', 'BRpl', 'TRpl', 'Eff', 'Ct'])\u000a#s.setColumnVisibility(['BRpl', 'Ct', 'Eff', 'RunType', 'TRpl', 'Treatment'], is_visible=show_raw)\u000a#s.setColumnVisibility(['ParmNames', 'ParmValues'], show_params)
p763
sg509
VSingleGene
p764
sg511
I00
sg512
I00
sg513
V# Prologue\u000aimport math as mt\u000aimport numpy as np\u000afrom os import listdir\u000afrom os.path import isfile, join\u000aimport pandas as pd\u000aimport scipy as sp\u000afrom numpy import nan  # Must follow sympy import \u000a\u000axlsx_path =   '/mnt/hgfs/josephhellerstein/home/Technical/SciSheets/CaseStudies/Kristen/workbooks/data.xlsx'\u000agene = ParmValues[0]\u000arun = ParmValues[1] == 'True'\u000ashow_raw = ParmValues[2] == 'True'\u000ashow_block1 = ParmValues[3] == 'True'\u000ashow_block2 = ParmValues[4] == 'True'\u000ashow_block3 = ParmValues[5] == 'True'\u000ashow_params = ParmValues[8] == 'True'\u000a#show_params = True\u000amax_std  = float(ParmValues[6])\u000amin_eff = float(ParmValues[7])\u000aworksheet = gene + "-I"\u000as.getTable().setIsEvaluateFormulas(run)\u000as.setColumnVisibility()\u000as.setColumnVisibility(['Groups', 'GroupedEff', 'GroupedCt', 'StdFilteredGroupedCt', 'MeanCt',\u000a    'StdCt'], is_visible=show_block1)\u000as.setColumnVisibility(['BioRuns', 'Gene_I', 'Gene_R1', 'Gene_R2', 'ExprR1', 'ExprR2', \u000a    'GeoMean'], is_visible=show_block2)\u000as.setColumnVisibility(['GeoGroups', 'GroupedGeoMeans', 'NrmlGeoGroupedMeans', \u000a    'MeanNrmlGeoGroups', 'StdNrmlGeoGroups'], is_visible=show_block3)\u000aif run:\u000a  Groups = []\u000a  GroupedCt = []\u000a  GroupedEff = []\u000a  MeanCt = []\u000a  Imp = []\u000a  s.deleteColumn('Ct')\u000a  s.deleteColumn('RunType')\u000a  s.deleteColumn('BRpl')\u000a  s.deleteColumn('TRpl')\u000a  s.deleteColumn('Treatment')\u000a  s.deleteColumn('Eff')\u000aif run:\u000a  importExcelToTable(s, xlsx_path, worksheet=worksheet,\u000a      column_position='ParmValues',\u000a      names=['Treatment', 'RunType', 'BRpl', 'TRpl', 'Eff', 'Ct'])\u000a#s.setColumnVisibility(['BRpl', 'Ct', 'Eff', 'RunType', 'TRpl', 'Treatment'], is_visible=show_raw)\u000a#s.setColumnVisibility(['ParmNames', 'ParmValues'], show_params)
p765
sbsS'_epilogue'
p766
g0
(g503
g2
Ntp767
Rp768
(dp769
g507
V# Epilogue\u000aif run:\u000a  worksheet = "%s-O" % gene\u000a  exportTableToExcel(s, xlsx_path, worksheet=worksheet, columns=['GeoGroups',  \u000a      'MeanNrmlGeoGroups', 'StdNrmlGeoGroups'])\u000a
p770
sg509
g764
sg511
I00
sg512
I00
sg513
V# Epilogue\u000aif run:\u000a  worksheet = "%s-O" % gene\u000a  exportTableToExcel(s, xlsx_path, worksheet=worksheet, columns=['GeoGroups',  \u000a      'MeanNrmlGeoGroups', 'StdNrmlGeoGroups'])\u000a
p771
sbsg509
g764
sS'_columns'
p772
(lp773
g0
(g358
g2
Ntp774
Rp775
(dp776
g362
I01
sg363
g4
sg364
(lp777
S'1'
p778
aS'2'
p779
aS'3'
p780
aS'4'
p781
aS'5'
p782
aS'6'
p783
aS'7'
p784
aS'8'
p785
aS'9'
p786
aS'10'
p787
aS'11'
p788
aS'12'
p789
aS'13'
p790
aS'14'
p791
aS'15'
p792
aS'16'
p793
aS'17'
p794
aS'18'
p795
aS'19'
p796
aS'20'
p797
aS'21'
p798
aS'22'
p799
aS'23'
p800
aS'24'
p801
aS'25'
p802
aS'26'
p803
aS'27'
p804
aS'28'
p805
aS'29'
p806
aS'30'
p807
aS'31'
p808
aS'32'
p809
aS'33'
p810
aS'34'
p811
aS'35'
p812
aS'36'
p813
aS'37'
p814
aS'38'
p815
aS'39'
p816
aS'40'
p817
aS'41'
p818
aS'42'
p819
aS'43'
p820
aS'44'
p821
aS'45'
p822
aS'46'
p823
aS'47'
p824
aS'48'
p825
aS'49'
p826
aS'50'
p827
aS'51'
p828
aS'52'
p829
aS'53'
p830
aS'54'
p831
aS'55'
p832
aS'56'
p833
aS'57'
p834
aS'58'
p835
aS'59'
p836
aS'60'
p837
aS'61'
p838
aS'62'
p839
aS'63'
p840
aS'64'
p841
asg502
g0
(g503
g2
Ntp842
Rp843
(dp844
g507
Nsg548
g775
sg511
I00
sg512
I00
sg513
Nsbsg515
g0
(g516
g517
(g518
g519
tp845
tp846
Rp847
sg509
S'row'
p848
sbag0
(g358
g2
Ntp849
Rp850
(dp851
g362
I00
sg363
g4
sg364
(lp852
Vgene
p853
aVrun
p854
aVshow_raw
p855
aVshow_block1
p856
aVshow_block2
p857
aVshow_block3
p858
aVmax_std
p859
aVmin_eff
p860
aVshow_params
p861
aVnan
p862
aVnan
p863
aVnan
p864
aVnan
p865
aVnan
p866
aVnan
p867
aVnan
p868
aVnan
p869
aVnan
p870
aVnan
p871
aVnan
p872
aVnan
p873
aVnan
p874
aVnan
p875
aVnan
p876
aVnan
p877
aVnan
p878
aVnan
p879
aVnan
p880
aVnan
p881
aVnan
p882
aVnan
p883
aVnan
p884
aVnan
p885
aVnan
p886
aVnan
p887
aVnan
p888
aVnan
p889
aVnan
p890
aVnan
p891
aVnan
p892
aVnan
p893
aVnan
p894
aVnan
p895
aVnan
p896
aVnan
p897
aVnan
p898
aVnan
p899
aVnan
p900
aVnan
p901
aVnan
p902
aVnan
p903
aVnan
p904
aVnan
p905
aVnan
p906
aNaNaNaNaNaNaNaNaNaNasg502
g0
(g503
g2
Ntp907
Rp908
(dp909
g507
Nsg548
g850
sg511
I00
sg512
I00
sg513
Nsbsg515
g0
(g516
g517
(g518
g519
tp910
tp911
Rp912
sg509
VParmNames
p913
sbag0
(g358
g2
Ntp914
Rp915
(dp916
g362
I00
sg363
g4
sg364
(lp917
VGene1
p918
aVFalse
p919
aVFalse
p920
aVFalse
p921
aVFalse
p922
aVTrue
p923
aF0.5
aV0.7
p924
aVTrue
p925
aV
p926
aVnan
p927
aVnan
p928
aVnan
p929
aVnan
p930
aVnan
p931
aVnan
p932
aVnan
p933
aVnan
p934
aVnan
p935
aVnan
p936
aVnan
p937
aVnan
p938
aVnan
p939
aVnan
p940
aVnan
p941
aVnan
p942
aVnan
p943
aVnan
p944
aVnan
p945
aVnan
p946
aVnan
p947
aVnan
p948
aVnan
p949
aVnan
p950
aVnan
p951
aVnan
p952
aVnan
p953
aVnan
p954
aVnan
p955
aVnan
p956
aVnan
p957
aVnan
p958
aVnan
p959
aVnan
p960
aVnan
p961
aVnan
p962
aVnan
p963
aVnan
p964
aVnan
p965
aVnan
p966
aVnan
p967
aVnan
p968
aVnan
p969
aVnan
p970
aNaNaNaNaNaNaNaNaNaNasg502
g0
(g503
g2
Ntp971
Rp972
(dp973
g507
Nsg509
VParmValues
p974
sg511
I00
sg512
I00
sg513
Nsbsg515
g0
(g516
g517
(g518
g519
tp975
tp976
Rp977
sg509
g974
sbag360
ag524
ag554
ag583
ag614
ag627
ag638
ag693
ag704
ag712
ag720
ag733
ag746
ag0
(g358
g2
Ntp978
Rp979
(dp980
g362
I00
sg363
g4
sg364
(lp981
(lp982
g367
(g371
S'\x00\x00\x00\x00\x00\x00\x00\x00'
p983
tp984
Rp985
aa(lp986
g367
(g371
S'\x00\x00\x00\x00\x00\x00\xf0?'
p987
tp988
Rp989
aa(lp990
g367
(g371
S'\x00\x00\x00\x00\x00\x00\x00@'
p991
tp992
Rp993
aa(lp994
g367
(g371
S'\x00\x00\x00\x00\x00\x00\x08@'
p995
tp996
Rp997
aaNaNaNaNaNaNaNaNaNaNaNaNaNaNaNaNaNaNaNaNaNaNaNaNaNaNaNaNaNaNaNaNaNaNaNaNaNaNaNaNaNaNaNaNaNaNaNaNaNaNaNaNaNaNaNaNaNaNaNaNasg502
g0
(g503
g2
Ntp998
Rp999
(dp1000
g507
Vcat_vals = [br[0] for br in pruneNulls(BioRuns)]\u000aclean_geo = [x for x in GeoMean if x is not None]\u000aGeoGroups, groupedGeoMeans = groupBy(cat_vals, clean_geo)\u000aGroupedGeoMeans = roundValues(groupedGeoMeans, 3)\u000aGeoGroups = [[x] for x in GeoGroups]
p1001
sg509
VGeoGroups
p1002
sg511
I00
sg512
I00
sg513
Vcat_vals = [br[0] for br in pruneNulls(BioRuns)]\u000aclean_geo = [x for x in GeoMean if x is not None]\u000aGeoGroups, groupedGeoMeans = groupBy(cat_vals, clean_geo)\u000aGroupedGeoMeans = roundValues(groupedGeoMeans, 3)\u000aGeoGroups = [[x] for x in GeoGroups]
p1003
sbsg515
g0
(g516
g517
(g518
g519
tp1004
tp1005
Rp1006
sg509
g1002
sbag0
(g358
g2
Ntp1007
Rp1008
(dp1009
g362
I00
sg363
g4
sg364
(lp1010
cnumpy.core.multiarray
_reconstruct
p1011
(g518
(I0
tp1012
S'b'
p1013
tp1014
Rp1015
(I1
(I1
tp1016
g368
(S'f8'
p1017
I0
I1
tp1018
Rp1019
(I3
S'<'
p1020
NNNI-1
I-1
I0
tp1021
bI00
S'\xa2E\xb6\xf3\xfd\xd4\xfc?'
p1022
tp1023
bag1011
(g518
(I0
tp1024
g1013
tp1025
Rp1026
(I1
(I3
tp1027
g1019
I00
S'\x0e-\xb2\x9d\xef\xa7\xd6?\x0c\x02+\x87\x16\xd9\xfc?B`\xe5\xd0"\xdb\xfb?'
p1028
tp1029
bag1011
(g518
(I0
tp1030
g1013
tp1031
Rp1032
(I1
(I1
tp1033
g1019
I00
S'9\xb4\xc8v\xbe\x9f\x06@'
p1034
tp1035
bag1011
(g518
(I0
tp1036
g1013
tp1037
Rp1038
(I1
(I1
tp1039
g1019
I00
S'\x00\x00\x00\x00\x00\x00\xfa?'
p1040
tp1041
baNaNaNaNaNaNaNaNaNaNaNaNaNaNaNaNaNaNaNaNaNaNaNaNaNaNaNaNaNaNaNaNaNaNaNaNaNaNaNaNaNaNaNaNaNaNaNaNaNaNaNaNaNaNaNaNaNaNaNaNasg502
g0
(g503
g2
Ntp1042
Rp1043
(dp1044
g507
Nsg548
g1008
sg511
I00
sg512
I00
sg513
Nsbsg515
g0
(g516
g517
(g518
g519
tp1045
tp1046
Rp1047
sg509
VGroupedGeoMeans
p1048
sbag0
(g358
g2
Ntp1049
Rp1050
(dp1051
g362
I00
sg363
g4
sg364
(lp1052
g1011
(g518
(I0
tp1053
g1013
tp1054
Rp1055
(I1
(I1
tp1056
g1019
I00
S'\x00\x00\x00\x00\x00\x00\xf0?'
p1057
tp1058
bag1011
(g518
(I0
tp1059
g1013
tp1060
Rp1061
(I1
(I3
tp1062
g1019
I00
S'J\x0c\x02+\x87\x16\xc9?j\xbct\x93\x18\x04\xf0?\xb6\xf3\xfd\xd4x\xe9\xee?'
p1063
tp1064
bag1011
(g518
(I0
tp1065
g1013
tp1066
Rp1067
(I1
(I1
tp1068
g1019
I00
S'\xb4\xc8v\xbe\x9f\x1a\xf9?'
p1069
tp1070
bag1011
(g518
(I0
tp1071
g1013
tp1072
Rp1073
(I1
(I1
tp1074
g1019
I00
S'w\xbe\x9f\x1a/\xdd\xec?'
p1075
tp1076
baNaNaNaNaNaNaNaNaNaNaNaNaNaNaNaNaNaNaNaNaNaNaNaNaNaNaNaNaNaNaNaNaNaNaNaNaNaNaNaNaNaNaNaNaNaNaNaNaNaNaNaNaNaNaNaNaNaNaNaNasg502
g0
(g503
g2
Ntp1077
Rp1078
(dp1079
g507
Vref = np.mean(GroupedGeoMeans[0])\u000aNrmlGeoGroupedMeans = [ [x/ref for x in g] for g in GroupedGeoMeans if g is not None]  \u000aNrmlGeoGroupedMeans = roundValues(NrmlGeoGroupedMeans, 3)
p1080
sg509
VNrmlGeoGroupedMeans
p1081
sg511
I00
sg512
I00
sg513
Vref = np.mean(GroupedGeoMeans[0])\u000aNrmlGeoGroupedMeans = [ [x/ref for x in g] for g in GroupedGeoMeans if g is not None]  \u000aNrmlGeoGroupedMeans = roundValues(NrmlGeoGroupedMeans, 3)
p1082
sbsg515
g0
(g516
g517
(g518
g519
tp1083
tp1084
Rp1085
sg509
g1081
sbag0
(g358
g2
Ntp1086
Rp1087
(dp1088
g362
I00
sg363
g4
sg364
(lp1089
F1.0
aF0.721
aF1.569
aF0.902
aFnan
aFnan
aFnan
aFnan
aFnan
aFnan
aFnan
aFnan
aFnan
aFnan
aFnan
aFnan
aFnan
aFnan
aFnan
aFnan
aFnan
aFnan
aFnan
aFnan
aFnan
aFnan
aFnan
aFnan
aFnan
aFnan
aFnan
aFnan
aFnan
aFnan
aFnan
aFnan
aFnan
aFnan
aFnan
aFnan
aFnan
aFnan
aFnan
aFnan
aFnan
aFnan
aFnan
aFnan
aFnan
aFnan
aFnan
aFnan
aFnan
aFnan
aFnan
aFnan
aFnan
aFnan
aFnan
aFnan
aFnan
aFnan
aFnan
aFnan
asg502
g0
(g503
g2
Ntp1090
Rp1091
(dp1092
g507
VMeanNrmlGeoGroups = [round(np.mean(g), 3) for g in NrmlGeoGroupedMeans]
p1093
sg509
VMeanNrmlGeoGroups
p1094
sg511
I01
sg512
I00
sg513
V[round(np.mean(g), 3) for g in NrmlGeoGroupedMeans]
p1095
sbsg515
g0
(g516
g517
(g518
g519
tp1096
tp1097
Rp1098
sg509
g1094
sbag0
(g358
g2
Ntp1099
Rp1100
(dp1101
g362
I00
sg363
g4
sg364
(lp1102
Fnan
aF0.263
aFnan
aFnan
aFnan
aFnan
aFnan
aFnan
aFnan
aFnan
aFnan
aFnan
aFnan
aFnan
aFnan
aFnan
aFnan
aFnan
aFnan
aFnan
aFnan
aFnan
aFnan
aFnan
aFnan
aFnan
aFnan
aFnan
aFnan
aFnan
aFnan
aFnan
aFnan
aFnan
aFnan
aFnan
aFnan
aFnan
aFnan
aFnan
aFnan
aFnan
aFnan
aFnan
aFnan
aFnan
aFnan
aFnan
aFnan
aFnan
aFnan
aFnan
aFnan
aFnan
aFnan
aFnan
aFnan
aFnan
aFnan
aFnan
aFnan
aFnan
aFnan
aFnan
asg502
g0
(g503
g2
Ntp1103
Rp1104
(dp1105
g507
VStdNrmlGeoGroups = [round(np.std(g, ddof=1)/np.sqrt(len(g)), 3) for g in NrmlGeoGroupedMeans]\u000a
p1106
sg509
VStdNrmlGeoGroups
p1107
sg511
I01
sg512
I00
sg513
V[round(np.std(g, ddof=1)/np.sqrt(len(g)), 3) for g in NrmlGeoGroupedMeans]\u000a
p1108
sbsg515
g0
(g516
g517
(g518
g519
tp1109
tp1110
Rp1111
sg509
g1107
sbasg351
V/home/ubuntu/SciSheets/mysite/user/guest/tables/kristen_single_gene.pcl
p1112
sb.