ccopy_reg
_reconstructor
p0
(cscisheets.ui.dt_table
DTTable
p1
c__builtin__
object
p2
Ntp3
Rp4
(dp5
S'_hidden_columns'
p6
(lp7
g0
(cscisheets.core.column
Column
p8
g2
Ntp9
Rp10
(dp11
S'_asis'
p12
I00
sS'_owning_table'
p13
g4
sS'_cells'
p14
(lp15
VSEP1 2012 P17F4 a
p16
aVSEP1 2012 P17F4 b
p17
aVSEP1 2012 P17F4 c
p18
aVSEP1 2012 P17F5 a
p19
aVSEP1 2012 P17F5 b
p20
aVSEP1 2012 P17F5 c
p21
aVSEP1 2012 P1F3 SEP1a
p22
aVSEP1 2012 P1F3 SEP1b
p23
aVSEP1 2012 P1F3 SEP1c
p24
aVSEP1-2 2012 P11aF2 a
p25
aVSEP1-2 2012 P11aF2 b
p26
aVSEP1-2 2012 P11aF2 c
p27
aVSEP1-3 2012 P15F2 a
p28
aVSEP1-3 2012 P15F2 b
p29
aVSEP1-3 2012 P15F2 c
p30
aVuntreated 2012 P12F1 SEP1 1:2a
p31
aVuntreated 2012 P12F1 SEP1 1:2b
p32
aVuntreated 2012 P12F1 SEP1 1:2c
p33
aVSEP1 2012 P17F4 ACTa
p34
aVSEP1 2012 P17F4 ACTb
p35
aVSEP1 2012 P17F4 ACTc
p36
aVSEP1 2012 P17F5 ACTa
p37
aVSEP1 2012 P17F5 ACTb
p38
aVSEP1 2012 P17F5 ACTc
p39
aVSEP1 2012 P1F3 ACTa
p40
aVSEP1 2012 P1F3 ACTb
p41
aVSEP1 2012 P1F3 ACTc
p42
aVSEP1-2 2012 P11aF2 ACTa
p43
aVSEP1-2 2012 P11aF2 ACTb
p44
aVSEP1-2 2012 P11aF2 ACTc
p45
aVSEP1-3 2012 P15F2 ACTa
p46
aVSEP1-3 2012 P15F2 ACTb
p47
aVSEP1-3 2012 P15F2 ACTc
p48
aVuntreated 2012 P12F1 ACTa
p49
aVuntreated 2012 P12F1 ACTb
p50
aVuntreated 2012 P12F1 ACTc
p51
aVSEP1 2012 P17F4 EEF1a
p52
aVSEP1 2012 P17F4 EEF1b
p53
aVSEP1 2012 P17F4 EEF1c
p54
aVSEP1 2012 P17F5 EEF1a
p55
aVSEP1 2012 P17F5 EEF1b
p56
aVSEP1 2012 P17F5 EEF1c
p57
aVSEP1 2012 P1F3 EEF1a
p58
aVSEP1 2012 P1F3 EEF1b
p59
aVSEP1 2012 P1F3 EEF1c
p60
aVSEP1-2 2012 P11aF2 EEF1a
p61
aVSEP1-2 2012 P11aF2 EEF1b
p62
aVSEP1-2 2012 P11aF2 EEF1c
p63
aVSEP1-3 2012 P15F2 EEF1a
p64
aVSEP1-3 2012 P15F2 EEF1b
p65
aVSEP1-3 2012 P15F2 EEF1c
p66
aVuntreated 2012 P12F1 EEF1a
p67
aVuntreated 2012 P12F1 EEF1b
p68
aVuntreated 2012 P12F1 EEF1c
p69
asS'_formula_statement'
p70
g0
(cscisheets.core.column
FormulaStatement
p71
g2
Ntp72
Rp73
(dp74
S'_statement'
p75
NsS'_column'
p76
g10
sS'_isExpression'
p77
I00
sS'_isStatement'
p78
I00
sS'_formula'
p79
NsbsS'_data_class'
p80
g0
(cscisheets.core.helpers.api_util
DataClass
p81
c__builtin__
tuple
p82
(cnumpy
ndarray
p83
cscisheets.core.helpers.api_util
makeArray
p84
tp85
tp86
Rp87
sS'_name'
p88
S'SmplName'
p89
sbag0
(g8
g2
Ntp90
Rp91
(dp92
g12
I00
sg13
g4
sg14
(lp93
I1
aI1
aI1
aI2
aI2
aI2
aI3
aI3
aI3
aI1
aI1
aI1
aI1
aI1
aI1
aI1
aI1
aI1
aI1
aI1
aI1
aI2
aI2
aI2
aI3
aI3
aI3
aI1
aI1
aI1
aI1
aI1
aI1
aI1
aI1
aI1
aI1
aI1
aI1
aI2
aI2
aI2
aI3
aI3
aI3
aI1
aI1
aI1
aI1
aI1
aI1
aI1
aI1
aI1
asg70
g0
(g71
g2
Ntp94
Rp95
(dp96
g75
Nsg76
g91
sg77
I00
sg78
I00
sg79
Nsbsg80
g87
sg88
S'BRpl'
p97
sbag0
(g8
g2
Ntp98
Rp99
(dp100
g12
I00
sg13
g4
sg14
(lp101
F26.68
aF27.13
aF27.21
aF26.76
aF26.71
aF26.19
aF29.98
aF30.12
aF29.41
aF29.95
aF30.45
aF29.88
aF24.8
aF24.97
aF24.63
aF23.0
aF22.86
aF22.8
aF19.92
aF19.85
aF20.0
aF21.86
aF22.09
aF21.84
aF23.89
aF23.54
aF24.27
aF23.22
aF23.8
aF23.49
aF18.91
aF18.78
aF18.8
aF18.24
aF18.22
aF18.36
aF22.18
aF21.71
aF21.75
aF23.88
aF23.42
aF23.63
aF24.59
aF24.61
aF24.34
aF26.37
aF26.36
aF26.17
aF20.5
aF20.47
aF20.28
aF19.72
aF19.75
aF20.01
asg70
g0
(g71
g2
Ntp102
Rp103
(dp104
g75
Nsg76
g99
sg77
I00
sg78
I00
sg79
Nsbsg80
g87
sg88
S'Ct'
p105
sbag0
(g8
g2
Ntp106
Rp107
(dp108
g12
I00
sg13
g4
sg14
(lp109
F0.9399
aF0.8296
aF0.8361
aF0.8039
aF0.8399
aF0.7935
aF0.8264
aF0.7974
aF0.8252
aF0.8418
aF0.7959
aF0.8071
aF0.8513
aF0.8485
aF0.8401
aF0.8371
aF0.891
aF0.8956
aF0.9179
aF0.9783
aF0.8971
aF0.8957
aF0.8287
aF0.8387
aF0.8746
aF0.8493
aF0.8349
aF0.7701
aF0.8746
aF0.8139
aF0.8715
aF0.8977
aF0.856
aF0.8266
aF0.8343
aF0.8496
aF0.7857
aF0.8427
aF0.8637
aF0.8281
aF0.8203
aF0.8288
aF0.8138
aF0.8242
aF0.804
aF0.7795
aF0.7676
aF0.7947
aF0.8179
aF0.8173
aF0.7894
aF0.8157
aF0.8543
aF0.8208
asg70
g0
(g71
g2
Ntp110
Rp111
(dp112
g75
Nsg76
g107
sg77
I00
sg78
I00
sg79
Nsbsg80
g87
sg88
S'Eff'
p113
sbag0
(g8
g2
Ntp114
Rp115
(dp116
g12
I00
sg13
g4
sg14
(lp117
VI
p118
ag118
ag118
ag118
ag118
ag118
ag118
ag118
ag118
ag118
ag118
ag118
ag118
ag118
ag118
ag118
ag118
ag118
aVR1
p119
aVR1
p120
aVR1
p121
aVR1
p122
aVR1
p123
aVR1
p124
aVR1
p125
aVR1
p126
aVR1
p127
aVR1
p128
aVR1
p129
aVR1
p130
aVR1
p131
aVR1
p132
aVR1
p133
aVR1
p134
aVR1
p135
aVR1
p136
aVR2
p137
aVR2
p138
aVR2
p139
aVR2
p140
aVR2
p141
aVR2
p142
aVR2
p143
aVR2
p144
aVR2
p145
aVR2
p146
aVR2
p147
aVR2
p148
aVR2
p149
aVR2
p150
aVR2
p151
aVR2
p152
aVR2
p153
aVR2
p154
asg70
g0
(g71
g2
Ntp155
Rp156
(dp157
g75
Nsg76
g115
sg77
I00
sg78
I00
sg79
Nsbsg80
g87
sg88
S'RunType'
p158
sbag0
(g8
g2
Ntp159
Rp160
(dp161
g12
I00
sg13
g4
sg14
(lp162
Va
p163
aVb
p164
aVc
p165
ag163
ag164
ag165
ag163
ag164
ag165
ag163
ag164
ag165
ag163
ag164
ag165
ag163
ag164
ag165
ag163
ag164
ag165
ag163
ag164
ag165
ag163
ag164
ag165
ag163
ag164
ag165
ag163
ag164
ag165
ag163
ag164
ag165
ag163
ag164
ag165
ag163
ag164
ag165
ag163
ag164
ag165
ag163
ag164
ag165
ag163
ag164
ag165
ag163
ag164
ag165
asg70
g0
(g71
g2
Ntp166
Rp167
(dp168
g75
Nsg76
g160
sg77
I00
sg78
I00
sg79
Nsbsg80
g87
sg88
S'TRpl'
p169
sbag0
(g8
g2
Ntp170
Rp171
(dp172
g12
I00
sg13
g4
sg14
(lp173
I1
aI1
aI1
aI1
aI1
aI1
aI1
aI1
aI1
aI2
aI2
aI2
aI3
aI3
aI3
aI0
aI0
aI0
aI1
aI1
aI1
aI1
aI1
aI1
aI1
aI1
aI1
aI2
aI2
aI2
aI3
aI3
aI3
aI0
aI0
aI0
aI1
aI1
aI1
aI1
aI1
aI1
aI1
aI1
aI1
aI2
aI2
aI2
aI3
aI3
aI3
aI0
aI0
aI0
asg70
g0
(g71
g2
Ntp174
Rp175
(dp176
g75
Nsg76
g171
sg77
I00
sg78
I00
sg79
Nsbsg80
g87
sg88
S'Treatment'
p177
sbag0
(g8
g2
Ntp178
Rp179
(dp180
g12
I00
sg13
g4
sg14
(lp181
(lp182
cnumpy.core.multiarray
scalar
p183
(cnumpy
dtype
p184
(S'i8'
p185
I0
I1
tp186
Rp187
(I3
S'<'
p188
NNNI-1
I-1
I0
tp189
bS'\x00\x00\x00\x00\x00\x00\x00\x00'
p190
tp191
Rp192
ag183
(g187
S'\x01\x00\x00\x00\x00\x00\x00\x00'
p193
tp194
Rp195
aa(lp196
g183
(g187
S'\x01\x00\x00\x00\x00\x00\x00\x00'
p197
tp198
Rp199
ag183
(g187
S'\x01\x00\x00\x00\x00\x00\x00\x00'
p200
tp201
Rp202
aa(lp203
g183
(g187
S'\x01\x00\x00\x00\x00\x00\x00\x00'
p204
tp205
Rp206
ag183
(g187
S'\x02\x00\x00\x00\x00\x00\x00\x00'
p207
tp208
Rp209
aa(lp210
g183
(g187
S'\x01\x00\x00\x00\x00\x00\x00\x00'
p211
tp212
Rp213
ag183
(g187
S'\x03\x00\x00\x00\x00\x00\x00\x00'
p214
tp215
Rp216
aa(lp217
g183
(g187
S'\x02\x00\x00\x00\x00\x00\x00\x00'
p218
tp219
Rp220
ag183
(g187
S'\x01\x00\x00\x00\x00\x00\x00\x00'
p221
tp222
Rp223
aa(lp224
g183
(g187
S'\x03\x00\x00\x00\x00\x00\x00\x00'
p225
tp226
Rp227
ag183
(g187
S'\x01\x00\x00\x00\x00\x00\x00\x00'
p228
tp229
Rp230
aaNaNaNaNaNaNaNaNaNaNaNaNaNaNaNaNaNaNaNaNaNaNaNaNaNaNaNaNaNaNaNaNaNaNaNaNaNaNaNaNaNaNaNaNaNaNaNaNasg70
g0
(g71
g2
Ntp231
Rp232
(dp233
g75
Vif run:\u000a  tabularize(s, 'Groups', 1, 'MeanCt', \u000a      new_category_colnm='BioRuns',\u000a      values_colnm_prefix='Gene_')\u000a  BioRuns = s.getColumnValues('BioRuns')\u000a  Gene_I = s.getColumnValues('Gene_I')\u000a  Gene_R1 = s.getColumnValues('Gene_R1')\u000a  Gene_R2 = s.getColumnValues('Gene_R2')\u000a 
p234
sg76
g179
sg77
I00
sg78
I00
sg79
Vif run:\u000a  tabularize(s, 'Groups', 1, 'MeanCt', \u000a      new_category_colnm='BioRuns',\u000a      values_colnm_prefix='Gene_')\u000a  BioRuns = s.getColumnValues('BioRuns')\u000a  Gene_I = s.getColumnValues('Gene_I')\u000a  Gene_R1 = s.getColumnValues('Gene_R1')\u000a  Gene_R2 = s.getColumnValues('Gene_R2')\u000a 
p235
sbsg80
g0
(g81
g82
(g83
g84
tp236
tp237
Rp238
sg88
VBioRuns
p239
sbag0
(g8
g2
Ntp240
Rp241
(dp242
g12
I00
sg13
g4
sg14
(lp243
F22.9
aF27.0
aF26.6
aF29.8
aF30.1
aF24.8
aFnan
aFnan
aFnan
aFnan
aFnan
aFnan
aFnan
aFnan
aFnan
aFnan
aFnan
aFnan
aFnan
aFnan
aFnan
aFnan
aFnan
aFnan
aFnan
aFnan
aFnan
aFnan
aFnan
aFnan
aFnan
aFnan
aFnan
aFnan
aFnan
aFnan
aFnan
aFnan
aFnan
aFnan
aFnan
aFnan
aFnan
aFnan
aFnan
aFnan
aFnan
aFnan
aFnan
aFnan
aFnan
aFnan
aFnan
aFnan
asg70
g0
(g71
g2
Ntp244
Rp245
(dp246
g75
Nsg76
g241
sg77
I00
sg78
I00
sg79
Nsbsg80
g0
(g81
g82
(g83
g84
tp247
tp248
Rp249
sg88
S'Gene_I'
p250
sbag0
(g8
g2
Ntp251
Rp252
(dp253
g12
I00
sg13
g4
sg14
(lp254
F18.3
aF19.9
aF21.9
aF23.9
aF23.5
aF18.8
aFnan
aFnan
aFnan
aFnan
aFnan
aFnan
aFnan
aFnan
aFnan
aFnan
aFnan
aFnan
aFnan
aFnan
aFnan
aFnan
aFnan
aFnan
aFnan
aFnan
aFnan
aFnan
aFnan
aFnan
aFnan
aFnan
aFnan
aFnan
aFnan
aFnan
aFnan
aFnan
aFnan
aFnan
aFnan
aFnan
aFnan
aFnan
aFnan
aFnan
aFnan
aFnan
aFnan
aFnan
aFnan
aFnan
aFnan
aFnan
asg70
g0
(g71
g2
Ntp255
Rp256
(dp257
g75
Nsg76
g252
sg77
I00
sg78
I00
sg79
Nsbsg80
g249
sg88
S'Gene_R1'
p258
sbag0
(g8
g2
Ntp259
Rp260
(dp261
g12
I00
sg13
g4
sg14
(lp262
F19.8
aF21.9
aF23.6
aF24.5
aF26.3
aF20.4
aFnan
aFnan
aFnan
aFnan
aFnan
aFnan
aFnan
aFnan
aFnan
aFnan
aFnan
aFnan
aFnan
aFnan
aFnan
aFnan
aFnan
aFnan
aFnan
aFnan
aFnan
aFnan
aFnan
aFnan
aFnan
aFnan
aFnan
aFnan
aFnan
aFnan
aFnan
aFnan
aFnan
aFnan
aFnan
aFnan
aFnan
aFnan
aFnan
aFnan
aFnan
aFnan
aFnan
aFnan
aFnan
aFnan
aFnan
aFnan
asg70
g0
(g71
g2
Ntp263
Rp264
(dp265
g75
Nsg76
g260
sg77
I00
sg78
I00
sg79
Nsbsg80
g249
sg88
S'Gene_R2'
p266
sbag0
(g8
g2
Ntp267
Rp268
(dp269
g12
I00
sg13
g4
sg14
(lp270
F0.04123
aF0.00729
aF0.03847
aF0.01675
aF0.01031
aF0.01563
aFnan
aFnan
aFnan
aFnan
aFnan
aFnan
aFnan
aFnan
aFnan
aFnan
aFnan
aFnan
aFnan
aFnan
aFnan
aFnan
aFnan
aFnan
aFnan
aFnan
aFnan
aFnan
aFnan
aFnan
aFnan
aFnan
aFnan
aFnan
aFnan
aFnan
aFnan
aFnan
aFnan
aFnan
aFnan
aFnan
aFnan
aFnan
aFnan
aFnan
aFnan
aFnan
aFnan
aFnan
aFnan
aFnan
aFnan
aFnan
asg70
g0
(g71
g2
Ntp271
Rp272
(dp273
g75
VExprR1 = roundValues(2**(Gene_R1 - Gene_I),5)
p274
sg76
g268
sg77
I01
sg78
I00
sg79
VroundValues(2**(Gene_R1 - Gene_I),5)
p275
sbsg80
g0
(g81
g82
(g83
g84
tp276
tp277
Rp278
sg88
VExprR1
p279
sbag0
(g8
g2
Ntp280
Rp281
(dp282
g12
I00
sg13
g4
sg14
(lp283
F0.11663
aF0.02916
aF0.125
aF0.02538
aF0.07179
aF0.04737
aFnan
aFnan
aFnan
aFnan
aFnan
aFnan
aFnan
aFnan
aFnan
aFnan
aFnan
aFnan
aFnan
aFnan
aFnan
aFnan
aFnan
aFnan
aFnan
aFnan
aFnan
aFnan
aFnan
aFnan
aFnan
aFnan
aFnan
aFnan
aFnan
aFnan
aFnan
aFnan
aFnan
aFnan
aFnan
aFnan
aFnan
aFnan
aFnan
aFnan
aFnan
aFnan
aFnan
aFnan
aFnan
aFnan
aFnan
aFnan
asg70
g0
(g71
g2
Ntp284
Rp285
(dp286
g75
VExprR2 = roundValues(2**(Gene_R2 - Gene_I),5)
p287
sg76
g281
sg77
I01
sg78
I00
sg79
VroundValues(2**(Gene_R2 - Gene_I),5)
p288
sbsg80
g0
(g81
g82
(g83
g84
tp289
tp290
Rp291
sg88
VExprR2
p292
sbag0
(g8
g2
Ntp293
Rp294
(dp295
g12
I00
sg13
g4
sg14
(lp296
F0.069
aF0.015
aF0.069
aF0.021
aF0.027
aF0.027
aFnan
aFnan
aFnan
aFnan
aFnan
aFnan
aFnan
aFnan
aFnan
aFnan
aFnan
aFnan
aFnan
aFnan
aFnan
aFnan
aFnan
aFnan
aFnan
aFnan
aFnan
aFnan
aFnan
aFnan
aFnan
aFnan
aFnan
aFnan
aFnan
aFnan
aFnan
aFnan
aFnan
aFnan
aFnan
aFnan
aFnan
aFnan
aFnan
aFnan
aFnan
aFnan
aFnan
aFnan
aFnan
aFnan
aFnan
aFnan
asg70
g0
(g71
g2
Ntp297
Rp298
(dp299
g75
Vif run:\u000a  GeoMean = roundValues(np.sqrt(ExprR1*ExprR2), 3)\u000as.setColumnVisibility(['BioRuns', 'Gene_I', 'Gene_R1', 'Gene_R2', 'ExprR1', 'ExprR2', 'GeoMean'], is_visible=show_block2)
p300
sg76
g294
sg77
I00
sg78
I00
sg79
Vif run:\u000a  GeoMean = roundValues(np.sqrt(ExprR1*ExprR2), 3)\u000as.setColumnVisibility(['BioRuns', 'Gene_I', 'Gene_R1', 'Gene_R2', 'ExprR1', 'ExprR2', 'GeoMean'], is_visible=show_block2)
p301
sbsg80
g0
(g81
g82
(g83
g84
tp302
tp303
Rp304
sg88
VGeoMean
p305
sbag0
(g8
g2
Ntp306
Rp307
(dp308
g12
I00
sg13
g4
sg14
(lp309
F0.0
aF1.0
aF2.0
aF3.0
aFnan
aFnan
aFnan
aFnan
aFnan
aFnan
aFnan
aFnan
aFnan
aFnan
aFnan
aFnan
aFnan
aFnan
aFnan
aFnan
aFnan
aFnan
aFnan
aFnan
aFnan
aFnan
aFnan
aFnan
aFnan
aFnan
aFnan
aFnan
aFnan
aFnan
aFnan
aFnan
aFnan
aFnan
aFnan
aFnan
aFnan
aFnan
aFnan
aFnan
aFnan
aFnan
aFnan
aFnan
aFnan
aFnan
aFnan
aFnan
aFnan
aFnan
asg70
g0
(g71
g2
Ntp310
Rp311
(dp312
g75
Vif run:\u000a  cat_vals = [br[0] for br in pruneNulls(BioRuns)]\u000a  clean_geo = pruneNulls(GeoMean)\u000a  GeoGroups, groupedGeoMeans = groupBy(cat_vals, clean_geo)\u000a  GroupedGeoMeans = roundValues(groupedGeoMeans, 3)
p313
sg76
g307
sg77
I00
sg78
I00
sg79
Vif run:\u000a  cat_vals = [br[0] for br in pruneNulls(BioRuns)]\u000a  clean_geo = pruneNulls(GeoMean)\u000a  GeoGroups, groupedGeoMeans = groupBy(cat_vals, clean_geo)\u000a  GroupedGeoMeans = roundValues(groupedGeoMeans, 3)
p314
sbsg80
g0
(g81
g82
(g83
g84
tp315
tp316
Rp317
sg88
VGeoGroups
p318
sbag0
(g8
g2
Ntp319
Rp320
(dp321
g12
I00
sg13
g4
sg14
(lp322
cnumpy.core.multiarray
_reconstruct
p323
(g83
(I0
tp324
S'b'
p325
tp326
Rp327
(I1
(I1
tp328
g184
(S'f8'
p329
I0
I1
tp330
Rp331
(I3
S'<'
p332
NNNI-1
I-1
I0
tp333
bI00
S'D\x8bl\xe7\xfb\xa9\xb1?'
p334
tp335
bag323
(g83
(I0
tp336
g325
tp337
Rp338
(I1
(I3
tp339
g331
I00
S'\xb8\x1e\x85\xebQ\xb8\x8e?D\x8bl\xe7\xfb\xa9\xb1?\x1b/\xdd$\x06\x81\x95?'
p340
tp341
bag323
(g83
(I0
tp342
g325
tp343
Rp344
(I1
(I1
tp345
g331
I00
S'\xd9\xce\xf7S\xe3\xa5\x9b?'
p346
tp347
bag323
(g83
(I0
tp348
g325
tp349
Rp350
(I1
(I1
tp351
g331
I00
S'\xd9\xce\xf7S\xe3\xa5\x9b?'
p352
tp353
baNaNaNaNaNaNaNaNaNaNaNaNaNaNaNaNaNaNaNaNaNaNaNaNaNaNaNaNaNaNaNaNaNaNaNaNaNaNaNaNaNaNaNaNaNaNaNaNaNaNasg70
g0
(g71
g2
Ntp354
Rp355
(dp356
g75
Nsg76
g320
sg77
I00
sg78
I00
sg79
Nsbsg80
g0
(g81
g82
(g83
g84
tp357
tp358
Rp359
sg88
VGroupedGeoMeans
p360
sbag0
(g8
g2
Ntp361
Rp362
(dp363
g12
I00
sg13
g4
sg14
(lp364
g323
(g83
(I0
tp365
g325
tp366
Rp367
(I1
(I1
tp368
g331
I00
S'\x00\x00\x00\x00\x00\x00\xf0?'
p369
tp370
bag323
(g83
(I0
tp371
g325
tp372
Rp373
(I1
(I3
tp374
g331
I00
S'-\xb2\x9d\xef\xa7\xc6\xcb?\x00\x00\x00\x00\x00\x00\xf0?\xdb\xf9~j\xbct\xd3?'
p375
tp376
bag323
(g83
(I0
tp377
g325
tp378
Rp379
(I1
(I1
tp380
g331
I00
S'\xa0\x1a/\xdd$\x06\xd9?'
p381
tp382
bag323
(g83
(I0
tp383
g325
tp384
Rp385
(I1
(I1
tp386
g331
I00
S'\xa0\x1a/\xdd$\x06\xd9?'
p387
tp388
baNaNaNaNaNaNaNaNaNaNaNaNaNaNaNaNaNaNaNaNaNaNaNaNaNaNaNaNaNaNaNaNaNaNaNaNaNaNaNaNaNaNaNaNaNaNaNaNaNaNasg70
g0
(g71
g2
Ntp389
Rp390
(dp391
g75
Vif run:\u000a  ref = np.mean(GroupedGeoMeans[0])\u000a  NrmlGeoGroupedMeans = []\u000a  truncated_group = [g for g in GroupedGeoMeans if g is not None]\u000a  for g in truncated_group:\u000a    new_g = [x/ref for x in g]\u000a    NrmlGeoGroupedMeans.append(new_g)\u000a  NrmlGeoGroupedMeans = roundValues(NrmlGeoGroupedMeans, 3)
p392
sg76
g362
sg77
I00
sg78
I00
sg79
Vif run:\u000a  ref = np.mean(GroupedGeoMeans[0])\u000a  NrmlGeoGroupedMeans = []\u000a  truncated_group = [g for g in GroupedGeoMeans if g is not None]\u000a  for g in truncated_group:\u000a    new_g = [x/ref for x in g]\u000a    NrmlGeoGroupedMeans.append(new_g)\u000a  NrmlGeoGroupedMeans = roundValues(NrmlGeoGroupedMeans, 3)
p393
sbsg80
g0
(g81
g82
(g83
g84
tp394
tp395
Rp396
sg88
VNrmlGeoGroupedMeans
p397
sbag0
(g8
g2
Ntp398
Rp399
(dp400
g12
I00
sg13
g4
sg14
(lp401
F1.0
aF0.507
aF0.391
aF0.391
aFnan
aFnan
aFnan
aFnan
aFnan
aFnan
aFnan
aFnan
aFnan
aFnan
aFnan
aFnan
aFnan
aFnan
aFnan
aFnan
aFnan
aFnan
aFnan
aFnan
aFnan
aFnan
aFnan
aFnan
aFnan
aFnan
aFnan
aFnan
aFnan
aFnan
aFnan
aFnan
aFnan
aFnan
aFnan
aFnan
aFnan
aFnan
aFnan
aFnan
aFnan
aFnan
aFnan
aFnan
aFnan
aFnan
aFnan
aFnan
aFnan
aFnan
asg70
g0
(g71
g2
Ntp402
Rp403
(dp404
g75
Vif run:\u000a  MeanNrmlGeoGroups = [round(np.mean(g), 3) for g in NrmlGeoGroupedMeans]
p405
sg76
g399
sg77
I00
sg78
I00
sg79
Vif run:\u000a  MeanNrmlGeoGroups = [round(np.mean(g), 3) for g in NrmlGeoGroupedMeans]
p406
sbsg80
g0
(g81
g82
(g83
g84
tp407
tp408
Rp409
sg88
VMeanNrmlGeoGroups
p410
sbag0
(g8
g2
Ntp411
Rp412
(dp413
g12
I00
sg13
g4
sg14
(lp414
Fnan
aF0.429
aFnan
aFnan
aFnan
aFnan
aFnan
aFnan
aFnan
aFnan
aFnan
aFnan
aFnan
aFnan
aFnan
aFnan
aFnan
aFnan
aFnan
aFnan
aFnan
aFnan
aFnan
aFnan
aFnan
aFnan
aFnan
aFnan
aFnan
aFnan
aFnan
aFnan
aFnan
aFnan
aFnan
aFnan
aFnan
aFnan
aFnan
aFnan
aFnan
aFnan
aFnan
aFnan
aFnan
aFnan
aFnan
aFnan
aFnan
aFnan
aFnan
aFnan
aFnan
aFnan
asg70
g0
(g71
g2
Ntp415
Rp416
(dp417
g75
Vif run:\u000a  StdNrmlGeoGroups = [round(np.std(g, ddof=1), 3) for g in NrmlGeoGroupedMeans]\u000as.setColumnVisibility(['GeoGroups', 'GroupedGeoMeans', 'NrmlGeoGroupedMeans', 'MeanNrmlGeoGroups', 'StdNrmlGeoGroups'], is_visible=show_block3)
p418
sg76
g412
sg77
I00
sg78
I00
sg79
Vif run:\u000a  StdNrmlGeoGroups = [round(np.std(g, ddof=1), 3) for g in NrmlGeoGroupedMeans]\u000as.setColumnVisibility(['GeoGroups', 'GroupedGeoMeans', 'NrmlGeoGroupedMeans', 'MeanNrmlGeoGroups', 'StdNrmlGeoGroups'], is_visible=show_block3)
p419
sbsg80
g0
(g81
g82
(g83
g84
tp420
tp421
Rp422
sg88
VStdNrmlGeoGroups
p423
sbasS'_columns'
p424
(lp425
g0
(g8
g2
Ntp426
Rp427
(dp428
g12
I01
sg13
g4
sg14
(lp429
S'1'
p430
aS'2'
p431
aS'3'
p432
aS'4'
p433
aS'5'
p434
aS'6'
p435
aS'7'
p436
aS'8'
p437
aS'9'
p438
aS'10'
p439
aS'11'
p440
aS'12'
p441
aS'13'
p442
aS'14'
p443
aS'15'
p444
aS'16'
p445
aS'17'
p446
aS'18'
p447
aS'19'
p448
aS'20'
p449
aS'21'
p450
aS'22'
p451
aS'23'
p452
aS'24'
p453
aS'25'
p454
aS'26'
p455
aS'27'
p456
aS'28'
p457
aS'29'
p458
aS'30'
p459
aS'31'
p460
aS'32'
p461
aS'33'
p462
aS'34'
p463
aS'35'
p464
aS'36'
p465
aS'37'
p466
aS'38'
p467
aS'39'
p468
aS'40'
p469
aS'41'
p470
aS'42'
p471
aS'43'
p472
aS'44'
p473
aS'45'
p474
aS'46'
p475
aS'47'
p476
aS'48'
p477
aS'49'
p478
aS'50'
p479
aS'51'
p480
aS'52'
p481
aS'53'
p482
aS'54'
p483
asg70
g0
(g71
g2
Ntp484
Rp485
(dp486
g75
Nsg76
g427
sg77
I00
sg78
I00
sg79
Nsbsg80
g0
(g81
g82
(g83
g84
tp487
tp488
Rp489
sg88
S'row'
p490
sbag0
(g8
g2
Ntp491
Rp492
(dp493
g12
I00
sg13
g4
sg14
(lp494
Vgene
p495
aVrun
p496
aVshow_raw
p497
aVshow_block1
p498
aVshow_block2
p499
aVshow_block3
p500
aVmax_std
p501
aVmin_eff
p502
aVnan
p503
aVnan
p504
aVnan
p505
aVnan
p506
aVnan
p507
aVnan
p508
aVnan
p509
aVnan
p510
aVnan
p511
aVnan
p512
aVnan
p513
aVnan
p514
aVnan
p515
aVnan
p516
aVnan
p517
aVnan
p518
aVnan
p519
aVnan
p520
aVnan
p521
aVnan
p522
aVnan
p523
aVnan
p524
aVnan
p525
aVnan
p526
aVnan
p527
aVnan
p528
aVnan
p529
aVnan
p530
aVnan
p531
aVnan
p532
aVnan
p533
aVnan
p534
aVnan
p535
aVnan
p536
aVnan
p537
aVnan
p538
aVnan
p539
aVnan
p540
aVnan
p541
aVnan
p542
aVnan
p543
aVnan
p544
aVnan
p545
aVnan
p546
aVnan
p547
aVnan
p548
asg70
g0
(g71
g2
Ntp549
Rp550
(dp551
g75
Nsg76
g492
sg77
I00
sg78
I00
sg79
Nsbsg80
g0
(g81
g82
(g83
g84
tp552
tp553
Rp554
sg88
VParmNames
p555
sbag0
(g8
g2
Ntp556
Rp557
(dp558
g12
I00
sg13
g4
sg14
(lp559
VGene1
p560
aVFalse
p561
aVFalse
p562
aVTrue
p563
aVFalse
p564
aVFalse
p565
aV0.5
p566
aV0.7
p567
aVnan
p568
aVnan
p569
aVnan
p570
aVnan
p571
aVnan
p572
aVnan
p573
aVnan
p574
aVnan
p575
aVnan
p576
aVnan
p577
aVnan
p578
aVnan
p579
aVnan
p580
aVnan
p581
aVnan
p582
aVnan
p583
aVnan
p584
aVnan
p585
aVnan
p586
aVnan
p587
aVnan
p588
aVnan
p589
aVnan
p590
aVnan
p591
aVnan
p592
aVnan
p593
aVnan
p594
aVnan
p595
aVnan
p596
aVnan
p597
aVnan
p598
aVnan
p599
aVnan
p600
aVnan
p601
aVnan
p602
aVnan
p603
aVnan
p604
aVnan
p605
aVnan
p606
aVnan
p607
aVnan
p608
aVnan
p609
aVnan
p610
aVnan
p611
aVnan
p612
aVnan
p613
asg70
g0
(g71
g2
Ntp614
Rp615
(dp616
g75
Vxlsx_path = '/mnt/hgfs/josephhellerstein/home/Technical/SciSheets/CaseStudies/Kristen/workbooks/data.xlsx'\u000as.setColumnVisibility()\u000agene = ParmValues[0]\u000arun = ParmValues[1] == 'True'\u000ashow_raw = ParmValues[2] == 'True'\u000ashow_block1 = ParmValues[3] == 'True'\u000ashow_block2 = ParmValues[4] == 'True'\u000ashow_block3 = ParmValues[5] == 'True'\u000amax_std  = float(ParmValues[6])\u000amin_eff = float(ParmValues[7])\u000aworksheet = gene + "-I"\u000aif False:\u000a  Groups = []\u000a  GroupedCt = []\u000a  GroupedEff = []\u000a  MeanCt = []\u000a  Imp = []\u000a  s.deleteColumn('Ct')\u000a  s.deleteColumn('RunType')\u000a  s.deleteColumn('BRpl')\u000a  s.deleteColumn('TRpl')\u000a  s.deleteColumn('Treatment')\u000a  s.deleteColumn('SmplName')\u000a  s.deleteColumn('Eff')\u000aif run:\u000a  importExcelToTable(s, xlsx_path, worksheet=worksheet)\u000a  BRpl = s.getColumnValues('BRpl')\u000a  Ct = s.getColumnValues('Ct')\u000a  Eff = s.getColumnValues('Eff')\u000a  RunType = s.getColumnValues('RunType')\u000a  TRpl = s.getColumnValues('TRpl')\u000a  Treatment = s.getColumnValues('Treatment')\u000as.setColumnVisibility(['SmplName'], False)\u000as.setColumnVisibility(['BRpl', 'Ct', 'Eff', 'RunType', 'TRpl', 'Treatment'], is_visible=show_raw)
p617
sg76
g557
sg77
I00
sg78
I00
sg79
Vxlsx_path = '/mnt/hgfs/josephhellerstein/home/Technical/SciSheets/CaseStudies/Kristen/workbooks/data.xlsx'\u000as.setColumnVisibility()\u000agene = ParmValues[0]\u000arun = ParmValues[1] == 'True'\u000ashow_raw = ParmValues[2] == 'True'\u000ashow_block1 = ParmValues[3] == 'True'\u000ashow_block2 = ParmValues[4] == 'True'\u000ashow_block3 = ParmValues[5] == 'True'\u000amax_std  = float(ParmValues[6])\u000amin_eff = float(ParmValues[7])\u000aworksheet = gene + "-I"\u000aif False:\u000a  Groups = []\u000a  GroupedCt = []\u000a  GroupedEff = []\u000a  MeanCt = []\u000a  Imp = []\u000a  s.deleteColumn('Ct')\u000a  s.deleteColumn('RunType')\u000a  s.deleteColumn('BRpl')\u000a  s.deleteColumn('TRpl')\u000a  s.deleteColumn('Treatment')\u000a  s.deleteColumn('SmplName')\u000a  s.deleteColumn('Eff')\u000aif run:\u000a  importExcelToTable(s, xlsx_path, worksheet=worksheet)\u000a  BRpl = s.getColumnValues('BRpl')\u000a  Ct = s.getColumnValues('Ct')\u000a  Eff = s.getColumnValues('Eff')\u000a  RunType = s.getColumnValues('RunType')\u000a  TRpl = s.getColumnValues('TRpl')\u000a  Treatment = s.getColumnValues('Treatment')\u000as.setColumnVisibility(['SmplName'], False)\u000as.setColumnVisibility(['BRpl', 'Ct', 'Eff', 'RunType', 'TRpl', 'Treatment'], is_visible=show_raw)
p618
sbsg80
g0
(g81
g82
(g83
g84
tp619
tp620
Rp621
sg88
VParmValues
p622
sbag0
(g8
g2
Ntp623
Rp624
(dp625
g12
I00
sg13
g4
sg14
(lp626
(g183
(g187
S'\x00\x00\x00\x00\x00\x00\x00\x00'
p627
tp628
Rp629
g183
(g184
(S'U1'
p630
I0
I1
tp631
Rp632
(I3
S'<'
p633
NNNI4
I4
I8
tp634
bS'I\x00\x00\x00'
p635
tp636
Rp637
g183
(g187
S'\x01\x00\x00\x00\x00\x00\x00\x00'
p638
tp639
Rp640
tp641
a(g183
(g187
S'\x00\x00\x00\x00\x00\x00\x00\x00'
p642
tp643
Rp644
g183
(g184
(S'U2'
p645
I0
I1
tp646
Rp647
(I3
S'<'
p648
NNNI8
I4
I8
tp649
bS'R\x00\x00\x001\x00\x00\x00'
p650
tp651
Rp652
g183
(g187
S'\x01\x00\x00\x00\x00\x00\x00\x00'
p653
tp654
Rp655
tp656
a(g183
(g187
S'\x00\x00\x00\x00\x00\x00\x00\x00'
p657
tp658
Rp659
g183
(g184
(S'U2'
p660
I0
I1
tp661
Rp662
(I3
S'<'
p663
NNNI8
I4
I8
tp664
bS'R\x00\x00\x002\x00\x00\x00'
p665
tp666
Rp667
g183
(g187
S'\x01\x00\x00\x00\x00\x00\x00\x00'
p668
tp669
Rp670
tp671
a(g183
(g187
S'\x01\x00\x00\x00\x00\x00\x00\x00'
p672
tp673
Rp674
g637
g183
(g187
S'\x01\x00\x00\x00\x00\x00\x00\x00'
p675
tp676
Rp677
tp678
a(g183
(g187
S'\x01\x00\x00\x00\x00\x00\x00\x00'
p679
tp680
Rp681
g637
g183
(g187
S'\x02\x00\x00\x00\x00\x00\x00\x00'
p682
tp683
Rp684
tp685
a(g183
(g187
S'\x01\x00\x00\x00\x00\x00\x00\x00'
p686
tp687
Rp688
g637
g183
(g187
S'\x03\x00\x00\x00\x00\x00\x00\x00'
p689
tp690
Rp691
tp692
a(g183
(g187
S'\x01\x00\x00\x00\x00\x00\x00\x00'
p693
tp694
Rp695
g652
g183
(g187
S'\x01\x00\x00\x00\x00\x00\x00\x00'
p696
tp697
Rp698
tp699
a(g183
(g187
S'\x01\x00\x00\x00\x00\x00\x00\x00'
p700
tp701
Rp702
g652
g183
(g187
S'\x02\x00\x00\x00\x00\x00\x00\x00'
p703
tp704
Rp705
tp706
a(g183
(g187
S'\x01\x00\x00\x00\x00\x00\x00\x00'
p707
tp708
Rp709
g652
g183
(g187
S'\x03\x00\x00\x00\x00\x00\x00\x00'
p710
tp711
Rp712
tp713
a(g183
(g187
S'\x01\x00\x00\x00\x00\x00\x00\x00'
p714
tp715
Rp716
g667
g183
(g187
S'\x01\x00\x00\x00\x00\x00\x00\x00'
p717
tp718
Rp719
tp720
a(g183
(g187
S'\x01\x00\x00\x00\x00\x00\x00\x00'
p721
tp722
Rp723
g667
g183
(g187
S'\x02\x00\x00\x00\x00\x00\x00\x00'
p724
tp725
Rp726
tp727
a(g183
(g187
S'\x01\x00\x00\x00\x00\x00\x00\x00'
p728
tp729
Rp730
g667
g183
(g187
S'\x03\x00\x00\x00\x00\x00\x00\x00'
p731
tp732
Rp733
tp734
a(g183
(g187
S'\x02\x00\x00\x00\x00\x00\x00\x00'
p735
tp736
Rp737
g637
g183
(g187
S'\x01\x00\x00\x00\x00\x00\x00\x00'
p738
tp739
Rp740
tp741
a(g183
(g187
S'\x02\x00\x00\x00\x00\x00\x00\x00'
p742
tp743
Rp744
g652
g183
(g187
S'\x01\x00\x00\x00\x00\x00\x00\x00'
p745
tp746
Rp747
tp748
a(g183
(g187
S'\x02\x00\x00\x00\x00\x00\x00\x00'
p749
tp750
Rp751
g667
g183
(g187
S'\x01\x00\x00\x00\x00\x00\x00\x00'
p752
tp753
Rp754
tp755
a(g183
(g187
S'\x03\x00\x00\x00\x00\x00\x00\x00'
p756
tp757
Rp758
g637
g183
(g187
S'\x01\x00\x00\x00\x00\x00\x00\x00'
p759
tp760
Rp761
tp762
a(g183
(g187
S'\x03\x00\x00\x00\x00\x00\x00\x00'
p763
tp764
Rp765
g652
g183
(g187
S'\x01\x00\x00\x00\x00\x00\x00\x00'
p766
tp767
Rp768
tp769
a(g183
(g187
S'\x03\x00\x00\x00\x00\x00\x00\x00'
p770
tp771
Rp772
g667
g183
(g187
S'\x01\x00\x00\x00\x00\x00\x00\x00'
p773
tp774
Rp775
tp776
aNaNaNaNaNaNaNaNaNaNaNaNaNaNaNaNaNaNaNaNaNaNaNaNaNaNaNaNaNaNaNaNaNaNaNaNasg70
g0
(g71
g2
Ntp777
Rp778
(dp779
g75
Vif run:\u000a  sel = Eff > min_eff\u000a  unfiltrd_grouping_columns =   [\u000a      Treatment,\u000a       RunType, \u000a      BRpl,      \u000a    ]\u000a  grouping_columns =   [x[sel] for x in unfiltrd_grouping_columns]\u000a  Groups, UnfilteredEff = groupBy(\u000a    unfiltrd_grouping_columns, Eff)\u000a  UnfilteredEff = roundValues(UnfilteredEff, 2)\u000a  Groups, groupedCt = groupBy(\u000a    grouping_columns, Ct[sel])\u000a  Groups, groupedEff = groupBy(\u000a    grouping_columns, Eff[sel])\u000a  GroupedCt = roundValues(groupedCt,2)\u000a  GroupedEff = roundValues(groupedEff,2)
p780
sg76
g624
sg77
I00
sg78
I00
sg79
Vif run:\u000a  sel = Eff > min_eff\u000a  unfiltrd_grouping_columns =   [\u000a      Treatment,\u000a       RunType, \u000a      BRpl,      \u000a    ]\u000a  grouping_columns =   [x[sel] for x in unfiltrd_grouping_columns]\u000a  Groups, UnfilteredEff = groupBy(\u000a    unfiltrd_grouping_columns, Eff)\u000a  UnfilteredEff = roundValues(UnfilteredEff, 2)\u000a  Groups, groupedCt = groupBy(\u000a    grouping_columns, Ct[sel])\u000a  Groups, groupedEff = groupBy(\u000a    grouping_columns, Eff[sel])\u000a  GroupedCt = roundValues(groupedCt,2)\u000a  GroupedEff = roundValues(groupedEff,2)
p781
sbsg80
g0
(g81
g82
(g83
g84
tp782
tp783
Rp784
sg88
VGroups
p785
sbag0
(g8
g2
Ntp786
Rp787
(dp788
g12
I00
sg13
g4
sg14
(lp789
(lp790
F0.84
aF0.89
aF0.9
aa(lp791
F0.83
aF0.83
aF0.85
aa(lp792
F0.82
aF0.85
aF0.82
aa(lp793
F0.94
aF0.83
aF0.84
aa(lp794
F0.8
aF0.84
aF0.79
aa(lp795
F0.83
aF0.8
aF0.83
aa(lp796
F0.92
aF0.98
aF0.9
aa(lp797
F0.9
aF0.83
aF0.84
aa(lp798
F0.87
aF0.85
aF0.83
aa(lp799
F0.79
aF0.84
aF0.86
aa(lp800
F0.83
aF0.82
aF0.83
aa(lp801
F0.81
aF0.82
aF0.8
aa(lp802
F0.84
aF0.8
aF0.81
aa(lp803
F0.77
aF0.87
aF0.81
aa(lp804
F0.78
aF0.77
aF0.79
aa(lp805
F0.85
aF0.85
aF0.84
aa(lp806
F0.87
aF0.9
aF0.86
aa(lp807
F0.82
aF0.82
aF0.79
aaNaNaNaNaNaNaNaNaNaNaNaNaNaNaNaNaNaNaNaNaNaNaNaNaNaNaNaNaNaNaNaNaNaNaNaNasg70
g0
(g71
g2
Ntp808
Rp809
(dp810
g75
Nsg76
g787
sg77
I00
sg78
I00
sg79
Nsbsg80
g0
(g81
g82
(g83
g84
tp811
tp812
Rp813
sg88
VUnfilteredEff
p814
sbag0
(g8
g2
Ntp815
Rp816
(dp817
g12
I00
sg13
g4
sg14
(lp818
(lp819
F0.84
aF0.89
aF0.9
aa(lp820
F0.83
aF0.83
aF0.85
aa(lp821
F0.82
aF0.85
aF0.82
aa(lp822
F0.94
aF0.83
aF0.84
aa(lp823
F0.8
aF0.84
aF0.79
aa(lp824
F0.83
aF0.8
aF0.83
aa(lp825
F0.92
aF0.98
aF0.9
aa(lp826
F0.9
aF0.83
aF0.84
aa(lp827
F0.87
aF0.85
aF0.83
aa(lp828
F0.79
aF0.84
aF0.86
aa(lp829
F0.83
aF0.82
aF0.83
aa(lp830
F0.81
aF0.82
aF0.8
aa(lp831
F0.84
aF0.8
aF0.81
aa(lp832
F0.77
aF0.87
aF0.81
aa(lp833
F0.78
aF0.77
aF0.79
aa(lp834
F0.85
aF0.85
aF0.84
aa(lp835
F0.87
aF0.9
aF0.86
aa(lp836
F0.82
aF0.82
aF0.79
aaNaNaNaNaNaNaNaNaNaNaNaNaNaNaNaNaNaNaNaNaNaNaNaNaNaNaNaNaNaNaNaNaNaNaNaNasg70
g0
(g71
g2
Ntp837
Rp838
(dp839
g75
Nsg76
g816
sg77
I00
sg78
I00
sg79
Nsbsg80
g0
(g81
g82
(g83
g84
tp840
tp841
Rp842
sg88
VGroupedEff
p843
sbag0
(g8
g2
Ntp844
Rp845
(dp846
g12
I00
sg13
g4
sg14
(lp847
(lp848
F23.0
aF22.86
aF22.8
aa(lp849
F18.24
aF18.22
aF18.36
aa(lp850
F19.72
aF19.75
aF20.01
aa(lp851
F26.68
aF27.13
aF27.21
aa(lp852
F26.76
aF26.71
aF26.19
aa(lp853
F29.98
aF30.12
aF29.41
aa(lp854
F19.92
aF19.85
aF20.0
aa(lp855
F21.86
aF22.09
aF21.84
aa(lp856
F23.89
aF23.54
aF24.27
aa(lp857
F22.18
aF21.71
aF21.75
aa(lp858
F23.88
aF23.42
aF23.63
aa(lp859
F24.59
aF24.61
aF24.34
aa(lp860
F29.95
aF30.45
aF29.88
aa(lp861
F23.22
aF23.8
aF23.49
aa(lp862
F26.37
aF26.36
aF26.17
aa(lp863
F24.8
aF24.97
aF24.63
aa(lp864
F18.91
aF18.78
aF18.8
aa(lp865
F20.5
aF20.47
aF20.28
aaNaNaNaNaNaNaNaNaNaNaNaNaNaNaNaNaNaNaNaNaNaNaNaNaNaNaNaNaNaNaNaNaNaNaNaNasg70
g0
(g71
g2
Ntp866
Rp867
(dp868
g75
Nsg76
g845
sg77
I00
sg78
I00
sg79
Nsbsg80
g0
(g81
g82
(g83
g84
tp869
tp870
Rp871
sg88
VGroupedCt
p872
sbag0
(g8
g2
Ntp873
Rp874
(dp875
g12
I00
sg13
g4
sg14
(lp876
(lp877
F23.0
aF22.9
aF22.8
aa(lp878
F18.2
aF18.2
aF18.4
aa(lp879
F19.7
aF19.8
aF20.0
aa(lp880
F26.7
aF27.1
aF27.2
aa(lp881
F26.8
aF26.7
aF26.2
aa(lp882
F30.0
aF30.1
aF29.4
aa(lp883
F19.9
aF19.9
aF20.0
aa(lp884
F21.9
aF22.1
aF21.8
aa(lp885
F23.9
aF23.5
aF24.3
aa(lp886
F22.2
aF21.7
aF21.8
aa(lp887
F23.9
aF23.4
aF23.6
aa(lp888
F24.6
aF24.6
aF24.3
aa(lp889
F29.9
aF30.4
aF29.9
aa(lp890
F23.2
aF23.8
aF23.5
aa(lp891
F26.4
aF26.4
aF26.2
aa(lp892
F24.8
aF25.0
aF24.6
aa(lp893
F18.9
aF18.8
aF18.8
aa(lp894
F20.5
aF20.5
aF20.3
aaNaNaNaNaNaNaNaNaNaNaNaNaNaNaNaNaNaNaNaNaNaNaNaNaNaNaNaNaNaNaNaNaNaNaNaNasg70
g0
(g71
g2
Ntp895
Rp896
(dp897
g75
Vif run:\u000a  StdFilteredGroupedCt = roundValues([filterExtremes(g, max_std, 2) for g in pruneNulls(GroupedCt)])
p898
sg76
g874
sg77
I00
sg78
I00
sg79
Vif run:\u000a  StdFilteredGroupedCt = roundValues([filterExtremes(g, max_std, 2) for g in pruneNulls(GroupedCt)])
p899
sbsg80
g0
(g81
g82
(g83
g84
tp900
tp901
Rp902
sg88
VStdFilteredGroupedCt
p903
sbag0
(g8
g2
Ntp904
Rp905
(dp906
g12
I00
sg13
g4
sg14
(lp907
F22.9
aF18.3
aF19.8
aF27.0
aF26.6
aF29.8
aF19.9
aF21.9
aF23.9
aF21.9
aF23.6
aF24.5
aF30.1
aF23.5
aF26.3
aF24.8
aF18.8
aF20.4
aFnan
aFnan
aFnan
aFnan
aFnan
aFnan
aFnan
aFnan
aFnan
aFnan
aFnan
aFnan
aFnan
aFnan
aFnan
aFnan
aFnan
aFnan
aFnan
aFnan
aFnan
aFnan
aFnan
aFnan
aFnan
aFnan
aFnan
aFnan
aFnan
aFnan
aFnan
aFnan
aFnan
aFnan
aFnan
aFnan
asg70
g0
(g71
g2
Ntp908
Rp909
(dp910
g75
Vif run:\u000a  MeanCt = [np.mean(g) for g in StdFilteredGroupedCt]\u000a  MeanCt = roundValues(MeanCt,1)\u000a  StdCt = [np.std(g, ddof=1) for g in StdFilteredGroupedCt]\u000a  StdCt = roundValues(StdCt,3)\u000as.setColumnVisibility(['Groups', 'GroupedEff', 'GroupedCt', 'StdFilteredGroupedCt', 'MeanCt', 'StdCt', 'UnfilteredEff'], is_visible=show_block1)
p911
sg76
g905
sg77
I00
sg78
I00
sg79
Vif run:\u000a  MeanCt = [np.mean(g) for g in StdFilteredGroupedCt]\u000a  MeanCt = roundValues(MeanCt,1)\u000a  StdCt = [np.std(g, ddof=1) for g in StdFilteredGroupedCt]\u000a  StdCt = roundValues(StdCt,3)\u000as.setColumnVisibility(['Groups', 'GroupedEff', 'GroupedCt', 'StdFilteredGroupedCt', 'MeanCt', 'StdCt', 'UnfilteredEff'], is_visible=show_block1)
p912
sbsg80
g0
(g81
g82
(g83
g84
tp913
tp914
Rp915
sg88
VMeanCt
p916
sbag0
(g8
g2
Ntp917
Rp918
(dp919
g12
I00
sg13
g4
sg14
(lp920
F0.1
aF0.115
aF0.153
aF0.265
aF0.321
aF0.379
aF0.058
aF0.153
aF0.4
aF0.265
aF0.252
aF0.173
aF0.289
aF0.3
aF0.115
aF0.2
aF0.058
aF0.115
aFnan
aFnan
aFnan
aFnan
aFnan
aFnan
aFnan
aFnan
aFnan
aFnan
aFnan
aFnan
aFnan
aFnan
aFnan
aFnan
aFnan
aFnan
aFnan
aFnan
aFnan
aFnan
aFnan
aFnan
aFnan
aFnan
aFnan
aFnan
aFnan
aFnan
aFnan
aFnan
aFnan
aFnan
aFnan
aFnan
asg70
g0
(g71
g2
Ntp921
Rp922
(dp923
g75
Nsg76
g918
sg77
I00
sg78
I00
sg79
Nsbsg80
g0
(g81
g82
(g83
g84
tp924
tp925
Rp926
sg88
VStdCt
p927
sbag179
ag241
ag252
ag260
ag268
ag281
ag294
ag307
ag320
ag362
ag399
ag412
ag91
ag99
ag107
ag115
ag10
ag160
ag171
asS'_filepath'
p928
V/home/ubuntu/SciSheets/mysite/user/guest/tables/kristen_single_gene.pcl
p929
sg88
VSingleGene
p930
sb.