ccopy_reg
_reconstructor
p0
(cscisheets.ui.dt_table
DTTable
p1
c__builtin__
object
p2
Ntp3
Rp4
(dp5
S'_versioned_file'
p6
g0
(cmysite.helpers.versioned_file
VersionedFile
p7
g2
Ntp8
Rp9
(dp10
S'_redo_stack'
p11
g0
(cmysite.helpers.file_stack
FileStack
p12
g2
Ntp13
Rp14
(dp15
S'_dirpath'
p16
S'/home/ubuntu/SciSheets/mysite/user/guest/tables/backup'
p17
sS'_max_depth'
p18
I5
sS'_filename_pfx'
p19
Vkristen_single_gene.r
p20
sbsS'_max_versions'
p21
I5
sS'_undo_stack'
p22
g0
(g12
g2
Ntp23
Rp24
(dp25
g16
g17
sg18
I5
sg19
Vkristen_single_gene.u
p26
sbsS'_checkpoint_history'
p27
(lp28
VCell/Update
p29
aVCell/Update
p30
aVCell/Update
p31
aVCell/Update
p32
aVCell/Update
p33
aVCell/Update
p34
aVCell/Update
p35
aVCell/Update
p36
aVCell/Update
p37
aVCell/Update
p38
aVCell/Update
p39
aVCell/Update
p40
aVColumn/Formula
p41
aVColumn/Formula
p42
aVColumn/Append
p43
aVColumn/Formula
p44
aVColumn/Delete
p45
aVCell/Update
p46
aVColumn/Formula
p47
aVCell/Update
p48
aVCell/Update
p49
aVColumn/Formula
p50
aVColumn/Formula
p51
aVCell/Update
p52
aVColumn/Formula
p53
aVColumn/Formula
p54
aVCell/Update
p55
aVCell/Update
p56
aVCell/Update
p57
aVCell/Update
p58
aVColumn/Formula
p59
aVCell/Update
p60
aVCell/Update
p61
aVCell/Update
p62
aVColumn/Formula
p63
aVCell/Update
p64
aVColumn/Formula
p65
aVColumn/Formula
p66
aVCell/Update
p67
aVCell/Update
p68
aVCell/Update
p69
aVCell/Update
p70
aVCell/Update
p71
aVCell/Update
p72
aVCell/Update
p73
aVCell/Update
p74
aVCell/Update
p75
aVColumn/Formula
p76
aVCell/Update
p77
aVCell/Update
p78
aVCell/Update
p79
aVCell/Update
p80
aVCell/Update
p81
aVCell/Update
p82
aVCell/Update
p83
aVCell/Update
p84
aVCell/Update
p85
aVCell/Update
p86
aVCell/Update
p87
aVCell/Update
p88
aVColumn/Formula
p89
aVColumn/Formula
p90
aVColumn/Formula
p91
aVCell/Update
p92
aVCell/Update
p93
aVCell/Update
p94
aVCell/Update
p95
aVCell/Update
p96
aVColumn/Formula
p97
aVCell/Update
p98
aVCell/Update
p99
aVCell/Update
p100
aVCell/Update
p101
aVCell/Update
p102
aVCell/Update
p103
aVCell/Update
p104
aVColumn/Formula
p105
aVColumn/Formula
p106
aVColumn/Formula
p107
aVCell/Update
p108
aVCell/Update
p109
aVColumn/Formula
p110
aVCell/Update
p111
aVCell/Update
p112
aVCell/Update
p113
aVCell/Update
p114
aVCell/Update
p115
aVCell/Update
p116
aVCell/Update
p117
aVCell/Update
p118
aVColumn/Formula
p119
aVCell/Update
p120
aVColumn/Formula
p121
aVColumn/Formula
p122
aVColumn/Formula
p123
aVCell/Update
p124
aVCell/Update
p125
aVColumn/Formula
p126
aVColumn/Formula
p127
aVColumn/Formula
p128
aVColumn/Formula
p129
aVCell/Update
p130
aVColumn/Formula
p131
aVColumn/Formula
p132
aVColumn/Formula
p133
aVCell/Update
p134
aVCell/Update
p135
aVCell/Update
p136
aVCell/Update
p137
aVCell/Update
p138
aVCell/Update
p139
aVCell/Update
p140
aVCell/Update
p141
aVCell/Update
p142
aVCell/Update
p143
aVColumn/Formula
p144
aVColumn/Formula
p145
aVColumn/Formula
p146
aVColumn/Formula
p147
aVCell/Update
p148
aVCell/Update
p149
aVColumn/Formula
p150
aVCell/Update
p151
aVCell/Update
p152
aVCell/Update
p153
aVCell/Update
p154
aVCell/Update
p155
aVCell/Update
p156
aVCell/Update
p157
aVCell/Update
p158
aVCell/Update
p159
aVCell/Update
p160
aVCell/Update
p161
aVCell/Update
p162
aVCell/Update
p163
aVColumn/Formula
p164
aVColumn/Formula
p165
aVCell/Update
p166
aVCell/Update
p167
aVCell/Update
p168
aVColumn/Formula
p169
aVCell/Update
p170
aVCell/Update
p171
aVCell/Update
p172
aVCell/Update
p173
aVColumn/Formula
p174
aVColumn/Formula
p175
aVColumn/Formula
p176
aVColumn/Formula
p177
aVCell/Update
p178
aVColumn/Formula
p179
aVCell/Update
p180
aVCell/Update
p181
aVCell/Update
p182
aVCell/Update
p183
aVCell/Update
p184
aVCell/Update
p185
aVCell/Update
p186
aVCell/Update
p187
aVCell/Update
p188
aVColumn/Formula
p189
aVCell/Update
p190
aVCell/Update
p191
aVCell/Update
p192
aVCell/Update
p193
aVCell/Update
p194
aVCell/Update
p195
aVCell/Update
p196
aVCell/Update
p197
aVCell/Update
p198
aVCell/Update
p199
aVCell/Update
p200
aVCell/Update
p201
aVCell/Update
p202
aVCell/Update
p203
aVCell/Update
p204
aVCell/Update
p205
aVCell/Update
p206
aVCell/Update
p207
aVCell/Update
p208
aVCell/Update
p209
aVCell/Update
p210
aVCell/Update
p211
aVCell/Update
p212
aVCell/Update
p213
aVCell/Update
p214
aVCell/Update
p215
aVCell/Update
p216
aVCell/Update
p217
aVCell/Update
p218
aVCell/Update
p219
aVCell/Update
p220
aVCell/Update
p221
aVCell/Update
p222
aVCell/Update
p223
aVCell/Update
p224
aVCell/Update
p225
aVCell/Update
p226
aVCell/Update
p227
aVCell/Update
p228
aVCell/Update
p229
aVCell/Update
p230
aVCell/Update
p231
aVCell/Update
p232
aVCell/Update
p233
aVCell/Update
p234
aVCell/Update
p235
aVCell/Update
p236
aVCell/Update
p237
aVCell/Update
p238
aVCell/Update
p239
aVCell/Update
p240
aVCell/Update
p241
aVCell/Update
p242
aVCell/Update
p243
aVCell/Update
p244
aVCell/Update
p245
aVCell/Update
p246
aVCell/Update
p247
aVCell/Update
p248
aVCell/Update
p249
aVCell/Update
p250
aVCell/Update
p251
asS'_filepath'
p252
V/home/ubuntu/SciSheets/mysite/user/guest/tables/kristen_single_gene.pcl
p253
sS'_backup_dir'
p254
g17
sbsS'_namespace'
p255
(dp256
sS'_hidden_columns'
p257
(lp258
g0
(cscisheets.core.column
Column
p259
g2
Ntp260
Rp261
(dp262
S'_asis'
p263
I00
sS'_owning_table'
p264
g4
sS'_cells'
p265
(lp266
I1
aI1
aI1
aI1
aI1
aI1
aI1
aI1
aI1
aI1
aI1
aI1
aI2
aI2
aI2
aI3
aI3
aI3
aI1
aI1
aI1
aI2
aI2
aI2
aI3
aI3
aI3
aI1
aI1
aI1
aI2
aI2
aI2
aI3
aI3
aI3
aI1
aI1
aI1
aI1
aI1
aI1
aI1
aI1
aI1
aI1
aI1
aI1
aI1
aI1
aI1
aI1
aI1
aI1
asS'_formula_statement'
p267
g0
(cscisheets.core.helpers.formula_statement
FormulaStatement
p268
g2
Ntp269
Rp270
(dp271
S'_statement'
p272
NsS'_name'
p273
S'BRpl'
p274
sS'_isExpression'
p275
I00
sS'_isStatement'
p276
I00
sS'_formula'
p277
NsbsS'_data_class'
p278
g0
(cscisheets.core.helpers.api_util
DataClass
p279
c__builtin__
tuple
p280
(cnumpy
ndarray
p281
cscisheets.core.helpers.api_util
makeArray
p282
tp283
tp284
Rp285
sg273
g274
sbag0
(g259
g2
Ntp286
Rp287
(dp288
g263
I00
sg264
g4
sg265
(lp289
F18.31
aF18.29
aF18.15
aF18.24
aF18.22
aF18.36
aF19.72
aF19.75
aF20.01
aF22.42
aF22.5
aF22.44
aF21.92
aF22.03
aF21.94
aF23.4
aF23.47
aF23.41
aF19.92
aF19.85
aF20.0
aF21.86
aF22.09
aF21.84
aF23.89
aF23.54
aF24.27
aF22.18
aF21.71
aF21.75
aF23.88
aF23.42
aF23.63
aF24.59
aF24.61
aF24.34
aF23.48
aF23.31
aF23.45
aF23.22
aF23.8
aF23.49
aF26.37
aF26.36
aF26.17
aF18.82
aF18.97
aF18.92
aF18.91
aF18.78
aF18.8
aF20.5
aF20.47
aF20.28
asg267
g0
(g268
g2
Ntp290
Rp291
(dp292
g272
Nsg273
S'Ct'
p293
sg275
I00
sg276
I00
sg277
Nsbsg278
g285
sg273
g293
sbag0
(g259
g2
Ntp294
Rp295
(dp296
g263
I00
sg264
g4
sg265
(lp297
F0.919
aF0.9106
aF0.9129
aF0.8266
aF0.8343
aF0.8496
aF0.8157
aF0.8543
aF0.8208
aF0.8453
aF0.8426
aF0.8524
aF0.8658
aF0.7809
aF0.8512
aF0.8442
aF0.8357
aF0.7658
aF0.9179
aF0.9783
aF0.8971
aF0.8957
aF0.8287
aF0.8387
aF0.8746
aF0.8493
aF0.8349
aF0.7857
aF0.8427
aF0.8637
aF0.8281
aF0.8203
aF0.8288
aF0.8138
aF0.8242
aF0.804
aF0.8352
aF0.7886
aF0.8105
aF0.7701
aF0.8746
aF0.8139
aF0.7795
aF0.7676
aF0.7947
aF0.876
aF0.8597
aF0.8873
aF0.8715
aF0.8977
aF0.856
aF0.8179
aF0.8173
aF0.7894
asg267
g0
(g268
g2
Ntp298
Rp299
(dp300
g272
Nsg273
S'Eff'
p301
sg275
I00
sg276
I00
sg277
Nsbsg278
g285
sg273
g301
sbag0
(g259
g2
Ntp302
Rp303
(dp304
g263
I00
sg264
g4
sg265
(lp305
VI
p306
ag306
ag306
aVR1
p307
aVR1
p308
aVR1
p309
aVR2
p310
aVR2
p311
aVR2
p312
ag306
ag306
ag306
ag306
ag306
ag306
ag306
ag306
ag306
aVR1
p313
aVR1
p314
aVR1
p315
aVR1
p316
aVR1
p317
aVR1
p318
aVR1
p319
aVR1
p320
aVR1
p321
aVR2
p322
aVR2
p323
aVR2
p324
aVR2
p325
aVR2
p326
aVR2
p327
aVR2
p328
aVR2
p329
aVR2
p330
ag306
ag306
ag306
aVR1
p331
aVR1
p332
aVR1
p333
aVR2
p334
aVR2
p335
aVR2
p336
ag306
ag306
ag306
aVR1
p337
aVR1
p338
aVR1
p339
aVR2
p340
aVR2
p341
aVR2
p342
asg267
g0
(g268
g2
Ntp343
Rp344
(dp345
g272
Nsg273
S'RunType'
p346
sg275
I00
sg276
I00
sg277
Nsbsg278
g285
sg273
g346
sbag0
(g259
g2
Ntp347
Rp348
(dp349
g263
I00
sg264
g4
sg265
(lp350
Va
p351
aVb
p352
aVc
p353
ag351
ag352
ag353
ag351
ag352
ag353
ag351
ag352
ag353
ag351
ag352
ag353
ag351
ag352
ag353
ag351
ag352
ag353
ag351
ag352
ag353
ag351
ag352
ag353
ag351
ag352
ag353
ag351
ag352
ag353
ag351
ag352
ag353
ag351
ag352
ag353
ag351
ag352
ag353
ag351
ag352
ag353
ag351
ag352
ag353
ag351
ag352
ag353
ag351
ag352
ag353
asg267
g0
(g268
g2
Ntp354
Rp355
(dp356
g272
Nsg273
S'TRpl'
p357
sg275
I00
sg276
I00
sg277
Nsbsg278
g285
sg273
g357
sbag0
(g259
g2
Ntp358
Rp359
(dp360
g263
I00
sg264
g4
sg265
(lp361
I0
aI0
aI0
aI0
aI0
aI0
aI0
aI0
aI0
aI1
aI1
aI1
aI1
aI1
aI1
aI1
aI1
aI1
aI1
aI1
aI1
aI1
aI1
aI1
aI1
aI1
aI1
aI1
aI1
aI1
aI1
aI1
aI1
aI1
aI1
aI1
aI2
aI2
aI2
aI2
aI2
aI2
aI2
aI2
aI2
aI3
aI3
aI3
aI3
aI3
aI3
aI3
aI3
aI3
asg267
g0
(g268
g2
Ntp362
Rp363
(dp364
g272
Nsg273
S'Treatment'
p365
sg275
I00
sg276
I00
sg277
Nsbsg278
g285
sg273
g365
sbasS'_is_evaluate_formulas'
p366
I01
sS'_prologue'
p367
g0
(g268
g2
Ntp368
Rp369
(dp370
g272
V# Prologue\u000aimport math as mt\u000aimport numpy as np\u000afrom os import listdir\u000afrom os.path import isfile, join\u000aimport pandas as pd\u000aimport scipy as sp\u000afrom numpy import nan  # Must follow sympy import \u000a\u000axlsx_path = '/mnt/hgfs/josephhellerstein/home/Technical/SciSheets/CaseStudies/Kristen/workbooks/data.xlsx'\u000agene = ParmValues[0]\u000arun = ParmValues[1] == 'True'\u000ashow_raw = ParmValues[2] == 'True'\u000ashow_block1 = ParmValues[3] == 'True'\u000ashow_block2 = ParmValues[4] == 'True'\u000ashow_block3 = ParmValues[5] == 'True'\u000ashow_params = ParmValues[8] == 'True'\u000a#show_params = True\u000amax_std  = float(ParmValues[6])\u000amin_eff = float(ParmValues[7])\u000aworksheet = gene + "-I"\u000as.getTable().setIsEvaluateFormulas(run)\u000as.setColumnVisibility()\u000as.setColumnVisibility(['Groups', 'GroupedEff', 'GroupedCt', 'StdFilteredGroupedCt', 'MeanCt', 'StdCt'], is_visible=show_block1)\u000as.setColumnVisibility(['BioRuns', 'Gene_I', 'Gene_R1', 'Gene_R2', 'ExprR1', 'ExprR2', 'GeoMean'], is_visible=show_block2)\u000as.setColumnVisibility(['GeoGroups', 'GroupedGeoMeans', 'NrmlGeoGroupedMeans', 'MeanNrmlGeoGroups', 'StdNrmlGeoGroups'], is_visible=show_block3)\u000aif False:\u000a  Groups = []\u000a  GroupedCt = []\u000a  GroupedEff = []\u000a  MeanCt = []\u000a  Imp = []\u000a  s.deleteColumn('Ct')\u000a  s.deleteColumn('RunType')\u000a  s.deleteColumn('BRpl')\u000a  s.deleteColumn('TRpl')\u000a  s.deleteColumn('Treatment')\u000a  s.deleteColumn('Eff')\u000aif run:\u000a  importExcelToTable(s, xlsx_path, worksheet=worksheet,\u000a      column_position='ParmValues',\u000a      names=['Treatment', 'RunType', 'BRpl', 'TRpl', 'Eff', 'Ct'])\u000as.setColumnVisibility(['BRpl', 'Ct', 'Eff', 'RunType', 'TRpl', 'Treatment'], is_visible=show_raw)\u000as.setColumnVisibility(['ParmNames', 'ParmValues'], show_params)
p371
sg273
VSingleGene
p372
sg275
I00
sg276
I00
sg277
V# Prologue\u000aimport math as mt\u000aimport numpy as np\u000afrom os import listdir\u000afrom os.path import isfile, join\u000aimport pandas as pd\u000aimport scipy as sp\u000afrom numpy import nan  # Must follow sympy import \u000a\u000axlsx_path = '/mnt/hgfs/josephhellerstein/home/Technical/SciSheets/CaseStudies/Kristen/workbooks/data.xlsx'\u000agene = ParmValues[0]\u000arun = ParmValues[1] == 'True'\u000ashow_raw = ParmValues[2] == 'True'\u000ashow_block1 = ParmValues[3] == 'True'\u000ashow_block2 = ParmValues[4] == 'True'\u000ashow_block3 = ParmValues[5] == 'True'\u000ashow_params = ParmValues[8] == 'True'\u000a#show_params = True\u000amax_std  = float(ParmValues[6])\u000amin_eff = float(ParmValues[7])\u000aworksheet = gene + "-I"\u000as.getTable().setIsEvaluateFormulas(run)\u000as.setColumnVisibility()\u000as.setColumnVisibility(['Groups', 'GroupedEff', 'GroupedCt', 'StdFilteredGroupedCt', 'MeanCt', 'StdCt'], is_visible=show_block1)\u000as.setColumnVisibility(['BioRuns', 'Gene_I', 'Gene_R1', 'Gene_R2', 'ExprR1', 'ExprR2', 'GeoMean'], is_visible=show_block2)\u000as.setColumnVisibility(['GeoGroups', 'GroupedGeoMeans', 'NrmlGeoGroupedMeans', 'MeanNrmlGeoGroups', 'StdNrmlGeoGroups'], is_visible=show_block3)\u000aif False:\u000a  Groups = []\u000a  GroupedCt = []\u000a  GroupedEff = []\u000a  MeanCt = []\u000a  Imp = []\u000a  s.deleteColumn('Ct')\u000a  s.deleteColumn('RunType')\u000a  s.deleteColumn('BRpl')\u000a  s.deleteColumn('TRpl')\u000a  s.deleteColumn('Treatment')\u000a  s.deleteColumn('Eff')\u000aif run:\u000a  importExcelToTable(s, xlsx_path, worksheet=worksheet,\u000a      column_position='ParmValues',\u000a      names=['Treatment', 'RunType', 'BRpl', 'TRpl', 'Eff', 'Ct'])\u000as.setColumnVisibility(['BRpl', 'Ct', 'Eff', 'RunType', 'TRpl', 'Treatment'], is_visible=show_raw)\u000as.setColumnVisibility(['ParmNames', 'ParmValues'], show_params)
p373
sbsS'_epilogue'
p374
g0
(g268
g2
Ntp375
Rp376
(dp377
g272
V# Epilogue\u000aif run:\u000a  worksheet = "%s-O" % gene\u000a  exportTableToExcel(s, xlsx_path, worksheet=worksheet, columns=['GeoGroups', 'MeanNrmlGeoGroups', 'StdNrmlGeoGroups'])\u000a
p378
sg273
g372
sg275
I00
sg276
I00
sg277
V# Epilogue\u000aif run:\u000a  worksheet = "%s-O" % gene\u000a  exportTableToExcel(s, xlsx_path, worksheet=worksheet, columns=['GeoGroups', 'MeanNrmlGeoGroups', 'StdNrmlGeoGroups'])\u000a
p379
sbsg273
g372
sS'_columns'
p380
(lp381
g0
(g259
g2
Ntp382
Rp383
(dp384
g263
I01
sg264
g4
sg265
(lp385
S'1'
p386
aS'2'
p387
aS'3'
p388
aS'4'
p389
aS'5'
p390
aS'6'
p391
aS'7'
p392
aS'8'
p393
aS'9'
p394
aS'10'
p395
aS'11'
p396
aS'12'
p397
aS'13'
p398
aS'14'
p399
aS'15'
p400
aS'16'
p401
aS'17'
p402
aS'18'
p403
aS'19'
p404
aS'20'
p405
aS'21'
p406
aS'22'
p407
aS'23'
p408
aS'24'
p409
aS'25'
p410
aS'26'
p411
aS'27'
p412
aS'28'
p413
aS'29'
p414
aS'30'
p415
aS'31'
p416
aS'32'
p417
aS'33'
p418
aS'34'
p419
aS'35'
p420
aS'36'
p421
aS'37'
p422
aS'38'
p423
aS'39'
p424
aS'40'
p425
aS'41'
p426
aS'42'
p427
aS'43'
p428
aS'44'
p429
aS'45'
p430
aS'46'
p431
aS'47'
p432
aS'48'
p433
aS'49'
p434
aS'50'
p435
aS'51'
p436
aS'52'
p437
aS'53'
p438
aS'54'
p439
asg267
g0
(g268
g2
Ntp440
Rp441
(dp442
g272
NsS'_column'
p443
g383
sg275
I00
sg276
I00
sg277
Nsbsg278
g0
(g279
g280
(g281
g282
tp444
tp445
Rp446
sg273
S'row'
p447
sbag0
(g259
g2
Ntp448
Rp449
(dp450
g263
I00
sg264
g4
sg265
(lp451
Vgene
p452
aVrun
p453
aVshow_raw
p454
aVshow_block1
p455
aVshow_block2
p456
aVshow_block3
p457
aVmax_std
p458
aVmin_eff
p459
aVshow_params
p460
aVnan
p461
aVnan
p462
aVnan
p463
aVnan
p464
aVnan
p465
aVnan
p466
aVnan
p467
aVnan
p468
aVnan
p469
aVnan
p470
aVnan
p471
aVnan
p472
aVnan
p473
aVnan
p474
aVnan
p475
aVnan
p476
aVnan
p477
aVnan
p478
aVnan
p479
aVnan
p480
aVnan
p481
aVnan
p482
aVnan
p483
aVnan
p484
aVnan
p485
aVnan
p486
aVnan
p487
aVnan
p488
aVnan
p489
aVnan
p490
aVnan
p491
aVnan
p492
aVnan
p493
aVnan
p494
aVnan
p495
aVnan
p496
aVnan
p497
aVnan
p498
aVnan
p499
aVnan
p500
aVnan
p501
aVnan
p502
aVnan
p503
aVnan
p504
aVnan
p505
asg267
g0
(g268
g2
Ntp506
Rp507
(dp508
g272
Nsg443
g449
sg275
I00
sg276
I00
sg277
Nsbsg278
g0
(g279
g280
(g281
g282
tp509
tp510
Rp511
sg273
VParmNames
p512
sbag0
(g259
g2
Ntp513
Rp514
(dp515
g263
I00
sg264
g4
sg265
(lp516
VGene2
p517
aVTrue
p518
aVFalse
p519
aVTrue
p520
aVTrue
p521
aVTrue
p522
aV0.5
p523
aV0.7
p524
aVTrue
p525
aV
p526
aVnan
p527
aVnan
p528
aVnan
p529
aVnan
p530
aVnan
p531
aVnan
p532
aVnan
p533
aVnan
p534
aVnan
p535
aVnan
p536
aVnan
p537
aVnan
p538
aVnan
p539
aVnan
p540
aVnan
p541
aVnan
p542
aVnan
p543
aVnan
p544
aVnan
p545
aVnan
p546
aVnan
p547
aVnan
p548
aVnan
p549
aVnan
p550
aVnan
p551
aVnan
p552
aVnan
p553
aVnan
p554
aVnan
p555
aVnan
p556
aVnan
p557
aVnan
p558
aVnan
p559
aVnan
p560
aVnan
p561
aVnan
p562
aVnan
p563
aVnan
p564
aVnan
p565
aVnan
p566
aVnan
p567
aVnan
p568
aVnan
p569
aVnan
p570
asg267
g0
(g268
g2
Ntp571
Rp572
(dp573
g272
Nsg273
VParmValues
p574
sg275
I00
sg276
I00
sg277
Nsbsg278
g0
(g279
g280
(g281
g282
tp575
tp576
Rp577
sg273
g574
sbag359
ag303
ag261
ag348
ag295
ag287
ag0
(g259
g2
Ntp578
Rp579
(dp580
g263
I00
sg264
g4
sg265
(lp581
(lp582
cnumpy.core.multiarray
scalar
p583
(cnumpy
dtype
p584
(S'i8'
p585
I0
I1
tp586
Rp587
(I3
S'<'
p588
NNNI-1
I-1
I0
tp589
bS'\x00\x00\x00\x00\x00\x00\x00\x00'
p590
tp591
Rp592
ag306
ag583
(g587
S'\x01\x00\x00\x00\x00\x00\x00\x00'
p593
tp594
Rp595
aa(lp596
g583
(g587
S'\x00\x00\x00\x00\x00\x00\x00\x00'
p597
tp598
Rp599
aVR1
p600
ag583
(g587
S'\x01\x00\x00\x00\x00\x00\x00\x00'
p601
tp602
Rp603
aa(lp604
g583
(g587
S'\x00\x00\x00\x00\x00\x00\x00\x00'
p605
tp606
Rp607
aVR2
p608
ag583
(g587
S'\x01\x00\x00\x00\x00\x00\x00\x00'
p609
tp610
Rp611
aa(lp612
g583
(g587
S'\x01\x00\x00\x00\x00\x00\x00\x00'
p613
tp614
Rp615
ag306
ag583
(g587
S'\x01\x00\x00\x00\x00\x00\x00\x00'
p616
tp617
Rp618
aa(lp619
g583
(g587
S'\x01\x00\x00\x00\x00\x00\x00\x00'
p620
tp621
Rp622
ag306
ag583
(g587
S'\x02\x00\x00\x00\x00\x00\x00\x00'
p623
tp624
Rp625
aa(lp626
g583
(g587
S'\x01\x00\x00\x00\x00\x00\x00\x00'
p627
tp628
Rp629
ag306
ag583
(g587
S'\x03\x00\x00\x00\x00\x00\x00\x00'
p630
tp631
Rp632
aa(lp633
g583
(g587
S'\x01\x00\x00\x00\x00\x00\x00\x00'
p634
tp635
Rp636
ag600
ag583
(g587
S'\x01\x00\x00\x00\x00\x00\x00\x00'
p637
tp638
Rp639
aa(lp640
g583
(g587
S'\x01\x00\x00\x00\x00\x00\x00\x00'
p641
tp642
Rp643
ag600
ag583
(g587
S'\x02\x00\x00\x00\x00\x00\x00\x00'
p644
tp645
Rp646
aa(lp647
g583
(g587
S'\x01\x00\x00\x00\x00\x00\x00\x00'
p648
tp649
Rp650
ag600
ag583
(g587
S'\x03\x00\x00\x00\x00\x00\x00\x00'
p651
tp652
Rp653
aa(lp654
g583
(g587
S'\x01\x00\x00\x00\x00\x00\x00\x00'
p655
tp656
Rp657
ag608
ag583
(g587
S'\x01\x00\x00\x00\x00\x00\x00\x00'
p658
tp659
Rp660
aa(lp661
g583
(g587
S'\x01\x00\x00\x00\x00\x00\x00\x00'
p662
tp663
Rp664
ag608
ag583
(g587
S'\x02\x00\x00\x00\x00\x00\x00\x00'
p665
tp666
Rp667
aa(lp668
g583
(g587
S'\x01\x00\x00\x00\x00\x00\x00\x00'
p669
tp670
Rp671
ag608
ag583
(g587
S'\x03\x00\x00\x00\x00\x00\x00\x00'
p672
tp673
Rp674
aa(lp675
g583
(g587
S'\x02\x00\x00\x00\x00\x00\x00\x00'
p676
tp677
Rp678
ag306
ag583
(g587
S'\x01\x00\x00\x00\x00\x00\x00\x00'
p679
tp680
Rp681
aa(lp682
g583
(g587
S'\x02\x00\x00\x00\x00\x00\x00\x00'
p683
tp684
Rp685
ag600
ag583
(g587
S'\x01\x00\x00\x00\x00\x00\x00\x00'
p686
tp687
Rp688
aa(lp689
g583
(g587
S'\x02\x00\x00\x00\x00\x00\x00\x00'
p690
tp691
Rp692
ag608
ag583
(g587
S'\x01\x00\x00\x00\x00\x00\x00\x00'
p693
tp694
Rp695
aa(lp696
g583
(g587
S'\x03\x00\x00\x00\x00\x00\x00\x00'
p697
tp698
Rp699
ag306
ag583
(g587
S'\x01\x00\x00\x00\x00\x00\x00\x00'
p700
tp701
Rp702
aa(lp703
g583
(g587
S'\x03\x00\x00\x00\x00\x00\x00\x00'
p704
tp705
Rp706
ag600
ag583
(g587
S'\x01\x00\x00\x00\x00\x00\x00\x00'
p707
tp708
Rp709
aa(lp710
g583
(g587
S'\x03\x00\x00\x00\x00\x00\x00\x00'
p711
tp712
Rp713
ag608
ag583
(g587
S'\x01\x00\x00\x00\x00\x00\x00\x00'
p714
tp715
Rp716
aaNaNaNaNaNaNaNaNaNaNaNaNaNaNaNaNaNaNaNaNaNaNaNaNaNaNaNaNaNaNaNaNaNaNaNaNasg267
g0
(g268
g2
Ntp717
Rp718
(dp719
g272
Vsel = Eff > min_eff\u000agrouping_columns =   [\u000a    Treatment[sel],\u000a     RunType[sel], \u000a    BRpl[sel],      \u000a  ]\u000aGroups, groupedCt = groupBy(\u000a     grouping_columns, Ct[sel])\u000aGroups, groupedEff = groupBy(\u000a     grouping_columns, Eff[sel])\u000aGroups = [[g[0], g[1], g[2]] for g in Groups]\u000aGroupedCt = roundValues(groupedCt,2)\u000aGroupedEff = roundValues(groupedEff,2)
p720
sg273
VGroups
p721
sg275
I00
sg276
I00
sg277
Vsel = Eff > min_eff\u000agrouping_columns =   [\u000a    Treatment[sel],\u000a     RunType[sel], \u000a    BRpl[sel],      \u000a  ]\u000aGroups, groupedCt = groupBy(\u000a     grouping_columns, Ct[sel])\u000aGroups, groupedEff = groupBy(\u000a     grouping_columns, Eff[sel])\u000aGroups = [[g[0], g[1], g[2]] for g in Groups]\u000aGroupedCt = roundValues(groupedCt,2)\u000aGroupedEff = roundValues(groupedEff,2)
p722
sbsg278
g0
(g279
g280
(g281
g282
tp723
tp724
Rp725
sg273
g721
sbag0
(g259
g2
Ntp726
Rp727
(dp728
g263
I00
sg264
g4
sg265
(lp729
(lp730
F0.92
aF0.91
aF0.91
aa(lp731
F0.83
aF0.83
aF0.85
aa(lp732
F0.82
aF0.85
aF0.82
aa(lp733
F0.85
aF0.84
aF0.85
aa(lp734
F0.87
aF0.78
aF0.85
aa(lp735
F0.84
aF0.84
aF0.77
aa(lp736
F0.92
aF0.98
aF0.9
aa(lp737
F0.9
aF0.83
aF0.84
aa(lp738
F0.87
aF0.85
aF0.83
aa(lp739
F0.79
aF0.84
aF0.86
aa(lp740
F0.83
aF0.82
aF0.83
aa(lp741
F0.81
aF0.82
aF0.8
aa(lp742
F0.84
aF0.79
aF0.81
aa(lp743
F0.77
aF0.87
aF0.81
aa(lp744
F0.78
aF0.77
aF0.79
aa(lp745
F0.88
aF0.86
aF0.89
aa(lp746
F0.87
aF0.9
aF0.86
aa(lp747
F0.82
aF0.82
aF0.79
aaNaNaNaNaNaNaNaNaNaNaNaNaNaNaNaNaNaNaNaNaNaNaNaNaNaNaNaNaNaNaNaNaNaNaNaNasg267
g0
(g268
g2
Ntp748
Rp749
(dp750
g272
Nsg443
g727
sg275
I00
sg276
I00
sg277
Nsbsg278
g0
(g279
g280
(g281
g282
tp751
tp752
Rp753
sg273
VGroupedEff
p754
sbag0
(g259
g2
Ntp755
Rp756
(dp757
g263
I00
sg264
g4
sg265
(lp758
(lp759
F18.31
aF18.29
aF18.15
aa(lp760
F18.24
aF18.22
aF18.36
aa(lp761
F19.72
aF19.75
aF20.01
aa(lp762
F22.42
aF22.5
aF22.44
aa(lp763
F21.92
aF22.03
aF21.94
aa(lp764
F23.4
aF23.47
aF23.41
aa(lp765
F19.92
aF19.85
aF20.0
aa(lp766
F21.86
aF22.09
aF21.84
aa(lp767
F23.89
aF23.54
aF24.27
aa(lp768
F22.18
aF21.71
aF21.75
aa(lp769
F23.88
aF23.42
aF23.63
aa(lp770
F24.59
aF24.61
aF24.34
aa(lp771
F23.48
aF23.31
aF23.45
aa(lp772
F23.22
aF23.8
aF23.49
aa(lp773
F26.37
aF26.36
aF26.17
aa(lp774
F18.82
aF18.97
aF18.92
aa(lp775
F18.91
aF18.78
aF18.8
aa(lp776
F20.5
aF20.47
aF20.28
aaNaNaNaNaNaNaNaNaNaNaNaNaNaNaNaNaNaNaNaNaNaNaNaNaNaNaNaNaNaNaNaNaNaNaNaNasg267
g0
(g268
g2
Ntp777
Rp778
(dp779
g272
Nsg443
g756
sg275
I00
sg276
I00
sg277
Nsbsg278
g0
(g279
g280
(g281
g282
tp780
tp781
Rp782
sg273
VGroupedCt
p783
sbag0
(g259
g2
Ntp784
Rp785
(dp786
g263
I00
sg264
g4
sg265
(lp787
(lp788
F18.3
aF18.3
aF18.1
aa(lp789
F18.2
aF18.2
aF18.4
aa(lp790
F19.7
aF19.8
aF20.0
aa(lp791
F22.4
aF22.5
aF22.4
aa(lp792
F21.9
aF22.0
aF21.9
aa(lp793
F23.4
aF23.5
aF23.4
aa(lp794
F19.9
aF19.9
aF20.0
aa(lp795
F21.9
aF22.1
aF21.8
aa(lp796
F23.9
aF23.5
aF24.3
aa(lp797
F22.2
aF21.7
aF21.8
aa(lp798
F23.9
aF23.4
aF23.6
aa(lp799
F24.6
aF24.6
aF24.3
aa(lp800
F23.5
aF23.3
aF23.4
aa(lp801
F23.2
aF23.8
aF23.5
aa(lp802
F26.4
aF26.4
aF26.2
aa(lp803
F18.8
aF19.0
aF18.9
aa(lp804
F18.9
aF18.8
aF18.8
aa(lp805
F20.5
aF20.5
aF20.3
aaNaNaNaNaNaNaNaNaNaNaNaNaNaNaNaNaNaNaNaNaNaNaNaNaNaNaNaNaNaNaNaNaNaNaNaNasg267
g0
(g268
g2
Ntp806
Rp807
(dp808
g272
Vlength = len(Groups)\u000aStdFilteredGroupedCt = roundValues([filterExtremes(g, max_std, 2) for g in pruneNulls(GroupedCt,    required_length=length)])\u000a 
p809
sg273
VStdFilteredGroupedCt
p810
sg275
I00
sg276
I00
sg277
Vlength = len(Groups)\u000aStdFilteredGroupedCt = roundValues([filterExtremes(g, max_std, 2) for g in pruneNulls(GroupedCt,    required_length=length)])\u000a 
p811
sbsg278
g0
(g279
g280
(g281
g282
tp812
tp813
Rp814
sg273
g810
sbag0
(g259
g2
Ntp815
Rp816
(dp817
g263
I00
sg264
g4
sg265
(lp818
F18.2
aF18.3
aF19.8
aF22.4
aF21.9
aF23.4
aF19.9
aF21.9
aF23.9
aF21.9
aF23.6
aF24.5
aF23.4
aF23.5
aF26.3
aF18.9
aF18.8
aF20.4
aFnan
aFnan
aFnan
aFnan
aFnan
aFnan
aFnan
aFnan
aFnan
aFnan
aFnan
aFnan
aFnan
aFnan
aFnan
aFnan
aFnan
aFnan
aFnan
aFnan
aFnan
aFnan
aFnan
aFnan
aFnan
aFnan
aFnan
aFnan
aFnan
aFnan
aFnan
aFnan
aFnan
aFnan
aFnan
aFnan
asg267
g0
(g268
g2
Ntp819
Rp820
(dp821
g272
VMeanCt = [np.mean(g) for g in StdFilteredGroupedCt]\u000aMeanCt = roundValues(MeanCt,1)\u000aStdCt = [np.std(g, ddof=1) for g in StdFilteredGroupedCt]\u000aStdCt = roundValues(StdCt,3)
p822
sg273
VMeanCt
p823
sg275
I00
sg276
I00
sg277
VMeanCt = [np.mean(g) for g in StdFilteredGroupedCt]\u000aMeanCt = roundValues(MeanCt,1)\u000aStdCt = [np.std(g, ddof=1) for g in StdFilteredGroupedCt]\u000aStdCt = roundValues(StdCt,3)
p824
sbsg278
g0
(g279
g280
(g281
g282
tp825
tp826
Rp827
sg273
g823
sbag0
(g259
g2
Ntp828
Rp829
(dp830
g263
I00
sg264
g4
sg265
(lp831
F0.115
aF0.115
aF0.153
aF0.058
aF0.058
aF0.058
aF0.058
aF0.153
aF0.4
aF0.265
aF0.252
aF0.173
aF0.1
aF0.3
aF0.115
aF0.1
aF0.058
aF0.115
aFnan
aFnan
aFnan
aFnan
aFnan
aFnan
aFnan
aFnan
aFnan
aFnan
aFnan
aFnan
aFnan
aFnan
aFnan
aFnan
aFnan
aFnan
aFnan
aFnan
aFnan
aFnan
aFnan
aFnan
aFnan
aFnan
aFnan
aFnan
aFnan
aFnan
aFnan
aFnan
aFnan
aFnan
aFnan
aFnan
asg267
g0
(g268
g2
Ntp832
Rp833
(dp834
g272
Nsg443
g829
sg275
I00
sg276
I00
sg277
Nsbsg278
g0
(g279
g280
(g281
g282
tp835
tp836
Rp837
sg273
VStdCt
p838
sbag0
(g259
g2
Ntp839
Rp840
(dp841
g263
I00
sg264
g4
sg265
(lp842
(lp843
g583
(g587
S'\x00\x00\x00\x00\x00\x00\x00\x00'
p844
tp845
Rp846
ag583
(g587
S'\x01\x00\x00\x00\x00\x00\x00\x00'
p847
tp848
Rp849
aa(lp850
g583
(g587
S'\x01\x00\x00\x00\x00\x00\x00\x00'
p851
tp852
Rp853
ag583
(g587
S'\x01\x00\x00\x00\x00\x00\x00\x00'
p854
tp855
Rp856
aa(lp857
g583
(g587
S'\x01\x00\x00\x00\x00\x00\x00\x00'
p858
tp859
Rp860
ag583
(g587
S'\x02\x00\x00\x00\x00\x00\x00\x00'
p861
tp862
Rp863
aa(lp864
g583
(g587
S'\x01\x00\x00\x00\x00\x00\x00\x00'
p865
tp866
Rp867
ag583
(g587
S'\x03\x00\x00\x00\x00\x00\x00\x00'
p868
tp869
Rp870
aa(lp871
g583
(g587
S'\x02\x00\x00\x00\x00\x00\x00\x00'
p872
tp873
Rp874
ag583
(g587
S'\x01\x00\x00\x00\x00\x00\x00\x00'
p875
tp876
Rp877
aa(lp878
g583
(g587
S'\x03\x00\x00\x00\x00\x00\x00\x00'
p879
tp880
Rp881
ag583
(g587
S'\x01\x00\x00\x00\x00\x00\x00\x00'
p882
tp883
Rp884
aaNaNaNaNaNaNaNaNaNaNaNaNaNaNaNaNaNaNaNaNaNaNaNaNaNaNaNaNaNaNaNaNaNaNaNaNaNaNaNaNaNaNaNaNaNaNaNaNasg267
g0
(g268
g2
Ntp885
Rp886
(dp887
g272
Vdummy = tabularize(s, 'Groups', 1, 'MeanCt', \u000a          new_category_colnm='BioRuns',\u000a          values_colnm_prefix='Gene_')
p888
sg273
VBioRuns
p889
sg275
I00
sg276
I00
sg277
Vdummy = tabularize(s, 'Groups', 1, 'MeanCt', \u000a          new_category_colnm='BioRuns',\u000a          values_colnm_prefix='Gene_')
p890
sbsg278
g0
(g279
g280
(g281
g282
tp891
tp892
Rp893
sg273
g889
sbag0
(g259
g2
Ntp894
Rp895
(dp896
g263
I00
sg264
g4
sg265
(lp897
F18.2
aF22.4
aF21.9
aF23.4
aF23.4
aF18.9
aFnan
aFnan
aFnan
aFnan
aFnan
aFnan
aFnan
aFnan
aFnan
aFnan
aFnan
aFnan
aFnan
aFnan
aFnan
aFnan
aFnan
aFnan
aFnan
aFnan
aFnan
aFnan
aFnan
aFnan
aFnan
aFnan
aFnan
aFnan
aFnan
aFnan
aFnan
aFnan
aFnan
aFnan
aFnan
aFnan
aFnan
aFnan
aFnan
aFnan
aFnan
aFnan
aFnan
aFnan
aFnan
aFnan
aFnan
aFnan
asg267
g0
(g268
g2
Ntp898
Rp899
(dp900
g272
Nsg443
g895
sg275
I00
sg276
I00
sg277
Nsbsg278
g0
(g279
g280
(g281
g282
tp901
tp902
Rp903
sg273
S'Gene_I'
p904
sbag0
(g259
g2
Ntp905
Rp906
(dp907
g263
I00
sg264
g4
sg265
(lp908
F18.3
aF19.9
aF21.9
aF23.9
aF23.5
aF18.8
aFnan
aFnan
aFnan
aFnan
aFnan
aFnan
aFnan
aFnan
aFnan
aFnan
aFnan
aFnan
aFnan
aFnan
aFnan
aFnan
aFnan
aFnan
aFnan
aFnan
aFnan
aFnan
aFnan
aFnan
aFnan
aFnan
aFnan
aFnan
aFnan
aFnan
aFnan
aFnan
aFnan
aFnan
aFnan
aFnan
aFnan
aFnan
aFnan
aFnan
aFnan
aFnan
aFnan
aFnan
aFnan
aFnan
aFnan
aFnan
asg267
g0
(g268
g2
Ntp909
Rp910
(dp911
g272
Nsg443
g906
sg275
I00
sg276
I00
sg277
Nsbsg278
g903
sg273
S'Gene_R1'
p912
sbag0
(g259
g2
Ntp913
Rp914
(dp915
g263
I00
sg264
g4
sg265
(lp916
F19.8
aF21.9
aF23.6
aF24.5
aF26.3
aF20.4
aFnan
aFnan
aFnan
aFnan
aFnan
aFnan
aFnan
aFnan
aFnan
aFnan
aFnan
aFnan
aFnan
aFnan
aFnan
aFnan
aFnan
aFnan
aFnan
aFnan
aFnan
aFnan
aFnan
aFnan
aFnan
aFnan
aFnan
aFnan
aFnan
aFnan
aFnan
aFnan
aFnan
aFnan
aFnan
aFnan
aFnan
aFnan
aFnan
aFnan
aFnan
aFnan
aFnan
aFnan
aFnan
aFnan
aFnan
aFnan
asg267
g0
(g268
g2
Ntp917
Rp918
(dp919
g272
Nsg443
g914
sg275
I00
sg276
I00
sg277
Nsbsg278
g903
sg273
S'Gene_R2'
p920
sbag0
(g259
g2
Ntp921
Rp922
(dp923
g263
I00
sg264
g4
sg265
(lp924
F1.07177
aF0.17678
aF1.0
aF1.41421
aF1.07177
aF0.93303
aFnan
aFnan
aFnan
aFnan
aFnan
aFnan
aFnan
aFnan
aFnan
aFnan
aFnan
aFnan
aFnan
aFnan
aFnan
aFnan
aFnan
aFnan
aFnan
aFnan
aFnan
aFnan
aFnan
aFnan
aFnan
aFnan
aFnan
aFnan
aFnan
aFnan
aFnan
aFnan
aFnan
aFnan
aFnan
aFnan
aFnan
aFnan
aFnan
aFnan
aFnan
aFnan
aFnan
aFnan
aFnan
aFnan
aFnan
aFnan
asg267
g0
(g268
g2
Ntp925
Rp926
(dp927
g272
VExprR1 = roundValues(2**(Gene_R1 - Gene_I),5)
p928
sg273
VExprR1
p929
sg275
I01
sg276
I00
sg277
VroundValues(2**(Gene_R1 - Gene_I),5)
p930
sbsg278
g0
(g279
g280
(g281
g282
tp931
tp932
Rp933
sg273
g929
sbag0
(g259
g2
Ntp934
Rp935
(dp936
g263
I00
sg264
g4
sg265
(lp937
F3.03143
aF0.70711
aF3.24901
aF2.14355
aF7.46426
aF2.82843
aFnan
aFnan
aFnan
aFnan
aFnan
aFnan
aFnan
aFnan
aFnan
aFnan
aFnan
aFnan
aFnan
aFnan
aFnan
aFnan
aFnan
aFnan
aFnan
aFnan
aFnan
aFnan
aFnan
aFnan
aFnan
aFnan
aFnan
aFnan
aFnan
aFnan
aFnan
aFnan
aFnan
aFnan
aFnan
aFnan
aFnan
aFnan
aFnan
aFnan
aFnan
aFnan
aFnan
aFnan
aFnan
aFnan
aFnan
aFnan
asg267
g0
(g268
g2
Ntp938
Rp939
(dp940
g272
VExprR2 = roundValues(2**(Gene_R2 - Gene_I),5)
p941
sg273
VExprR2
p942
sg275
I01
sg276
I00
sg277
VroundValues(2**(Gene_R2 - Gene_I),5)
p943
sbsg278
g0
(g279
g280
(g281
g282
tp944
tp945
Rp946
sg273
g942
sbag0
(g259
g2
Ntp947
Rp948
(dp949
g263
I00
sg264
g4
sg265
(lp950
F1.802
aF0.354
aF1.803
aF1.741
aF2.828
aF1.625
aFnan
aFnan
aFnan
aFnan
aFnan
aFnan
aFnan
aFnan
aFnan
aFnan
aFnan
aFnan
aFnan
aFnan
aFnan
aFnan
aFnan
aFnan
aFnan
aFnan
aFnan
aFnan
aFnan
aFnan
aFnan
aFnan
aFnan
aFnan
aFnan
aFnan
aFnan
aFnan
aFnan
aFnan
aFnan
aFnan
aFnan
aFnan
aFnan
aFnan
aFnan
aFnan
aFnan
aFnan
aFnan
aFnan
aFnan
aFnan
asg267
g0
(g268
g2
Ntp951
Rp952
(dp953
g272
VGeoMean = roundValues(np.sqrt(ExprR1*ExprR2), 3)
p954
sg273
VGeoMean
p955
sg275
I01
sg276
I00
sg277
VroundValues(np.sqrt(ExprR1*ExprR2), 3)
p956
sbsg278
g0
(g279
g280
(g281
g282
tp957
tp958
Rp959
sg273
g955
sbag0
(g259
g2
Ntp960
Rp961
(dp962
g263
I00
sg264
g4
sg265
(lp963
(lp964
g583
(g587
S'\x00\x00\x00\x00\x00\x00\x00\x00'
p965
tp966
Rp967
aa(lp968
g583
(g587
S'\x01\x00\x00\x00\x00\x00\x00\x00'
p969
tp970
Rp971
aa(lp972
g583
(g587
S'\x02\x00\x00\x00\x00\x00\x00\x00'
p973
tp974
Rp975
aa(lp976
g583
(g587
S'\x03\x00\x00\x00\x00\x00\x00\x00'
p977
tp978
Rp979
aaNaNaNaNaNaNaNaNaNaNaNaNaNaNaNaNaNaNaNaNaNaNaNaNaNaNaNaNaNaNaNaNaNaNaNaNaNaNaNaNaNaNaNaNaNaNaNaNaNaNasg267
g0
(g268
g2
Ntp980
Rp981
(dp982
g272
Vcat_vals = [br[0] for br in pruneNulls(BioRuns)]\u000aclean_geo = [x for x in GeoMean if x is not None]\u000aGeoGroups, groupedGeoMeans = groupBy(cat_vals, clean_geo)\u000aGroupedGeoMeans = roundValues(groupedGeoMeans, 3)\u000aGeoGroups = [[x] for x in GeoGroups]
p983
sg273
VGeoGroups
p984
sg275
I00
sg276
I00
sg277
Vcat_vals = [br[0] for br in pruneNulls(BioRuns)]\u000aclean_geo = [x for x in GeoMean if x is not None]\u000aGeoGroups, groupedGeoMeans = groupBy(cat_vals, clean_geo)\u000aGroupedGeoMeans = roundValues(groupedGeoMeans, 3)\u000aGeoGroups = [[x] for x in GeoGroups]
p985
sbsg278
g0
(g279
g280
(g281
g282
tp986
tp987
Rp988
sg273
g984
sbag0
(g259
g2
Ntp989
Rp990
(dp991
g263
I00
sg264
g4
sg265
(lp992
cnumpy.core.multiarray
_reconstruct
p993
(g281
(I0
tp994
S'b'
p995
tp996
Rp997
(I1
(I1
tp998
g584
(S'f8'
p999
I0
I1
tp1000
Rp1001
(I3
S'<'
p1002
NNNI-1
I-1
I0
tp1003
bI00
S'\xa2E\xb6\xf3\xfd\xd4\xfc?'
p1004
tp1005
bag993
(g281
(I0
tp1006
g995
tp1007
Rp1008
(I1
(I3
tp1009
g1001
I00
S'\x0e-\xb2\x9d\xef\xa7\xd6?\x0c\x02+\x87\x16\xd9\xfc?B`\xe5\xd0"\xdb\xfb?'
p1010
tp1011
bag993
(g281
(I0
tp1012
g995
tp1013
Rp1014
(I1
(I1
tp1015
g1001
I00
S'9\xb4\xc8v\xbe\x9f\x06@'
p1016
tp1017
bag993
(g281
(I0
tp1018
g995
tp1019
Rp1020
(I1
(I1
tp1021
g1001
I00
S'\x00\x00\x00\x00\x00\x00\xfa?'
p1022
tp1023
baNaNaNaNaNaNaNaNaNaNaNaNaNaNaNaNaNaNaNaNaNaNaNaNaNaNaNaNaNaNaNaNaNaNaNaNaNaNaNaNaNaNaNaNaNaNaNaNaNaNasg267
g0
(g268
g2
Ntp1024
Rp1025
(dp1026
g272
Nsg443
g990
sg275
I00
sg276
I00
sg277
Nsbsg278
g0
(g279
g280
(g281
g282
tp1027
tp1028
Rp1029
sg273
VGroupedGeoMeans
p1030
sbag0
(g259
g2
Ntp1031
Rp1032
(dp1033
g263
I00
sg264
g4
sg265
(lp1034
g993
(g281
(I0
tp1035
g995
tp1036
Rp1037
(I1
(I1
tp1038
g1001
I00
S'\x00\x00\x00\x00\x00\x00\xf0?'
p1039
tp1040
bag993
(g281
(I0
tp1041
g995
tp1042
Rp1043
(I1
(I3
tp1044
g1001
I00
S'J\x0c\x02+\x87\x16\xc9?j\xbct\x93\x18\x04\xf0?\xb6\xf3\xfd\xd4x\xe9\xee?'
p1045
tp1046
bag993
(g281
(I0
tp1047
g995
tp1048
Rp1049
(I1
(I1
tp1050
g1001
I00
S'\xb4\xc8v\xbe\x9f\x1a\xf9?'
p1051
tp1052
bag993
(g281
(I0
tp1053
g995
tp1054
Rp1055
(I1
(I1
tp1056
g1001
I00
S'w\xbe\x9f\x1a/\xdd\xec?'
p1057
tp1058
baNaNaNaNaNaNaNaNaNaNaNaNaNaNaNaNaNaNaNaNaNaNaNaNaNaNaNaNaNaNaNaNaNaNaNaNaNaNaNaNaNaNaNaNaNaNaNaNaNaNasg267
g0
(g268
g2
Ntp1059
Rp1060
(dp1061
g272
Vref = np.mean(GroupedGeoMeans[0])\u000aNrmlGeoGroupedMeans = [ [x/ref for x in g] for g in GroupedGeoMeans if g is not None]  \u000aNrmlGeoGroupedMeans = roundValues(NrmlGeoGroupedMeans, 3)
p1062
sg273
VNrmlGeoGroupedMeans
p1063
sg275
I00
sg276
I00
sg277
Vref = np.mean(GroupedGeoMeans[0])\u000aNrmlGeoGroupedMeans = [ [x/ref for x in g] for g in GroupedGeoMeans if g is not None]  \u000aNrmlGeoGroupedMeans = roundValues(NrmlGeoGroupedMeans, 3)
p1064
sbsg278
g0
(g279
g280
(g281
g282
tp1065
tp1066
Rp1067
sg273
g1063
sbag0
(g259
g2
Ntp1068
Rp1069
(dp1070
g263
I00
sg264
g4
sg265
(lp1071
F1.0
aF0.721
aF1.569
aF0.902
aFnan
aFnan
aFnan
aFnan
aFnan
aFnan
aFnan
aFnan
aFnan
aFnan
aFnan
aFnan
aFnan
aFnan
aFnan
aFnan
aFnan
aFnan
aFnan
aFnan
aFnan
aFnan
aFnan
aFnan
aFnan
aFnan
aFnan
aFnan
aFnan
aFnan
aFnan
aFnan
aFnan
aFnan
aFnan
aFnan
aFnan
aFnan
aFnan
aFnan
aFnan
aFnan
aFnan
aFnan
aFnan
aFnan
aFnan
aFnan
aFnan
aFnan
asg267
g0
(g268
g2
Ntp1072
Rp1073
(dp1074
g272
VMeanNrmlGeoGroups = [round(np.mean(g), 3) for g in NrmlGeoGroupedMeans]
p1075
sg273
VMeanNrmlGeoGroups
p1076
sg275
I01
sg276
I00
sg277
V[round(np.mean(g), 3) for g in NrmlGeoGroupedMeans]
p1077
sbsg278
g0
(g279
g280
(g281
g282
tp1078
tp1079
Rp1080
sg273
g1076
sbag0
(g259
g2
Ntp1081
Rp1082
(dp1083
g263
I00
sg264
g4
sg265
(lp1084
Fnan
aF0.263
aFnan
aFnan
aFnan
aFnan
aFnan
aFnan
aFnan
aFnan
aFnan
aFnan
aFnan
aFnan
aFnan
aFnan
aFnan
aFnan
aFnan
aFnan
aFnan
aFnan
aFnan
aFnan
aFnan
aFnan
aFnan
aFnan
aFnan
aFnan
aFnan
aFnan
aFnan
aFnan
aFnan
aFnan
aFnan
aFnan
aFnan
aFnan
aFnan
aFnan
aFnan
aFnan
aFnan
aFnan
aFnan
aFnan
aFnan
aFnan
aFnan
aFnan
aFnan
aFnan
asg267
g0
(g268
g2
Ntp1085
Rp1086
(dp1087
g272
VStdNrmlGeoGroups = [round(np.std(g, ddof=1)/np.sqrt(len(g)), 3) for g in NrmlGeoGroupedMeans]\u000a
p1088
sg273
VStdNrmlGeoGroups
p1089
sg275
I01
sg276
I00
sg277
V[round(np.std(g, ddof=1)/np.sqrt(len(g)), 3) for g in NrmlGeoGroupedMeans]\u000a
p1090
sbsg278
g0
(g279
g280
(g281
g282
tp1091
tp1092
Rp1093
sg273
g1089
sbasg252
V/home/ubuntu/SciSheets/mysite/user/guest/tables/kristen_single_gene.pcl
p1094
sb.