ccopy_reg
_reconstructor
p0
(cscisheets.ui.dt_table
DTTable
p1
c__builtin__
object
p2
Ntp3
Rp4
(dp5
S'_versioned_file'
p6
g0
(cmysite.helpers.versioned_file
VersionedFile
p7
g2
Ntp8
Rp9
(dp10
S'_redo_stack'
p11
g0
(cmysite.helpers.file_stack
FileStack
p12
g2
Ntp13
Rp14
(dp15
S'_dirpath'
p16
S'/home/ubuntu/SciSheets/mysite/user/guest/tables/backup'
p17
sS'_max_depth'
p18
I5
sS'_filename_pfx'
p19
Vkristen_single_gene.r
p20
sbsS'_max_versions'
p21
I5
sS'_undo_stack'
p22
g0
(g12
g2
Ntp23
Rp24
(dp25
g16
g17
sg18
I5
sg19
Vkristen_single_gene.u
p26
sbsS'_checkpoint_history'
p27
(lp28
VCell/Update
p29
aVCell/Update
p30
aVCell/Update
p31
aVCell/Update
p32
aVCell/Update
p33
aVCell/Update
p34
aVCell/Update
p35
aVCell/Update
p36
aVCell/Update
p37
aVCell/Update
p38
aVCell/Update
p39
aVCell/Update
p40
aVColumn/Formula
p41
aVColumn/Formula
p42
aVColumn/Append
p43
aVColumn/Formula
p44
aVColumn/Delete
p45
aVCell/Update
p46
aVColumn/Formula
p47
aVCell/Update
p48
aVCell/Update
p49
aVColumn/Formula
p50
aVColumn/Formula
p51
aVCell/Update
p52
aVColumn/Formula
p53
aVColumn/Formula
p54
aVCell/Update
p55
aVCell/Update
p56
aVCell/Update
p57
aVCell/Update
p58
aVColumn/Formula
p59
aVCell/Update
p60
aVCell/Update
p61
aVCell/Update
p62
aVColumn/Formula
p63
aVCell/Update
p64
aVColumn/Formula
p65
aVColumn/Formula
p66
aVCell/Update
p67
aVCell/Update
p68
aVCell/Update
p69
aVCell/Update
p70
aVCell/Update
p71
aVCell/Update
p72
aVCell/Update
p73
aVCell/Update
p74
aVCell/Update
p75
aVColumn/Formula
p76
aVCell/Update
p77
aVCell/Update
p78
aVCell/Update
p79
aVCell/Update
p80
aVCell/Update
p81
aVCell/Update
p82
aVCell/Update
p83
aVCell/Update
p84
aVCell/Update
p85
aVCell/Update
p86
aVCell/Update
p87
aVCell/Update
p88
aVColumn/Formula
p89
aVColumn/Formula
p90
aVColumn/Formula
p91
aVCell/Update
p92
aVCell/Update
p93
aVCell/Update
p94
aVCell/Update
p95
aVCell/Update
p96
aVColumn/Formula
p97
aVCell/Update
p98
aVCell/Update
p99
aVCell/Update
p100
aVCell/Update
p101
aVCell/Update
p102
aVCell/Update
p103
aVCell/Update
p104
aVColumn/Formula
p105
aVColumn/Formula
p106
aVColumn/Formula
p107
aVCell/Update
p108
aVCell/Update
p109
aVColumn/Formula
p110
aVCell/Update
p111
aVCell/Update
p112
aVCell/Update
p113
aVCell/Update
p114
aVCell/Update
p115
aVCell/Update
p116
aVCell/Update
p117
aVCell/Update
p118
aVColumn/Formula
p119
aVCell/Update
p120
aVColumn/Formula
p121
aVColumn/Formula
p122
aVColumn/Formula
p123
aVCell/Update
p124
aVCell/Update
p125
aVColumn/Formula
p126
aVColumn/Formula
p127
aVColumn/Formula
p128
aVColumn/Formula
p129
aVCell/Update
p130
aVColumn/Formula
p131
aVColumn/Formula
p132
aVColumn/Formula
p133
aVCell/Update
p134
aVCell/Update
p135
aVCell/Update
p136
aVCell/Update
p137
aVCell/Update
p138
aVCell/Update
p139
aVCell/Update
p140
aVCell/Update
p141
aVCell/Update
p142
aVCell/Update
p143
aVColumn/Formula
p144
aVColumn/Formula
p145
aVColumn/Formula
p146
aVColumn/Formula
p147
aVCell/Update
p148
aVCell/Update
p149
aVColumn/Formula
p150
aVCell/Update
p151
aVCell/Update
p152
aVCell/Update
p153
aVCell/Update
p154
aVCell/Update
p155
aVCell/Update
p156
aVCell/Update
p157
aVCell/Update
p158
aVCell/Update
p159
aVCell/Update
p160
aVCell/Update
p161
aVCell/Update
p162
aVCell/Update
p163
aVColumn/Formula
p164
aVColumn/Formula
p165
aVCell/Update
p166
aVCell/Update
p167
aVCell/Update
p168
aVColumn/Formula
p169
aVCell/Update
p170
aVCell/Update
p171
aVCell/Update
p172
aVCell/Update
p173
aVColumn/Formula
p174
aVColumn/Formula
p175
aVColumn/Formula
p176
aVColumn/Formula
p177
aVCell/Update
p178
aVColumn/Formula
p179
aVCell/Update
p180
aVCell/Update
p181
aVCell/Update
p182
aVCell/Update
p183
aVCell/Update
p184
aVCell/Update
p185
aVCell/Update
p186
aVCell/Update
p187
aVCell/Update
p188
aVColumn/Formula
p189
aVCell/Update
p190
aVCell/Update
p191
aVCell/Update
p192
aVCell/Update
p193
aVCell/Update
p194
aVCell/Update
p195
aVCell/Update
p196
aVCell/Update
p197
aVCell/Update
p198
aVCell/Update
p199
aVCell/Update
p200
aVCell/Update
p201
aVCell/Update
p202
aVCell/Update
p203
aVCell/Update
p204
aVCell/Update
p205
aVCell/Update
p206
aVCell/Update
p207
aVCell/Update
p208
aVCell/Update
p209
aVCell/Update
p210
aVCell/Update
p211
aVCell/Update
p212
aVCell/Update
p213
aVCell/Update
p214
aVCell/Update
p215
aVCell/Update
p216
aVCell/Update
p217
aVCell/Update
p218
aVCell/Update
p219
aVCell/Update
p220
aVCell/Update
p221
aVCell/Update
p222
aVCell/Update
p223
aVCell/Update
p224
aVCell/Update
p225
aVCell/Update
p226
aVCell/Update
p227
aVCell/Update
p228
aVCell/Update
p229
aVCell/Update
p230
aVCell/Update
p231
aVCell/Update
p232
aVCell/Update
p233
aVCell/Update
p234
aVCell/Update
p235
aVCell/Update
p236
aVCell/Update
p237
aVCell/Update
p238
aVCell/Update
p239
aVCell/Update
p240
aVCell/Update
p241
aVCell/Update
p242
aVCell/Update
p243
aVCell/Update
p244
aVCell/Update
p245
aVCell/Update
p246
aVCell/Update
p247
aVCell/Update
p248
aVCell/Update
p249
aVCell/Update
p250
aVCell/Update
p251
aVCell/Update
p252
aVCell/Update
p253
aVCell/Update
p254
aVCell/Update
p255
aVCell/Update
p256
aVCell/Update
p257
aVCell/Update
p258
aVCell/Update
p259
aVCell/Update
p260
aVCell/Update
p261
aVCell/Update
p262
aVCell/Update
p263
aVCell/Update
p264
aVCell/Update
p265
aVCell/Update
p266
aVCell/Update
p267
aVCell/Update
p268
aVCell/Update
p269
aVCell/Update
p270
aVCell/Update
p271
aVColumn/Formula
p272
aVColumn/Formula
p273
aVCell/Update
p274
aVCell/Update
p275
aVCell/Update
p276
aVCell/Update
p277
aVColumn/Formula
p278
aVColumn/Formula
p279
aVColumn/Formula
p280
aVCell/Update
p281
aVCell/Update
p282
aVCell/Update
p283
aVCell/Update
p284
aVColumn/Formula
p285
aVColumn/Formula
p286
aVColumn/Formula
p287
aVCell/Update
p288
aVCell/Update
p289
aVColumn/Formula
p290
aVCell/Update
p291
aVCell/Update
p292
aVCell/Update
p293
aVCell/Update
p294
aVCell/Update
p295
aVCell/Update
p296
aVColumn/Formula
p297
aVCell/Update
p298
aVColumn/Formula
p299
aVCell/Update
p300
aVCell/Update
p301
aVColumn/Formula
p302
aVColumn/Formula
p303
aVCell/Update
p304
aVCell/Update
p305
aVCell/Update
p306
asS'_filepath'
p307
V/home/ubuntu/SciSheets/mysite/user/guest/tables/kristen_single_gene.pcl
p308
sS'_backup_dir'
p309
g17
sbsS'_namespace'
p310
(dp311
sS'_hidden_columns'
p312
(lp313
g0
(cscisheets.core.column
Column
p314
g2
Ntp315
Rp316
(dp317
S'_asis'
p318
I00
sS'_owning_table'
p319
g4
sS'_cells'
p320
(lp321
(lp322
cnumpy.core.multiarray
scalar
p323
(cnumpy
dtype
p324
(S'i8'
p325
I0
I1
tp326
Rp327
(I3
S'<'
p328
NNNI-1
I-1
I0
tp329
bS'\x00\x00\x00\x00\x00\x00\x00\x00'
p330
tp331
Rp332
aVI
p333
ag323
(g327
S'\x01\x00\x00\x00\x00\x00\x00\x00'
p334
tp335
Rp336
aa(lp337
g323
(g327
S'\x00\x00\x00\x00\x00\x00\x00\x00'
p338
tp339
Rp340
aVR1
p341
ag323
(g327
S'\x01\x00\x00\x00\x00\x00\x00\x00'
p342
tp343
Rp344
aa(lp345
g323
(g327
S'\x00\x00\x00\x00\x00\x00\x00\x00'
p346
tp347
Rp348
aVR2
p349
ag323
(g327
S'\x01\x00\x00\x00\x00\x00\x00\x00'
p350
tp351
Rp352
aa(lp353
g323
(g327
S'\x01\x00\x00\x00\x00\x00\x00\x00'
p354
tp355
Rp356
ag333
ag323
(g327
S'\x01\x00\x00\x00\x00\x00\x00\x00'
p357
tp358
Rp359
aa(lp360
g323
(g327
S'\x01\x00\x00\x00\x00\x00\x00\x00'
p361
tp362
Rp363
ag333
ag323
(g327
S'\x02\x00\x00\x00\x00\x00\x00\x00'
p364
tp365
Rp366
aa(lp367
g323
(g327
S'\x01\x00\x00\x00\x00\x00\x00\x00'
p368
tp369
Rp370
ag333
ag323
(g327
S'\x03\x00\x00\x00\x00\x00\x00\x00'
p371
tp372
Rp373
aa(lp374
g323
(g327
S'\x01\x00\x00\x00\x00\x00\x00\x00'
p375
tp376
Rp377
ag341
ag323
(g327
S'\x01\x00\x00\x00\x00\x00\x00\x00'
p378
tp379
Rp380
aa(lp381
g323
(g327
S'\x01\x00\x00\x00\x00\x00\x00\x00'
p382
tp383
Rp384
ag341
ag323
(g327
S'\x02\x00\x00\x00\x00\x00\x00\x00'
p385
tp386
Rp387
aa(lp388
g323
(g327
S'\x01\x00\x00\x00\x00\x00\x00\x00'
p389
tp390
Rp391
ag341
ag323
(g327
S'\x03\x00\x00\x00\x00\x00\x00\x00'
p392
tp393
Rp394
aa(lp395
g323
(g327
S'\x01\x00\x00\x00\x00\x00\x00\x00'
p396
tp397
Rp398
ag349
ag323
(g327
S'\x01\x00\x00\x00\x00\x00\x00\x00'
p399
tp400
Rp401
aa(lp402
g323
(g327
S'\x01\x00\x00\x00\x00\x00\x00\x00'
p403
tp404
Rp405
ag349
ag323
(g327
S'\x02\x00\x00\x00\x00\x00\x00\x00'
p406
tp407
Rp408
aa(lp409
g323
(g327
S'\x01\x00\x00\x00\x00\x00\x00\x00'
p410
tp411
Rp412
ag349
ag323
(g327
S'\x03\x00\x00\x00\x00\x00\x00\x00'
p413
tp414
Rp415
aa(lp416
g323
(g327
S'\x02\x00\x00\x00\x00\x00\x00\x00'
p417
tp418
Rp419
ag333
ag323
(g327
S'\x01\x00\x00\x00\x00\x00\x00\x00'
p420
tp421
Rp422
aa(lp423
g323
(g327
S'\x02\x00\x00\x00\x00\x00\x00\x00'
p424
tp425
Rp426
ag341
ag323
(g327
S'\x01\x00\x00\x00\x00\x00\x00\x00'
p427
tp428
Rp429
aa(lp430
g323
(g327
S'\x02\x00\x00\x00\x00\x00\x00\x00'
p431
tp432
Rp433
ag349
ag323
(g327
S'\x01\x00\x00\x00\x00\x00\x00\x00'
p434
tp435
Rp436
aa(lp437
g323
(g327
S'\x03\x00\x00\x00\x00\x00\x00\x00'
p438
tp439
Rp440
ag333
ag323
(g327
S'\x01\x00\x00\x00\x00\x00\x00\x00'
p441
tp442
Rp443
aa(lp444
g323
(g327
S'\x03\x00\x00\x00\x00\x00\x00\x00'
p445
tp446
Rp447
ag341
ag323
(g327
S'\x01\x00\x00\x00\x00\x00\x00\x00'
p448
tp449
Rp450
aa(lp451
g323
(g327
S'\x03\x00\x00\x00\x00\x00\x00\x00'
p452
tp453
Rp454
ag349
ag323
(g327
S'\x01\x00\x00\x00\x00\x00\x00\x00'
p455
tp456
Rp457
aa(lp458
g323
(g327
S'\x04\x00\x00\x00\x00\x00\x00\x00'
p459
tp460
Rp461
ag333
ag323
(g327
S'\x01\x00\x00\x00\x00\x00\x00\x00'
p462
tp463
Rp464
aa(lp465
g323
(g327
S'\x04\x00\x00\x00\x00\x00\x00\x00'
p466
tp467
Rp468
ag341
ag323
(g327
S'\x01\x00\x00\x00\x00\x00\x00\x00'
p469
tp470
Rp471
aa(lp472
g323
(g327
S'\x04\x00\x00\x00\x00\x00\x00\x00'
p473
tp474
Rp475
ag349
ag323
(g327
S'\x01\x00\x00\x00\x00\x00\x00\x00'
p476
tp477
Rp478
aaNaNaNaNaNaNaNaNaNaNaNaNaNaNaNaNaNaNaNaNaNaNaNaNaNaNaNaNaNaNaNaNaNaNaNaNaNaNaNaNaNaNaNasS'_formula_statement'
p479
g0
(cscisheets.core.helpers.formula_statement
FormulaStatement
p480
g2
Ntp481
Rp482
(dp483
S'_statement'
p484
Vsel = Eff > min_eff\u000agrouping_columns = [\u000a    Treatment[sel],\u000a     RunType[sel], \u000a    BRpl[sel],      \u000a  ]\u000aGroups, groupedCt = groupBy(\u000a     grouping_columns, Ct[sel])\u000aGroups, groupedEff = groupBy(\u000a     grouping_columns, Eff[sel])\u000aGroups = [[g[0], g[1], g[2]] for g in Groups]\u000aGroupedCt = roundValues(groupedCt,2)\u000aGroupedEff = roundValues(groupedEff,2)
p485
sS'_name'
p486
VGroups
p487
sS'_isExpression'
p488
I00
sS'_isStatement'
p489
I00
sS'_formula'
p490
Vsel = Eff > min_eff\u000agrouping_columns = [\u000a    Treatment[sel],\u000a     RunType[sel], \u000a    BRpl[sel],      \u000a  ]\u000aGroups, groupedCt = groupBy(\u000a     grouping_columns, Ct[sel])\u000aGroups, groupedEff = groupBy(\u000a     grouping_columns, Eff[sel])\u000aGroups = [[g[0], g[1], g[2]] for g in Groups]\u000aGroupedCt = roundValues(groupedCt,2)\u000aGroupedEff = roundValues(groupedEff,2)
p491
sbsS'_data_class'
p492
g0
(cscisheets.core.helpers.api_util
DataClass
p493
c__builtin__
tuple
p494
(cnumpy
ndarray
p495
cscisheets.core.helpers.api_util
makeArray
p496
tp497
tp498
Rp499
sg486
g487
sbag0
(g314
g2
Ntp500
Rp501
(dp502
g318
I00
sg319
g4
sg320
(lp503
cnumpy.core.multiarray
_reconstruct
p504
(g495
(I0
tp505
S'b'
p506
tp507
Rp508
(I1
(I4
tp509
g324
(S'f8'
p510
I0
I1
tp511
Rp512
(I3
S'<'
p513
NNNI-1
I-1
I0
tp514
bI00
S'\xe1z\x14\xaeG\xe1\xea?{\x14\xaeG\xe1z\xec?\xcd\xcc\xcc\xcc\xcc\xcc\xec?\xd7\xa3p=\n\xd7\xeb?'
p515
tp516
bag504
(g495
(I0
tp517
g506
tp518
Rp519
(I1
(I3
tp520
g512
I00
S'\x8f\xc2\xf5(\\\x8f\xea?\x8f\xc2\xf5(\\\x8f\xea?333333\xeb?'
p521
tp522
bag504
(g495
(I0
tp523
g506
tp524
Rp525
(I1
(I3
tp526
g512
I00
S'=\n\xd7\xa3p=\xea?333333\xeb?=\n\xd7\xa3p=\xea?'
p527
tp528
bag504
(g495
(I0
tp529
g506
tp530
Rp531
(I1
(I3
tp532
g512
I00
S'\x14\xaeG\xe1z\x14\xee?\x8f\xc2\xf5(\\\x8f\xea?\xe1z\x14\xaeG\xe1\xea?'
p533
tp534
bag504
(g495
(I0
tp535
g506
tp536
Rp537
(I1
(I3
tp538
g512
I00
S'\x9a\x99\x99\x99\x99\x99\xe9?\xe1z\x14\xaeG\xe1\xea?H\xe1z\x14\xaeG\xe9?'
p539
tp540
bag504
(g495
(I0
tp541
g506
tp542
Rp543
(I1
(I3
tp544
g512
I00
S'\x8f\xc2\xf5(\\\x8f\xea?\x9a\x99\x99\x99\x99\x99\xe9?\x8f\xc2\xf5(\\\x8f\xea?'
p545
tp546
bag504
(g495
(I0
tp547
g506
tp548
Rp549
(I1
(I3
tp550
g512
I00
S'q=\n\xd7\xa3p\xed?\\\x8f\xc2\xf5(\\\xef?\xcd\xcc\xcc\xcc\xcc\xcc\xec?'
p551
tp552
bag504
(g495
(I0
tp553
g506
tp554
Rp555
(I1
(I3
tp556
g512
I00
S'\xcd\xcc\xcc\xcc\xcc\xcc\xec?\x8f\xc2\xf5(\\\x8f\xea?\xe1z\x14\xaeG\xe1\xea?'
p557
tp558
bag504
(g495
(I0
tp559
g506
tp560
Rp561
(I1
(I3
tp562
g512
I00
S'\xd7\xa3p=\n\xd7\xeb?333333\xeb?\x8f\xc2\xf5(\\\x8f\xea?'
p563
tp564
bag504
(g495
(I0
tp565
g506
tp566
Rp567
(I1
(I3
tp568
g512
I00
S'H\xe1z\x14\xaeG\xe9?\xe1z\x14\xaeG\xe1\xea?\x85\xebQ\xb8\x1e\x85\xeb?'
p569
tp570
bag504
(g495
(I0
tp571
g506
tp572
Rp573
(I1
(I3
tp574
g512
I00
S'\x8f\xc2\xf5(\\\x8f\xea?=\n\xd7\xa3p=\xea?\x8f\xc2\xf5(\\\x8f\xea?'
p575
tp576
bag504
(g495
(I0
tp577
g506
tp578
Rp579
(I1
(I3
tp580
g512
I00
S'\xecQ\xb8\x1e\x85\xeb\xe9?=\n\xd7\xa3p=\xea?\x9a\x99\x99\x99\x99\x99\xe9?'
p581
tp582
bag504
(g495
(I0
tp583
g506
tp584
Rp585
(I1
(I3
tp586
g512
I00
S'\xe1z\x14\xaeG\xe1\xea?\x9a\x99\x99\x99\x99\x99\xe9?\xecQ\xb8\x1e\x85\xeb\xe9?'
p587
tp588
bag504
(g495
(I0
tp589
g506
tp590
Rp591
(I1
(I3
tp592
g512
I00
S'\xa4p=\n\xd7\xa3\xe8?\xd7\xa3p=\n\xd7\xeb?\xecQ\xb8\x1e\x85\xeb\xe9?'
p593
tp594
bag504
(g495
(I0
tp595
g506
tp596
Rp597
(I1
(I3
tp598
g512
I00
S'\xf6(\\\x8f\xc2\xf5\xe8?\xa4p=\n\xd7\xa3\xe8?H\xe1z\x14\xaeG\xe9?'
p599
tp600
bag504
(g495
(I0
tp601
g506
tp602
Rp603
(I1
(I3
tp604
g512
I00
S'333333\xeb?333333\xeb?\xe1z\x14\xaeG\xe1\xea?'
p605
tp606
bag504
(g495
(I0
tp607
g506
tp608
Rp609
(I1
(I3
tp610
g512
I00
S'\xd7\xa3p=\n\xd7\xeb?\xcd\xcc\xcc\xcc\xcc\xcc\xec?\x85\xebQ\xb8\x1e\x85\xeb?'
p611
tp612
bag504
(g495
(I0
tp613
g506
tp614
Rp615
(I1
(I3
tp616
g512
I00
S'=\n\xd7\xa3p=\xea?=\n\xd7\xa3p=\xea?H\xe1z\x14\xaeG\xe9?'
p617
tp618
bag504
(g495
(I0
tp619
g506
tp620
Rp621
(I1
(I3
tp622
g512
I00
S'333333\xeb?333333\xeb?\xe1z\x14\xaeG\xe1\xea?'
p623
tp624
bag504
(g495
(I0
tp625
g506
tp626
Rp627
(I1
(I3
tp628
g512
I00
S'\xd7\xa3p=\n\xd7\xeb?\xcd\xcc\xcc\xcc\xcc\xcc\xec?\x85\xebQ\xb8\x1e\x85\xeb?'
p629
tp630
bag504
(g495
(I0
tp631
g506
tp632
Rp633
(I1
(I3
tp634
g512
I00
S'=\n\xd7\xa3p=\xea?=\n\xd7\xa3p=\xea?H\xe1z\x14\xaeG\xe9?'
p635
tp636
baNaNaNaNaNaNaNaNaNaNaNaNaNaNaNaNaNaNaNaNaNaNaNaNaNaNaNaNaNaNaNaNaNaNaNaNaNaNaNaNaNaNaNasg479
g0
(g480
g2
Ntp637
Rp638
(dp639
g484
NsS'_column'
p640
g501
sg488
I00
sg489
I00
sg490
Nsbsg492
g0
(g493
g494
(g495
g496
tp641
tp642
Rp643
sg486
VGroupedEff
p644
sbag0
(g314
g2
Ntp645
Rp646
(dp647
g318
I00
sg319
g4
sg320
(lp648
g504
(g495
(I0
tp649
g506
tp650
Rp651
(I1
(I4
tp652
g512
I00
S'\x00\x00\x00\x00\x00\x007@\\\x8f\xc2\xf5(\xdc6@\xcd\xcc\xcc\xcc\xcc\xcc6@\x00\x00\x00\x00\x00\x007@'
p653
tp654
bag504
(g495
(I0
tp655
g506
tp656
Rp657
(I1
(I3
tp658
g512
I00
S'=\n\xd7\xa3p=2@\xb8\x1e\x85\xebQ82@\\\x8f\xc2\xf5(\\2@'
p659
tp660
bag504
(g495
(I0
tp661
g506
tp662
Rp663
(I1
(I3
tp664
g512
I00
S'\xb8\x1e\x85\xebQ\xb83@\x00\x00\x00\x00\x00\xc03@\xc3\xf5(\\\x8f\x024@'
p665
tp666
bag504
(g495
(I0
tp667
g506
tp668
Rp669
(I1
(I3
tp670
g512
I00
S'\xaeG\xe1z\x14\xae:@\xe1z\x14\xaeG!;@\xf6(\\\x8f\xc25;@'
p671
tp672
bag504
(g495
(I0
tp673
g506
tp674
Rp675
(I1
(I3
tp676
g512
I00
S'\xc3\xf5(\\\x8f\xc2:@\xf6(\\\x8f\xc2\xb5:@q=\n\xd7\xa30:@'
p677
tp678
bag504
(g495
(I0
tp679
g506
tp680
Rp681
(I1
(I3
tp682
g512
I00
S'{\x14\xaeG\xe1\xfa=@\x1f\x85\xebQ\xb8\x1e>@)\\\x8f\xc2\xf5h=@'
p683
tp684
bag504
(g495
(I0
tp685
g506
tp686
Rp687
(I1
(I3
tp688
g512
I00
S'\xecQ\xb8\x1e\x85\xeb3@\x9a\x99\x99\x99\x99\xd93@\x00\x00\x00\x00\x00\x004@'
p689
tp690
bag504
(g495
(I0
tp691
g506
tp692
Rp693
(I1
(I3
tp694
g512
I00
S'\\\x8f\xc2\xf5(\xdc5@\xd7\xa3p=\n\x176@\xd7\xa3p=\n\xd75@'
p695
tp696
bag504
(g495
(I0
tp697
g506
tp698
Rp699
(I1
(I3
tp700
g512
I00
S'\xa4p=\n\xd7\xe37@\n\xd7\xa3p=\x8a7@\x85\xebQ\xb8\x1eE8@'
p701
tp702
bag504
(g495
(I0
tp703
g506
tp704
Rp705
(I1
(I3
tp706
g512
I00
S'\xaeG\xe1z\x14.6@\xf6(\\\x8f\xc2\xb55@\x00\x00\x00\x00\x00\xc05@'
p707
tp708
bag504
(g495
(I0
tp709
g506
tp710
Rp711
(I1
(I3
tp712
g512
I00
S'\xe1z\x14\xaeG\xe17@\xecQ\xb8\x1e\x85k7@\xe1z\x14\xaeG\xa17@'
p713
tp714
bag504
(g495
(I0
tp715
g506
tp716
Rp717
(I1
(I3
tp718
g512
I00
S'\xd7\xa3p=\n\x978@\\\x8f\xc2\xf5(\x9c8@\xd7\xa3p=\nW8@'
p719
tp720
bag504
(g495
(I0
tp721
g506
tp722
Rp723
(I1
(I3
tp724
g512
I00
S'33333\xf3=@33333s>@\xe1z\x14\xaeG\xe1=@'
p725
tp726
bag504
(g495
(I0
tp727
g506
tp728
Rp729
(I1
(I3
tp730
g512
I00
S'\xb8\x1e\x85\xebQ87@\xcd\xcc\xcc\xcc\xcc\xcc7@=\n\xd7\xa3p}7@'
p731
tp732
bag504
(g495
(I0
tp733
g506
tp734
Rp735
(I1
(I3
tp736
g512
I00
S'\x1f\x85\xebQ\xb8^:@\\\x8f\xc2\xf5(\\:@\xecQ\xb8\x1e\x85+:@'
p737
tp738
bag504
(g495
(I0
tp739
g506
tp740
Rp741
(I1
(I3
tp742
g512
I00
S'\xcd\xcc\xcc\xcc\xcc\xcc8@\xb8\x1e\x85\xebQ\xf88@\xe1z\x14\xaeG\xa18@'
p743
tp744
bag504
(g495
(I0
tp745
g506
tp746
Rp747
(I1
(I3
tp748
g512
I00
S')\\\x8f\xc2\xf5\xe82@H\xe1z\x14\xae\xc72@\xcd\xcc\xcc\xcc\xcc\xcc2@'
p749
tp750
bag504
(g495
(I0
tp751
g506
tp752
Rp753
(I1
(I3
tp754
g512
I00
S'\x00\x00\x00\x00\x00\x804@\xb8\x1e\x85\xebQx4@H\xe1z\x14\xaeG4@'
p755
tp756
bag504
(g495
(I0
tp757
g506
tp758
Rp759
(I1
(I3
tp760
g512
I00
S'\xcd\xcc\xcc\xcc\xcc\xcc8@\xb8\x1e\x85\xebQ\xf88@\xe1z\x14\xaeG\xa18@'
p761
tp762
bag504
(g495
(I0
tp763
g506
tp764
Rp765
(I1
(I3
tp766
g512
I00
S')\\\x8f\xc2\xf5\xe82@H\xe1z\x14\xae\xc72@\xcd\xcc\xcc\xcc\xcc\xcc2@'
p767
tp768
bag504
(g495
(I0
tp769
g506
tp770
Rp771
(I1
(I3
tp772
g512
I00
S'\x00\x00\x00\x00\x00\x804@\xb8\x1e\x85\xebQx4@H\xe1z\x14\xaeG4@'
p773
tp774
baNaNaNaNaNaNaNaNaNaNaNaNaNaNaNaNaNaNaNaNaNaNaNaNaNaNaNaNaNaNaNaNaNaNaNaNaNaNaNaNaNaNaNasg479
g0
(g480
g2
Ntp775
Rp776
(dp777
g484
Nsg640
g646
sg488
I00
sg489
I00
sg490
Nsbsg492
g0
(g493
g494
(g495
g496
tp778
tp779
Rp780
sg486
VGroupedCt
p781
sbag0
(g314
g2
Ntp782
Rp783
(dp784
g318
I00
sg319
g4
sg320
(lp785
g504
(g495
(I0
tp786
g506
tp787
Rp788
(I1
(I4
tp789
g512
I00
S'\x00\x00\x00\x00\x00\x007@fffff\xe66@\xcd\xcc\xcc\xcc\xcc\xcc6@\x00\x00\x00\x00\x00\x007@'
p790
tp791
bag504
(g495
(I0
tp792
g506
tp793
Rp794
(I1
(I3
tp795
g512
I00
S'3333332@3333332@ffffff2@'
p796
tp797
bag504
(g495
(I0
tp798
g506
tp799
Rp800
(I1
(I3
tp801
g512
I00
S'33333\xb33@\xcd\xcc\xcc\xcc\xcc\xcc3@\x00\x00\x00\x00\x00\x004@'
p802
tp803
bag504
(g495
(I0
tp804
g506
tp805
Rp806
(I1
(I3
tp807
g512
I00
S'33333\xb3:@\x9a\x99\x99\x99\x99\x19;@333333;@'
p808
tp809
bag504
(g495
(I0
tp810
g506
tp811
Rp812
(I1
(I3
tp813
g512
I00
S'\xcd\xcc\xcc\xcc\xcc\xcc:@33333\xb3:@333333:@'
p814
tp815
bag504
(g495
(I0
tp816
g506
tp817
Rp818
(I1
(I3
tp819
g512
I00
S'\x00\x00\x00\x00\x00\x00>@\x9a\x99\x99\x99\x99\x19>@ffffff=@'
p820
tp821
bag504
(g495
(I0
tp822
g506
tp823
Rp824
(I1
(I3
tp825
g512
I00
S'fffff\xe63@fffff\xe63@\x00\x00\x00\x00\x00\x004@'
p826
tp827
bag504
(g495
(I0
tp828
g506
tp829
Rp830
(I1
(I3
tp831
g512
I00
S'fffff\xe65@\x9a\x99\x99\x99\x99\x196@\xcd\xcc\xcc\xcc\xcc\xcc5@'
p832
tp833
bag504
(g495
(I0
tp834
g506
tp835
Rp836
(I1
(I3
tp837
g512
I00
S'fffff\xe67@\x00\x00\x00\x00\x00\x807@\xcd\xcc\xcc\xcc\xccL8@'
p838
tp839
bag504
(g495
(I0
tp840
g506
tp841
Rp842
(I1
(I3
tp843
g512
I00
S'3333336@33333\xb35@\xcd\xcc\xcc\xcc\xcc\xcc5@'
p844
tp845
bag504
(g495
(I0
tp846
g506
tp847
Rp848
(I1
(I3
tp849
g512
I00
S'fffff\xe67@ffffff7@\x9a\x99\x99\x99\x99\x997@'
p850
tp851
bag504
(g495
(I0
tp852
g506
tp853
Rp854
(I1
(I3
tp855
g512
I00
S'\x9a\x99\x99\x99\x99\x998@\x9a\x99\x99\x99\x99\x998@\xcd\xcc\xcc\xcc\xccL8@'
p856
tp857
bag504
(g495
(I0
tp858
g506
tp859
Rp860
(I1
(I3
tp861
g512
I00
S'fffff\xe6=@ffffff>@fffff\xe6=@'
p862
tp863
bag504
(g495
(I0
tp864
g506
tp865
Rp866
(I1
(I3
tp867
g512
I00
S'3333337@\xcd\xcc\xcc\xcc\xcc\xcc7@\x00\x00\x00\x00\x00\x807@'
p868
tp869
bag504
(g495
(I0
tp870
g506
tp871
Rp872
(I1
(I3
tp873
g512
I00
S'ffffff:@ffffff:@333333:@'
p874
tp875
bag504
(g495
(I0
tp876
g506
tp877
Rp878
(I1
(I3
tp879
g512
I00
S'\xcd\xcc\xcc\xcc\xcc\xcc8@\x00\x00\x00\x00\x00\x009@\x9a\x99\x99\x99\x99\x998@'
p880
tp881
bag504
(g495
(I0
tp882
g506
tp883
Rp884
(I1
(I3
tp885
g512
I00
S'fffff\xe62@\xcd\xcc\xcc\xcc\xcc\xcc2@\xcd\xcc\xcc\xcc\xcc\xcc2@'
p886
tp887
bag504
(g495
(I0
tp888
g506
tp889
Rp890
(I1
(I3
tp891
g512
I00
S'\x00\x00\x00\x00\x00\x804@\x00\x00\x00\x00\x00\x804@\xcd\xcc\xcc\xcc\xccL4@'
p892
tp893
bag504
(g495
(I0
tp894
g506
tp895
Rp896
(I1
(I3
tp897
g512
I00
S'\xcd\xcc\xcc\xcc\xcc\xcc8@\x00\x00\x00\x00\x00\x009@\x9a\x99\x99\x99\x99\x998@'
p898
tp899
bag504
(g495
(I0
tp900
g506
tp901
Rp902
(I1
(I3
tp903
g512
I00
S'fffff\xe62@\xcd\xcc\xcc\xcc\xcc\xcc2@\xcd\xcc\xcc\xcc\xcc\xcc2@'
p904
tp905
bag504
(g495
(I0
tp906
g506
tp907
Rp908
(I1
(I3
tp909
g512
I00
S'\x00\x00\x00\x00\x00\x804@\x00\x00\x00\x00\x00\x804@\xcd\xcc\xcc\xcc\xccL4@'
p910
tp911
baNaNaNaNaNaNaNaNaNaNaNaNaNaNaNaNaNaNaNaNaNaNaNaNaNaNaNaNaNaNaNaNaNaNaNaNaNaNaNaNaNaNaNasg479
g0
(g480
g2
Ntp912
Rp913
(dp914
g484
Vlength = len(Groups)\u000aStdFilteredGroupedCt = roundValues([filterExtremes(g, max_std, 2) for g in pruneNulls(GroupedCt,    required_length=length)])\u000a 
p915
sg486
VStdFilteredGroupedCt
p916
sg488
I00
sg489
I00
sg490
Vlength = len(Groups)\u000aStdFilteredGroupedCt = roundValues([filterExtremes(g, max_std, 2) for g in pruneNulls(GroupedCt,    required_length=length)])\u000a 
p917
sbsg492
g0
(g493
g494
(g495
g496
tp918
tp919
Rp920
sg486
g916
sbag0
(g314
g2
Ntp921
Rp922
(dp923
g318
I00
sg319
g4
sg320
(lp924
F22.9
aF18.3
aF19.8
aF27.0
aF26.6
aF29.8
aF19.9
aF21.9
aF23.9
aF21.9
aF23.6
aF24.5
aF30.1
aF23.5
aF26.3
aF24.8
aF18.8
aF20.4
aF24.8
aF18.8
aF20.4
aFnan
aFnan
aFnan
aFnan
aFnan
aFnan
aFnan
aFnan
aFnan
aFnan
aFnan
aFnan
aFnan
aFnan
aFnan
aFnan
aFnan
aFnan
aFnan
aFnan
aFnan
aFnan
aFnan
aFnan
aFnan
aFnan
aFnan
aFnan
aFnan
aFnan
aFnan
aFnan
aFnan
aFnan
aFnan
aFnan
aFnan
aFnan
aFnan
aFnan
aFnan
aFnan
aFnan
asg479
g0
(g480
g2
Ntp925
Rp926
(dp927
g484
VMeanCt = [np.mean(g) for g in StdFilteredGroupedCt]\u000aMeanCt = roundValues(MeanCt,1)\u000aStdCt = [np.std(g, ddof=1) for g in StdFilteredGroupedCt]\u000aStdCt = roundValues(StdCt,3)
p928
sg486
VMeanCt
p929
sg488
I00
sg489
I00
sg490
VMeanCt = [np.mean(g) for g in StdFilteredGroupedCt]\u000aMeanCt = roundValues(MeanCt,1)\u000aStdCt = [np.std(g, ddof=1) for g in StdFilteredGroupedCt]\u000aStdCt = roundValues(StdCt,3)
p930
sbsg492
g0
(g493
g494
(g495
g496
tp931
tp932
Rp933
sg486
g929
sbag0
(g314
g2
Ntp934
Rp935
(dp936
g318
I00
sg319
g4
sg320
(lp937
F0.096
aF0.115
aF0.153
aF0.265
aF0.321
aF0.379
aF0.058
aF0.153
aF0.4
aF0.265
aF0.252
aF0.173
aF0.289
aF0.3
aF0.115
aF0.2
aF0.058
aF0.115
aF0.2
aF0.058
aF0.115
aFnan
aFnan
aFnan
aFnan
aFnan
aFnan
aFnan
aFnan
aFnan
aFnan
aFnan
aFnan
aFnan
aFnan
aFnan
aFnan
aFnan
aFnan
aFnan
aFnan
aFnan
aFnan
aFnan
aFnan
aFnan
aFnan
aFnan
aFnan
aFnan
aFnan
aFnan
aFnan
aFnan
aFnan
aFnan
aFnan
aFnan
aFnan
aFnan
aFnan
aFnan
aFnan
aFnan
asg479
g0
(g480
g2
Ntp938
Rp939
(dp940
g484
Nsg640
g935
sg488
I00
sg489
I00
sg490
Nsbsg492
g0
(g493
g494
(g495
g496
tp941
tp942
Rp943
sg486
VStdCt
p944
sbag0
(g314
g2
Ntp945
Rp946
(dp947
g318
I00
sg319
g4
sg320
(lp948
(lp949
g323
(g327
S'\x00\x00\x00\x00\x00\x00\x00\x00'
p950
tp951
Rp952
ag323
(g327
S'\x01\x00\x00\x00\x00\x00\x00\x00'
p953
tp954
Rp955
aa(lp956
g323
(g327
S'\x01\x00\x00\x00\x00\x00\x00\x00'
p957
tp958
Rp959
ag323
(g327
S'\x01\x00\x00\x00\x00\x00\x00\x00'
p960
tp961
Rp962
aa(lp963
g323
(g327
S'\x01\x00\x00\x00\x00\x00\x00\x00'
p964
tp965
Rp966
ag323
(g327
S'\x02\x00\x00\x00\x00\x00\x00\x00'
p967
tp968
Rp969
aa(lp970
g323
(g327
S'\x01\x00\x00\x00\x00\x00\x00\x00'
p971
tp972
Rp973
ag323
(g327
S'\x03\x00\x00\x00\x00\x00\x00\x00'
p974
tp975
Rp976
aa(lp977
g323
(g327
S'\x02\x00\x00\x00\x00\x00\x00\x00'
p978
tp979
Rp980
ag323
(g327
S'\x01\x00\x00\x00\x00\x00\x00\x00'
p981
tp982
Rp983
aa(lp984
g323
(g327
S'\x03\x00\x00\x00\x00\x00\x00\x00'
p985
tp986
Rp987
ag323
(g327
S'\x01\x00\x00\x00\x00\x00\x00\x00'
p988
tp989
Rp990
aa(lp991
g323
(g327
S'\x04\x00\x00\x00\x00\x00\x00\x00'
p992
tp993
Rp994
ag323
(g327
S'\x01\x00\x00\x00\x00\x00\x00\x00'
p995
tp996
Rp997
aaNaNaNaNaNaNaNaNaNaNaNaNaNaNaNaNaNaNaNaNaNaNaNaNaNaNaNaNaNaNaNaNaNaNaNaNaNaNaNaNaNaNaNaNaNaNaNaNaNaNaNaNaNaNaNaNaNasg479
g0
(g480
g2
Ntp998
Rp999
(dp1000
g484
Vdummy = tabularize(s, 'Groups', 1, 'MeanCt', \u000a          new_category_colnm='BioRuns',\u000a          values_colnm_prefix='Gene_')
p1001
sg486
VBioRuns
p1002
sg488
I00
sg489
I00
sg490
Vdummy = tabularize(s, 'Groups', 1, 'MeanCt', \u000a          new_category_colnm='BioRuns',\u000a          values_colnm_prefix='Gene_')
p1003
sbsg492
g0
(g493
g494
(g495
g496
tp1004
tp1005
Rp1006
sg486
g1002
sbag0
(g314
g2
Ntp1007
Rp1008
(dp1009
g318
I00
sg319
g4
sg320
(lp1010
F22.9
aF27.0
aF26.6
aF29.8
aF30.1
aF24.8
aF24.8
aFnan
aFnan
aFnan
aFnan
aFnan
aFnan
aFnan
aFnan
aFnan
aFnan
aFnan
aFnan
aFnan
aFnan
aFnan
aFnan
aFnan
aFnan
aFnan
aFnan
aFnan
aFnan
aFnan
aFnan
aFnan
aFnan
aFnan
aFnan
aFnan
aFnan
aFnan
aFnan
aFnan
aFnan
aFnan
aFnan
aFnan
aFnan
aFnan
aFnan
aFnan
aFnan
aFnan
aFnan
aFnan
aFnan
aFnan
aFnan
aFnan
aFnan
aFnan
aFnan
aFnan
aFnan
aFnan
aFnan
aFnan
asg479
g0
(g480
g2
Ntp1011
Rp1012
(dp1013
g484
Nsg640
g1008
sg488
I00
sg489
I00
sg490
Nsbsg492
g0
(g493
g494
(g495
g496
tp1014
tp1015
Rp1016
sg486
S'Gene_I'
p1017
sbag0
(g314
g2
Ntp1018
Rp1019
(dp1020
g318
I00
sg319
g4
sg320
(lp1021
F18.3
aF19.9
aF21.9
aF23.9
aF23.5
aF18.8
aF18.8
aFnan
aFnan
aFnan
aFnan
aFnan
aFnan
aFnan
aFnan
aFnan
aFnan
aFnan
aFnan
aFnan
aFnan
aFnan
aFnan
aFnan
aFnan
aFnan
aFnan
aFnan
aFnan
aFnan
aFnan
aFnan
aFnan
aFnan
aFnan
aFnan
aFnan
aFnan
aFnan
aFnan
aFnan
aFnan
aFnan
aFnan
aFnan
aFnan
aFnan
aFnan
aFnan
aFnan
aFnan
aFnan
aFnan
aFnan
aFnan
aFnan
aFnan
aFnan
aFnan
aFnan
aFnan
aFnan
aFnan
aFnan
asg479
g0
(g480
g2
Ntp1022
Rp1023
(dp1024
g484
Nsg640
g1019
sg488
I00
sg489
I00
sg490
Nsbsg492
g1016
sg486
S'Gene_R1'
p1025
sbag0
(g314
g2
Ntp1026
Rp1027
(dp1028
g318
I00
sg319
g4
sg320
(lp1029
F19.8
aF21.9
aF23.6
aF24.5
aF26.3
aF20.4
aF20.4
aFnan
aFnan
aFnan
aFnan
aFnan
aFnan
aFnan
aFnan
aFnan
aFnan
aFnan
aFnan
aFnan
aFnan
aFnan
aFnan
aFnan
aFnan
aFnan
aFnan
aFnan
aFnan
aFnan
aFnan
aFnan
aFnan
aFnan
aFnan
aFnan
aFnan
aFnan
aFnan
aFnan
aFnan
aFnan
aFnan
aFnan
aFnan
aFnan
aFnan
aFnan
aFnan
aFnan
aFnan
aFnan
aFnan
aFnan
aFnan
aFnan
aFnan
aFnan
aFnan
aFnan
aFnan
aFnan
aFnan
aFnan
asg479
g0
(g480
g2
Ntp1030
Rp1031
(dp1032
g484
Nsg640
g1027
sg488
I00
sg489
I00
sg490
Nsbsg492
g1016
sg486
S'Gene_R2'
p1033
sbag0
(g314
g2
Ntp1034
Rp1035
(dp1036
g318
I00
sg319
g4
sg320
(lp1037
F0.04123
aF0.00729
aF0.03847
aF0.01675
aF0.01031
aF0.01563
aF0.01563
aFnan
aFnan
aFnan
aFnan
aFnan
aFnan
aFnan
aFnan
aFnan
aFnan
aFnan
aFnan
aFnan
aFnan
aFnan
aFnan
aFnan
aFnan
aFnan
aFnan
aFnan
aFnan
aFnan
aFnan
aFnan
aFnan
aFnan
aFnan
aFnan
aFnan
aFnan
aFnan
aFnan
aFnan
aFnan
aFnan
aFnan
aFnan
aFnan
aFnan
aFnan
aFnan
aFnan
aFnan
aFnan
aFnan
aFnan
aFnan
aFnan
aFnan
aFnan
aFnan
aFnan
aFnan
aFnan
aFnan
aFnan
asg479
g0
(g480
g2
Ntp1038
Rp1039
(dp1040
g484
VExprR1 = roundValues(2**(Gene_R1 - Gene_I),5)
p1041
sg486
VExprR1
p1042
sg488
I01
sg489
I00
sg490
VroundValues(2**(Gene_R1 - Gene_I),5)
p1043
sbsg492
g0
(g493
g494
(g495
g496
tp1044
tp1045
Rp1046
sg486
g1042
sbag0
(g314
g2
Ntp1047
Rp1048
(dp1049
g318
I00
sg319
g4
sg320
(lp1050
F0.11663
aF0.02916
aF0.125
aF0.02538
aF0.07179
aF0.04737
aF0.04737
aFnan
aFnan
aFnan
aFnan
aFnan
aFnan
aFnan
aFnan
aFnan
aFnan
aFnan
aFnan
aFnan
aFnan
aFnan
aFnan
aFnan
aFnan
aFnan
aFnan
aFnan
aFnan
aFnan
aFnan
aFnan
aFnan
aFnan
aFnan
aFnan
aFnan
aFnan
aFnan
aFnan
aFnan
aFnan
aFnan
aFnan
aFnan
aFnan
aFnan
aFnan
aFnan
aFnan
aFnan
aFnan
aFnan
aFnan
aFnan
aFnan
aFnan
aFnan
aFnan
aFnan
aFnan
aFnan
aFnan
aFnan
asg479
g0
(g480
g2
Ntp1051
Rp1052
(dp1053
g484
VExprR2 = roundValues(2**(Gene_R2 - Gene_I),5)
p1054
sg486
VExprR2
p1055
sg488
I01
sg489
I00
sg490
VroundValues(2**(Gene_R2 - Gene_I),5)
p1056
sbsg492
g0
(g493
g494
(g495
g496
tp1057
tp1058
Rp1059
sg486
g1055
sbag0
(g314
g2
Ntp1060
Rp1061
(dp1062
g318
I00
sg319
g4
sg320
(lp1063
F0.069
aF0.015
aF0.069
aF0.021
aF0.027
aF0.027
aF0.027
aFnan
aFnan
aFnan
aFnan
aFnan
aFnan
aFnan
aFnan
aFnan
aFnan
aFnan
aFnan
aFnan
aFnan
aFnan
aFnan
aFnan
aFnan
aFnan
aFnan
aFnan
aFnan
aFnan
aFnan
aFnan
aFnan
aFnan
aFnan
aFnan
aFnan
aFnan
aFnan
aFnan
aFnan
aFnan
aFnan
aFnan
aFnan
aFnan
aFnan
aFnan
aFnan
aFnan
aFnan
aFnan
aFnan
aFnan
aFnan
aFnan
aFnan
aFnan
aFnan
aFnan
aFnan
aFnan
aFnan
aFnan
asg479
g0
(g480
g2
Ntp1064
Rp1065
(dp1066
g484
VGeoMean = roundValues(np.sqrt(ExprR1*ExprR2), 3)
p1067
sg486
VGeoMean
p1068
sg488
I01
sg489
I00
sg490
VroundValues(np.sqrt(ExprR1*ExprR2), 3)
p1069
sbsg492
g0
(g493
g494
(g495
g496
tp1070
tp1071
Rp1072
sg486
g1068
sbag0
(g314
g2
Ntp1073
Rp1074
(dp1075
g318
I00
sg319
g4
sg320
(lp1076
I1
aI1
aI1
aI1
aI1
aI1
aI1
aI1
aI1
aI1
aI1
aI1
aI1
aI2
aI2
aI2
aI3
aI3
aI3
aI1
aI1
aI1
aI2
aI2
aI2
aI3
aI3
aI3
aI1
aI1
aI1
aI2
aI2
aI2
aI3
aI3
aI3
aI1
aI1
aI1
aI1
aI1
aI1
aI1
aI1
aI1
aI1
aI1
aI1
aI1
aI1
aI1
aI1
aI1
aI1
aI1
aI1
aI1
aI1
aI1
aI1
aI1
aI1
aI1
asg479
g0
(g480
g2
Ntp1077
Rp1078
(dp1079
g484
Nsg486
S'BRpl'
p1080
sg488
I00
sg489
I00
sg490
Nsbsg492
g0
(g493
g494
(cscisheets.core.helpers.extended_array
ExtendedArray
p1081
g496
tp1082
tp1083
Rp1084
sg486
g1080
sbag0
(g314
g2
Ntp1085
Rp1086
(dp1087
g318
I00
sg319
g4
sg320
(lp1088
F23.0
aF22.86
aF22.8
aF23.0
aF18.24
aF18.22
aF18.36
aF19.72
aF19.75
aF20.01
aF26.68
aF27.13
aF27.21
aF26.76
aF26.71
aF26.19
aF29.98
aF30.12
aF29.41
aF19.92
aF19.85
aF20.0
aF21.86
aF22.09
aF21.84
aF23.89
aF23.54
aF24.27
aF22.18
aF21.71
aF21.75
aF23.88
aF23.42
aF23.63
aF24.59
aF24.61
aF24.34
aF29.95
aF30.45
aF29.88
aF23.22
aF23.8
aF23.49
aF26.37
aF26.36
aF26.17
aF24.8
aF24.97
aF24.63
aF18.91
aF18.78
aF18.8
aF20.5
aF20.47
aF20.28
aF24.8
aF24.97
aF24.63
aF18.91
aF18.78
aF18.8
aF20.5
aF20.47
aF20.28
asg479
g0
(g480
g2
Ntp1089
Rp1090
(dp1091
g484
Nsg486
S'Ct'
p1092
sg488
I00
sg489
I00
sg490
Nsbsg492
g1084
sg486
g1092
sbag0
(g314
g2
Ntp1093
Rp1094
(dp1095
g318
I00
sg319
g4
sg320
(lp1096
F0.8371
aF0.891
aF0.8956
aF0.8671
aF0.8266
aF0.8343
aF0.8496
aF0.8157
aF0.8543
aF0.8208
aF0.9399
aF0.8296
aF0.8361
aF0.8039
aF0.8399
aF0.7935
aF0.8264
aF0.7974
aF0.8252
aF0.9179
aF0.9783
aF0.8971
aF0.8957
aF0.8287
aF0.8387
aF0.8746
aF0.8493
aF0.8349
aF0.7857
aF0.8427
aF0.8637
aF0.8281
aF0.8203
aF0.8288
aF0.8138
aF0.8242
aF0.804
aF0.8418
aF0.7959
aF0.8071
aF0.7701
aF0.8746
aF0.8139
aF0.7795
aF0.7676
aF0.7947
aF0.8513
aF0.8485
aF0.8401
aF0.8715
aF0.8977
aF0.856
aF0.8179
aF0.8173
aF0.7894
aF0.8513
aF0.8485
aF0.8401
aF0.8715
aF0.8977
aF0.856
aF0.8179
aF0.8173
aF0.7894
asg479
g0
(g480
g2
Ntp1097
Rp1098
(dp1099
g484
Nsg486
S'Eff'
p1100
sg488
I00
sg489
I00
sg490
Nsbsg492
g1084
sg486
g1100
sbag0
(g314
g2
Ntp1101
Rp1102
(dp1103
g318
I00
sg319
g4
sg320
(lp1104
g333
ag333
ag333
ag333
aVR1
p1105
aVR1
p1106
aVR1
p1107
aVR2
p1108
aVR2
p1109
aVR2
p1110
ag333
ag333
ag333
ag333
ag333
ag333
ag333
ag333
ag333
aVR1
p1111
aVR1
p1112
aVR1
p1113
aVR1
p1114
aVR1
p1115
aVR1
p1116
aVR1
p1117
aVR1
p1118
aVR1
p1119
aVR2
p1120
aVR2
p1121
aVR2
p1122
aVR2
p1123
aVR2
p1124
aVR2
p1125
aVR2
p1126
aVR2
p1127
aVR2
p1128
ag333
ag333
ag333
aVR1
p1129
aVR1
p1130
aVR1
p1131
aVR2
p1132
aVR2
p1133
aVR2
p1134
ag333
ag333
ag333
aVR1
p1135
aVR1
p1136
aVR1
p1137
aVR2
p1138
aVR2
p1139
aVR2
p1140
ag333
ag333
ag333
aVR1
p1141
aVR1
p1142
aVR1
p1143
aVR2
p1144
aVR2
p1145
aVR2
p1146
asg479
g0
(g480
g2
Ntp1147
Rp1148
(dp1149
g484
Nsg486
S'RunType'
p1150
sg488
I00
sg489
I00
sg490
Nsbsg492
g1084
sg486
g1150
sbag0
(g314
g2
Ntp1151
Rp1152
(dp1153
g318
I00
sg319
g4
sg320
(lp1154
Va
p1155
aVb
p1156
aVc
p1157
aVd
p1158
ag1155
ag1156
ag1157
ag1155
ag1156
ag1157
ag1155
ag1156
ag1157
ag1155
ag1156
ag1157
ag1155
ag1156
ag1157
ag1155
ag1156
ag1157
ag1155
ag1156
ag1157
ag1155
ag1156
ag1157
ag1155
ag1156
ag1157
ag1155
ag1156
ag1157
ag1155
ag1156
ag1157
ag1155
ag1156
ag1157
ag1155
ag1156
ag1157
ag1155
ag1156
ag1157
ag1155
ag1156
ag1157
ag1155
ag1156
ag1157
ag1155
ag1156
ag1157
ag1155
ag1156
ag1157
ag1155
ag1156
ag1157
ag1155
ag1156
ag1157
asg479
g0
(g480
g2
Ntp1159
Rp1160
(dp1161
g484
Nsg486
S'TRpl'
p1162
sg488
I00
sg489
I00
sg490
Nsbsg492
g1084
sg486
g1162
sbag0
(g314
g2
Ntp1163
Rp1164
(dp1165
g318
I00
sg319
g4
sg320
(lp1166
I0
aI0
aI0
aI0
aI0
aI0
aI0
aI0
aI0
aI0
aI1
aI1
aI1
aI1
aI1
aI1
aI1
aI1
aI1
aI1
aI1
aI1
aI1
aI1
aI1
aI1
aI1
aI1
aI1
aI1
aI1
aI1
aI1
aI1
aI1
aI1
aI1
aI2
aI2
aI2
aI2
aI2
aI2
aI2
aI2
aI2
aI3
aI3
aI3
aI3
aI3
aI3
aI3
aI3
aI3
aI4
aI4
aI4
aI4
aI4
aI4
aI4
aI4
aI4
asg479
g0
(g480
g2
Ntp1167
Rp1168
(dp1169
g484
Nsg486
S'Treatment'
p1170
sg488
I00
sg489
I00
sg490
Nsbsg492
g1084
sg486
g1170
sbasS'_is_evaluate_formulas'
p1171
I01
sS'_prologue'
p1172
g0
(g480
g2
Ntp1173
Rp1174
(dp1175
g484
V# Prologue\u000aimport math as mt\u000aimport numpy as np\u000afrom os import listdir\u000afrom os.path import isfile, join\u000aimport pandas as pd\u000aimport scipy as sp\u000afrom numpy import nan  # Must follow sympy import \u000a\u000axlsx_path =   '/mnt/hgfs/josephhellerstein/home/Technical/SciSheets/CaseStudies/Kristen/workbooks/data.xlsx'\u000agene = ParmValues[0]\u000arun = ParmValues[1] == 'True'\u000ashow_raw = ParmValues[2] == 'True'\u000ashow_block1 = ParmValues[3] == 'True'\u000ashow_block2 = ParmValues[4] == 'True'\u000ashow_block3 = ParmValues[5] == 'True'\u000ashow_params = ParmValues[8] == 'True'\u000a#show_params = True\u000amax_std  = float(ParmValues[6])\u000amin_eff = float(ParmValues[7])\u000aworksheet = gene + "-I"\u000as.getTable().setIsEvaluateFormulas(run)\u000as.setColumnVisibility()\u000as.setColumnVisibility(['Groups', 'GroupedEff', 'GroupedCt', 'StdFilteredGroupedCt', 'MeanCt',\u000a    'StdCt'], is_visible=show_block1)\u000as.setColumnVisibility(['BioRuns', 'Gene_I', 'Gene_R1', 'Gene_R2', 'ExprR1', 'ExprR2', \u000a    'GeoMean'], is_visible=show_block2)\u000as.setColumnVisibility(['GeoGroups', 'GroupedGeoMeans', 'NrmlGeoGroupedMeans', \u000a    'MeanNrmlGeoGroups', 'StdNrmlGeoGroups'], is_visible=show_block3)\u000aif run:\u000a  Groups = []\u000a  GroupedCt = []\u000a  GroupedEff = []\u000a  MeanCt = []\u000a  Imp = []\u000a  s.deleteColumn('Ct')\u000a  s.deleteColumn('RunType')\u000a  s.deleteColumn('BRpl')\u000a  s.deleteColumn('TRpl')\u000a  s.deleteColumn('Treatment')\u000a  s.deleteColumn('Eff')\u000aif run:\u000a  importExcelToTable(s, xlsx_path, worksheet=worksheet,\u000a      column_position='ParmValues',\u000a      names=['Treatment', 'RunType', 'BRpl', 'TRpl', 'Eff', 'Ct'])\u000as.setColumnVisibility(['BRpl', 'Ct', 'Eff', 'RunType', 'TRpl', 'Treatment'], is_visible=show_raw)\u000as.setColumnVisibility(['ParmNames', 'ParmValues'], show_params)
p1176
sg486
VSingleGene
p1177
sg488
I00
sg489
I00
sg490
V# Prologue\u000aimport math as mt\u000aimport numpy as np\u000afrom os import listdir\u000afrom os.path import isfile, join\u000aimport pandas as pd\u000aimport scipy as sp\u000afrom numpy import nan  # Must follow sympy import \u000a\u000axlsx_path =   '/mnt/hgfs/josephhellerstein/home/Technical/SciSheets/CaseStudies/Kristen/workbooks/data.xlsx'\u000agene = ParmValues[0]\u000arun = ParmValues[1] == 'True'\u000ashow_raw = ParmValues[2] == 'True'\u000ashow_block1 = ParmValues[3] == 'True'\u000ashow_block2 = ParmValues[4] == 'True'\u000ashow_block3 = ParmValues[5] == 'True'\u000ashow_params = ParmValues[8] == 'True'\u000a#show_params = True\u000amax_std  = float(ParmValues[6])\u000amin_eff = float(ParmValues[7])\u000aworksheet = gene + "-I"\u000as.getTable().setIsEvaluateFormulas(run)\u000as.setColumnVisibility()\u000as.setColumnVisibility(['Groups', 'GroupedEff', 'GroupedCt', 'StdFilteredGroupedCt', 'MeanCt',\u000a    'StdCt'], is_visible=show_block1)\u000as.setColumnVisibility(['BioRuns', 'Gene_I', 'Gene_R1', 'Gene_R2', 'ExprR1', 'ExprR2', \u000a    'GeoMean'], is_visible=show_block2)\u000as.setColumnVisibility(['GeoGroups', 'GroupedGeoMeans', 'NrmlGeoGroupedMeans', \u000a    'MeanNrmlGeoGroups', 'StdNrmlGeoGroups'], is_visible=show_block3)\u000aif run:\u000a  Groups = []\u000a  GroupedCt = []\u000a  GroupedEff = []\u000a  MeanCt = []\u000a  Imp = []\u000a  s.deleteColumn('Ct')\u000a  s.deleteColumn('RunType')\u000a  s.deleteColumn('BRpl')\u000a  s.deleteColumn('TRpl')\u000a  s.deleteColumn('Treatment')\u000a  s.deleteColumn('Eff')\u000aif run:\u000a  importExcelToTable(s, xlsx_path, worksheet=worksheet,\u000a      column_position='ParmValues',\u000a      names=['Treatment', 'RunType', 'BRpl', 'TRpl', 'Eff', 'Ct'])\u000as.setColumnVisibility(['BRpl', 'Ct', 'Eff', 'RunType', 'TRpl', 'Treatment'], is_visible=show_raw)\u000as.setColumnVisibility(['ParmNames', 'ParmValues'], show_params)
p1178
sbsS'_epilogue'
p1179
g0
(g480
g2
Ntp1180
Rp1181
(dp1182
g484
V# Epilogue\u000aif run:\u000a  worksheet = "%s-O" % gene\u000a  exportTableToExcel(s, xlsx_path, worksheet=worksheet, columns=['GeoGroups',  \u000a      'MeanNrmlGeoGroups', 'StdNrmlGeoGroups'])\u000a
p1183
sg486
g1177
sg488
I00
sg489
I00
sg490
V# Epilogue\u000aif run:\u000a  worksheet = "%s-O" % gene\u000a  exportTableToExcel(s, xlsx_path, worksheet=worksheet, columns=['GeoGroups',  \u000a      'MeanNrmlGeoGroups', 'StdNrmlGeoGroups'])\u000a
p1184
sbsg486
g1177
sS'_columns'
p1185
(lp1186
g0
(g314
g2
Ntp1187
Rp1188
(dp1189
g318
I01
sg319
g4
sg320
(lp1190
S'1'
p1191
aS'2'
p1192
aS'3'
p1193
aS'4'
p1194
aS'5'
p1195
aS'6'
p1196
aS'7'
p1197
aS'8'
p1198
aS'9'
p1199
aS'10'
p1200
aS'11'
p1201
aS'12'
p1202
aS'13'
p1203
aS'14'
p1204
aS'15'
p1205
aS'16'
p1206
aS'17'
p1207
aS'18'
p1208
aS'19'
p1209
aS'20'
p1210
aS'21'
p1211
aS'22'
p1212
aS'23'
p1213
aS'24'
p1214
aS'25'
p1215
aS'26'
p1216
aS'27'
p1217
aS'28'
p1218
aS'29'
p1219
aS'30'
p1220
aS'31'
p1221
aS'32'
p1222
aS'33'
p1223
aS'34'
p1224
aS'35'
p1225
aS'36'
p1226
aS'37'
p1227
aS'38'
p1228
aS'39'
p1229
aS'40'
p1230
aS'41'
p1231
aS'42'
p1232
aS'43'
p1233
aS'44'
p1234
aS'45'
p1235
aS'46'
p1236
aS'47'
p1237
aS'48'
p1238
aS'49'
p1239
aS'50'
p1240
aS'51'
p1241
aS'52'
p1242
aS'53'
p1243
aS'54'
p1244
aS'55'
p1245
aS'56'
p1246
aS'57'
p1247
aS'58'
p1248
aS'59'
p1249
aS'60'
p1250
aS'61'
p1251
aS'62'
p1252
aS'63'
p1253
aS'64'
p1254
asg479
g0
(g480
g2
Ntp1255
Rp1256
(dp1257
g484
Nsg640
g1188
sg488
I00
sg489
I00
sg490
Nsbsg492
g0
(g493
g494
(g495
g496
tp1258
tp1259
Rp1260
sg486
S'row'
p1261
sbag0
(g314
g2
Ntp1262
Rp1263
(dp1264
g318
I00
sg319
g4
sg320
(lp1265
Vgene
p1266
aVrun
p1267
aVshow_raw
p1268
aVshow_block1
p1269
aVshow_block2
p1270
aVshow_block3
p1271
aVmax_std
p1272
aVmin_eff
p1273
aVshow_params
p1274
aVnan
p1275
aVnan
p1276
aVnan
p1277
aVnan
p1278
aVnan
p1279
aVnan
p1280
aVnan
p1281
aVnan
p1282
aVnan
p1283
aVnan
p1284
aVnan
p1285
aVnan
p1286
aVnan
p1287
aVnan
p1288
aVnan
p1289
aVnan
p1290
aVnan
p1291
aVnan
p1292
aVnan
p1293
aVnan
p1294
aVnan
p1295
aVnan
p1296
aVnan
p1297
aVnan
p1298
aVnan
p1299
aVnan
p1300
aVnan
p1301
aVnan
p1302
aVnan
p1303
aVnan
p1304
aVnan
p1305
aVnan
p1306
aVnan
p1307
aVnan
p1308
aVnan
p1309
aVnan
p1310
aVnan
p1311
aVnan
p1312
aVnan
p1313
aVnan
p1314
aVnan
p1315
aVnan
p1316
aVnan
p1317
aVnan
p1318
aVnan
p1319
aNaNaNaNaNaNaNaNaNaNasg479
g0
(g480
g2
Ntp1320
Rp1321
(dp1322
g484
Nsg640
g1263
sg488
I00
sg489
I00
sg490
Nsbsg492
g0
(g493
g494
(g495
g496
tp1323
tp1324
Rp1325
sg486
VParmNames
p1326
sbag0
(g314
g2
Ntp1327
Rp1328
(dp1329
g318
I00
sg319
g4
sg320
(lp1330
VGene1
p1331
aVTrue
p1332
aVFalse
p1333
aVFalse
p1334
aVFalse
p1335
aVTrue
p1336
aF0.5
aV0.7
p1337
aVTrue
p1338
aV
p1339
aVnan
p1340
aVnan
p1341
aVnan
p1342
aVnan
p1343
aVnan
p1344
aVnan
p1345
aVnan
p1346
aVnan
p1347
aVnan
p1348
aVnan
p1349
aVnan
p1350
aVnan
p1351
aVnan
p1352
aVnan
p1353
aVnan
p1354
aVnan
p1355
aVnan
p1356
aVnan
p1357
aVnan
p1358
aVnan
p1359
aVnan
p1360
aVnan
p1361
aVnan
p1362
aVnan
p1363
aVnan
p1364
aVnan
p1365
aVnan
p1366
aVnan
p1367
aVnan
p1368
aVnan
p1369
aVnan
p1370
aVnan
p1371
aVnan
p1372
aVnan
p1373
aVnan
p1374
aVnan
p1375
aVnan
p1376
aVnan
p1377
aVnan
p1378
aVnan
p1379
aVnan
p1380
aVnan
p1381
aVnan
p1382
aVnan
p1383
aNaNaNaNaNaNaNaNaNaNasg479
g0
(g480
g2
Ntp1384
Rp1385
(dp1386
g484
Nsg486
VParmValues
p1387
sg488
I00
sg489
I00
sg490
Nsbsg492
g0
(g493
g494
(g495
g496
tp1388
tp1389
Rp1390
sg486
g1387
sbag1164
ag1102
ag1074
ag1152
ag1094
ag1086
ag316
ag501
ag646
ag783
ag922
ag935
ag946
ag1008
ag1019
ag1027
ag1035
ag1048
ag1061
ag0
(g314
g2
Ntp1391
Rp1392
(dp1393
g318
I00
sg319
g4
sg320
(lp1394
(lp1395
g323
(g327
S'\x00\x00\x00\x00\x00\x00\x00\x00'
p1396
tp1397
Rp1398
aa(lp1399
g323
(g327
S'\x01\x00\x00\x00\x00\x00\x00\x00'
p1400
tp1401
Rp1402
aa(lp1403
g323
(g327
S'\x02\x00\x00\x00\x00\x00\x00\x00'
p1404
tp1405
Rp1406
aa(lp1407
g323
(g327
S'\x03\x00\x00\x00\x00\x00\x00\x00'
p1408
tp1409
Rp1410
aa(lp1411
g323
(g327
S'\x04\x00\x00\x00\x00\x00\x00\x00'
p1412
tp1413
Rp1414
aaNaNaNaNaNaNaNaNaNaNaNaNaNaNaNaNaNaNaNaNaNaNaNaNaNaNaNaNaNaNaNaNaNaNaNaNaNaNaNaNaNaNaNaNaNaNaNaNaNaNaNaNaNaNaNaNaNaNaNasg479
g0
(g480
g2
Ntp1415
Rp1416
(dp1417
g484
Vcat_vals = [br[0] for br in pruneNulls(BioRuns)]\u000aclean_geo = [x for x in GeoMean if x is not None]\u000aGeoGroups, groupedGeoMeans = groupBy(cat_vals, clean_geo)\u000aGroupedGeoMeans = roundValues(groupedGeoMeans, 3)\u000aGeoGroups = [[x] for x in GeoGroups]
p1418
sg486
VGeoGroups
p1419
sg488
I00
sg489
I00
sg490
Vcat_vals = [br[0] for br in pruneNulls(BioRuns)]\u000aclean_geo = [x for x in GeoMean if x is not None]\u000aGeoGroups, groupedGeoMeans = groupBy(cat_vals, clean_geo)\u000aGroupedGeoMeans = roundValues(groupedGeoMeans, 3)\u000aGeoGroups = [[x] for x in GeoGroups]
p1420
sbsg492
g0
(g493
g494
(g495
g496
tp1421
tp1422
Rp1423
sg486
g1419
sbag0
(g314
g2
Ntp1424
Rp1425
(dp1426
g318
I00
sg319
g4
sg320
(lp1427
g504
(g495
(I0
tp1428
g506
tp1429
Rp1430
(I1
(I1
tp1431
g512
I00
S'D\x8bl\xe7\xfb\xa9\xb1?'
p1432
tp1433
bag504
(g495
(I0
tp1434
g506
tp1435
Rp1436
(I1
(I3
tp1437
g512
I00
S'\xb8\x1e\x85\xebQ\xb8\x8e?D\x8bl\xe7\xfb\xa9\xb1?\x1b/\xdd$\x06\x81\x95?'
p1438
tp1439
bag504
(g495
(I0
tp1440
g506
tp1441
Rp1442
(I1
(I1
tp1443
g512
I00
S'\xd9\xce\xf7S\xe3\xa5\x9b?'
p1444
tp1445
bag504
(g495
(I0
tp1446
g506
tp1447
Rp1448
(I1
(I1
tp1449
g512
I00
S'\xd9\xce\xf7S\xe3\xa5\x9b?'
p1450
tp1451
bag504
(g495
(I0
tp1452
g506
tp1453
Rp1454
(I1
(I1
tp1455
g512
I00
S'\xd9\xce\xf7S\xe3\xa5\x9b?'
p1456
tp1457
baNaNaNaNaNaNaNaNaNaNaNaNaNaNaNaNaNaNaNaNaNaNaNaNaNaNaNaNaNaNaNaNaNaNaNaNaNaNaNaNaNaNaNaNaNaNaNaNaNaNaNaNaNaNaNaNaNaNaNasg479
g0
(g480
g2
Ntp1458
Rp1459
(dp1460
g484
Nsg640
g1425
sg488
I00
sg489
I00
sg490
Nsbsg492
g0
(g493
g494
(g495
g496
tp1461
tp1462
Rp1463
sg486
VGroupedGeoMeans
p1464
sbag0
(g314
g2
Ntp1465
Rp1466
(dp1467
g318
I00
sg319
g4
sg320
(lp1468
g504
(g495
(I0
tp1469
g506
tp1470
Rp1471
(I1
(I1
tp1472
g512
I00
S'\x00\x00\x00\x00\x00\x00\xf0?'
p1473
tp1474
bag504
(g495
(I0
tp1475
g506
tp1476
Rp1477
(I1
(I3
tp1478
g512
I00
S'-\xb2\x9d\xef\xa7\xc6\xcb?\x00\x00\x00\x00\x00\x00\xf0?\xdb\xf9~j\xbct\xd3?'
p1479
tp1480
bag504
(g495
(I0
tp1481
g506
tp1482
Rp1483
(I1
(I1
tp1484
g512
I00
S'\xa0\x1a/\xdd$\x06\xd9?'
p1485
tp1486
bag504
(g495
(I0
tp1487
g506
tp1488
Rp1489
(I1
(I1
tp1490
g512
I00
S'\xa0\x1a/\xdd$\x06\xd9?'
p1491
tp1492
bag504
(g495
(I0
tp1493
g506
tp1494
Rp1495
(I1
(I1
tp1496
g512
I00
S'\xa0\x1a/\xdd$\x06\xd9?'
p1497
tp1498
baNaNaNaNaNaNaNaNaNaNaNaNaNaNaNaNaNaNaNaNaNaNaNaNaNaNaNaNaNaNaNaNaNaNaNaNaNaNaNaNaNaNaNaNaNaNaNaNaNaNaNaNaNaNaNaNaNaNaNasg479
g0
(g480
g2
Ntp1499
Rp1500
(dp1501
g484
Vref = np.mean(GroupedGeoMeans[0])\u000aNrmlGeoGroupedMeans = [ [x/ref for x in g] for g in GroupedGeoMeans if g is not None]  \u000aNrmlGeoGroupedMeans = roundValues(NrmlGeoGroupedMeans, 3)
p1502
sg486
VNrmlGeoGroupedMeans
p1503
sg488
I00
sg489
I00
sg490
Vref = np.mean(GroupedGeoMeans[0])\u000aNrmlGeoGroupedMeans = [ [x/ref for x in g] for g in GroupedGeoMeans if g is not None]  \u000aNrmlGeoGroupedMeans = roundValues(NrmlGeoGroupedMeans, 3)
p1504
sbsg492
g0
(g493
g494
(g495
g496
tp1505
tp1506
Rp1507
sg486
g1503
sbag0
(g314
g2
Ntp1508
Rp1509
(dp1510
g318
I00
sg319
g4
sg320
(lp1511
F1.0
aF0.507
aF0.391
aF0.391
aF0.391
aFnan
aFnan
aFnan
aFnan
aFnan
aFnan
aFnan
aFnan
aFnan
aFnan
aFnan
aFnan
aFnan
aFnan
aFnan
aFnan
aFnan
aFnan
aFnan
aFnan
aFnan
aFnan
aFnan
aFnan
aFnan
aFnan
aFnan
aFnan
aFnan
aFnan
aFnan
aFnan
aFnan
aFnan
aFnan
aFnan
aFnan
aFnan
aFnan
aFnan
aFnan
aFnan
aFnan
aFnan
aFnan
aFnan
aFnan
aFnan
aFnan
aFnan
aFnan
aFnan
aFnan
aFnan
aFnan
aFnan
aFnan
aFnan
aFnan
asg479
g0
(g480
g2
Ntp1512
Rp1513
(dp1514
g484
VMeanNrmlGeoGroups = [round(np.mean(g), 3) for g in NrmlGeoGroupedMeans]
p1515
sg486
VMeanNrmlGeoGroups
p1516
sg488
I01
sg489
I00
sg490
V[round(np.mean(g), 3) for g in NrmlGeoGroupedMeans]
p1517
sbsg492
g0
(g493
g494
(g495
g496
tp1518
tp1519
Rp1520
sg486
g1516
sbag0
(g314
g2
Ntp1521
Rp1522
(dp1523
g318
I00
sg319
g4
sg320
(lp1524
Fnan
aF0.248
aFnan
aFnan
aFnan
aFnan
aFnan
aFnan
aFnan
aFnan
aFnan
aFnan
aFnan
aFnan
aFnan
aFnan
aFnan
aFnan
aFnan
aFnan
aFnan
aFnan
aFnan
aFnan
aFnan
aFnan
aFnan
aFnan
aFnan
aFnan
aFnan
aFnan
aFnan
aFnan
aFnan
aFnan
aFnan
aFnan
aFnan
aFnan
aFnan
aFnan
aFnan
aFnan
aFnan
aFnan
aFnan
aFnan
aFnan
aFnan
aFnan
aFnan
aFnan
aFnan
aFnan
aFnan
aFnan
aFnan
aFnan
aFnan
aFnan
aFnan
aFnan
aFnan
asg479
g0
(g480
g2
Ntp1525
Rp1526
(dp1527
g484
VStdNrmlGeoGroups = [round(np.std(g, ddof=1)/np.sqrt(len(g)), 3) for g in NrmlGeoGroupedMeans]\u000a
p1528
sg486
VStdNrmlGeoGroups
p1529
sg488
I01
sg489
I00
sg490
V[round(np.std(g, ddof=1)/np.sqrt(len(g)), 3) for g in NrmlGeoGroupedMeans]\u000a
p1530
sbsg492
g0
(g493
g494
(g495
g496
tp1531
tp1532
Rp1533
sg486
g1529
sbasg307
V/home/ubuntu/SciSheets/mysite/user/guest/tables/kristen_single_gene.pcl
p1534
sb.