ccopy_reg
_reconstructor
p0
(cscisheets.ui.dt_table
DTTable
p1
c__builtin__
object
p2
Ntp3
Rp4
(dp5
S'_versioned_file'
p6
g0
(cmysite.helpers.versioned_file
VersionedFile
p7
g2
Ntp8
Rp9
(dp10
S'_redo_stack'
p11
g0
(cmysite.helpers.file_stack
FileStack
p12
g2
Ntp13
Rp14
(dp15
S'_dirpath'
p16
S'/home/ubuntu/SciSheets/mysite/user/guest/tables/backup'
p17
sS'_max_depth'
p18
I5
sS'_filename_pfx'
p19
Vkristen_single_gene.r
p20
sbsS'_max_versions'
p21
I5
sS'_undo_stack'
p22
g0
(g12
g2
Ntp23
Rp24
(dp25
g16
g17
sg18
I5
sg19
Vkristen_single_gene.u
p26
sbsS'_checkpoint_history'
p27
(lp28
VCell/Update
p29
aVCell/Update
p30
aVCell/Update
p31
aVCell/Update
p32
aVCell/Update
p33
aVCell/Update
p34
aVCell/Update
p35
aVCell/Update
p36
aVCell/Update
p37
aVCell/Update
p38
aVCell/Update
p39
aVCell/Update
p40
aVColumn/Formula
p41
aVColumn/Formula
p42
aVColumn/Append
p43
aVColumn/Formula
p44
aVColumn/Delete
p45
aVCell/Update
p46
aVColumn/Formula
p47
aVCell/Update
p48
aVCell/Update
p49
aVColumn/Formula
p50
aVColumn/Formula
p51
aVCell/Update
p52
aVColumn/Formula
p53
aVColumn/Formula
p54
aVCell/Update
p55
aVCell/Update
p56
aVCell/Update
p57
aVCell/Update
p58
aVColumn/Formula
p59
aVCell/Update
p60
aVCell/Update
p61
aVCell/Update
p62
aVColumn/Formula
p63
aVCell/Update
p64
aVColumn/Formula
p65
aVColumn/Formula
p66
aVCell/Update
p67
aVCell/Update
p68
aVCell/Update
p69
aVCell/Update
p70
aVCell/Update
p71
aVCell/Update
p72
aVCell/Update
p73
aVCell/Update
p74
aVCell/Update
p75
aVColumn/Formula
p76
aVCell/Update
p77
aVCell/Update
p78
aVCell/Update
p79
aVCell/Update
p80
aVCell/Update
p81
aVCell/Update
p82
aVCell/Update
p83
aVCell/Update
p84
aVCell/Update
p85
aVCell/Update
p86
aVCell/Update
p87
aVCell/Update
p88
aVColumn/Formula
p89
aVColumn/Formula
p90
aVColumn/Formula
p91
aVCell/Update
p92
aVCell/Update
p93
aVCell/Update
p94
aVCell/Update
p95
aVCell/Update
p96
aVColumn/Formula
p97
aVCell/Update
p98
aVCell/Update
p99
aVCell/Update
p100
aVCell/Update
p101
aVCell/Update
p102
aVCell/Update
p103
aVCell/Update
p104
aVColumn/Formula
p105
aVColumn/Formula
p106
aVColumn/Formula
p107
aVCell/Update
p108
aVCell/Update
p109
aVColumn/Formula
p110
aVCell/Update
p111
aVCell/Update
p112
aVCell/Update
p113
aVCell/Update
p114
aVCell/Update
p115
aVCell/Update
p116
aVCell/Update
p117
aVCell/Update
p118
aVColumn/Formula
p119
aVCell/Update
p120
aVColumn/Formula
p121
aVColumn/Formula
p122
aVColumn/Formula
p123
aVCell/Update
p124
aVCell/Update
p125
aVColumn/Formula
p126
aVColumn/Formula
p127
aVColumn/Formula
p128
aVColumn/Formula
p129
aVCell/Update
p130
aVColumn/Formula
p131
aVColumn/Formula
p132
aVColumn/Formula
p133
aVCell/Update
p134
aVCell/Update
p135
aVCell/Update
p136
aVCell/Update
p137
aVCell/Update
p138
aVCell/Update
p139
aVCell/Update
p140
aVCell/Update
p141
aVCell/Update
p142
aVCell/Update
p143
aVColumn/Formula
p144
aVColumn/Formula
p145
aVColumn/Formula
p146
aVColumn/Formula
p147
aVCell/Update
p148
aVCell/Update
p149
aVColumn/Formula
p150
aVCell/Update
p151
aVCell/Update
p152
aVCell/Update
p153
aVCell/Update
p154
aVCell/Update
p155
aVCell/Update
p156
aVCell/Update
p157
aVCell/Update
p158
aVCell/Update
p159
aVCell/Update
p160
aVCell/Update
p161
aVCell/Update
p162
aVCell/Update
p163
aVColumn/Formula
p164
aVColumn/Formula
p165
aVCell/Update
p166
aVCell/Update
p167
aVCell/Update
p168
aVColumn/Formula
p169
aVCell/Update
p170
aVCell/Update
p171
aVCell/Update
p172
aVCell/Update
p173
aVColumn/Formula
p174
aVColumn/Formula
p175
aVColumn/Formula
p176
aVColumn/Formula
p177
aVCell/Update
p178
aVColumn/Formula
p179
aVCell/Update
p180
aVCell/Update
p181
aVCell/Update
p182
aVCell/Update
p183
aVCell/Update
p184
aVCell/Update
p185
aVCell/Update
p186
aVCell/Update
p187
aVCell/Update
p188
aVColumn/Formula
p189
aVCell/Update
p190
aVCell/Update
p191
aVCell/Update
p192
aVCell/Update
p193
aVCell/Update
p194
aVCell/Update
p195
aVCell/Update
p196
aVCell/Update
p197
aVCell/Update
p198
aVCell/Update
p199
aVCell/Update
p200
aVCell/Update
p201
aVCell/Update
p202
aVCell/Update
p203
aVCell/Update
p204
aVCell/Update
p205
aVCell/Update
p206
aVCell/Update
p207
aVCell/Update
p208
aVCell/Update
p209
aVCell/Update
p210
aVCell/Update
p211
aVCell/Update
p212
aVCell/Update
p213
aVCell/Update
p214
aVCell/Update
p215
aVCell/Update
p216
aVCell/Update
p217
aVCell/Update
p218
aVCell/Update
p219
aVCell/Update
p220
aVCell/Update
p221
aVCell/Update
p222
aVCell/Update
p223
aVCell/Update
p224
aVCell/Update
p225
aVCell/Update
p226
aVCell/Update
p227
aVCell/Update
p228
aVCell/Update
p229
aVCell/Update
p230
aVCell/Update
p231
aVCell/Update
p232
aVCell/Update
p233
aVCell/Update
p234
aVCell/Update
p235
aVCell/Update
p236
aVCell/Update
p237
aVCell/Update
p238
aVCell/Update
p239
aVCell/Update
p240
aVCell/Update
p241
aVCell/Update
p242
aVCell/Update
p243
aVCell/Update
p244
aVCell/Update
p245
aVCell/Update
p246
aVCell/Update
p247
aVCell/Update
p248
aVCell/Update
p249
aVCell/Update
p250
aVCell/Update
p251
aVCell/Update
p252
aVCell/Update
p253
aVCell/Update
p254
aVCell/Update
p255
aVCell/Update
p256
aVCell/Update
p257
aVCell/Update
p258
aVCell/Update
p259
aVCell/Update
p260
aVCell/Update
p261
aVCell/Update
p262
aVCell/Update
p263
aVCell/Update
p264
aVCell/Update
p265
aVCell/Update
p266
aVCell/Update
p267
aVCell/Update
p268
aVCell/Update
p269
aVCell/Update
p270
aVCell/Update
p271
aVColumn/Formula
p272
aVColumn/Formula
p273
aVCell/Update
p274
aVCell/Update
p275
aVCell/Update
p276
aVCell/Update
p277
aVColumn/Formula
p278
aVColumn/Formula
p279
aVColumn/Formula
p280
aVCell/Update
p281
aVCell/Update
p282
aVCell/Update
p283
aVCell/Update
p284
aVColumn/Formula
p285
aVColumn/Formula
p286
aVColumn/Formula
p287
aVCell/Update
p288
aVCell/Update
p289
aVColumn/Formula
p290
aVCell/Update
p291
aVCell/Update
p292
aVCell/Update
p293
aVCell/Update
p294
aVCell/Update
p295
aVCell/Update
p296
aVColumn/Formula
p297
aVCell/Update
p298
aVColumn/Formula
p299
aVCell/Update
p300
aVCell/Update
p301
aVColumn/Formula
p302
aVColumn/Formula
p303
aVCell/Update
p304
aVCell/Update
p305
aVCell/Update
p306
aVCell/Update
p307
aVColumn/Formula
p308
aVColumn/Formula
p309
aVColumn/Formula
p310
aVColumn/Formula
p311
aVColumn/Formula
p312
aVCell/Update
p313
aVCell/Update
p314
aVColumn/Formula
p315
aVCell/Update
p316
aVColumn/Formula
p317
aVColumn/Formula
p318
aVCell/Update
p319
aVCell/Update
p320
aVCell/Update
p321
aVColumn/Formula
p322
aVColumn/Formula
p323
aVColumn/Formula
p324
aVCell/Update
p325
aVColumn/Formula
p326
aVCell/Update
p327
aVColumn/Formula
p328
aVColumn/Formula
p329
aVColumn/Formula
p330
aVColumn/Formula
p331
aVColumn/Formula
p332
aVColumn/Formula
p333
aVCell/Update
p334
aVColumn/Formula
p335
aVCell/Update
p336
aVCell/Update
p337
aVCell/Update
p338
aVColumn/Formula
p339
aVColumn/Formula
p340
aVColumn/Formula
p341
aVColumn/Formula
p342
aVColumn/Formula
p343
aVCell/Update
p344
aVCell/Update
p345
aVCell/Update
p346
aVColumn/Formula
p347
aVCell/Update
p348
aVCell/Update
p349
aVColumn/Formula
p350
aVColumn/Formula
p351
aVColumn/Formula
p352
aVColumn/Formula
p353
aVColumn/Formula
p354
aVColumn/Formula
p355
aVCell/Update
p356
aVColumn/Formula
p357
aVColumn/Formula
p358
aVColumn/Formula
p359
aVCell/Update
p360
aVCell/Update
p361
aVCell/Update
p362
aVColumn/Formula
p363
aVColumn/Formula
p364
aVCell/Update
p365
aVColumn/Formula
p366
aVColumn/Formula
p367
aVColumn/Formula
p368
aVColumn/Formula
p369
aVColumn/Formula
p370
aVColumn/Formula
p371
aVCell/Update
p372
aVCell/Update
p373
aVColumn/Formula
p374
aVCell/Update
p375
aVColumn/Formula
p376
aVColumn/Formula
p377
aVCell/Update
p378
aVCell/Update
p379
aVCell/Update
p380
aVCell/Update
p381
aVCell/Update
p382
aVColumn/Formula
p383
aVCell/Update
p384
aVCell/Update
p385
aVColumn/Formula
p386
aVColumn/Formula
p387
aVCell/Update
p388
aVCell/Update
p389
aVColumn/Formula
p390
aVColumn/Formula
p391
aVCell/Update
p392
aVCell/Update
p393
aVCell/Update
p394
aVCell/Update
p395
aVCell/Update
p396
aVCell/Update
p397
aVColumn/Formula
p398
aVCell/Update
p399
aVColumn/Formula
p400
aVCell/Update
p401
aVCell/Update
p402
aVColumn/Formula
p403
aVCell/Update
p404
aVColumn/Formula
p405
aVCell/Update
p406
aVColumn/Formula
p407
aVColumn/Formula
p408
aVCell/Update
p409
aVCell/Update
p410
aVCell/Update
p411
aVColumn/Formula
p412
aVColumn/Formula
p413
aVColumn/Formula
p414
aVCell/Update
p415
aVCell/Update
p416
aVColumn/Formula
p417
aVCell/Update
p418
aVColumn/Formula
p419
aVCell/Update
p420
aVCell/Update
p421
aVCell/Update
p422
aVCell/Update
p423
aVCell/Update
p424
aVCell/Update
p425
aVCell/Update
p426
aVCell/Update
p427
aVCell/Update
p428
aVCell/Update
p429
aVCell/Update
p430
aVCell/Update
p431
aVCell/Update
p432
aVCell/Update
p433
aVCell/Update
p434
aVCell/Update
p435
aVCell/Update
p436
aVCell/Update
p437
aVCell/Update
p438
aVCell/Update
p439
aVCell/Update
p440
aVCell/Update
p441
aVCell/Update
p442
aVColumn/Formula
p443
aVCell/Update
p444
aVColumn/Formula
p445
aVCell/Update
p446
aVCell/Update
p447
aVCell/Update
p448
aVCell/Update
p449
aVCell/Update
p450
aVCell/Update
p451
aVCell/Update
p452
aVCell/Update
p453
aVCell/Update
p454
aVCell/Update
p455
aVCell/Update
p456
aVCell/Update
p457
aVCell/Update
p458
aVColumn/Formula
p459
aVCell/Update
p460
aVCell/Update
p461
aVCell/Update
p462
asS'_filepath'
p463
V/home/ubuntu/SciSheets/mysite/user/guest/tables/kristen_single_gene.pcl
p464
sS'_backup_dir'
p465
g17
sbsS'_namespace'
p466
(dp467
sS'_hidden_columns'
p468
(lp469
g0
(cscisheets.core.column
Column
p470
g2
Ntp471
Rp472
(dp473
S'_asis'
p474
I00
sS'_owning_table'
p475
g4
sS'_cells'
p476
(lp477
(lp478
cnumpy.core.multiarray
scalar
p479
(cnumpy
dtype
p480
(S'i8'
p481
I0
I1
tp482
Rp483
(I3
S'<'
p484
NNNI-1
I-1
I0
tp485
bS'\x00\x00\x00\x00\x00\x00\x00\x00'
p486
tp487
Rp488
ag479
(g480
(S'U1'
p489
I0
I1
tp490
Rp491
(I3
S'<'
p492
NNNI4
I4
I8
tp493
bS'I\x00\x00\x00'
p494
tp495
Rp496
ag479
(g483
S'\x01\x00\x00\x00\x00\x00\x00\x00'
p497
tp498
Rp499
aa(lp500
g479
(g483
S'\x00\x00\x00\x00\x00\x00\x00\x00'
p501
tp502
Rp503
ag479
(g480
(S'U2'
p504
I0
I1
tp505
Rp506
(I3
S'<'
p507
NNNI8
I4
I8
tp508
bS'R\x00\x00\x001\x00\x00\x00'
p509
tp510
Rp511
ag479
(g483
S'\x01\x00\x00\x00\x00\x00\x00\x00'
p512
tp513
Rp514
aa(lp515
g479
(g483
S'\x00\x00\x00\x00\x00\x00\x00\x00'
p516
tp517
Rp518
ag479
(g480
(S'U2'
p519
I0
I1
tp520
Rp521
(I3
S'<'
p522
NNNI8
I4
I8
tp523
bS'R\x00\x00\x002\x00\x00\x00'
p524
tp525
Rp526
ag479
(g483
S'\x01\x00\x00\x00\x00\x00\x00\x00'
p527
tp528
Rp529
aa(lp530
g479
(g483
S'\x01\x00\x00\x00\x00\x00\x00\x00'
p531
tp532
Rp533
ag496
ag479
(g483
S'\x01\x00\x00\x00\x00\x00\x00\x00'
p534
tp535
Rp536
aa(lp537
g479
(g483
S'\x01\x00\x00\x00\x00\x00\x00\x00'
p538
tp539
Rp540
ag496
ag479
(g483
S'\x02\x00\x00\x00\x00\x00\x00\x00'
p541
tp542
Rp543
aa(lp544
g479
(g483
S'\x01\x00\x00\x00\x00\x00\x00\x00'
p545
tp546
Rp547
ag496
ag479
(g483
S'\x03\x00\x00\x00\x00\x00\x00\x00'
p548
tp549
Rp550
aa(lp551
g479
(g483
S'\x01\x00\x00\x00\x00\x00\x00\x00'
p552
tp553
Rp554
ag511
ag479
(g483
S'\x01\x00\x00\x00\x00\x00\x00\x00'
p555
tp556
Rp557
aa(lp558
g479
(g483
S'\x01\x00\x00\x00\x00\x00\x00\x00'
p559
tp560
Rp561
ag511
ag479
(g483
S'\x02\x00\x00\x00\x00\x00\x00\x00'
p562
tp563
Rp564
aa(lp565
g479
(g483
S'\x01\x00\x00\x00\x00\x00\x00\x00'
p566
tp567
Rp568
ag511
ag479
(g483
S'\x03\x00\x00\x00\x00\x00\x00\x00'
p569
tp570
Rp571
aa(lp572
g479
(g483
S'\x01\x00\x00\x00\x00\x00\x00\x00'
p573
tp574
Rp575
ag526
ag479
(g483
S'\x01\x00\x00\x00\x00\x00\x00\x00'
p576
tp577
Rp578
aa(lp579
g479
(g483
S'\x01\x00\x00\x00\x00\x00\x00\x00'
p580
tp581
Rp582
ag526
ag479
(g483
S'\x02\x00\x00\x00\x00\x00\x00\x00'
p583
tp584
Rp585
aa(lp586
g479
(g483
S'\x01\x00\x00\x00\x00\x00\x00\x00'
p587
tp588
Rp589
ag526
ag479
(g483
S'\x03\x00\x00\x00\x00\x00\x00\x00'
p590
tp591
Rp592
aa(lp593
g479
(g483
S'\x02\x00\x00\x00\x00\x00\x00\x00'
p594
tp595
Rp596
ag496
ag479
(g483
S'\x01\x00\x00\x00\x00\x00\x00\x00'
p597
tp598
Rp599
aa(lp600
g479
(g483
S'\x02\x00\x00\x00\x00\x00\x00\x00'
p601
tp602
Rp603
ag511
ag479
(g483
S'\x01\x00\x00\x00\x00\x00\x00\x00'
p604
tp605
Rp606
aa(lp607
g479
(g483
S'\x02\x00\x00\x00\x00\x00\x00\x00'
p608
tp609
Rp610
ag526
ag479
(g483
S'\x01\x00\x00\x00\x00\x00\x00\x00'
p611
tp612
Rp613
aa(lp614
g479
(g483
S'\x03\x00\x00\x00\x00\x00\x00\x00'
p615
tp616
Rp617
ag496
ag479
(g483
S'\x01\x00\x00\x00\x00\x00\x00\x00'
p618
tp619
Rp620
aa(lp621
g479
(g483
S'\x03\x00\x00\x00\x00\x00\x00\x00'
p622
tp623
Rp624
ag511
ag479
(g483
S'\x01\x00\x00\x00\x00\x00\x00\x00'
p625
tp626
Rp627
aa(lp628
g479
(g483
S'\x03\x00\x00\x00\x00\x00\x00\x00'
p629
tp630
Rp631
ag526
ag479
(g483
S'\x01\x00\x00\x00\x00\x00\x00\x00'
p632
tp633
Rp634
aa(lp635
g479
(g483
S'\x04\x00\x00\x00\x00\x00\x00\x00'
p636
tp637
Rp638
ag496
ag479
(g483
S'\x01\x00\x00\x00\x00\x00\x00\x00'
p639
tp640
Rp641
aa(lp642
g479
(g483
S'\x04\x00\x00\x00\x00\x00\x00\x00'
p643
tp644
Rp645
ag511
ag479
(g483
S'\x01\x00\x00\x00\x00\x00\x00\x00'
p646
tp647
Rp648
aa(lp649
g479
(g483
S'\x04\x00\x00\x00\x00\x00\x00\x00'
p650
tp651
Rp652
ag526
ag479
(g483
S'\x01\x00\x00\x00\x00\x00\x00\x00'
p653
tp654
Rp655
aaNaNaNaNaNaNaNaNaNaNaNaNaNaNaNaNaNaNaNaNaNaNaNaNaNaNaNaNaNaNaNaNaNaNaNaNaNaNaNaNaNaNaNasS'_formula_statement'
p656
g0
(cscisheets.core.helpers.formula_statement
FormulaStatement
p657
g2
Ntp658
Rp659
(dp660
S'_statement'
p661
Vsel = [e > min_eff for e in Eff]\u000apairs = zip(range(len(sel)), sel)\u000apTreatment = [Treatment[i] for i,b in pairs if b]\u000apRunType = [RunType[i] for i,b in pairs if b]\u000apBRpl = [BRpl[i] for i,b in pairs if b]\u000agrouping_columns = [pTreatment, pRunType, pBRpl]\u000apCt = [Ct[i] for i,b in pairs if b]\u000apEff = [Eff[i] for i,b in pairs if b]\u000aGroups, groupedCt = groupBy(\u000a     grouping_columns, pCt)\u000aGroups, groupedEff = groupBy(\u000a     grouping_columns, pEff)\u000aGroups = [[g[0], g[1], g[2]] for g in Groups]\u000aGroupedCt = roundValues(groupedCt,2)\u000aGroupedEff = roundValues(groupedEff,2)
p662
sS'_name'
p663
VGroups
p664
sS'_isExpression'
p665
I00
sS'_isStatement'
p666
I00
sS'_formula'
p667
Vsel = [e > min_eff for e in Eff]\u000apairs = zip(range(len(sel)), sel)\u000apTreatment = [Treatment[i] for i,b in pairs if b]\u000apRunType = [RunType[i] for i,b in pairs if b]\u000apBRpl = [BRpl[i] for i,b in pairs if b]\u000agrouping_columns = [pTreatment, pRunType, pBRpl]\u000apCt = [Ct[i] for i,b in pairs if b]\u000apEff = [Eff[i] for i,b in pairs if b]\u000aGroups, groupedCt = groupBy(\u000a     grouping_columns, pCt)\u000aGroups, groupedEff = groupBy(\u000a     grouping_columns, pEff)\u000aGroups = [[g[0], g[1], g[2]] for g in Groups]\u000aGroupedCt = roundValues(groupedCt,2)\u000aGroupedEff = roundValues(groupedEff,2)
p668
sbsS'_data_class'
p669
g0
(cscisheets.core.helpers.api_util
DataClass
p670
c__builtin__
tuple
p671
(cnumpy
ndarray
p672
cscisheets.core.helpers.api_util
makeArray
p673
tp674
tp675
Rp676
sg663
g664
sbag0
(g470
g2
Ntp677
Rp678
(dp679
g474
I00
sg475
g4
sg476
(lp680
cnumpy.core.multiarray
_reconstruct
p681
(g672
(I0
tp682
S'b'
p683
tp684
Rp685
(I1
(I4
tp686
g480
(S'f8'
p687
I0
I1
tp688
Rp689
(I3
S'<'
p690
NNNI-1
I-1
I0
tp691
bI00
S'\xe1z\x14\xaeG\xe1\xea?{\x14\xaeG\xe1z\xec?\xcd\xcc\xcc\xcc\xcc\xcc\xec?\xd7\xa3p=\n\xd7\xeb?'
p692
tp693
bag681
(g672
(I0
tp694
g683
tp695
Rp696
(I1
(I3
tp697
g689
I00
S'\x8f\xc2\xf5(\\\x8f\xea?\x8f\xc2\xf5(\\\x8f\xea?333333\xeb?'
p698
tp699
bag681
(g672
(I0
tp700
g683
tp701
Rp702
(I1
(I3
tp703
g689
I00
S'=\n\xd7\xa3p=\xea?333333\xeb?=\n\xd7\xa3p=\xea?'
p704
tp705
bag681
(g672
(I0
tp706
g683
tp707
Rp708
(I1
(I3
tp709
g689
I00
S'\x14\xaeG\xe1z\x14\xee?\x8f\xc2\xf5(\\\x8f\xea?\xe1z\x14\xaeG\xe1\xea?'
p710
tp711
bag681
(g672
(I0
tp712
g683
tp713
Rp714
(I1
(I3
tp715
g689
I00
S'\x9a\x99\x99\x99\x99\x99\xe9?\xe1z\x14\xaeG\xe1\xea?H\xe1z\x14\xaeG\xe9?'
p716
tp717
bag681
(g672
(I0
tp718
g683
tp719
Rp720
(I1
(I3
tp721
g689
I00
S'\x8f\xc2\xf5(\\\x8f\xea?\x9a\x99\x99\x99\x99\x99\xe9?\x8f\xc2\xf5(\\\x8f\xea?'
p722
tp723
bag681
(g672
(I0
tp724
g683
tp725
Rp726
(I1
(I3
tp727
g689
I00
S'q=\n\xd7\xa3p\xed?\\\x8f\xc2\xf5(\\\xef?\xcd\xcc\xcc\xcc\xcc\xcc\xec?'
p728
tp729
bag681
(g672
(I0
tp730
g683
tp731
Rp732
(I1
(I3
tp733
g689
I00
S'\xcd\xcc\xcc\xcc\xcc\xcc\xec?\x8f\xc2\xf5(\\\x8f\xea?\xe1z\x14\xaeG\xe1\xea?'
p734
tp735
bag681
(g672
(I0
tp736
g683
tp737
Rp738
(I1
(I3
tp739
g689
I00
S'\xd7\xa3p=\n\xd7\xeb?333333\xeb?\x8f\xc2\xf5(\\\x8f\xea?'
p740
tp741
bag681
(g672
(I0
tp742
g683
tp743
Rp744
(I1
(I3
tp745
g689
I00
S'H\xe1z\x14\xaeG\xe9?\xe1z\x14\xaeG\xe1\xea?\x85\xebQ\xb8\x1e\x85\xeb?'
p746
tp747
bag681
(g672
(I0
tp748
g683
tp749
Rp750
(I1
(I3
tp751
g689
I00
S'\x8f\xc2\xf5(\\\x8f\xea?=\n\xd7\xa3p=\xea?\x8f\xc2\xf5(\\\x8f\xea?'
p752
tp753
bag681
(g672
(I0
tp754
g683
tp755
Rp756
(I1
(I3
tp757
g689
I00
S'\xecQ\xb8\x1e\x85\xeb\xe9?=\n\xd7\xa3p=\xea?\x9a\x99\x99\x99\x99\x99\xe9?'
p758
tp759
bag681
(g672
(I0
tp760
g683
tp761
Rp762
(I1
(I3
tp763
g689
I00
S'\xe1z\x14\xaeG\xe1\xea?\x9a\x99\x99\x99\x99\x99\xe9?\xecQ\xb8\x1e\x85\xeb\xe9?'
p764
tp765
bag681
(g672
(I0
tp766
g683
tp767
Rp768
(I1
(I3
tp769
g689
I00
S'\xa4p=\n\xd7\xa3\xe8?\xd7\xa3p=\n\xd7\xeb?\xecQ\xb8\x1e\x85\xeb\xe9?'
p770
tp771
bag681
(g672
(I0
tp772
g683
tp773
Rp774
(I1
(I3
tp775
g689
I00
S'\xf6(\\\x8f\xc2\xf5\xe8?\xa4p=\n\xd7\xa3\xe8?H\xe1z\x14\xaeG\xe9?'
p776
tp777
bag681
(g672
(I0
tp778
g683
tp779
Rp780
(I1
(I3
tp781
g689
I00
S'333333\xeb?333333\xeb?\xe1z\x14\xaeG\xe1\xea?'
p782
tp783
bag681
(g672
(I0
tp784
g683
tp785
Rp786
(I1
(I3
tp787
g689
I00
S'\xd7\xa3p=\n\xd7\xeb?\xcd\xcc\xcc\xcc\xcc\xcc\xec?\x85\xebQ\xb8\x1e\x85\xeb?'
p788
tp789
bag681
(g672
(I0
tp790
g683
tp791
Rp792
(I1
(I3
tp793
g689
I00
S'=\n\xd7\xa3p=\xea?=\n\xd7\xa3p=\xea?H\xe1z\x14\xaeG\xe9?'
p794
tp795
bag681
(g672
(I0
tp796
g683
tp797
Rp798
(I1
(I3
tp799
g689
I00
S'333333\xeb?333333\xeb?\xe1z\x14\xaeG\xe1\xea?'
p800
tp801
bag681
(g672
(I0
tp802
g683
tp803
Rp804
(I1
(I3
tp805
g689
I00
S'\xd7\xa3p=\n\xd7\xeb?\xcd\xcc\xcc\xcc\xcc\xcc\xec?\x85\xebQ\xb8\x1e\x85\xeb?'
p806
tp807
bag681
(g672
(I0
tp808
g683
tp809
Rp810
(I1
(I3
tp811
g689
I00
S'=\n\xd7\xa3p=\xea?=\n\xd7\xa3p=\xea?H\xe1z\x14\xaeG\xe9?'
p812
tp813
baNaNaNaNaNaNaNaNaNaNaNaNaNaNaNaNaNaNaNaNaNaNaNaNaNaNaNaNaNaNaNaNaNaNaNaNaNaNaNaNaNaNaNasg656
g0
(g657
g2
Ntp814
Rp815
(dp816
g661
NsS'_column'
p817
g678
sg665
I00
sg666
I00
sg667
Nsbsg669
g0
(g670
g671
(g672
g673
tp818
tp819
Rp820
sg663
VGroupedEff
p821
sbag0
(g470
g2
Ntp822
Rp823
(dp824
g474
I00
sg475
g4
sg476
(lp825
g681
(g672
(I0
tp826
g683
tp827
Rp828
(I1
(I4
tp829
g689
I00
S'\x00\x00\x00\x00\x00\x007@\\\x8f\xc2\xf5(\xdc6@\xcd\xcc\xcc\xcc\xcc\xcc6@\x00\x00\x00\x00\x00\x007@'
p830
tp831
bag681
(g672
(I0
tp832
g683
tp833
Rp834
(I1
(I3
tp835
g689
I00
S'=\n\xd7\xa3p=2@\xb8\x1e\x85\xebQ82@\\\x8f\xc2\xf5(\\2@'
p836
tp837
bag681
(g672
(I0
tp838
g683
tp839
Rp840
(I1
(I3
tp841
g689
I00
S'\xb8\x1e\x85\xebQ\xb83@\x00\x00\x00\x00\x00\xc03@\xc3\xf5(\\\x8f\x024@'
p842
tp843
bag681
(g672
(I0
tp844
g683
tp845
Rp846
(I1
(I3
tp847
g689
I00
S'\xaeG\xe1z\x14\xae:@\xe1z\x14\xaeG!;@\xf6(\\\x8f\xc25;@'
p848
tp849
bag681
(g672
(I0
tp850
g683
tp851
Rp852
(I1
(I3
tp853
g689
I00
S'\xc3\xf5(\\\x8f\xc2:@\xf6(\\\x8f\xc2\xb5:@q=\n\xd7\xa30:@'
p854
tp855
bag681
(g672
(I0
tp856
g683
tp857
Rp858
(I1
(I3
tp859
g689
I00
S'{\x14\xaeG\xe1\xfa=@\x1f\x85\xebQ\xb8\x1e>@)\\\x8f\xc2\xf5h=@'
p860
tp861
bag681
(g672
(I0
tp862
g683
tp863
Rp864
(I1
(I3
tp865
g689
I00
S'\xecQ\xb8\x1e\x85\xeb3@\x9a\x99\x99\x99\x99\xd93@\x00\x00\x00\x00\x00\x004@'
p866
tp867
bag681
(g672
(I0
tp868
g683
tp869
Rp870
(I1
(I3
tp871
g689
I00
S'\\\x8f\xc2\xf5(\xdc5@\xd7\xa3p=\n\x176@\xd7\xa3p=\n\xd75@'
p872
tp873
bag681
(g672
(I0
tp874
g683
tp875
Rp876
(I1
(I3
tp877
g689
I00
S'\xa4p=\n\xd7\xe37@\n\xd7\xa3p=\x8a7@\x85\xebQ\xb8\x1eE8@'
p878
tp879
bag681
(g672
(I0
tp880
g683
tp881
Rp882
(I1
(I3
tp883
g689
I00
S'\xaeG\xe1z\x14.6@\xf6(\\\x8f\xc2\xb55@\x00\x00\x00\x00\x00\xc05@'
p884
tp885
bag681
(g672
(I0
tp886
g683
tp887
Rp888
(I1
(I3
tp889
g689
I00
S'\xe1z\x14\xaeG\xe17@\xecQ\xb8\x1e\x85k7@\xe1z\x14\xaeG\xa17@'
p890
tp891
bag681
(g672
(I0
tp892
g683
tp893
Rp894
(I1
(I3
tp895
g689
I00
S'\xd7\xa3p=\n\x978@\\\x8f\xc2\xf5(\x9c8@\xd7\xa3p=\nW8@'
p896
tp897
bag681
(g672
(I0
tp898
g683
tp899
Rp900
(I1
(I3
tp901
g689
I00
S'33333\xf3=@33333s>@\xe1z\x14\xaeG\xe1=@'
p902
tp903
bag681
(g672
(I0
tp904
g683
tp905
Rp906
(I1
(I3
tp907
g689
I00
S'\xb8\x1e\x85\xebQ87@\xcd\xcc\xcc\xcc\xcc\xcc7@=\n\xd7\xa3p}7@'
p908
tp909
bag681
(g672
(I0
tp910
g683
tp911
Rp912
(I1
(I3
tp913
g689
I00
S'\x1f\x85\xebQ\xb8^:@\\\x8f\xc2\xf5(\\:@\xecQ\xb8\x1e\x85+:@'
p914
tp915
bag681
(g672
(I0
tp916
g683
tp917
Rp918
(I1
(I3
tp919
g689
I00
S'\xcd\xcc\xcc\xcc\xcc\xcc8@\xb8\x1e\x85\xebQ\xf88@\xe1z\x14\xaeG\xa18@'
p920
tp921
bag681
(g672
(I0
tp922
g683
tp923
Rp924
(I1
(I3
tp925
g689
I00
S')\\\x8f\xc2\xf5\xe82@H\xe1z\x14\xae\xc72@\xcd\xcc\xcc\xcc\xcc\xcc2@'
p926
tp927
bag681
(g672
(I0
tp928
g683
tp929
Rp930
(I1
(I3
tp931
g689
I00
S'\x00\x00\x00\x00\x00\x804@\xb8\x1e\x85\xebQx4@H\xe1z\x14\xaeG4@'
p932
tp933
bag681
(g672
(I0
tp934
g683
tp935
Rp936
(I1
(I3
tp937
g689
I00
S'\xcd\xcc\xcc\xcc\xcc\xcc8@\xb8\x1e\x85\xebQ\xf88@\xe1z\x14\xaeG\xa18@'
p938
tp939
bag681
(g672
(I0
tp940
g683
tp941
Rp942
(I1
(I3
tp943
g689
I00
S')\\\x8f\xc2\xf5\xe82@H\xe1z\x14\xae\xc72@\xcd\xcc\xcc\xcc\xcc\xcc2@'
p944
tp945
bag681
(g672
(I0
tp946
g683
tp947
Rp948
(I1
(I3
tp949
g689
I00
S'\x00\x00\x00\x00\x00\x804@\xb8\x1e\x85\xebQx4@H\xe1z\x14\xaeG4@'
p950
tp951
baNaNaNaNaNaNaNaNaNaNaNaNaNaNaNaNaNaNaNaNaNaNaNaNaNaNaNaNaNaNaNaNaNaNaNaNaNaNaNaNaNaNaNasg656
g0
(g657
g2
Ntp952
Rp953
(dp954
g661
Nsg817
g823
sg665
I00
sg666
I00
sg667
Nsbsg669
g0
(g670
g671
(g672
g673
tp955
tp956
Rp957
sg663
VGroupedCt
p958
sbag0
(g470
g2
Ntp959
Rp960
(dp961
g474
I00
sg475
g4
sg476
(lp962
g681
(g672
(I0
tp963
g683
tp964
Rp965
(I1
(I4
tp966
g480
(S'f8'
p967
I0
I1
tp968
Rp969
(I3
S'<'
p970
NNNI-1
I-1
I0
tp971
bI00
S'\x00\x00\x00\x00\x00\x007@fffff\xe66@\xcd\xcc\xcc\xcc\xcc\xcc6@\x00\x00\x00\x00\x00\x007@'
p972
tp973
bag681
(g672
(I0
tp974
g683
tp975
Rp976
(I1
(I3
tp977
g969
I00
S'3333332@3333332@ffffff2@'
p978
tp979
bag681
(g672
(I0
tp980
g683
tp981
Rp982
(I1
(I3
tp983
g969
I00
S'33333\xb33@\xcd\xcc\xcc\xcc\xcc\xcc3@\x00\x00\x00\x00\x00\x004@'
p984
tp985
bag681
(g672
(I0
tp986
g683
tp987
Rp988
(I1
(I3
tp989
g969
I00
S'33333\xb3:@\x9a\x99\x99\x99\x99\x19;@333333;@'
p990
tp991
bag681
(g672
(I0
tp992
g683
tp993
Rp994
(I1
(I3
tp995
g969
I00
S'\xcd\xcc\xcc\xcc\xcc\xcc:@33333\xb3:@333333:@'
p996
tp997
bag681
(g672
(I0
tp998
g683
tp999
Rp1000
(I1
(I3
tp1001
g969
I00
S'\x00\x00\x00\x00\x00\x00>@\x9a\x99\x99\x99\x99\x19>@ffffff=@'
p1002
tp1003
bag681
(g672
(I0
tp1004
g683
tp1005
Rp1006
(I1
(I3
tp1007
g969
I00
S'fffff\xe63@fffff\xe63@\x00\x00\x00\x00\x00\x004@'
p1008
tp1009
bag681
(g672
(I0
tp1010
g683
tp1011
Rp1012
(I1
(I3
tp1013
g969
I00
S'fffff\xe65@\x9a\x99\x99\x99\x99\x196@\xcd\xcc\xcc\xcc\xcc\xcc5@'
p1014
tp1015
bag681
(g672
(I0
tp1016
g683
tp1017
Rp1018
(I1
(I3
tp1019
g969
I00
S'fffff\xe67@\x00\x00\x00\x00\x00\x807@\xcd\xcc\xcc\xcc\xccL8@'
p1020
tp1021
bag681
(g672
(I0
tp1022
g683
tp1023
Rp1024
(I1
(I3
tp1025
g969
I00
S'3333336@33333\xb35@\xcd\xcc\xcc\xcc\xcc\xcc5@'
p1026
tp1027
bag681
(g672
(I0
tp1028
g683
tp1029
Rp1030
(I1
(I3
tp1031
g969
I00
S'fffff\xe67@ffffff7@\x9a\x99\x99\x99\x99\x997@'
p1032
tp1033
bag681
(g672
(I0
tp1034
g683
tp1035
Rp1036
(I1
(I3
tp1037
g969
I00
S'\x9a\x99\x99\x99\x99\x998@\x9a\x99\x99\x99\x99\x998@\xcd\xcc\xcc\xcc\xccL8@'
p1038
tp1039
bag681
(g672
(I0
tp1040
g683
tp1041
Rp1042
(I1
(I3
tp1043
g969
I00
S'fffff\xe6=@ffffff>@fffff\xe6=@'
p1044
tp1045
bag681
(g672
(I0
tp1046
g683
tp1047
Rp1048
(I1
(I3
tp1049
g969
I00
S'3333337@\xcd\xcc\xcc\xcc\xcc\xcc7@\x00\x00\x00\x00\x00\x807@'
p1050
tp1051
bag681
(g672
(I0
tp1052
g683
tp1053
Rp1054
(I1
(I3
tp1055
g969
I00
S'ffffff:@ffffff:@333333:@'
p1056
tp1057
bag681
(g672
(I0
tp1058
g683
tp1059
Rp1060
(I1
(I3
tp1061
g969
I00
S'\xcd\xcc\xcc\xcc\xcc\xcc8@\x00\x00\x00\x00\x00\x009@\x9a\x99\x99\x99\x99\x998@'
p1062
tp1063
bag681
(g672
(I0
tp1064
g683
tp1065
Rp1066
(I1
(I3
tp1067
g969
I00
S'fffff\xe62@\xcd\xcc\xcc\xcc\xcc\xcc2@\xcd\xcc\xcc\xcc\xcc\xcc2@'
p1068
tp1069
bag681
(g672
(I0
tp1070
g683
tp1071
Rp1072
(I1
(I3
tp1073
g969
I00
S'\x00\x00\x00\x00\x00\x804@\x00\x00\x00\x00\x00\x804@\xcd\xcc\xcc\xcc\xccL4@'
p1074
tp1075
bag681
(g672
(I0
tp1076
g683
tp1077
Rp1078
(I1
(I3
tp1079
g969
I00
S'\xcd\xcc\xcc\xcc\xcc\xcc8@\x00\x00\x00\x00\x00\x009@\x9a\x99\x99\x99\x99\x998@'
p1080
tp1081
bag681
(g672
(I0
tp1082
g683
tp1083
Rp1084
(I1
(I3
tp1085
g969
I00
S'fffff\xe62@\xcd\xcc\xcc\xcc\xcc\xcc2@\xcd\xcc\xcc\xcc\xcc\xcc2@'
p1086
tp1087
bag681
(g672
(I0
tp1088
g683
tp1089
Rp1090
(I1
(I3
tp1091
g969
I00
S'\x00\x00\x00\x00\x00\x804@\x00\x00\x00\x00\x00\x804@\xcd\xcc\xcc\xcc\xccL4@'
p1092
tp1093
basg656
g0
(g657
g2
Ntp1094
Rp1095
(dp1096
g661
Vlength = len(Groups)\u000aStdFilteredGroupedCt = roundValues([filterExtremes(g, max_std, 2) for g in pruneNulls(GroupedCt)])\u000a 
p1097
sg663
VStdFilteredGroupedCt
p1098
sg665
I00
sg666
I00
sg667
Vlength = len(Groups)\u000aStdFilteredGroupedCt = roundValues([filterExtremes(g, max_std, 2) for g in pruneNulls(GroupedCt)])\u000a 
p1099
sbsg669
g0
(g670
g671
(g672
g673
tp1100
tp1101
Rp1102
sg663
g1098
sbag0
(g470
g2
Ntp1103
Rp1104
(dp1105
g474
I00
sg475
g4
sg476
(lp1106
F22.9
aF18.3
aF19.8
aF27.0
aF26.6
aF29.8
aF19.9
aF21.9
aF23.9
aF21.9
aF23.6
aF24.5
aF30.1
aF23.5
aF26.3
aF24.8
aF18.8
aF20.4
aF24.8
aF18.8
aF20.4
aFnan
aFnan
aFnan
aFnan
aFnan
aFnan
aFnan
aFnan
aFnan
aFnan
aFnan
aFnan
aFnan
aFnan
aFnan
aFnan
aFnan
aFnan
aFnan
aFnan
aFnan
aFnan
aFnan
aFnan
aFnan
aFnan
aFnan
aFnan
aFnan
aFnan
aFnan
aFnan
aFnan
aFnan
aFnan
aFnan
aFnan
aFnan
aFnan
aFnan
aFnan
aFnan
aFnan
asg656
g0
(g657
g2
Ntp1107
Rp1108
(dp1109
g661
VMeanCt = [np.mean(g) for g in StdFilteredGroupedCt]\u000aMeanCt = roundValues(MeanCt,1)\u000aStdCt = [np.std(g, ddof=1) for g in StdFilteredGroupedCt]\u000aStdCt = roundValues(StdCt,3)
p1110
sg663
VMeanCt
p1111
sg665
I00
sg666
I00
sg667
VMeanCt = [np.mean(g) for g in StdFilteredGroupedCt]\u000aMeanCt = roundValues(MeanCt,1)\u000aStdCt = [np.std(g, ddof=1) for g in StdFilteredGroupedCt]\u000aStdCt = roundValues(StdCt,3)
p1112
sbsg669
g0
(g670
g671
(g672
g673
tp1113
tp1114
Rp1115
sg663
g1111
sbag0
(g470
g2
Ntp1116
Rp1117
(dp1118
g474
I00
sg475
g4
sg476
(lp1119
F0.096
aF0.115
aF0.153
aF0.265
aF0.321
aF0.379
aF0.058
aF0.153
aF0.4
aF0.265
aF0.252
aF0.173
aF0.289
aF0.3
aF0.115
aF0.2
aF0.058
aF0.115
aF0.2
aF0.058
aF0.115
asg656
g0
(g657
g2
Ntp1120
Rp1121
(dp1122
g661
Nsg817
g1117
sg665
I00
sg666
I00
sg667
Nsbsg669
g0
(g670
g671
(g672
g673
tp1123
tp1124
Rp1125
sg663
VStdCt
p1126
sbag0
(g470
g2
Ntp1127
Rp1128
(dp1129
g474
I00
sg475
g4
sg476
(lp1130
(lp1131
g488
ag499
aa(lp1132
g533
ag536
aa(lp1133
g540
ag543
aa(lp1134
g547
ag550
aa(lp1135
g596
ag599
aa(lp1136
g617
ag620
aa(lp1137
g638
ag641
aaNaNaNaNaNaNaNaNaNaNaNaNaNaNaNaNaNaNaNaNaNaNaNaNaNaNaNaNaNaNaNaNaNaNaNaNaNaNaNaNaNaNaNaNaNaNaNaNaNaNaNaNaNaNaNaNaNasg656
g0
(g657
g2
Ntp1138
Rp1139
(dp1140
g661
Vdummy = tabularize(s, 'Groups', 1, 'MeanCt', \u000a          new_category_colnm='BioRuns',\u000a          values_colnm_prefix='Gene_')
p1141
sg663
VBioRuns
p1142
sg665
I00
sg666
I00
sg667
Vdummy = tabularize(s, 'Groups', 1, 'MeanCt', \u000a          new_category_colnm='BioRuns',\u000a          values_colnm_prefix='Gene_')
p1143
sbsg669
g0
(g670
g671
(g672
g673
tp1144
tp1145
Rp1146
sg663
g1142
sbag0
(g470
g2
Ntp1147
Rp1148
(dp1149
g474
I00
sg475
g4
sg476
(lp1150
F22.9
aF27.0
aF26.6
aF29.8
aF30.1
aF24.8
aF24.8
aFnan
aFnan
aFnan
aFnan
aFnan
aFnan
aFnan
aFnan
aFnan
aFnan
aFnan
aFnan
aFnan
aFnan
aFnan
aFnan
aFnan
aFnan
aFnan
aFnan
aFnan
aFnan
aFnan
aFnan
aFnan
aFnan
aFnan
aFnan
aFnan
aFnan
aFnan
aFnan
aFnan
aFnan
aFnan
aFnan
aFnan
aFnan
aFnan
aFnan
aFnan
aFnan
aFnan
aFnan
aFnan
aFnan
aFnan
aFnan
aFnan
aFnan
aFnan
aFnan
aFnan
aFnan
aFnan
aFnan
aFnan
asg656
g0
(g657
g2
Ntp1151
Rp1152
(dp1153
g661
Nsg817
g1148
sg665
I00
sg666
I00
sg667
Nsbsg669
g0
(g670
g671
(g672
g673
tp1154
tp1155
Rp1156
sg663
S'Gene_I'
p1157
sbag0
(g470
g2
Ntp1158
Rp1159
(dp1160
g474
I00
sg475
g4
sg476
(lp1161
F18.3
aF19.9
aF21.9
aF23.9
aF23.5
aF18.8
aF18.8
aFnan
aFnan
aFnan
aFnan
aFnan
aFnan
aFnan
aFnan
aFnan
aFnan
aFnan
aFnan
aFnan
aFnan
aFnan
aFnan
aFnan
aFnan
aFnan
aFnan
aFnan
aFnan
aFnan
aFnan
aFnan
aFnan
aFnan
aFnan
aFnan
aFnan
aFnan
aFnan
aFnan
aFnan
aFnan
aFnan
aFnan
aFnan
aFnan
aFnan
aFnan
aFnan
aFnan
aFnan
aFnan
aFnan
aFnan
aFnan
aFnan
aFnan
aFnan
aFnan
aFnan
aFnan
aFnan
aFnan
aFnan
asg656
g0
(g657
g2
Ntp1162
Rp1163
(dp1164
g661
Nsg817
g1159
sg665
I00
sg666
I00
sg667
Nsbsg669
g1156
sg663
S'Gene_R1'
p1165
sbag0
(g470
g2
Ntp1166
Rp1167
(dp1168
g474
I00
sg475
g4
sg476
(lp1169
F19.8
aF21.9
aF23.6
aF24.5
aF26.3
aF20.4
aF20.4
aFnan
aFnan
aFnan
aFnan
aFnan
aFnan
aFnan
aFnan
aFnan
aFnan
aFnan
aFnan
aFnan
aFnan
aFnan
aFnan
aFnan
aFnan
aFnan
aFnan
aFnan
aFnan
aFnan
aFnan
aFnan
aFnan
aFnan
aFnan
aFnan
aFnan
aFnan
aFnan
aFnan
aFnan
aFnan
aFnan
aFnan
aFnan
aFnan
aFnan
aFnan
aFnan
aFnan
aFnan
aFnan
aFnan
aFnan
aFnan
aFnan
aFnan
aFnan
aFnan
aFnan
aFnan
aFnan
aFnan
aFnan
asg656
g0
(g657
g2
Ntp1170
Rp1171
(dp1172
g661
Nsg817
g1167
sg665
I00
sg666
I00
sg667
Nsbsg669
g1156
sg663
S'Gene_R2'
p1173
sbag0
(g470
g2
Ntp1174
Rp1175
(dp1176
g474
I00
sg475
g4
sg476
(lp1177
F0.04123
aF0.00729
aF0.03847
aF0.01675
aF0.01031
aF0.01563
aF0.01563
aFnan
aFnan
aFnan
aFnan
aFnan
aFnan
aFnan
aFnan
aFnan
aFnan
aFnan
aFnan
aFnan
aFnan
aFnan
aFnan
aFnan
aFnan
aFnan
aFnan
aFnan
aFnan
aFnan
aFnan
aFnan
aFnan
aFnan
aFnan
aFnan
aFnan
aFnan
aFnan
aFnan
aFnan
aFnan
aFnan
aFnan
aFnan
aFnan
aFnan
aFnan
aFnan
aFnan
aFnan
aFnan
aFnan
aFnan
aFnan
aFnan
aFnan
aFnan
aFnan
aFnan
aFnan
aFnan
aFnan
aFnan
asg656
g0
(g657
g2
Ntp1178
Rp1179
(dp1180
g661
VExprR1 = roundValues(2**(Gene_R1 - Gene_I),5)
p1181
sg663
VExprR1
p1182
sg665
I01
sg666
I00
sg667
VroundValues(2**(Gene_R1 - Gene_I),5)
p1183
sbsg669
g0
(g670
g671
(g672
g673
tp1184
tp1185
Rp1186
sg663
g1182
sbag0
(g470
g2
Ntp1187
Rp1188
(dp1189
g474
I00
sg475
g4
sg476
(lp1190
F0.11663
aF0.02916
aF0.125
aF0.02538
aF0.07179
aF0.04737
aF0.04737
aFnan
aFnan
aFnan
aFnan
aFnan
aFnan
aFnan
aFnan
aFnan
aFnan
aFnan
aFnan
aFnan
aFnan
aFnan
aFnan
aFnan
aFnan
aFnan
aFnan
aFnan
aFnan
aFnan
aFnan
aFnan
aFnan
aFnan
aFnan
aFnan
aFnan
aFnan
aFnan
aFnan
aFnan
aFnan
aFnan
aFnan
aFnan
aFnan
aFnan
aFnan
aFnan
aFnan
aFnan
aFnan
aFnan
aFnan
aFnan
aFnan
aFnan
aFnan
aFnan
aFnan
aFnan
aFnan
aFnan
aFnan
asg656
g0
(g657
g2
Ntp1191
Rp1192
(dp1193
g661
VExprR2 = roundValues(2**(Gene_R2 - Gene_I),5)
p1194
sg663
VExprR2
p1195
sg665
I01
sg666
I00
sg667
VroundValues(2**(Gene_R2 - Gene_I),5)
p1196
sbsg669
g0
(g670
g671
(g672
g673
tp1197
tp1198
Rp1199
sg663
g1195
sbag0
(g470
g2
Ntp1200
Rp1201
(dp1202
g474
I00
sg475
g4
sg476
(lp1203
F0.069
aF0.015
aF0.069
aF0.021
aF0.027
aF0.027
aF0.027
aFnan
aFnan
aFnan
aFnan
aFnan
aFnan
aFnan
aFnan
aFnan
aFnan
aFnan
aFnan
aFnan
aFnan
aFnan
aFnan
aFnan
aFnan
aFnan
aFnan
aFnan
aFnan
aFnan
aFnan
aFnan
aFnan
aFnan
aFnan
aFnan
aFnan
aFnan
aFnan
aFnan
aFnan
aFnan
aFnan
aFnan
aFnan
aFnan
aFnan
aFnan
aFnan
aFnan
aFnan
aFnan
aFnan
aFnan
aFnan
aFnan
aFnan
aFnan
aFnan
aFnan
aFnan
aFnan
aFnan
aFnan
asg656
g0
(g657
g2
Ntp1204
Rp1205
(dp1206
g661
VGeoMean = roundValues(np.sqrt(ExprR1*ExprR2), 3)
p1207
sg663
VGeoMean
p1208
sg665
I01
sg666
I00
sg667
VroundValues(np.sqrt(ExprR1*ExprR2), 3)
p1209
sbsg669
g0
(g670
g671
(g672
g673
tp1210
tp1211
Rp1212
sg663
g1208
sbag0
(g470
g2
Ntp1213
Rp1214
(dp1215
g474
I00
sg475
g4
sg476
(lp1216
I1
aI1
aI1
aI1
aI1
aI1
aI1
aI1
aI1
aI1
aI1
aI1
aI1
aI2
aI2
aI2
aI3
aI3
aI3
aI1
aI1
aI1
aI2
aI2
aI2
aI3
aI3
aI3
aI1
aI1
aI1
aI2
aI2
aI2
aI3
aI3
aI3
aI1
aI1
aI1
aI1
aI1
aI1
aI1
aI1
aI1
aI1
aI1
aI1
aI1
aI1
aI1
aI1
aI1
aI1
aI1
aI1
aI1
aI1
aI1
aI1
aI1
aI1
aI1
asg656
g0
(g657
g2
Ntp1217
Rp1218
(dp1219
g661
Nsg663
S'BRpl'
p1220
sg665
I00
sg666
I00
sg667
Nsbsg669
g0
(g670
g671
(cscisheets.core.helpers.extended_array
ExtendedArray
p1221
g673
tp1222
tp1223
Rp1224
sg663
g1220
sbag0
(g470
g2
Ntp1225
Rp1226
(dp1227
g474
I00
sg475
g4
sg476
(lp1228
F23.0
aF22.86
aF22.8
aF23.0
aF18.24
aF18.22
aF18.36
aF19.72
aF19.75
aF20.01
aF26.68
aF27.13
aF27.21
aF26.76
aF26.71
aF26.19
aF29.98
aF30.12
aF29.41
aF19.92
aF19.85
aF20.0
aF21.86
aF22.09
aF21.84
aF23.89
aF23.54
aF24.27
aF22.18
aF21.71
aF21.75
aF23.88
aF23.42
aF23.63
aF24.59
aF24.61
aF24.34
aF29.95
aF30.45
aF29.88
aF23.22
aF23.8
aF23.49
aF26.37
aF26.36
aF26.17
aF24.8
aF24.97
aF24.63
aF18.91
aF18.78
aF18.8
aF20.5
aF20.47
aF20.28
aF24.8
aF24.97
aF24.63
aF18.91
aF18.78
aF18.8
aF20.5
aF20.47
aF20.28
asg656
g0
(g657
g2
Ntp1229
Rp1230
(dp1231
g661
Nsg663
S'Ct'
p1232
sg665
I00
sg666
I00
sg667
Nsbsg669
g1224
sg663
g1232
sbag0
(g470
g2
Ntp1233
Rp1234
(dp1235
g474
I00
sg475
g4
sg476
(lp1236
F0.8371
aF0.891
aF0.8956
aF0.8671
aF0.8266
aF0.8343
aF0.8496
aF0.8157
aF0.8543
aF0.8208
aF0.9399
aF0.8296
aF0.8361
aF0.8039
aF0.8399
aF0.7935
aF0.8264
aF0.7974
aF0.8252
aF0.9179
aF0.9783
aF0.8971
aF0.8957
aF0.8287
aF0.8387
aF0.8746
aF0.8493
aF0.8349
aF0.7857
aF0.8427
aF0.8637
aF0.8281
aF0.8203
aF0.8288
aF0.8138
aF0.8242
aF0.804
aF0.8418
aF0.7959
aF0.8071
aF0.7701
aF0.8746
aF0.8139
aF0.7795
aF0.7676
aF0.7947
aF0.8513
aF0.8485
aF0.8401
aF0.8715
aF0.8977
aF0.856
aF0.8179
aF0.8173
aF0.7894
aF0.8513
aF0.8485
aF0.8401
aF0.8715
aF0.8977
aF0.856
aF0.8179
aF0.8173
aF0.7894
asg656
g0
(g657
g2
Ntp1237
Rp1238
(dp1239
g661
Nsg663
S'Eff'
p1240
sg665
I00
sg666
I00
sg667
Nsbsg669
g1224
sg663
g1240
sbag0
(g470
g2
Ntp1241
Rp1242
(dp1243
g474
I00
sg475
g4
sg476
(lp1244
VI
p1245
ag1245
ag1245
ag1245
aVR1
p1246
ag1246
ag1246
aVR2
p1247
ag1247
ag1247
ag1245
ag1245
ag1245
ag1245
ag1245
ag1245
ag1245
ag1245
ag1245
ag1246
ag1246
ag1246
ag1246
ag1246
ag1246
ag1246
ag1246
ag1246
ag1247
ag1247
ag1247
ag1247
ag1247
ag1247
ag1247
ag1247
ag1247
ag1245
ag1245
ag1245
ag1246
ag1246
ag1246
ag1247
ag1247
ag1247
ag1245
ag1245
ag1245
ag1246
ag1246
ag1246
ag1247
ag1247
ag1247
ag1245
ag1245
ag1245
ag1246
ag1246
ag1246
ag1247
ag1247
ag1247
asg656
g0
(g657
g2
Ntp1248
Rp1249
(dp1250
g661
Nsg663
S'RunType'
p1251
sg665
I00
sg666
I00
sg667
Nsbsg669
g1224
sg663
g1251
sbag0
(g470
g2
Ntp1252
Rp1253
(dp1254
g474
I00
sg475
g4
sg476
(lp1255
Va
p1256
aVb
p1257
aVc
p1258
aVd
p1259
ag1256
ag1257
ag1258
ag1256
ag1257
ag1258
ag1256
ag1257
ag1258
ag1256
ag1257
ag1258
ag1256
ag1257
ag1258
ag1256
ag1257
ag1258
ag1256
ag1257
ag1258
ag1256
ag1257
ag1258
ag1256
ag1257
ag1258
ag1256
ag1257
ag1258
ag1256
ag1257
ag1258
ag1256
ag1257
ag1258
ag1256
ag1257
ag1258
ag1256
ag1257
ag1258
ag1256
ag1257
ag1258
ag1256
ag1257
ag1258
ag1256
ag1257
ag1258
ag1256
ag1257
ag1258
ag1256
ag1257
ag1258
ag1256
ag1257
ag1258
asg656
g0
(g657
g2
Ntp1260
Rp1261
(dp1262
g661
Nsg663
S'TRpl'
p1263
sg665
I00
sg666
I00
sg667
Nsbsg669
g1224
sg663
g1263
sbag0
(g470
g2
Ntp1264
Rp1265
(dp1266
g474
I00
sg475
g4
sg476
(lp1267
I0
aI0
aI0
aI0
aI0
aI0
aI0
aI0
aI0
aI0
aI1
aI1
aI1
aI1
aI1
aI1
aI1
aI1
aI1
aI1
aI1
aI1
aI1
aI1
aI1
aI1
aI1
aI1
aI1
aI1
aI1
aI1
aI1
aI1
aI1
aI1
aI1
aI2
aI2
aI2
aI2
aI2
aI2
aI2
aI2
aI2
aI3
aI3
aI3
aI3
aI3
aI3
aI3
aI3
aI3
aI4
aI4
aI4
aI4
aI4
aI4
aI4
aI4
aI4
asg656
g0
(g657
g2
Ntp1268
Rp1269
(dp1270
g661
Nsg663
S'Treatment'
p1271
sg665
I00
sg666
I00
sg667
Nsbsg669
g1224
sg663
g1271
sbasS'_is_evaluate_formulas'
p1272
I01
sS'_prologue'
p1273
g0
(g657
g2
Ntp1274
Rp1275
(dp1276
g661
V# Prologue\u000aimport math as mt\u000aimport numpy as np\u000afrom os import listdir\u000afrom os.path import isfile, join\u000aimport pandas as pd\u000aimport scipy as sp\u000afrom numpy import nan  # Must follow sympy import \u000a\u000axlsx_path =   '/mnt/hgfs/josephhellerstein/home/Technical/SciSheets/CaseStudies/Kristen/workbooks/data.xlsx'\u000agene = ParmValues[0]\u000arun = ParmValues[1] == 'True'\u000ashow_raw = ParmValues[2] == 'True'\u000ashow_block1 = ParmValues[3] == 'True'\u000ashow_block2 = ParmValues[4] == 'True'\u000ashow_block3 = ParmValues[5] == 'True'\u000ashow_params = ParmValues[8] == 'True'\u000a#show_params = True\u000amax_std  = float(ParmValues[6])\u000amin_eff = float(ParmValues[7])\u000aworksheet = gene + "-I"\u000as.getTable().setIsEvaluateFormulas(run)\u000as.setColumnVisibility()\u000as.setColumnVisibility(['Groups', 'GroupedEff', 'GroupedCt', 'StdFilteredGroupedCt', 'MeanCt',\u000a    'StdCt'], is_visible=show_block1)\u000as.setColumnVisibility(['BioRuns', 'Gene_I', 'Gene_R1', 'Gene_R2', 'ExprR1', 'ExprR2', \u000a    'GeoMean'], is_visible=show_block2)\u000as.setColumnVisibility(['GeoGroups', 'GroupedGeoMeans', 'NrmlGeoGroupedMeans', \u000a    'MeanNrmlGeoGroups', 'StdNrmlGeoGroups'], is_visible=show_block3)\u000aif run:\u000a  Groups = []\u000a  GroupedCt = []\u000a  GroupedEff = []\u000a  MeanCt = []\u000a  Imp = []\u000a  s.deleteColumn('Ct')\u000a  s.deleteColumn('RunType')\u000a  s.deleteColumn('BRpl')\u000a  s.deleteColumn('TRpl')\u000a  s.deleteColumn('Treatment')\u000a  s.deleteColumn('Eff')\u000aif run:\u000a  importExcelToTable(s, xlsx_path, worksheet=worksheet,\u000a      column_position='ParmValues',\u000a      names=['Treatment', 'RunType', 'BRpl', 'TRpl', 'Eff', 'Ct'])\u000as.setColumnVisibility(['BRpl', 'Ct', 'Eff', 'RunType', 'TRpl', 'Treatment'], is_visible=show_raw)\u000as.setColumnVisibility(['ParmNames', 'ParmValues'], show_params)
p1277
sg663
VSingleGene
p1278
sg665
I00
sg666
I00
sg667
V# Prologue\u000aimport math as mt\u000aimport numpy as np\u000afrom os import listdir\u000afrom os.path import isfile, join\u000aimport pandas as pd\u000aimport scipy as sp\u000afrom numpy import nan  # Must follow sympy import \u000a\u000axlsx_path =   '/mnt/hgfs/josephhellerstein/home/Technical/SciSheets/CaseStudies/Kristen/workbooks/data.xlsx'\u000agene = ParmValues[0]\u000arun = ParmValues[1] == 'True'\u000ashow_raw = ParmValues[2] == 'True'\u000ashow_block1 = ParmValues[3] == 'True'\u000ashow_block2 = ParmValues[4] == 'True'\u000ashow_block3 = ParmValues[5] == 'True'\u000ashow_params = ParmValues[8] == 'True'\u000a#show_params = True\u000amax_std  = float(ParmValues[6])\u000amin_eff = float(ParmValues[7])\u000aworksheet = gene + "-I"\u000as.getTable().setIsEvaluateFormulas(run)\u000as.setColumnVisibility()\u000as.setColumnVisibility(['Groups', 'GroupedEff', 'GroupedCt', 'StdFilteredGroupedCt', 'MeanCt',\u000a    'StdCt'], is_visible=show_block1)\u000as.setColumnVisibility(['BioRuns', 'Gene_I', 'Gene_R1', 'Gene_R2', 'ExprR1', 'ExprR2', \u000a    'GeoMean'], is_visible=show_block2)\u000as.setColumnVisibility(['GeoGroups', 'GroupedGeoMeans', 'NrmlGeoGroupedMeans', \u000a    'MeanNrmlGeoGroups', 'StdNrmlGeoGroups'], is_visible=show_block3)\u000aif run:\u000a  Groups = []\u000a  GroupedCt = []\u000a  GroupedEff = []\u000a  MeanCt = []\u000a  Imp = []\u000a  s.deleteColumn('Ct')\u000a  s.deleteColumn('RunType')\u000a  s.deleteColumn('BRpl')\u000a  s.deleteColumn('TRpl')\u000a  s.deleteColumn('Treatment')\u000a  s.deleteColumn('Eff')\u000aif run:\u000a  importExcelToTable(s, xlsx_path, worksheet=worksheet,\u000a      column_position='ParmValues',\u000a      names=['Treatment', 'RunType', 'BRpl', 'TRpl', 'Eff', 'Ct'])\u000as.setColumnVisibility(['BRpl', 'Ct', 'Eff', 'RunType', 'TRpl', 'Treatment'], is_visible=show_raw)\u000as.setColumnVisibility(['ParmNames', 'ParmValues'], show_params)
p1279
sbsS'_epilogue'
p1280
g0
(g657
g2
Ntp1281
Rp1282
(dp1283
g661
V# Epilogue\u000aif run:\u000a  worksheet = "%s-O" % gene\u000a  exportTableToExcel(s, xlsx_path, worksheet=worksheet, columns=['GeoGroups',  \u000a      'MeanNrmlGeoGroups', 'StdNrmlGeoGroups'])\u000a
p1284
sg663
g1278
sg665
I00
sg666
I00
sg667
V# Epilogue\u000aif run:\u000a  worksheet = "%s-O" % gene\u000a  exportTableToExcel(s, xlsx_path, worksheet=worksheet, columns=['GeoGroups',  \u000a      'MeanNrmlGeoGroups', 'StdNrmlGeoGroups'])\u000a
p1285
sbsg663
g1278
sS'_columns'
p1286
(lp1287
g0
(g470
g2
Ntp1288
Rp1289
(dp1290
g474
I01
sg475
g4
sg476
(lp1291
S'1'
p1292
aS'2'
p1293
aS'3'
p1294
aS'4'
p1295
aS'5'
p1296
aS'6'
p1297
aS'7'
p1298
aS'8'
p1299
aS'9'
p1300
aS'10'
p1301
aS'11'
p1302
aS'12'
p1303
aS'13'
p1304
aS'14'
p1305
aS'15'
p1306
aS'16'
p1307
aS'17'
p1308
aS'18'
p1309
aS'19'
p1310
aS'20'
p1311
aS'21'
p1312
aS'22'
p1313
aS'23'
p1314
aS'24'
p1315
aS'25'
p1316
aS'26'
p1317
aS'27'
p1318
aS'28'
p1319
aS'29'
p1320
aS'30'
p1321
aS'31'
p1322
aS'32'
p1323
aS'33'
p1324
aS'34'
p1325
aS'35'
p1326
aS'36'
p1327
aS'37'
p1328
aS'38'
p1329
aS'39'
p1330
aS'40'
p1331
aS'41'
p1332
aS'42'
p1333
aS'43'
p1334
aS'44'
p1335
aS'45'
p1336
aS'46'
p1337
aS'47'
p1338
aS'48'
p1339
aS'49'
p1340
aS'50'
p1341
aS'51'
p1342
aS'52'
p1343
aS'53'
p1344
aS'54'
p1345
aS'55'
p1346
aS'56'
p1347
aS'57'
p1348
aS'58'
p1349
aS'59'
p1350
aS'60'
p1351
aS'61'
p1352
aS'62'
p1353
aS'63'
p1354
aS'64'
p1355
asg656
g0
(g657
g2
Ntp1356
Rp1357
(dp1358
g661
Nsg817
g1289
sg665
I00
sg666
I00
sg667
Nsbsg669
g0
(g670
g671
(g672
g673
tp1359
tp1360
Rp1361
sg663
S'row'
p1362
sbag0
(g470
g2
Ntp1363
Rp1364
(dp1365
g474
I00
sg475
g4
sg476
(lp1366
Vgene
p1367
aVrun
p1368
aVshow_raw
p1369
aVshow_block1
p1370
aVshow_block2
p1371
aVshow_block3
p1372
aVmax_std
p1373
aVmin_eff
p1374
aVshow_params
p1375
aVnan
p1376
aVnan
p1377
aVnan
p1378
aVnan
p1379
aVnan
p1380
aVnan
p1381
aVnan
p1382
aVnan
p1383
aVnan
p1384
aVnan
p1385
aVnan
p1386
aVnan
p1387
aVnan
p1388
aVnan
p1389
aVnan
p1390
aVnan
p1391
aVnan
p1392
aVnan
p1393
aVnan
p1394
aVnan
p1395
aVnan
p1396
aVnan
p1397
aVnan
p1398
aVnan
p1399
aVnan
p1400
aVnan
p1401
aVnan
p1402
aVnan
p1403
aVnan
p1404
aVnan
p1405
aVnan
p1406
aVnan
p1407
aVnan
p1408
aVnan
p1409
aVnan
p1410
aVnan
p1411
aVnan
p1412
aVnan
p1413
aVnan
p1414
aVnan
p1415
aVnan
p1416
aVnan
p1417
aVnan
p1418
aVnan
p1419
aVnan
p1420
aNaNaNaNaNaNaNaNaNaNasg656
g0
(g657
g2
Ntp1421
Rp1422
(dp1423
g661
Nsg817
g1364
sg665
I00
sg666
I00
sg667
Nsbsg669
g0
(g670
g671
(g672
g673
tp1424
tp1425
Rp1426
sg663
VParmNames
p1427
sbag0
(g470
g2
Ntp1428
Rp1429
(dp1430
g474
I00
sg475
g4
sg476
(lp1431
VGene1
p1432
aVTrue
p1433
aVFalse
p1434
aVFalse
p1435
aVFalse
p1436
aVTrue
p1437
aF0.5
aV0.7
p1438
aVTrue
p1439
aV
p1440
aVnan
p1441
aVnan
p1442
aVnan
p1443
aVnan
p1444
aVnan
p1445
aVnan
p1446
aVnan
p1447
aVnan
p1448
aVnan
p1449
aVnan
p1450
aVnan
p1451
aVnan
p1452
aVnan
p1453
aVnan
p1454
aVnan
p1455
aVnan
p1456
aVnan
p1457
aVnan
p1458
aVnan
p1459
aVnan
p1460
aVnan
p1461
aVnan
p1462
aVnan
p1463
aVnan
p1464
aVnan
p1465
aVnan
p1466
aVnan
p1467
aVnan
p1468
aVnan
p1469
aVnan
p1470
aVnan
p1471
aVnan
p1472
aVnan
p1473
aVnan
p1474
aVnan
p1475
aVnan
p1476
aVnan
p1477
aVnan
p1478
aVnan
p1479
aVnan
p1480
aVnan
p1481
aVnan
p1482
aVnan
p1483
aVnan
p1484
aNaNaNaNaNaNaNaNaNaNasg656
g0
(g657
g2
Ntp1485
Rp1486
(dp1487
g661
Nsg663
VParmValues
p1488
sg665
I00
sg666
I00
sg667
Nsbsg669
g0
(g670
g671
(g672
g673
tp1489
tp1490
Rp1491
sg663
g1488
sbag1265
ag1242
ag1214
ag1253
ag1234
ag1226
ag472
ag678
ag823
ag960
ag1104
ag1117
ag1128
ag1148
ag1159
ag1167
ag1175
ag1188
ag1201
ag0
(g470
g2
Ntp1492
Rp1493
(dp1494
g474
I00
sg475
g4
sg476
(lp1495
(lp1496
g479
(g483
S'\x00\x00\x00\x00\x00\x00\x00\x00'
p1497
tp1498
Rp1499
aa(lp1500
g479
(g483
S'\x01\x00\x00\x00\x00\x00\x00\x00'
p1501
tp1502
Rp1503
aa(lp1504
g479
(g483
S'\x02\x00\x00\x00\x00\x00\x00\x00'
p1505
tp1506
Rp1507
aa(lp1508
g479
(g483
S'\x03\x00\x00\x00\x00\x00\x00\x00'
p1509
tp1510
Rp1511
aa(lp1512
g479
(g483
S'\x04\x00\x00\x00\x00\x00\x00\x00'
p1513
tp1514
Rp1515
aaNaNaNaNaNaNaNaNaNaNaNaNaNaNaNaNaNaNaNaNaNaNaNaNaNaNaNaNaNaNaNaNaNaNaNaNaNaNaNaNaNaNaNaNaNaNaNaNaNaNaNaNaNaNaNaNaNaNaNasg656
g0
(g657
g2
Ntp1516
Rp1517
(dp1518
g661
Vcat_vals = [br[0] for br in pruneNulls(BioRuns)]\u000aclean_geo = [x for x in GeoMean if x is not None]\u000aGeoGroups, groupedGeoMeans = groupBy(cat_vals, clean_geo)\u000aGroupedGeoMeans = roundValues(groupedGeoMeans, 3)\u000aGeoGroups = [[x] for x in GeoGroups]
p1519
sg663
VGeoGroups
p1520
sg665
I00
sg666
I00
sg667
Vcat_vals = [br[0] for br in pruneNulls(BioRuns)]\u000aclean_geo = [x for x in GeoMean if x is not None]\u000aGeoGroups, groupedGeoMeans = groupBy(cat_vals, clean_geo)\u000aGroupedGeoMeans = roundValues(groupedGeoMeans, 3)\u000aGeoGroups = [[x] for x in GeoGroups]
p1521
sbsg669
g0
(g670
g671
(g672
g673
tp1522
tp1523
Rp1524
sg663
g1520
sbag0
(g470
g2
Ntp1525
Rp1526
(dp1527
g474
I00
sg475
g4
sg476
(lp1528
g681
(g672
(I0
tp1529
g683
tp1530
Rp1531
(I1
(I1
tp1532
g969
I00
S'D\x8bl\xe7\xfb\xa9\xb1?'
p1533
tp1534
bag681
(g672
(I0
tp1535
g683
tp1536
Rp1537
(I1
(I3
tp1538
g969
I00
S'\xb8\x1e\x85\xebQ\xb8\x8e?D\x8bl\xe7\xfb\xa9\xb1?\x1b/\xdd$\x06\x81\x95?'
p1539
tp1540
bag681
(g672
(I0
tp1541
g683
tp1542
Rp1543
(I1
(I1
tp1544
g969
I00
S'\xd9\xce\xf7S\xe3\xa5\x9b?'
p1545
tp1546
bag681
(g672
(I0
tp1547
g683
tp1548
Rp1549
(I1
(I1
tp1550
g969
I00
S'\xd9\xce\xf7S\xe3\xa5\x9b?'
p1551
tp1552
bag681
(g672
(I0
tp1553
g683
tp1554
Rp1555
(I1
(I1
tp1556
g969
I00
S'\xd9\xce\xf7S\xe3\xa5\x9b?'
p1557
tp1558
basg656
g0
(g657
g2
Ntp1559
Rp1560
(dp1561
g661
Nsg817
g1526
sg665
I00
sg666
I00
sg667
Nsbsg669
g0
(g670
g671
(g672
g673
tp1562
tp1563
Rp1564
sg663
VGroupedGeoMeans
p1565
sbag0
(g470
g2
Ntp1566
Rp1567
(dp1568
g474
I00
sg475
g4
sg476
(lp1569
g681
(g672
(I0
tp1570
g683
tp1571
Rp1572
(I1
(I1
tp1573
g969
I00
S'\x00\x00\x00\x00\x00\x00\xf0?'
p1574
tp1575
bag681
(g672
(I0
tp1576
g683
tp1577
Rp1578
(I1
(I3
tp1579
g969
I00
S'-\xb2\x9d\xef\xa7\xc6\xcb?\x00\x00\x00\x00\x00\x00\xf0?\xdb\xf9~j\xbct\xd3?'
p1580
tp1581
bag681
(g672
(I0
tp1582
g683
tp1583
Rp1584
(I1
(I1
tp1585
g969
I00
S'\xa0\x1a/\xdd$\x06\xd9?'
p1586
tp1587
bag681
(g672
(I0
tp1588
g683
tp1589
Rp1590
(I1
(I1
tp1591
g969
I00
S'\xa0\x1a/\xdd$\x06\xd9?'
p1592
tp1593
bag681
(g672
(I0
tp1594
g683
tp1595
Rp1596
(I1
(I1
tp1597
g969
I00
S'\xa0\x1a/\xdd$\x06\xd9?'
p1598
tp1599
basg656
g0
(g657
g2
Ntp1600
Rp1601
(dp1602
g661
Vref = np.mean(GroupedGeoMeans[0])\u000aNrmlGeoGroupedMeans = [ [x/ref for x in g] for g in GroupedGeoMeans if g is not None]  \u000aNrmlGeoGroupedMeans = roundValues(NrmlGeoGroupedMeans, 3)
p1603
sg663
VNrmlGeoGroupedMeans
p1604
sg665
I00
sg666
I00
sg667
Vref = np.mean(GroupedGeoMeans[0])\u000aNrmlGeoGroupedMeans = [ [x/ref for x in g] for g in GroupedGeoMeans if g is not None]  \u000aNrmlGeoGroupedMeans = roundValues(NrmlGeoGroupedMeans, 3)
p1605
sbsg669
g0
(g670
g671
(g672
g673
tp1606
tp1607
Rp1608
sg663
g1604
sbag0
(g470
g2
Ntp1609
Rp1610
(dp1611
g474
I00
sg475
g4
sg476
(lp1612
F1.0
aF0.507
aF0.391
aF0.391
aF0.391
asg656
g0
(g657
g2
Ntp1613
Rp1614
(dp1615
g661
VMeanNrmlGeoGroups = [round(np.mean(g), 3) for g in NrmlGeoGroupedMeans]
p1616
sg663
VMeanNrmlGeoGroups
p1617
sg665
I01
sg666
I00
sg667
V[round(np.mean(g), 3) for g in NrmlGeoGroupedMeans]
p1618
sbsg669
g0
(g670
g671
(g672
g673
tp1619
tp1620
Rp1621
sg663
g1617
sbag0
(g470
g2
Ntp1622
Rp1623
(dp1624
g474
I00
sg475
g4
sg476
(lp1625
F0.248
asg656
g0
(g657
g2
Ntp1626
Rp1627
(dp1628
g661
VStdNrmlGeoGroups = []\u000afor grp in NrmlGeoGroupedMeans:\u000a  if len(grp) > 1:\u000a    val = np.std(grp, ddof=1)/np.sqrt(len(grp))\u000a    val = round(val, 3)\u000a    StdNrmlGeoGroups.append(val)\u000a
p1629
sg663
VStdNrmlGeoGroups
p1630
sg665
I00
sg666
I00
sg667
VStdNrmlGeoGroups = []\u000afor grp in NrmlGeoGroupedMeans:\u000a  if len(grp) > 1:\u000a    val = np.std(grp, ddof=1)/np.sqrt(len(grp))\u000a    val = round(val, 3)\u000a    StdNrmlGeoGroups.append(val)\u000a
p1631
sbsg669
g0
(g670
g671
(g672
g673
tp1632
tp1633
Rp1634
sg663
g1630
sbasg463
V/home/ubuntu/SciSheets/mysite/user/guest/tables/kristen_single_gene.pcl
p1635
sb.