ccopy_reg
_reconstructor
p0
(cscisheets.ui.dt_table
DTTable
p1
c__builtin__
object
p2
Ntp3
Rp4
(dp5
S'_versioned_file'
p6
g0
(cmysite.helpers.versioned_file
VersionedFile
p7
g2
Ntp8
Rp9
(dp10
S'_redo_stack'
p11
g0
(cmysite.helpers.file_stack
FileStack
p12
g2
Ntp13
Rp14
(dp15
S'_dirpath'
p16
S'/home/ubuntu/SciSheets/mysite/user/guest/tables/backup'
p17
sS'_max_depth'
p18
I5
sS'_filename_pfx'
p19
Vkristen_single_gene.r
p20
sbsS'_max_versions'
p21
I5
sS'_undo_stack'
p22
g0
(g12
g2
Ntp23
Rp24
(dp25
g16
g17
sg18
I5
sg19
Vkristen_single_gene.u
p26
sbsS'_checkpoint_history'
p27
(lp28
VCell/Update
p29
aVCell/Update
p30
aVCell/Update
p31
aVCell/Update
p32
aVCell/Update
p33
aVCell/Update
p34
aVCell/Update
p35
aVCell/Update
p36
aVCell/Update
p37
aVCell/Update
p38
aVCell/Update
p39
aVCell/Update
p40
aVColumn/Formula
p41
aVColumn/Formula
p42
aVColumn/Append
p43
aVColumn/Formula
p44
aVColumn/Delete
p45
aVCell/Update
p46
aVColumn/Formula
p47
aVCell/Update
p48
aVCell/Update
p49
aVColumn/Formula
p50
aVColumn/Formula
p51
aVCell/Update
p52
aVColumn/Formula
p53
aVColumn/Formula
p54
aVCell/Update
p55
aVCell/Update
p56
aVCell/Update
p57
aVCell/Update
p58
aVColumn/Formula
p59
aVCell/Update
p60
aVCell/Update
p61
aVCell/Update
p62
aVColumn/Formula
p63
aVCell/Update
p64
aVColumn/Formula
p65
aVColumn/Formula
p66
aVCell/Update
p67
aVCell/Update
p68
aVCell/Update
p69
aVCell/Update
p70
aVCell/Update
p71
aVCell/Update
p72
aVCell/Update
p73
aVCell/Update
p74
aVCell/Update
p75
aVColumn/Formula
p76
aVCell/Update
p77
aVCell/Update
p78
aVCell/Update
p79
aVCell/Update
p80
aVCell/Update
p81
aVCell/Update
p82
aVCell/Update
p83
aVCell/Update
p84
aVCell/Update
p85
aVCell/Update
p86
aVCell/Update
p87
aVCell/Update
p88
aVColumn/Formula
p89
aVColumn/Formula
p90
aVColumn/Formula
p91
aVCell/Update
p92
aVCell/Update
p93
aVCell/Update
p94
aVCell/Update
p95
aVCell/Update
p96
aVColumn/Formula
p97
aVCell/Update
p98
aVCell/Update
p99
aVCell/Update
p100
aVCell/Update
p101
aVCell/Update
p102
aVCell/Update
p103
aVCell/Update
p104
aVColumn/Formula
p105
aVColumn/Formula
p106
aVColumn/Formula
p107
aVCell/Update
p108
aVCell/Update
p109
aVColumn/Formula
p110
aVCell/Update
p111
aVCell/Update
p112
aVCell/Update
p113
aVCell/Update
p114
aVCell/Update
p115
aVCell/Update
p116
aVCell/Update
p117
aVCell/Update
p118
aVColumn/Formula
p119
aVCell/Update
p120
aVColumn/Formula
p121
aVColumn/Formula
p122
aVColumn/Formula
p123
aVCell/Update
p124
aVCell/Update
p125
aVColumn/Formula
p126
aVColumn/Formula
p127
aVColumn/Formula
p128
aVColumn/Formula
p129
aVCell/Update
p130
aVColumn/Formula
p131
aVColumn/Formula
p132
aVColumn/Formula
p133
aVCell/Update
p134
aVCell/Update
p135
aVCell/Update
p136
aVCell/Update
p137
aVCell/Update
p138
aVCell/Update
p139
aVCell/Update
p140
aVCell/Update
p141
aVCell/Update
p142
aVCell/Update
p143
aVColumn/Formula
p144
aVColumn/Formula
p145
aVColumn/Formula
p146
aVColumn/Formula
p147
aVCell/Update
p148
aVCell/Update
p149
aVColumn/Formula
p150
aVCell/Update
p151
aVCell/Update
p152
aVCell/Update
p153
aVCell/Update
p154
aVCell/Update
p155
aVCell/Update
p156
aVCell/Update
p157
aVCell/Update
p158
aVCell/Update
p159
aVCell/Update
p160
aVCell/Update
p161
aVCell/Update
p162
aVCell/Update
p163
aVColumn/Formula
p164
aVColumn/Formula
p165
aVCell/Update
p166
aVCell/Update
p167
aVCell/Update
p168
aVColumn/Formula
p169
aVCell/Update
p170
aVCell/Update
p171
aVCell/Update
p172
aVCell/Update
p173
aVColumn/Formula
p174
aVColumn/Formula
p175
aVColumn/Formula
p176
aVColumn/Formula
p177
aVCell/Update
p178
aVColumn/Formula
p179
aVCell/Update
p180
aVCell/Update
p181
aVCell/Update
p182
aVCell/Update
p183
aVCell/Update
p184
aVCell/Update
p185
aVCell/Update
p186
aVCell/Update
p187
aVCell/Update
p188
aVColumn/Formula
p189
aVCell/Update
p190
aVCell/Update
p191
aVCell/Update
p192
aVCell/Update
p193
aVCell/Update
p194
aVCell/Update
p195
aVCell/Update
p196
aVCell/Update
p197
aVCell/Update
p198
aVCell/Update
p199
aVCell/Update
p200
aVCell/Update
p201
aVCell/Update
p202
aVCell/Update
p203
aVCell/Update
p204
aVCell/Update
p205
aVCell/Update
p206
aVCell/Update
p207
aVCell/Update
p208
aVCell/Update
p209
aVCell/Update
p210
aVCell/Update
p211
aVCell/Update
p212
aVCell/Update
p213
aVCell/Update
p214
aVCell/Update
p215
aVCell/Update
p216
aVCell/Update
p217
aVCell/Update
p218
aVCell/Update
p219
aVCell/Update
p220
aVCell/Update
p221
aVCell/Update
p222
aVCell/Update
p223
aVCell/Update
p224
aVCell/Update
p225
aVCell/Update
p226
aVCell/Update
p227
aVCell/Update
p228
aVCell/Update
p229
aVCell/Update
p230
aVCell/Update
p231
aVCell/Update
p232
aVCell/Update
p233
aVCell/Update
p234
aVCell/Update
p235
aVCell/Update
p236
aVCell/Update
p237
aVCell/Update
p238
aVCell/Update
p239
aVCell/Update
p240
aVCell/Update
p241
aVCell/Update
p242
aVCell/Update
p243
aVCell/Update
p244
aVCell/Update
p245
aVCell/Update
p246
aVCell/Update
p247
aVCell/Update
p248
aVCell/Update
p249
aVCell/Update
p250
aVCell/Update
p251
aVCell/Update
p252
aVCell/Update
p253
aVCell/Update
p254
aVCell/Update
p255
aVCell/Update
p256
aVCell/Update
p257
aVCell/Update
p258
aVCell/Update
p259
aVCell/Update
p260
aVCell/Update
p261
aVCell/Update
p262
aVCell/Update
p263
aVCell/Update
p264
aVCell/Update
p265
aVCell/Update
p266
aVCell/Update
p267
aVCell/Update
p268
aVCell/Update
p269
aVCell/Update
p270
aVCell/Update
p271
aVColumn/Formula
p272
aVColumn/Formula
p273
aVCell/Update
p274
aVCell/Update
p275
aVCell/Update
p276
aVCell/Update
p277
aVColumn/Formula
p278
aVColumn/Formula
p279
aVColumn/Formula
p280
aVCell/Update
p281
aVCell/Update
p282
aVCell/Update
p283
aVCell/Update
p284
aVColumn/Formula
p285
aVColumn/Formula
p286
aVColumn/Formula
p287
aVCell/Update
p288
aVCell/Update
p289
aVColumn/Formula
p290
aVCell/Update
p291
aVCell/Update
p292
aVCell/Update
p293
aVCell/Update
p294
aVCell/Update
p295
aVCell/Update
p296
aVColumn/Formula
p297
aVCell/Update
p298
aVColumn/Formula
p299
aVCell/Update
p300
aVCell/Update
p301
aVColumn/Formula
p302
aVColumn/Formula
p303
aVCell/Update
p304
asS'_filepath'
p305
V/home/ubuntu/SciSheets/mysite/user/guest/tables/kristen_single_gene.pcl
p306
sS'_backup_dir'
p307
g17
sbsS'_namespace'
p308
(dp309
sS'_hidden_columns'
p310
(lp311
g0
(cscisheets.core.column
Column
p312
g2
Ntp313
Rp314
(dp315
S'_asis'
p316
I00
sS'_owning_table'
p317
g4
sS'_cells'
p318
(lp319
(lp320
cnumpy.core.multiarray
scalar
p321
(cnumpy
dtype
p322
(S'i8'
p323
I0
I1
tp324
Rp325
(I3
S'<'
p326
NNNI-1
I-1
I0
tp327
bS'\x00\x00\x00\x00\x00\x00\x00\x00'
p328
tp329
Rp330
aVI
p331
ag321
(g325
S'\x01\x00\x00\x00\x00\x00\x00\x00'
p332
tp333
Rp334
aa(lp335
g321
(g325
S'\x00\x00\x00\x00\x00\x00\x00\x00'
p336
tp337
Rp338
aVR1
p339
ag321
(g325
S'\x01\x00\x00\x00\x00\x00\x00\x00'
p340
tp341
Rp342
aa(lp343
g321
(g325
S'\x00\x00\x00\x00\x00\x00\x00\x00'
p344
tp345
Rp346
aVR2
p347
ag321
(g325
S'\x01\x00\x00\x00\x00\x00\x00\x00'
p348
tp349
Rp350
aa(lp351
g321
(g325
S'\x01\x00\x00\x00\x00\x00\x00\x00'
p352
tp353
Rp354
ag331
ag321
(g325
S'\x01\x00\x00\x00\x00\x00\x00\x00'
p355
tp356
Rp357
aa(lp358
g321
(g325
S'\x01\x00\x00\x00\x00\x00\x00\x00'
p359
tp360
Rp361
ag331
ag321
(g325
S'\x02\x00\x00\x00\x00\x00\x00\x00'
p362
tp363
Rp364
aa(lp365
g321
(g325
S'\x01\x00\x00\x00\x00\x00\x00\x00'
p366
tp367
Rp368
ag331
ag321
(g325
S'\x03\x00\x00\x00\x00\x00\x00\x00'
p369
tp370
Rp371
aa(lp372
g321
(g325
S'\x01\x00\x00\x00\x00\x00\x00\x00'
p373
tp374
Rp375
ag339
ag321
(g325
S'\x01\x00\x00\x00\x00\x00\x00\x00'
p376
tp377
Rp378
aa(lp379
g321
(g325
S'\x01\x00\x00\x00\x00\x00\x00\x00'
p380
tp381
Rp382
ag339
ag321
(g325
S'\x02\x00\x00\x00\x00\x00\x00\x00'
p383
tp384
Rp385
aa(lp386
g321
(g325
S'\x01\x00\x00\x00\x00\x00\x00\x00'
p387
tp388
Rp389
ag339
ag321
(g325
S'\x03\x00\x00\x00\x00\x00\x00\x00'
p390
tp391
Rp392
aa(lp393
g321
(g325
S'\x01\x00\x00\x00\x00\x00\x00\x00'
p394
tp395
Rp396
ag347
ag321
(g325
S'\x01\x00\x00\x00\x00\x00\x00\x00'
p397
tp398
Rp399
aa(lp400
g321
(g325
S'\x01\x00\x00\x00\x00\x00\x00\x00'
p401
tp402
Rp403
ag347
ag321
(g325
S'\x02\x00\x00\x00\x00\x00\x00\x00'
p404
tp405
Rp406
aa(lp407
g321
(g325
S'\x01\x00\x00\x00\x00\x00\x00\x00'
p408
tp409
Rp410
ag347
ag321
(g325
S'\x03\x00\x00\x00\x00\x00\x00\x00'
p411
tp412
Rp413
aa(lp414
g321
(g325
S'\x02\x00\x00\x00\x00\x00\x00\x00'
p415
tp416
Rp417
ag331
ag321
(g325
S'\x01\x00\x00\x00\x00\x00\x00\x00'
p418
tp419
Rp420
aa(lp421
g321
(g325
S'\x02\x00\x00\x00\x00\x00\x00\x00'
p422
tp423
Rp424
ag339
ag321
(g325
S'\x01\x00\x00\x00\x00\x00\x00\x00'
p425
tp426
Rp427
aa(lp428
g321
(g325
S'\x02\x00\x00\x00\x00\x00\x00\x00'
p429
tp430
Rp431
ag347
ag321
(g325
S'\x01\x00\x00\x00\x00\x00\x00\x00'
p432
tp433
Rp434
aa(lp435
g321
(g325
S'\x03\x00\x00\x00\x00\x00\x00\x00'
p436
tp437
Rp438
ag331
ag321
(g325
S'\x01\x00\x00\x00\x00\x00\x00\x00'
p439
tp440
Rp441
aa(lp442
g321
(g325
S'\x03\x00\x00\x00\x00\x00\x00\x00'
p443
tp444
Rp445
ag339
ag321
(g325
S'\x01\x00\x00\x00\x00\x00\x00\x00'
p446
tp447
Rp448
aa(lp449
g321
(g325
S'\x03\x00\x00\x00\x00\x00\x00\x00'
p450
tp451
Rp452
ag347
ag321
(g325
S'\x01\x00\x00\x00\x00\x00\x00\x00'
p453
tp454
Rp455
aa(lp456
g321
(g325
S'\x04\x00\x00\x00\x00\x00\x00\x00'
p457
tp458
Rp459
ag331
ag321
(g325
S'\x01\x00\x00\x00\x00\x00\x00\x00'
p460
tp461
Rp462
aa(lp463
g321
(g325
S'\x04\x00\x00\x00\x00\x00\x00\x00'
p464
tp465
Rp466
ag339
ag321
(g325
S'\x01\x00\x00\x00\x00\x00\x00\x00'
p467
tp468
Rp469
aa(lp470
g321
(g325
S'\x04\x00\x00\x00\x00\x00\x00\x00'
p471
tp472
Rp473
ag347
ag321
(g325
S'\x01\x00\x00\x00\x00\x00\x00\x00'
p474
tp475
Rp476
aaNaNaNaNaNaNaNaNaNaNaNaNaNaNaNaNaNaNaNaNaNaNaNaNaNaNaNaNaNaNaNaNaNaNaNaNaNaNaNaNaNaNaNasS'_formula_statement'
p477
g0
(cscisheets.core.helpers.formula_statement
FormulaStatement
p478
g2
Ntp479
Rp480
(dp481
S'_statement'
p482
Vsel = Eff > min_eff\u000agrouping_columns = [\u000a    Treatment[sel],\u000a     RunType[sel], \u000a    BRpl[sel],      \u000a  ]\u000aGroups, groupedCt = groupBy(\u000a     grouping_columns, Ct[sel])\u000aGroups, groupedEff = groupBy(\u000a     grouping_columns, Eff[sel])\u000aGroups = [[g[0], g[1], g[2]] for g in Groups]\u000aGroupedCt = roundValues(groupedCt,2)\u000aGroupedEff = roundValues(groupedEff,2)
p483
sS'_name'
p484
VGroups
p485
sS'_isExpression'
p486
I00
sS'_isStatement'
p487
I00
sS'_formula'
p488
Vsel = Eff > min_eff\u000agrouping_columns = [\u000a    Treatment[sel],\u000a     RunType[sel], \u000a    BRpl[sel],      \u000a  ]\u000aGroups, groupedCt = groupBy(\u000a     grouping_columns, Ct[sel])\u000aGroups, groupedEff = groupBy(\u000a     grouping_columns, Eff[sel])\u000aGroups = [[g[0], g[1], g[2]] for g in Groups]\u000aGroupedCt = roundValues(groupedCt,2)\u000aGroupedEff = roundValues(groupedEff,2)
p489
sbsS'_data_class'
p490
g0
(cscisheets.core.helpers.api_util
DataClass
p491
c__builtin__
tuple
p492
(cnumpy
ndarray
p493
cscisheets.core.helpers.api_util
makeArray
p494
tp495
tp496
Rp497
sg484
g485
sbag0
(g312
g2
Ntp498
Rp499
(dp500
g316
I00
sg317
g4
sg318
(lp501
cnumpy.core.multiarray
_reconstruct
p502
(g493
(I0
tp503
S'b'
p504
tp505
Rp506
(I1
(I4
tp507
g322
(S'f8'
p508
I0
I1
tp509
Rp510
(I3
S'<'
p511
NNNI-1
I-1
I0
tp512
bI00
S'\xe1z\x14\xaeG\xe1\xea?{\x14\xaeG\xe1z\xec?\xcd\xcc\xcc\xcc\xcc\xcc\xec?\xd7\xa3p=\n\xd7\xeb?'
p513
tp514
bag502
(g493
(I0
tp515
g504
tp516
Rp517
(I1
(I3
tp518
g510
I00
S'\x8f\xc2\xf5(\\\x8f\xea?\x8f\xc2\xf5(\\\x8f\xea?333333\xeb?'
p519
tp520
bag502
(g493
(I0
tp521
g504
tp522
Rp523
(I1
(I3
tp524
g510
I00
S'=\n\xd7\xa3p=\xea?333333\xeb?=\n\xd7\xa3p=\xea?'
p525
tp526
bag502
(g493
(I0
tp527
g504
tp528
Rp529
(I1
(I3
tp530
g510
I00
S'\x14\xaeG\xe1z\x14\xee?\x8f\xc2\xf5(\\\x8f\xea?\xe1z\x14\xaeG\xe1\xea?'
p531
tp532
bag502
(g493
(I0
tp533
g504
tp534
Rp535
(I1
(I3
tp536
g510
I00
S'\x9a\x99\x99\x99\x99\x99\xe9?\xe1z\x14\xaeG\xe1\xea?H\xe1z\x14\xaeG\xe9?'
p537
tp538
bag502
(g493
(I0
tp539
g504
tp540
Rp541
(I1
(I3
tp542
g510
I00
S'\x8f\xc2\xf5(\\\x8f\xea?\x9a\x99\x99\x99\x99\x99\xe9?\x8f\xc2\xf5(\\\x8f\xea?'
p543
tp544
bag502
(g493
(I0
tp545
g504
tp546
Rp547
(I1
(I3
tp548
g510
I00
S'q=\n\xd7\xa3p\xed?\\\x8f\xc2\xf5(\\\xef?\xcd\xcc\xcc\xcc\xcc\xcc\xec?'
p549
tp550
bag502
(g493
(I0
tp551
g504
tp552
Rp553
(I1
(I3
tp554
g510
I00
S'\xcd\xcc\xcc\xcc\xcc\xcc\xec?\x8f\xc2\xf5(\\\x8f\xea?\xe1z\x14\xaeG\xe1\xea?'
p555
tp556
bag502
(g493
(I0
tp557
g504
tp558
Rp559
(I1
(I3
tp560
g510
I00
S'\xd7\xa3p=\n\xd7\xeb?333333\xeb?\x8f\xc2\xf5(\\\x8f\xea?'
p561
tp562
bag502
(g493
(I0
tp563
g504
tp564
Rp565
(I1
(I3
tp566
g510
I00
S'H\xe1z\x14\xaeG\xe9?\xe1z\x14\xaeG\xe1\xea?\x85\xebQ\xb8\x1e\x85\xeb?'
p567
tp568
bag502
(g493
(I0
tp569
g504
tp570
Rp571
(I1
(I3
tp572
g510
I00
S'\x8f\xc2\xf5(\\\x8f\xea?=\n\xd7\xa3p=\xea?\x8f\xc2\xf5(\\\x8f\xea?'
p573
tp574
bag502
(g493
(I0
tp575
g504
tp576
Rp577
(I1
(I3
tp578
g510
I00
S'\xecQ\xb8\x1e\x85\xeb\xe9?=\n\xd7\xa3p=\xea?\x9a\x99\x99\x99\x99\x99\xe9?'
p579
tp580
bag502
(g493
(I0
tp581
g504
tp582
Rp583
(I1
(I3
tp584
g510
I00
S'\xe1z\x14\xaeG\xe1\xea?\x9a\x99\x99\x99\x99\x99\xe9?\xecQ\xb8\x1e\x85\xeb\xe9?'
p585
tp586
bag502
(g493
(I0
tp587
g504
tp588
Rp589
(I1
(I3
tp590
g510
I00
S'\xa4p=\n\xd7\xa3\xe8?\xd7\xa3p=\n\xd7\xeb?\xecQ\xb8\x1e\x85\xeb\xe9?'
p591
tp592
bag502
(g493
(I0
tp593
g504
tp594
Rp595
(I1
(I3
tp596
g510
I00
S'\xf6(\\\x8f\xc2\xf5\xe8?\xa4p=\n\xd7\xa3\xe8?H\xe1z\x14\xaeG\xe9?'
p597
tp598
bag502
(g493
(I0
tp599
g504
tp600
Rp601
(I1
(I3
tp602
g510
I00
S'333333\xeb?333333\xeb?\xe1z\x14\xaeG\xe1\xea?'
p603
tp604
bag502
(g493
(I0
tp605
g504
tp606
Rp607
(I1
(I3
tp608
g510
I00
S'\xd7\xa3p=\n\xd7\xeb?\xcd\xcc\xcc\xcc\xcc\xcc\xec?\x85\xebQ\xb8\x1e\x85\xeb?'
p609
tp610
bag502
(g493
(I0
tp611
g504
tp612
Rp613
(I1
(I3
tp614
g510
I00
S'=\n\xd7\xa3p=\xea?=\n\xd7\xa3p=\xea?H\xe1z\x14\xaeG\xe9?'
p615
tp616
bag502
(g493
(I0
tp617
g504
tp618
Rp619
(I1
(I3
tp620
g510
I00
S'333333\xeb?333333\xeb?\xe1z\x14\xaeG\xe1\xea?'
p621
tp622
bag502
(g493
(I0
tp623
g504
tp624
Rp625
(I1
(I3
tp626
g510
I00
S'\xd7\xa3p=\n\xd7\xeb?\xcd\xcc\xcc\xcc\xcc\xcc\xec?\x85\xebQ\xb8\x1e\x85\xeb?'
p627
tp628
bag502
(g493
(I0
tp629
g504
tp630
Rp631
(I1
(I3
tp632
g510
I00
S'=\n\xd7\xa3p=\xea?=\n\xd7\xa3p=\xea?H\xe1z\x14\xaeG\xe9?'
p633
tp634
baNaNaNaNaNaNaNaNaNaNaNaNaNaNaNaNaNaNaNaNaNaNaNaNaNaNaNaNaNaNaNaNaNaNaNaNaNaNaNaNaNaNaNasg477
g0
(g478
g2
Ntp635
Rp636
(dp637
g482
NsS'_column'
p638
g499
sg486
I00
sg487
I00
sg488
Nsbsg490
g0
(g491
g492
(g493
g494
tp639
tp640
Rp641
sg484
VGroupedEff
p642
sbag0
(g312
g2
Ntp643
Rp644
(dp645
g316
I00
sg317
g4
sg318
(lp646
g502
(g493
(I0
tp647
g504
tp648
Rp649
(I1
(I4
tp650
g510
I00
S'\x00\x00\x00\x00\x00\x007@\\\x8f\xc2\xf5(\xdc6@\xcd\xcc\xcc\xcc\xcc\xcc6@\x00\x00\x00\x00\x00\x007@'
p651
tp652
bag502
(g493
(I0
tp653
g504
tp654
Rp655
(I1
(I3
tp656
g510
I00
S'=\n\xd7\xa3p=2@\xb8\x1e\x85\xebQ82@\\\x8f\xc2\xf5(\\2@'
p657
tp658
bag502
(g493
(I0
tp659
g504
tp660
Rp661
(I1
(I3
tp662
g510
I00
S'\xb8\x1e\x85\xebQ\xb83@\x00\x00\x00\x00\x00\xc03@\xc3\xf5(\\\x8f\x024@'
p663
tp664
bag502
(g493
(I0
tp665
g504
tp666
Rp667
(I1
(I3
tp668
g510
I00
S'\xaeG\xe1z\x14\xae:@\xe1z\x14\xaeG!;@\xf6(\\\x8f\xc25;@'
p669
tp670
bag502
(g493
(I0
tp671
g504
tp672
Rp673
(I1
(I3
tp674
g510
I00
S'\xc3\xf5(\\\x8f\xc2:@\xf6(\\\x8f\xc2\xb5:@q=\n\xd7\xa30:@'
p675
tp676
bag502
(g493
(I0
tp677
g504
tp678
Rp679
(I1
(I3
tp680
g510
I00
S'{\x14\xaeG\xe1\xfa=@\x1f\x85\xebQ\xb8\x1e>@)\\\x8f\xc2\xf5h=@'
p681
tp682
bag502
(g493
(I0
tp683
g504
tp684
Rp685
(I1
(I3
tp686
g510
I00
S'\xecQ\xb8\x1e\x85\xeb3@\x9a\x99\x99\x99\x99\xd93@\x00\x00\x00\x00\x00\x004@'
p687
tp688
bag502
(g493
(I0
tp689
g504
tp690
Rp691
(I1
(I3
tp692
g510
I00
S'\\\x8f\xc2\xf5(\xdc5@\xd7\xa3p=\n\x176@\xd7\xa3p=\n\xd75@'
p693
tp694
bag502
(g493
(I0
tp695
g504
tp696
Rp697
(I1
(I3
tp698
g510
I00
S'\xa4p=\n\xd7\xe37@\n\xd7\xa3p=\x8a7@\x85\xebQ\xb8\x1eE8@'
p699
tp700
bag502
(g493
(I0
tp701
g504
tp702
Rp703
(I1
(I3
tp704
g510
I00
S'\xaeG\xe1z\x14.6@\xf6(\\\x8f\xc2\xb55@\x00\x00\x00\x00\x00\xc05@'
p705
tp706
bag502
(g493
(I0
tp707
g504
tp708
Rp709
(I1
(I3
tp710
g510
I00
S'\xe1z\x14\xaeG\xe17@\xecQ\xb8\x1e\x85k7@\xe1z\x14\xaeG\xa17@'
p711
tp712
bag502
(g493
(I0
tp713
g504
tp714
Rp715
(I1
(I3
tp716
g510
I00
S'\xd7\xa3p=\n\x978@\\\x8f\xc2\xf5(\x9c8@\xd7\xa3p=\nW8@'
p717
tp718
bag502
(g493
(I0
tp719
g504
tp720
Rp721
(I1
(I3
tp722
g510
I00
S'33333\xf3=@33333s>@\xe1z\x14\xaeG\xe1=@'
p723
tp724
bag502
(g493
(I0
tp725
g504
tp726
Rp727
(I1
(I3
tp728
g510
I00
S'\xb8\x1e\x85\xebQ87@\xcd\xcc\xcc\xcc\xcc\xcc7@=\n\xd7\xa3p}7@'
p729
tp730
bag502
(g493
(I0
tp731
g504
tp732
Rp733
(I1
(I3
tp734
g510
I00
S'\x1f\x85\xebQ\xb8^:@\\\x8f\xc2\xf5(\\:@\xecQ\xb8\x1e\x85+:@'
p735
tp736
bag502
(g493
(I0
tp737
g504
tp738
Rp739
(I1
(I3
tp740
g510
I00
S'\xcd\xcc\xcc\xcc\xcc\xcc8@\xb8\x1e\x85\xebQ\xf88@\xe1z\x14\xaeG\xa18@'
p741
tp742
bag502
(g493
(I0
tp743
g504
tp744
Rp745
(I1
(I3
tp746
g510
I00
S')\\\x8f\xc2\xf5\xe82@H\xe1z\x14\xae\xc72@\xcd\xcc\xcc\xcc\xcc\xcc2@'
p747
tp748
bag502
(g493
(I0
tp749
g504
tp750
Rp751
(I1
(I3
tp752
g510
I00
S'\x00\x00\x00\x00\x00\x804@\xb8\x1e\x85\xebQx4@H\xe1z\x14\xaeG4@'
p753
tp754
bag502
(g493
(I0
tp755
g504
tp756
Rp757
(I1
(I3
tp758
g510
I00
S'\xcd\xcc\xcc\xcc\xcc\xcc8@\xb8\x1e\x85\xebQ\xf88@\xe1z\x14\xaeG\xa18@'
p759
tp760
bag502
(g493
(I0
tp761
g504
tp762
Rp763
(I1
(I3
tp764
g510
I00
S')\\\x8f\xc2\xf5\xe82@H\xe1z\x14\xae\xc72@\xcd\xcc\xcc\xcc\xcc\xcc2@'
p765
tp766
bag502
(g493
(I0
tp767
g504
tp768
Rp769
(I1
(I3
tp770
g510
I00
S'\x00\x00\x00\x00\x00\x804@\xb8\x1e\x85\xebQx4@H\xe1z\x14\xaeG4@'
p771
tp772
baNaNaNaNaNaNaNaNaNaNaNaNaNaNaNaNaNaNaNaNaNaNaNaNaNaNaNaNaNaNaNaNaNaNaNaNaNaNaNaNaNaNaNasg477
g0
(g478
g2
Ntp773
Rp774
(dp775
g482
Nsg638
g644
sg486
I00
sg487
I00
sg488
Nsbsg490
g0
(g491
g492
(g493
g494
tp776
tp777
Rp778
sg484
VGroupedCt
p779
sbag0
(g312
g2
Ntp780
Rp781
(dp782
g316
I00
sg317
g4
sg318
(lp783
g502
(g493
(I0
tp784
g504
tp785
Rp786
(I1
(I4
tp787
g510
I00
S'\x00\x00\x00\x00\x00\x007@fffff\xe66@\xcd\xcc\xcc\xcc\xcc\xcc6@\x00\x00\x00\x00\x00\x007@'
p788
tp789
bag502
(g493
(I0
tp790
g504
tp791
Rp792
(I1
(I3
tp793
g510
I00
S'3333332@3333332@ffffff2@'
p794
tp795
bag502
(g493
(I0
tp796
g504
tp797
Rp798
(I1
(I3
tp799
g510
I00
S'33333\xb33@\xcd\xcc\xcc\xcc\xcc\xcc3@\x00\x00\x00\x00\x00\x004@'
p800
tp801
bag502
(g493
(I0
tp802
g504
tp803
Rp804
(I1
(I3
tp805
g510
I00
S'33333\xb3:@\x9a\x99\x99\x99\x99\x19;@333333;@'
p806
tp807
bag502
(g493
(I0
tp808
g504
tp809
Rp810
(I1
(I3
tp811
g510
I00
S'\xcd\xcc\xcc\xcc\xcc\xcc:@33333\xb3:@333333:@'
p812
tp813
bag502
(g493
(I0
tp814
g504
tp815
Rp816
(I1
(I3
tp817
g510
I00
S'\x00\x00\x00\x00\x00\x00>@\x9a\x99\x99\x99\x99\x19>@ffffff=@'
p818
tp819
bag502
(g493
(I0
tp820
g504
tp821
Rp822
(I1
(I3
tp823
g510
I00
S'fffff\xe63@fffff\xe63@\x00\x00\x00\x00\x00\x004@'
p824
tp825
bag502
(g493
(I0
tp826
g504
tp827
Rp828
(I1
(I3
tp829
g510
I00
S'fffff\xe65@\x9a\x99\x99\x99\x99\x196@\xcd\xcc\xcc\xcc\xcc\xcc5@'
p830
tp831
bag502
(g493
(I0
tp832
g504
tp833
Rp834
(I1
(I3
tp835
g510
I00
S'fffff\xe67@\x00\x00\x00\x00\x00\x807@\xcd\xcc\xcc\xcc\xccL8@'
p836
tp837
bag502
(g493
(I0
tp838
g504
tp839
Rp840
(I1
(I3
tp841
g510
I00
S'3333336@33333\xb35@\xcd\xcc\xcc\xcc\xcc\xcc5@'
p842
tp843
bag502
(g493
(I0
tp844
g504
tp845
Rp846
(I1
(I3
tp847
g510
I00
S'fffff\xe67@ffffff7@\x9a\x99\x99\x99\x99\x997@'
p848
tp849
bag502
(g493
(I0
tp850
g504
tp851
Rp852
(I1
(I3
tp853
g510
I00
S'\x9a\x99\x99\x99\x99\x998@\x9a\x99\x99\x99\x99\x998@\xcd\xcc\xcc\xcc\xccL8@'
p854
tp855
bag502
(g493
(I0
tp856
g504
tp857
Rp858
(I1
(I3
tp859
g510
I00
S'fffff\xe6=@ffffff>@fffff\xe6=@'
p860
tp861
bag502
(g493
(I0
tp862
g504
tp863
Rp864
(I1
(I3
tp865
g510
I00
S'3333337@\xcd\xcc\xcc\xcc\xcc\xcc7@\x00\x00\x00\x00\x00\x807@'
p866
tp867
bag502
(g493
(I0
tp868
g504
tp869
Rp870
(I1
(I3
tp871
g510
I00
S'ffffff:@ffffff:@333333:@'
p872
tp873
bag502
(g493
(I0
tp874
g504
tp875
Rp876
(I1
(I3
tp877
g510
I00
S'\xcd\xcc\xcc\xcc\xcc\xcc8@\x00\x00\x00\x00\x00\x009@\x9a\x99\x99\x99\x99\x998@'
p878
tp879
bag502
(g493
(I0
tp880
g504
tp881
Rp882
(I1
(I3
tp883
g510
I00
S'fffff\xe62@\xcd\xcc\xcc\xcc\xcc\xcc2@\xcd\xcc\xcc\xcc\xcc\xcc2@'
p884
tp885
bag502
(g493
(I0
tp886
g504
tp887
Rp888
(I1
(I3
tp889
g510
I00
S'\x00\x00\x00\x00\x00\x804@\x00\x00\x00\x00\x00\x804@\xcd\xcc\xcc\xcc\xccL4@'
p890
tp891
bag502
(g493
(I0
tp892
g504
tp893
Rp894
(I1
(I3
tp895
g510
I00
S'\xcd\xcc\xcc\xcc\xcc\xcc8@\x00\x00\x00\x00\x00\x009@\x9a\x99\x99\x99\x99\x998@'
p896
tp897
bag502
(g493
(I0
tp898
g504
tp899
Rp900
(I1
(I3
tp901
g510
I00
S'fffff\xe62@\xcd\xcc\xcc\xcc\xcc\xcc2@\xcd\xcc\xcc\xcc\xcc\xcc2@'
p902
tp903
bag502
(g493
(I0
tp904
g504
tp905
Rp906
(I1
(I3
tp907
g510
I00
S'\x00\x00\x00\x00\x00\x804@\x00\x00\x00\x00\x00\x804@\xcd\xcc\xcc\xcc\xccL4@'
p908
tp909
baNaNaNaNaNaNaNaNaNaNaNaNaNaNaNaNaNaNaNaNaNaNaNaNaNaNaNaNaNaNaNaNaNaNaNaNaNaNaNaNaNaNaNasg477
g0
(g478
g2
Ntp910
Rp911
(dp912
g482
Vlength = len(Groups)\u000aStdFilteredGroupedCt = roundValues([filterExtremes(g, max_std, 2) for g in pruneNulls(GroupedCt,    required_length=length)])\u000a 
p913
sg484
VStdFilteredGroupedCt
p914
sg486
I00
sg487
I00
sg488
Vlength = len(Groups)\u000aStdFilteredGroupedCt = roundValues([filterExtremes(g, max_std, 2) for g in pruneNulls(GroupedCt,    required_length=length)])\u000a 
p915
sbsg490
g0
(g491
g492
(g493
g494
tp916
tp917
Rp918
sg484
g914
sbag0
(g312
g2
Ntp919
Rp920
(dp921
g316
I00
sg317
g4
sg318
(lp922
F22.9
aF18.3
aF19.8
aF27.0
aF26.6
aF29.8
aF19.9
aF21.9
aF23.9
aF21.9
aF23.6
aF24.5
aF30.1
aF23.5
aF26.3
aF24.8
aF18.8
aF20.4
aF24.8
aF18.8
aF20.4
aFnan
aFnan
aFnan
aFnan
aFnan
aFnan
aFnan
aFnan
aFnan
aFnan
aFnan
aFnan
aFnan
aFnan
aFnan
aFnan
aFnan
aFnan
aFnan
aFnan
aFnan
aFnan
aFnan
aFnan
aFnan
aFnan
aFnan
aFnan
aFnan
aFnan
aFnan
aFnan
aFnan
aFnan
aFnan
aFnan
aFnan
aFnan
aFnan
aFnan
aFnan
aFnan
aFnan
asg477
g0
(g478
g2
Ntp923
Rp924
(dp925
g482
VMeanCt = [np.mean(g) for g in StdFilteredGroupedCt]\u000aMeanCt = roundValues(MeanCt,1)\u000aStdCt = [np.std(g, ddof=1) for g in StdFilteredGroupedCt]\u000aStdCt = roundValues(StdCt,3)
p926
sg484
VMeanCt
p927
sg486
I00
sg487
I00
sg488
VMeanCt = [np.mean(g) for g in StdFilteredGroupedCt]\u000aMeanCt = roundValues(MeanCt,1)\u000aStdCt = [np.std(g, ddof=1) for g in StdFilteredGroupedCt]\u000aStdCt = roundValues(StdCt,3)
p928
sbsg490
g0
(g491
g492
(g493
g494
tp929
tp930
Rp931
sg484
g927
sbag0
(g312
g2
Ntp932
Rp933
(dp934
g316
I00
sg317
g4
sg318
(lp935
F0.096
aF0.115
aF0.153
aF0.265
aF0.321
aF0.379
aF0.058
aF0.153
aF0.4
aF0.265
aF0.252
aF0.173
aF0.289
aF0.3
aF0.115
aF0.2
aF0.058
aF0.115
aF0.2
aF0.058
aF0.115
aFnan
aFnan
aFnan
aFnan
aFnan
aFnan
aFnan
aFnan
aFnan
aFnan
aFnan
aFnan
aFnan
aFnan
aFnan
aFnan
aFnan
aFnan
aFnan
aFnan
aFnan
aFnan
aFnan
aFnan
aFnan
aFnan
aFnan
aFnan
aFnan
aFnan
aFnan
aFnan
aFnan
aFnan
aFnan
aFnan
aFnan
aFnan
aFnan
aFnan
aFnan
aFnan
aFnan
asg477
g0
(g478
g2
Ntp936
Rp937
(dp938
g482
Nsg638
g933
sg486
I00
sg487
I00
sg488
Nsbsg490
g0
(g491
g492
(g493
g494
tp939
tp940
Rp941
sg484
VStdCt
p942
sbag0
(g312
g2
Ntp943
Rp944
(dp945
g316
I00
sg317
g4
sg318
(lp946
(lp947
g321
(g325
S'\x00\x00\x00\x00\x00\x00\x00\x00'
p948
tp949
Rp950
ag321
(g325
S'\x01\x00\x00\x00\x00\x00\x00\x00'
p951
tp952
Rp953
aa(lp954
g321
(g325
S'\x01\x00\x00\x00\x00\x00\x00\x00'
p955
tp956
Rp957
ag321
(g325
S'\x01\x00\x00\x00\x00\x00\x00\x00'
p958
tp959
Rp960
aa(lp961
g321
(g325
S'\x01\x00\x00\x00\x00\x00\x00\x00'
p962
tp963
Rp964
ag321
(g325
S'\x02\x00\x00\x00\x00\x00\x00\x00'
p965
tp966
Rp967
aa(lp968
g321
(g325
S'\x01\x00\x00\x00\x00\x00\x00\x00'
p969
tp970
Rp971
ag321
(g325
S'\x03\x00\x00\x00\x00\x00\x00\x00'
p972
tp973
Rp974
aa(lp975
g321
(g325
S'\x02\x00\x00\x00\x00\x00\x00\x00'
p976
tp977
Rp978
ag321
(g325
S'\x01\x00\x00\x00\x00\x00\x00\x00'
p979
tp980
Rp981
aa(lp982
g321
(g325
S'\x03\x00\x00\x00\x00\x00\x00\x00'
p983
tp984
Rp985
ag321
(g325
S'\x01\x00\x00\x00\x00\x00\x00\x00'
p986
tp987
Rp988
aa(lp989
g321
(g325
S'\x04\x00\x00\x00\x00\x00\x00\x00'
p990
tp991
Rp992
ag321
(g325
S'\x01\x00\x00\x00\x00\x00\x00\x00'
p993
tp994
Rp995
aaNaNaNaNaNaNaNaNaNaNaNaNaNaNaNaNaNaNaNaNaNaNaNaNaNaNaNaNaNaNaNaNaNaNaNaNaNaNaNaNaNaNaNaNaNaNaNaNaNaNaNaNaNaNaNaNaNasg477
g0
(g478
g2
Ntp996
Rp997
(dp998
g482
Vdummy = tabularize(s, 'Groups', 1, 'MeanCt', \u000a          new_category_colnm='BioRuns',\u000a          values_colnm_prefix='Gene_')
p999
sg484
VBioRuns
p1000
sg486
I00
sg487
I00
sg488
Vdummy = tabularize(s, 'Groups', 1, 'MeanCt', \u000a          new_category_colnm='BioRuns',\u000a          values_colnm_prefix='Gene_')
p1001
sbsg490
g0
(g491
g492
(g493
g494
tp1002
tp1003
Rp1004
sg484
g1000
sbag0
(g312
g2
Ntp1005
Rp1006
(dp1007
g316
I00
sg317
g4
sg318
(lp1008
F22.9
aF27.0
aF26.6
aF29.8
aF30.1
aF24.8
aF24.8
aFnan
aFnan
aFnan
aFnan
aFnan
aFnan
aFnan
aFnan
aFnan
aFnan
aFnan
aFnan
aFnan
aFnan
aFnan
aFnan
aFnan
aFnan
aFnan
aFnan
aFnan
aFnan
aFnan
aFnan
aFnan
aFnan
aFnan
aFnan
aFnan
aFnan
aFnan
aFnan
aFnan
aFnan
aFnan
aFnan
aFnan
aFnan
aFnan
aFnan
aFnan
aFnan
aFnan
aFnan
aFnan
aFnan
aFnan
aFnan
aFnan
aFnan
aFnan
aFnan
aFnan
aFnan
aFnan
aFnan
aFnan
asg477
g0
(g478
g2
Ntp1009
Rp1010
(dp1011
g482
Nsg638
g1006
sg486
I00
sg487
I00
sg488
Nsbsg490
g0
(g491
g492
(g493
g494
tp1012
tp1013
Rp1014
sg484
S'Gene_I'
p1015
sbag0
(g312
g2
Ntp1016
Rp1017
(dp1018
g316
I00
sg317
g4
sg318
(lp1019
F18.3
aF19.9
aF21.9
aF23.9
aF23.5
aF18.8
aF18.8
aFnan
aFnan
aFnan
aFnan
aFnan
aFnan
aFnan
aFnan
aFnan
aFnan
aFnan
aFnan
aFnan
aFnan
aFnan
aFnan
aFnan
aFnan
aFnan
aFnan
aFnan
aFnan
aFnan
aFnan
aFnan
aFnan
aFnan
aFnan
aFnan
aFnan
aFnan
aFnan
aFnan
aFnan
aFnan
aFnan
aFnan
aFnan
aFnan
aFnan
aFnan
aFnan
aFnan
aFnan
aFnan
aFnan
aFnan
aFnan
aFnan
aFnan
aFnan
aFnan
aFnan
aFnan
aFnan
aFnan
aFnan
asg477
g0
(g478
g2
Ntp1020
Rp1021
(dp1022
g482
Nsg638
g1017
sg486
I00
sg487
I00
sg488
Nsbsg490
g1014
sg484
S'Gene_R1'
p1023
sbag0
(g312
g2
Ntp1024
Rp1025
(dp1026
g316
I00
sg317
g4
sg318
(lp1027
F19.8
aF21.9
aF23.6
aF24.5
aF26.3
aF20.4
aF20.4
aFnan
aFnan
aFnan
aFnan
aFnan
aFnan
aFnan
aFnan
aFnan
aFnan
aFnan
aFnan
aFnan
aFnan
aFnan
aFnan
aFnan
aFnan
aFnan
aFnan
aFnan
aFnan
aFnan
aFnan
aFnan
aFnan
aFnan
aFnan
aFnan
aFnan
aFnan
aFnan
aFnan
aFnan
aFnan
aFnan
aFnan
aFnan
aFnan
aFnan
aFnan
aFnan
aFnan
aFnan
aFnan
aFnan
aFnan
aFnan
aFnan
aFnan
aFnan
aFnan
aFnan
aFnan
aFnan
aFnan
aFnan
asg477
g0
(g478
g2
Ntp1028
Rp1029
(dp1030
g482
Nsg638
g1025
sg486
I00
sg487
I00
sg488
Nsbsg490
g1014
sg484
S'Gene_R2'
p1031
sbag0
(g312
g2
Ntp1032
Rp1033
(dp1034
g316
I00
sg317
g4
sg318
(lp1035
F0.04123
aF0.00729
aF0.03847
aF0.01675
aF0.01031
aF0.01563
aF0.01563
aFnan
aFnan
aFnan
aFnan
aFnan
aFnan
aFnan
aFnan
aFnan
aFnan
aFnan
aFnan
aFnan
aFnan
aFnan
aFnan
aFnan
aFnan
aFnan
aFnan
aFnan
aFnan
aFnan
aFnan
aFnan
aFnan
aFnan
aFnan
aFnan
aFnan
aFnan
aFnan
aFnan
aFnan
aFnan
aFnan
aFnan
aFnan
aFnan
aFnan
aFnan
aFnan
aFnan
aFnan
aFnan
aFnan
aFnan
aFnan
aFnan
aFnan
aFnan
aFnan
aFnan
aFnan
aFnan
aFnan
aFnan
asg477
g0
(g478
g2
Ntp1036
Rp1037
(dp1038
g482
VExprR1 = roundValues(2**(Gene_R1 - Gene_I),5)
p1039
sg484
VExprR1
p1040
sg486
I01
sg487
I00
sg488
VroundValues(2**(Gene_R1 - Gene_I),5)
p1041
sbsg490
g0
(g491
g492
(g493
g494
tp1042
tp1043
Rp1044
sg484
g1040
sbag0
(g312
g2
Ntp1045
Rp1046
(dp1047
g316
I00
sg317
g4
sg318
(lp1048
F0.11663
aF0.02916
aF0.125
aF0.02538
aF0.07179
aF0.04737
aF0.04737
aFnan
aFnan
aFnan
aFnan
aFnan
aFnan
aFnan
aFnan
aFnan
aFnan
aFnan
aFnan
aFnan
aFnan
aFnan
aFnan
aFnan
aFnan
aFnan
aFnan
aFnan
aFnan
aFnan
aFnan
aFnan
aFnan
aFnan
aFnan
aFnan
aFnan
aFnan
aFnan
aFnan
aFnan
aFnan
aFnan
aFnan
aFnan
aFnan
aFnan
aFnan
aFnan
aFnan
aFnan
aFnan
aFnan
aFnan
aFnan
aFnan
aFnan
aFnan
aFnan
aFnan
aFnan
aFnan
aFnan
aFnan
asg477
g0
(g478
g2
Ntp1049
Rp1050
(dp1051
g482
VExprR2 = roundValues(2**(Gene_R2 - Gene_I),5)
p1052
sg484
VExprR2
p1053
sg486
I01
sg487
I00
sg488
VroundValues(2**(Gene_R2 - Gene_I),5)
p1054
sbsg490
g0
(g491
g492
(g493
g494
tp1055
tp1056
Rp1057
sg484
g1053
sbag0
(g312
g2
Ntp1058
Rp1059
(dp1060
g316
I00
sg317
g4
sg318
(lp1061
F0.069
aF0.015
aF0.069
aF0.021
aF0.027
aF0.027
aF0.027
aFnan
aFnan
aFnan
aFnan
aFnan
aFnan
aFnan
aFnan
aFnan
aFnan
aFnan
aFnan
aFnan
aFnan
aFnan
aFnan
aFnan
aFnan
aFnan
aFnan
aFnan
aFnan
aFnan
aFnan
aFnan
aFnan
aFnan
aFnan
aFnan
aFnan
aFnan
aFnan
aFnan
aFnan
aFnan
aFnan
aFnan
aFnan
aFnan
aFnan
aFnan
aFnan
aFnan
aFnan
aFnan
aFnan
aFnan
aFnan
aFnan
aFnan
aFnan
aFnan
aFnan
aFnan
aFnan
aFnan
aFnan
asg477
g0
(g478
g2
Ntp1062
Rp1063
(dp1064
g482
VGeoMean = roundValues(np.sqrt(ExprR1*ExprR2), 3)
p1065
sg484
VGeoMean
p1066
sg486
I01
sg487
I00
sg488
VroundValues(np.sqrt(ExprR1*ExprR2), 3)
p1067
sbsg490
g0
(g491
g492
(g493
g494
tp1068
tp1069
Rp1070
sg484
g1066
sbag0
(g312
g2
Ntp1071
Rp1072
(dp1073
g316
I00
sg317
g4
sg318
(lp1074
I1
aI1
aI1
aI1
aI1
aI1
aI1
aI1
aI1
aI1
aI1
aI1
aI1
aI2
aI2
aI2
aI3
aI3
aI3
aI1
aI1
aI1
aI2
aI2
aI2
aI3
aI3
aI3
aI1
aI1
aI1
aI2
aI2
aI2
aI3
aI3
aI3
aI1
aI1
aI1
aI1
aI1
aI1
aI1
aI1
aI1
aI1
aI1
aI1
aI1
aI1
aI1
aI1
aI1
aI1
aI1
aI1
aI1
aI1
aI1
aI1
aI1
aI1
aI1
asg477
g0
(g478
g2
Ntp1075
Rp1076
(dp1077
g482
Nsg484
S'BRpl'
p1078
sg486
I00
sg487
I00
sg488
Nsbsg490
g0
(g491
g492
(cscisheets.core.helpers.extended_array
ExtendedArray
p1079
g494
tp1080
tp1081
Rp1082
sg484
g1078
sbag0
(g312
g2
Ntp1083
Rp1084
(dp1085
g316
I00
sg317
g4
sg318
(lp1086
F23.0
aF22.86
aF22.8
aF23.0
aF18.24
aF18.22
aF18.36
aF19.72
aF19.75
aF20.01
aF26.68
aF27.13
aF27.21
aF26.76
aF26.71
aF26.19
aF29.98
aF30.12
aF29.41
aF19.92
aF19.85
aF20.0
aF21.86
aF22.09
aF21.84
aF23.89
aF23.54
aF24.27
aF22.18
aF21.71
aF21.75
aF23.88
aF23.42
aF23.63
aF24.59
aF24.61
aF24.34
aF29.95
aF30.45
aF29.88
aF23.22
aF23.8
aF23.49
aF26.37
aF26.36
aF26.17
aF24.8
aF24.97
aF24.63
aF18.91
aF18.78
aF18.8
aF20.5
aF20.47
aF20.28
aF24.8
aF24.97
aF24.63
aF18.91
aF18.78
aF18.8
aF20.5
aF20.47
aF20.28
asg477
g0
(g478
g2
Ntp1087
Rp1088
(dp1089
g482
Nsg484
S'Ct'
p1090
sg486
I00
sg487
I00
sg488
Nsbsg490
g1082
sg484
g1090
sbag0
(g312
g2
Ntp1091
Rp1092
(dp1093
g316
I00
sg317
g4
sg318
(lp1094
F0.8371
aF0.891
aF0.8956
aF0.8671
aF0.8266
aF0.8343
aF0.8496
aF0.8157
aF0.8543
aF0.8208
aF0.9399
aF0.8296
aF0.8361
aF0.8039
aF0.8399
aF0.7935
aF0.8264
aF0.7974
aF0.8252
aF0.9179
aF0.9783
aF0.8971
aF0.8957
aF0.8287
aF0.8387
aF0.8746
aF0.8493
aF0.8349
aF0.7857
aF0.8427
aF0.8637
aF0.8281
aF0.8203
aF0.8288
aF0.8138
aF0.8242
aF0.804
aF0.8418
aF0.7959
aF0.8071
aF0.7701
aF0.8746
aF0.8139
aF0.7795
aF0.7676
aF0.7947
aF0.8513
aF0.8485
aF0.8401
aF0.8715
aF0.8977
aF0.856
aF0.8179
aF0.8173
aF0.7894
aF0.8513
aF0.8485
aF0.8401
aF0.8715
aF0.8977
aF0.856
aF0.8179
aF0.8173
aF0.7894
asg477
g0
(g478
g2
Ntp1095
Rp1096
(dp1097
g482
Nsg484
S'Eff'
p1098
sg486
I00
sg487
I00
sg488
Nsbsg490
g1082
sg484
g1098
sbag0
(g312
g2
Ntp1099
Rp1100
(dp1101
g316
I00
sg317
g4
sg318
(lp1102
g331
ag331
ag331
ag331
aVR1
p1103
aVR1
p1104
aVR1
p1105
aVR2
p1106
aVR2
p1107
aVR2
p1108
ag331
ag331
ag331
ag331
ag331
ag331
ag331
ag331
ag331
aVR1
p1109
aVR1
p1110
aVR1
p1111
aVR1
p1112
aVR1
p1113
aVR1
p1114
aVR1
p1115
aVR1
p1116
aVR1
p1117
aVR2
p1118
aVR2
p1119
aVR2
p1120
aVR2
p1121
aVR2
p1122
aVR2
p1123
aVR2
p1124
aVR2
p1125
aVR2
p1126
ag331
ag331
ag331
aVR1
p1127
aVR1
p1128
aVR1
p1129
aVR2
p1130
aVR2
p1131
aVR2
p1132
ag331
ag331
ag331
aVR1
p1133
aVR1
p1134
aVR1
p1135
aVR2
p1136
aVR2
p1137
aVR2
p1138
ag331
ag331
ag331
aVR1
p1139
aVR1
p1140
aVR1
p1141
aVR2
p1142
aVR2
p1143
aVR2
p1144
asg477
g0
(g478
g2
Ntp1145
Rp1146
(dp1147
g482
Nsg484
S'RunType'
p1148
sg486
I00
sg487
I00
sg488
Nsbsg490
g1082
sg484
g1148
sbag0
(g312
g2
Ntp1149
Rp1150
(dp1151
g316
I00
sg317
g4
sg318
(lp1152
Va
p1153
aVb
p1154
aVc
p1155
aVd
p1156
ag1153
ag1154
ag1155
ag1153
ag1154
ag1155
ag1153
ag1154
ag1155
ag1153
ag1154
ag1155
ag1153
ag1154
ag1155
ag1153
ag1154
ag1155
ag1153
ag1154
ag1155
ag1153
ag1154
ag1155
ag1153
ag1154
ag1155
ag1153
ag1154
ag1155
ag1153
ag1154
ag1155
ag1153
ag1154
ag1155
ag1153
ag1154
ag1155
ag1153
ag1154
ag1155
ag1153
ag1154
ag1155
ag1153
ag1154
ag1155
ag1153
ag1154
ag1155
ag1153
ag1154
ag1155
ag1153
ag1154
ag1155
ag1153
ag1154
ag1155
asg477
g0
(g478
g2
Ntp1157
Rp1158
(dp1159
g482
Nsg484
S'TRpl'
p1160
sg486
I00
sg487
I00
sg488
Nsbsg490
g1082
sg484
g1160
sbag0
(g312
g2
Ntp1161
Rp1162
(dp1163
g316
I00
sg317
g4
sg318
(lp1164
I0
aI0
aI0
aI0
aI0
aI0
aI0
aI0
aI0
aI0
aI1
aI1
aI1
aI1
aI1
aI1
aI1
aI1
aI1
aI1
aI1
aI1
aI1
aI1
aI1
aI1
aI1
aI1
aI1
aI1
aI1
aI1
aI1
aI1
aI1
aI1
aI1
aI2
aI2
aI2
aI2
aI2
aI2
aI2
aI2
aI2
aI3
aI3
aI3
aI3
aI3
aI3
aI3
aI3
aI3
aI4
aI4
aI4
aI4
aI4
aI4
aI4
aI4
aI4
asg477
g0
(g478
g2
Ntp1165
Rp1166
(dp1167
g482
Nsg484
S'Treatment'
p1168
sg486
I00
sg487
I00
sg488
Nsbsg490
g1082
sg484
g1168
sbasS'_is_evaluate_formulas'
p1169
I01
sS'_prologue'
p1170
g0
(g478
g2
Ntp1171
Rp1172
(dp1173
g482
V# Prologue\u000aimport math as mt\u000aimport numpy as np\u000afrom os import listdir\u000afrom os.path import isfile, join\u000aimport pandas as pd\u000aimport scipy as sp\u000afrom numpy import nan  # Must follow sympy import \u000a\u000axlsx_path =   '/mnt/hgfs/josephhellerstein/home/Technical/SciSheets/CaseStudies/Kristen/workbooks/data.xlsx'\u000agene = ParmValues[0]\u000arun = ParmValues[1] == 'True'\u000ashow_raw = ParmValues[2] == 'True'\u000ashow_block1 = ParmValues[3] == 'True'\u000ashow_block2 = ParmValues[4] == 'True'\u000ashow_block3 = ParmValues[5] == 'True'\u000ashow_params = ParmValues[8] == 'True'\u000a#show_params = True\u000amax_std  = float(ParmValues[6])\u000amin_eff = float(ParmValues[7])\u000aworksheet = gene + "-I"\u000as.getTable().setIsEvaluateFormulas(run)\u000as.setColumnVisibility()\u000as.setColumnVisibility(['Groups', 'GroupedEff', 'GroupedCt', 'StdFilteredGroupedCt', 'MeanCt',\u000a    'StdCt'], is_visible=show_block1)\u000as.setColumnVisibility(['BioRuns', 'Gene_I', 'Gene_R1', 'Gene_R2', 'ExprR1', 'ExprR2', \u000a    'GeoMean'], is_visible=show_block2)\u000as.setColumnVisibility(['GeoGroups', 'GroupedGeoMeans', 'NrmlGeoGroupedMeans', \u000a    'MeanNrmlGeoGroups', 'StdNrmlGeoGroups'], is_visible=show_block3)\u000aif run:\u000a  Groups = []\u000a  GroupedCt = []\u000a  GroupedEff = []\u000a  MeanCt = []\u000a  Imp = []\u000a  s.deleteColumn('Ct')\u000a  s.deleteColumn('RunType')\u000a  s.deleteColumn('BRpl')\u000a  s.deleteColumn('TRpl')\u000a  s.deleteColumn('Treatment')\u000a  s.deleteColumn('Eff')\u000aif run:\u000a  importExcelToTable(s, xlsx_path, worksheet=worksheet,\u000a      column_position='ParmValues',\u000a      names=['Treatment', 'RunType', 'BRpl', 'TRpl', 'Eff', 'Ct'])\u000as.setColumnVisibility(['BRpl', 'Ct', 'Eff', 'RunType', 'TRpl', 'Treatment'], is_visible=show_raw)\u000as.setColumnVisibility(['ParmNames', 'ParmValues'], show_params)
p1174
sg484
VSingleGene
p1175
sg486
I00
sg487
I00
sg488
V# Prologue\u000aimport math as mt\u000aimport numpy as np\u000afrom os import listdir\u000afrom os.path import isfile, join\u000aimport pandas as pd\u000aimport scipy as sp\u000afrom numpy import nan  # Must follow sympy import \u000a\u000axlsx_path =   '/mnt/hgfs/josephhellerstein/home/Technical/SciSheets/CaseStudies/Kristen/workbooks/data.xlsx'\u000agene = ParmValues[0]\u000arun = ParmValues[1] == 'True'\u000ashow_raw = ParmValues[2] == 'True'\u000ashow_block1 = ParmValues[3] == 'True'\u000ashow_block2 = ParmValues[4] == 'True'\u000ashow_block3 = ParmValues[5] == 'True'\u000ashow_params = ParmValues[8] == 'True'\u000a#show_params = True\u000amax_std  = float(ParmValues[6])\u000amin_eff = float(ParmValues[7])\u000aworksheet = gene + "-I"\u000as.getTable().setIsEvaluateFormulas(run)\u000as.setColumnVisibility()\u000as.setColumnVisibility(['Groups', 'GroupedEff', 'GroupedCt', 'StdFilteredGroupedCt', 'MeanCt',\u000a    'StdCt'], is_visible=show_block1)\u000as.setColumnVisibility(['BioRuns', 'Gene_I', 'Gene_R1', 'Gene_R2', 'ExprR1', 'ExprR2', \u000a    'GeoMean'], is_visible=show_block2)\u000as.setColumnVisibility(['GeoGroups', 'GroupedGeoMeans', 'NrmlGeoGroupedMeans', \u000a    'MeanNrmlGeoGroups', 'StdNrmlGeoGroups'], is_visible=show_block3)\u000aif run:\u000a  Groups = []\u000a  GroupedCt = []\u000a  GroupedEff = []\u000a  MeanCt = []\u000a  Imp = []\u000a  s.deleteColumn('Ct')\u000a  s.deleteColumn('RunType')\u000a  s.deleteColumn('BRpl')\u000a  s.deleteColumn('TRpl')\u000a  s.deleteColumn('Treatment')\u000a  s.deleteColumn('Eff')\u000aif run:\u000a  importExcelToTable(s, xlsx_path, worksheet=worksheet,\u000a      column_position='ParmValues',\u000a      names=['Treatment', 'RunType', 'BRpl', 'TRpl', 'Eff', 'Ct'])\u000as.setColumnVisibility(['BRpl', 'Ct', 'Eff', 'RunType', 'TRpl', 'Treatment'], is_visible=show_raw)\u000as.setColumnVisibility(['ParmNames', 'ParmValues'], show_params)
p1176
sbsS'_epilogue'
p1177
g0
(g478
g2
Ntp1178
Rp1179
(dp1180
g482
V# Epilogue\u000aif run:\u000a  worksheet = "%s-O" % gene\u000a  exportTableToExcel(s, xlsx_path, worksheet=worksheet, columns=['GeoGroups',  \u000a      'MeanNrmlGeoGroups', 'StdNrmlGeoGroups'])\u000a
p1181
sg484
g1175
sg486
I00
sg487
I00
sg488
V# Epilogue\u000aif run:\u000a  worksheet = "%s-O" % gene\u000a  exportTableToExcel(s, xlsx_path, worksheet=worksheet, columns=['GeoGroups',  \u000a      'MeanNrmlGeoGroups', 'StdNrmlGeoGroups'])\u000a
p1182
sbsg484
g1175
sS'_columns'
p1183
(lp1184
g0
(g312
g2
Ntp1185
Rp1186
(dp1187
g316
I01
sg317
g4
sg318
(lp1188
S'1'
p1189
aS'2'
p1190
aS'3'
p1191
aS'4'
p1192
aS'5'
p1193
aS'6'
p1194
aS'7'
p1195
aS'8'
p1196
aS'9'
p1197
aS'10'
p1198
aS'11'
p1199
aS'12'
p1200
aS'13'
p1201
aS'14'
p1202
aS'15'
p1203
aS'16'
p1204
aS'17'
p1205
aS'18'
p1206
aS'19'
p1207
aS'20'
p1208
aS'21'
p1209
aS'22'
p1210
aS'23'
p1211
aS'24'
p1212
aS'25'
p1213
aS'26'
p1214
aS'27'
p1215
aS'28'
p1216
aS'29'
p1217
aS'30'
p1218
aS'31'
p1219
aS'32'
p1220
aS'33'
p1221
aS'34'
p1222
aS'35'
p1223
aS'36'
p1224
aS'37'
p1225
aS'38'
p1226
aS'39'
p1227
aS'40'
p1228
aS'41'
p1229
aS'42'
p1230
aS'43'
p1231
aS'44'
p1232
aS'45'
p1233
aS'46'
p1234
aS'47'
p1235
aS'48'
p1236
aS'49'
p1237
aS'50'
p1238
aS'51'
p1239
aS'52'
p1240
aS'53'
p1241
aS'54'
p1242
aS'55'
p1243
aS'56'
p1244
aS'57'
p1245
aS'58'
p1246
aS'59'
p1247
aS'60'
p1248
aS'61'
p1249
aS'62'
p1250
aS'63'
p1251
aS'64'
p1252
asg477
g0
(g478
g2
Ntp1253
Rp1254
(dp1255
g482
Nsg638
g1186
sg486
I00
sg487
I00
sg488
Nsbsg490
g0
(g491
g492
(g493
g494
tp1256
tp1257
Rp1258
sg484
S'row'
p1259
sbag0
(g312
g2
Ntp1260
Rp1261
(dp1262
g316
I00
sg317
g4
sg318
(lp1263
Vgene
p1264
aVrun
p1265
aVshow_raw
p1266
aVshow_block1
p1267
aVshow_block2
p1268
aVshow_block3
p1269
aVmax_std
p1270
aVmin_eff
p1271
aVshow_params
p1272
aVnan
p1273
aVnan
p1274
aVnan
p1275
aVnan
p1276
aVnan
p1277
aVnan
p1278
aVnan
p1279
aVnan
p1280
aVnan
p1281
aVnan
p1282
aVnan
p1283
aVnan
p1284
aVnan
p1285
aVnan
p1286
aVnan
p1287
aVnan
p1288
aVnan
p1289
aVnan
p1290
aVnan
p1291
aVnan
p1292
aVnan
p1293
aVnan
p1294
aVnan
p1295
aVnan
p1296
aVnan
p1297
aVnan
p1298
aVnan
p1299
aVnan
p1300
aVnan
p1301
aVnan
p1302
aVnan
p1303
aVnan
p1304
aVnan
p1305
aVnan
p1306
aVnan
p1307
aVnan
p1308
aVnan
p1309
aVnan
p1310
aVnan
p1311
aVnan
p1312
aVnan
p1313
aVnan
p1314
aVnan
p1315
aVnan
p1316
aVnan
p1317
aNaNaNaNaNaNaNaNaNaNasg477
g0
(g478
g2
Ntp1318
Rp1319
(dp1320
g482
Nsg638
g1261
sg486
I00
sg487
I00
sg488
Nsbsg490
g0
(g491
g492
(g493
g494
tp1321
tp1322
Rp1323
sg484
VParmNames
p1324
sbag0
(g312
g2
Ntp1325
Rp1326
(dp1327
g316
I00
sg317
g4
sg318
(lp1328
VGene1
p1329
aVTrue
p1330
aVFalse
p1331
aVFalse
p1332
aVFalse
p1333
aVTrue
p1334
aF0.5
aV0.7
p1335
aVTrue
p1336
aV
p1337
aVnan
p1338
aVnan
p1339
aVnan
p1340
aVnan
p1341
aVnan
p1342
aVnan
p1343
aVnan
p1344
aVnan
p1345
aVnan
p1346
aVnan
p1347
aVnan
p1348
aVnan
p1349
aVnan
p1350
aVnan
p1351
aVnan
p1352
aVnan
p1353
aVnan
p1354
aVnan
p1355
aVnan
p1356
aVnan
p1357
aVnan
p1358
aVnan
p1359
aVnan
p1360
aVnan
p1361
aVnan
p1362
aVnan
p1363
aVnan
p1364
aVnan
p1365
aVnan
p1366
aVnan
p1367
aVnan
p1368
aVnan
p1369
aVnan
p1370
aVnan
p1371
aVnan
p1372
aVnan
p1373
aVnan
p1374
aVnan
p1375
aVnan
p1376
aVnan
p1377
aVnan
p1378
aVnan
p1379
aVnan
p1380
aVnan
p1381
aNaNaNaNaNaNaNaNaNaNasg477
g0
(g478
g2
Ntp1382
Rp1383
(dp1384
g482
Nsg484
VParmValues
p1385
sg486
I00
sg487
I00
sg488
Nsbsg490
g0
(g491
g492
(g493
g494
tp1386
tp1387
Rp1388
sg484
g1385
sbag1162
ag1100
ag1072
ag1150
ag1092
ag1084
ag314
ag499
ag644
ag781
ag920
ag933
ag944
ag1006
ag1017
ag1025
ag1033
ag1046
ag1059
ag0
(g312
g2
Ntp1389
Rp1390
(dp1391
g316
I00
sg317
g4
sg318
(lp1392
(lp1393
g321
(g325
S'\x00\x00\x00\x00\x00\x00\x00\x00'
p1394
tp1395
Rp1396
aa(lp1397
g321
(g325
S'\x01\x00\x00\x00\x00\x00\x00\x00'
p1398
tp1399
Rp1400
aa(lp1401
g321
(g325
S'\x02\x00\x00\x00\x00\x00\x00\x00'
p1402
tp1403
Rp1404
aa(lp1405
g321
(g325
S'\x03\x00\x00\x00\x00\x00\x00\x00'
p1406
tp1407
Rp1408
aa(lp1409
g321
(g325
S'\x04\x00\x00\x00\x00\x00\x00\x00'
p1410
tp1411
Rp1412
aaNaNaNaNaNaNaNaNaNaNaNaNaNaNaNaNaNaNaNaNaNaNaNaNaNaNaNaNaNaNaNaNaNaNaNaNaNaNaNaNaNaNaNaNaNaNaNaNaNaNaNaNaNaNaNaNaNaNaNasg477
g0
(g478
g2
Ntp1413
Rp1414
(dp1415
g482
Vcat_vals = [br[0] for br in pruneNulls(BioRuns)]\u000aclean_geo = [x for x in GeoMean if x is not None]\u000aGeoGroups, groupedGeoMeans = groupBy(cat_vals, clean_geo)\u000aGroupedGeoMeans = roundValues(groupedGeoMeans, 3)\u000aGeoGroups = [[x] for x in GeoGroups]
p1416
sg484
VGeoGroups
p1417
sg486
I00
sg487
I00
sg488
Vcat_vals = [br[0] for br in pruneNulls(BioRuns)]\u000aclean_geo = [x for x in GeoMean if x is not None]\u000aGeoGroups, groupedGeoMeans = groupBy(cat_vals, clean_geo)\u000aGroupedGeoMeans = roundValues(groupedGeoMeans, 3)\u000aGeoGroups = [[x] for x in GeoGroups]
p1418
sbsg490
g0
(g491
g492
(g493
g494
tp1419
tp1420
Rp1421
sg484
g1417
sbag0
(g312
g2
Ntp1422
Rp1423
(dp1424
g316
I00
sg317
g4
sg318
(lp1425
g502
(g493
(I0
tp1426
g504
tp1427
Rp1428
(I1
(I1
tp1429
g510
I00
S'D\x8bl\xe7\xfb\xa9\xb1?'
p1430
tp1431
bag502
(g493
(I0
tp1432
g504
tp1433
Rp1434
(I1
(I3
tp1435
g510
I00
S'\xb8\x1e\x85\xebQ\xb8\x8e?D\x8bl\xe7\xfb\xa9\xb1?\x1b/\xdd$\x06\x81\x95?'
p1436
tp1437
bag502
(g493
(I0
tp1438
g504
tp1439
Rp1440
(I1
(I1
tp1441
g510
I00
S'\xd9\xce\xf7S\xe3\xa5\x9b?'
p1442
tp1443
bag502
(g493
(I0
tp1444
g504
tp1445
Rp1446
(I1
(I1
tp1447
g510
I00
S'\xd9\xce\xf7S\xe3\xa5\x9b?'
p1448
tp1449
bag502
(g493
(I0
tp1450
g504
tp1451
Rp1452
(I1
(I1
tp1453
g510
I00
S'\xd9\xce\xf7S\xe3\xa5\x9b?'
p1454
tp1455
baNaNaNaNaNaNaNaNaNaNaNaNaNaNaNaNaNaNaNaNaNaNaNaNaNaNaNaNaNaNaNaNaNaNaNaNaNaNaNaNaNaNaNaNaNaNaNaNaNaNaNaNaNaNaNaNaNaNaNasg477
g0
(g478
g2
Ntp1456
Rp1457
(dp1458
g482
Nsg638
g1423
sg486
I00
sg487
I00
sg488
Nsbsg490
g0
(g491
g492
(g493
g494
tp1459
tp1460
Rp1461
sg484
VGroupedGeoMeans
p1462
sbag0
(g312
g2
Ntp1463
Rp1464
(dp1465
g316
I00
sg317
g4
sg318
(lp1466
g502
(g493
(I0
tp1467
g504
tp1468
Rp1469
(I1
(I1
tp1470
g510
I00
S'\x00\x00\x00\x00\x00\x00\xf0?'
p1471
tp1472
bag502
(g493
(I0
tp1473
g504
tp1474
Rp1475
(I1
(I3
tp1476
g510
I00
S'-\xb2\x9d\xef\xa7\xc6\xcb?\x00\x00\x00\x00\x00\x00\xf0?\xdb\xf9~j\xbct\xd3?'
p1477
tp1478
bag502
(g493
(I0
tp1479
g504
tp1480
Rp1481
(I1
(I1
tp1482
g510
I00
S'\xa0\x1a/\xdd$\x06\xd9?'
p1483
tp1484
bag502
(g493
(I0
tp1485
g504
tp1486
Rp1487
(I1
(I1
tp1488
g510
I00
S'\xa0\x1a/\xdd$\x06\xd9?'
p1489
tp1490
bag502
(g493
(I0
tp1491
g504
tp1492
Rp1493
(I1
(I1
tp1494
g510
I00
S'\xa0\x1a/\xdd$\x06\xd9?'
p1495
tp1496
baNaNaNaNaNaNaNaNaNaNaNaNaNaNaNaNaNaNaNaNaNaNaNaNaNaNaNaNaNaNaNaNaNaNaNaNaNaNaNaNaNaNaNaNaNaNaNaNaNaNaNaNaNaNaNaNaNaNaNasg477
g0
(g478
g2
Ntp1497
Rp1498
(dp1499
g482
Vref = np.mean(GroupedGeoMeans[0])\u000aNrmlGeoGroupedMeans = [ [x/ref for x in g] for g in GroupedGeoMeans if g is not None]  \u000aNrmlGeoGroupedMeans = roundValues(NrmlGeoGroupedMeans, 3)
p1500
sg484
VNrmlGeoGroupedMeans
p1501
sg486
I00
sg487
I00
sg488
Vref = np.mean(GroupedGeoMeans[0])\u000aNrmlGeoGroupedMeans = [ [x/ref for x in g] for g in GroupedGeoMeans if g is not None]  \u000aNrmlGeoGroupedMeans = roundValues(NrmlGeoGroupedMeans, 3)
p1502
sbsg490
g0
(g491
g492
(g493
g494
tp1503
tp1504
Rp1505
sg484
g1501
sbag0
(g312
g2
Ntp1506
Rp1507
(dp1508
g316
I00
sg317
g4
sg318
(lp1509
F1.0
aF0.507
aF0.391
aF0.391
aF0.391
aFnan
aFnan
aFnan
aFnan
aFnan
aFnan
aFnan
aFnan
aFnan
aFnan
aFnan
aFnan
aFnan
aFnan
aFnan
aFnan
aFnan
aFnan
aFnan
aFnan
aFnan
aFnan
aFnan
aFnan
aFnan
aFnan
aFnan
aFnan
aFnan
aFnan
aFnan
aFnan
aFnan
aFnan
aFnan
aFnan
aFnan
aFnan
aFnan
aFnan
aFnan
aFnan
aFnan
aFnan
aFnan
aFnan
aFnan
aFnan
aFnan
aFnan
aFnan
aFnan
aFnan
aFnan
aFnan
aFnan
aFnan
aFnan
aFnan
asg477
g0
(g478
g2
Ntp1510
Rp1511
(dp1512
g482
VMeanNrmlGeoGroups = [round(np.mean(g), 3) for g in NrmlGeoGroupedMeans]
p1513
sg484
VMeanNrmlGeoGroups
p1514
sg486
I01
sg487
I00
sg488
V[round(np.mean(g), 3) for g in NrmlGeoGroupedMeans]
p1515
sbsg490
g0
(g491
g492
(g493
g494
tp1516
tp1517
Rp1518
sg484
g1514
sbag0
(g312
g2
Ntp1519
Rp1520
(dp1521
g316
I00
sg317
g4
sg318
(lp1522
Fnan
aF0.248
aFnan
aFnan
aFnan
aFnan
aFnan
aFnan
aFnan
aFnan
aFnan
aFnan
aFnan
aFnan
aFnan
aFnan
aFnan
aFnan
aFnan
aFnan
aFnan
aFnan
aFnan
aFnan
aFnan
aFnan
aFnan
aFnan
aFnan
aFnan
aFnan
aFnan
aFnan
aFnan
aFnan
aFnan
aFnan
aFnan
aFnan
aFnan
aFnan
aFnan
aFnan
aFnan
aFnan
aFnan
aFnan
aFnan
aFnan
aFnan
aFnan
aFnan
aFnan
aFnan
aFnan
aFnan
aFnan
aFnan
aFnan
aFnan
aFnan
aFnan
aFnan
aFnan
asg477
g0
(g478
g2
Ntp1523
Rp1524
(dp1525
g482
VStdNrmlGeoGroups = [round(np.std(g, ddof=1)/np.sqrt(len(g)), 3) for g in NrmlGeoGroupedMeans]\u000a
p1526
sg484
VStdNrmlGeoGroups
p1527
sg486
I01
sg487
I00
sg488
V[round(np.std(g, ddof=1)/np.sqrt(len(g)), 3) for g in NrmlGeoGroupedMeans]\u000a
p1528
sbsg490
g0
(g491
g492
(g493
g494
tp1529
tp1530
Rp1531
sg484
g1527
sbasg305
V/home/ubuntu/SciSheets/mysite/user/guest/tables/kristen_single_gene.pcl
p1532
sb.