ccopy_reg
_reconstructor
p0
(cscisheets.ui.dt_table
DTTable
p1
c__builtin__
object
p2
Ntp3
Rp4
(dp5
S'_versioned_file'
p6
g0
(cmysite.helpers.versioned_file
VersionedFile
p7
g2
Ntp8
Rp9
(dp10
S'_redo_stack'
p11
g0
(cmysite.helpers.file_stack
FileStack
p12
g2
Ntp13
Rp14
(dp15
S'_dirpath'
p16
S'/home/ubuntu/SciSheets/mysite/user/guest/tables/backup'
p17
sS'_max_depth'
p18
I5
sS'_filename_pfx'
p19
Vkristen_single_gene.r
p20
sbsS'_max_versions'
p21
I5
sS'_undo_stack'
p22
g0
(g12
g2
Ntp23
Rp24
(dp25
g16
g17
sg18
I5
sg19
Vkristen_single_gene.u
p26
sbsS'_checkpoint_history'
p27
(lp28
VCell/Update
p29
aVCell/Update
p30
aVCell/Update
p31
aVCell/Update
p32
aVCell/Update
p33
aVCell/Update
p34
aVCell/Update
p35
aVCell/Update
p36
aVCell/Update
p37
aVCell/Update
p38
aVCell/Update
p39
aVCell/Update
p40
aVColumn/Formula
p41
aVColumn/Formula
p42
aVColumn/Append
p43
aVColumn/Formula
p44
aVColumn/Delete
p45
aVCell/Update
p46
aVColumn/Formula
p47
aVCell/Update
p48
aVCell/Update
p49
aVColumn/Formula
p50
aVColumn/Formula
p51
aVCell/Update
p52
aVColumn/Formula
p53
aVColumn/Formula
p54
aVCell/Update
p55
aVCell/Update
p56
aVCell/Update
p57
aVCell/Update
p58
aVColumn/Formula
p59
aVCell/Update
p60
aVCell/Update
p61
aVCell/Update
p62
aVColumn/Formula
p63
aVCell/Update
p64
aVColumn/Formula
p65
aVColumn/Formula
p66
aVCell/Update
p67
aVCell/Update
p68
aVCell/Update
p69
aVCell/Update
p70
aVCell/Update
p71
aVCell/Update
p72
aVCell/Update
p73
aVCell/Update
p74
aVCell/Update
p75
aVColumn/Formula
p76
aVCell/Update
p77
aVCell/Update
p78
aVCell/Update
p79
aVCell/Update
p80
aVCell/Update
p81
aVCell/Update
p82
aVCell/Update
p83
aVCell/Update
p84
aVCell/Update
p85
aVCell/Update
p86
aVCell/Update
p87
aVCell/Update
p88
aVColumn/Formula
p89
aVColumn/Formula
p90
aVColumn/Formula
p91
aVCell/Update
p92
aVCell/Update
p93
aVCell/Update
p94
aVCell/Update
p95
aVCell/Update
p96
aVColumn/Formula
p97
aVCell/Update
p98
aVCell/Update
p99
aVCell/Update
p100
aVCell/Update
p101
aVCell/Update
p102
aVCell/Update
p103
aVCell/Update
p104
aVColumn/Formula
p105
aVColumn/Formula
p106
aVColumn/Formula
p107
aVCell/Update
p108
aVCell/Update
p109
aVColumn/Formula
p110
aVCell/Update
p111
aVCell/Update
p112
aVCell/Update
p113
aVCell/Update
p114
aVCell/Update
p115
aVCell/Update
p116
aVCell/Update
p117
aVCell/Update
p118
aVColumn/Formula
p119
aVCell/Update
p120
aVColumn/Formula
p121
aVColumn/Formula
p122
aVColumn/Formula
p123
aVCell/Update
p124
aVCell/Update
p125
aVColumn/Formula
p126
aVColumn/Formula
p127
aVColumn/Formula
p128
aVColumn/Formula
p129
aVCell/Update
p130
aVColumn/Formula
p131
aVColumn/Formula
p132
aVColumn/Formula
p133
aVCell/Update
p134
aVCell/Update
p135
aVCell/Update
p136
aVCell/Update
p137
aVCell/Update
p138
aVCell/Update
p139
aVCell/Update
p140
aVCell/Update
p141
aVCell/Update
p142
aVCell/Update
p143
aVColumn/Formula
p144
aVColumn/Formula
p145
aVColumn/Formula
p146
aVColumn/Formula
p147
aVCell/Update
p148
aVCell/Update
p149
aVColumn/Formula
p150
aVCell/Update
p151
aVCell/Update
p152
aVCell/Update
p153
aVCell/Update
p154
aVCell/Update
p155
aVCell/Update
p156
aVCell/Update
p157
aVCell/Update
p158
aVCell/Update
p159
aVCell/Update
p160
aVCell/Update
p161
aVCell/Update
p162
aVCell/Update
p163
aVColumn/Formula
p164
aVColumn/Formula
p165
aVCell/Update
p166
aVCell/Update
p167
aVCell/Update
p168
aVColumn/Formula
p169
aVCell/Update
p170
aVCell/Update
p171
aVCell/Update
p172
aVCell/Update
p173
aVColumn/Formula
p174
aVColumn/Formula
p175
aVColumn/Formula
p176
aVColumn/Formula
p177
aVCell/Update
p178
aVColumn/Formula
p179
aVCell/Update
p180
aVCell/Update
p181
aVCell/Update
p182
aVCell/Update
p183
aVCell/Update
p184
aVCell/Update
p185
aVCell/Update
p186
aVCell/Update
p187
aVCell/Update
p188
aVColumn/Formula
p189
aVCell/Update
p190
aVCell/Update
p191
aVCell/Update
p192
aVCell/Update
p193
aVCell/Update
p194
aVCell/Update
p195
aVCell/Update
p196
aVCell/Update
p197
aVCell/Update
p198
aVCell/Update
p199
aVCell/Update
p200
aVCell/Update
p201
aVCell/Update
p202
aVCell/Update
p203
aVCell/Update
p204
aVCell/Update
p205
aVCell/Update
p206
aVCell/Update
p207
aVCell/Update
p208
aVCell/Update
p209
aVCell/Update
p210
aVCell/Update
p211
aVCell/Update
p212
aVCell/Update
p213
aVCell/Update
p214
aVCell/Update
p215
aVCell/Update
p216
aVCell/Update
p217
aVCell/Update
p218
aVCell/Update
p219
aVCell/Update
p220
aVCell/Update
p221
aVCell/Update
p222
aVCell/Update
p223
aVCell/Update
p224
aVCell/Update
p225
aVCell/Update
p226
aVCell/Update
p227
aVCell/Update
p228
aVCell/Update
p229
aVCell/Update
p230
aVCell/Update
p231
aVCell/Update
p232
aVCell/Update
p233
aVCell/Update
p234
aVCell/Update
p235
aVCell/Update
p236
aVCell/Update
p237
aVCell/Update
p238
aVCell/Update
p239
aVCell/Update
p240
aVCell/Update
p241
aVCell/Update
p242
aVCell/Update
p243
aVCell/Update
p244
aVCell/Update
p245
aVCell/Update
p246
aVCell/Update
p247
aVCell/Update
p248
aVCell/Update
p249
aVCell/Update
p250
aVCell/Update
p251
aVCell/Update
p252
aVCell/Update
p253
aVCell/Update
p254
aVCell/Update
p255
aVCell/Update
p256
aVCell/Update
p257
aVCell/Update
p258
aVCell/Update
p259
aVCell/Update
p260
aVCell/Update
p261
aVCell/Update
p262
aVCell/Update
p263
aVCell/Update
p264
aVCell/Update
p265
aVCell/Update
p266
aVCell/Update
p267
aVCell/Update
p268
aVCell/Update
p269
aVCell/Update
p270
aVCell/Update
p271
aVColumn/Formula
p272
aVColumn/Formula
p273
aVCell/Update
p274
aVCell/Update
p275
aVCell/Update
p276
aVCell/Update
p277
aVColumn/Formula
p278
aVColumn/Formula
p279
aVColumn/Formula
p280
aVCell/Update
p281
aVCell/Update
p282
aVCell/Update
p283
aVCell/Update
p284
aVColumn/Formula
p285
aVColumn/Formula
p286
aVColumn/Formula
p287
aVCell/Update
p288
aVCell/Update
p289
aVColumn/Formula
p290
aVCell/Update
p291
aVCell/Update
p292
aVCell/Update
p293
aVCell/Update
p294
aVCell/Update
p295
aVCell/Update
p296
aVColumn/Formula
p297
aVCell/Update
p298
aVColumn/Formula
p299
aVCell/Update
p300
aVCell/Update
p301
aVColumn/Formula
p302
aVColumn/Formula
p303
aVCell/Update
p304
aVCell/Update
p305
aVCell/Update
p306
aVCell/Update
p307
aVColumn/Formula
p308
aVColumn/Formula
p309
aVColumn/Formula
p310
aVColumn/Formula
p311
asS'_filepath'
p312
V/home/ubuntu/SciSheets/mysite/user/guest/tables/kristen_single_gene.pcl
p313
sS'_backup_dir'
p314
g17
sbsS'_namespace'
p315
(dp316
sS'_hidden_columns'
p317
(lp318
g0
(cscisheets.core.column
Column
p319
g2
Ntp320
Rp321
(dp322
S'_asis'
p323
I00
sS'_owning_table'
p324
g4
sS'_cells'
p325
(lp326
(lp327
cnumpy.core.multiarray
scalar
p328
(cnumpy
dtype
p329
(S'f8'
p330
I0
I1
tp331
Rp332
(I3
S'<'
p333
NNNI-1
I-1
I0
tp334
bS'\x00\x00\x00\x00\x00\x00\x00\x00'
p335
tp336
Rp337
aVI
p338
ag328
(g332
S'\x00\x00\x00\x00\x00\x00\xf0?'
p339
tp340
Rp341
aa(lp342
g328
(g332
S'\x00\x00\x00\x00\x00\x00\x00\x00'
p343
tp344
Rp345
aVR1
p346
ag328
(g332
S'\x00\x00\x00\x00\x00\x00\xf0?'
p347
tp348
Rp349
aa(lp350
g328
(g332
S'\x00\x00\x00\x00\x00\x00\x00\x00'
p351
tp352
Rp353
aVR2
p354
ag328
(g332
S'\x00\x00\x00\x00\x00\x00\xf0?'
p355
tp356
Rp357
aa(lp358
g328
(g332
S'\x00\x00\x00\x00\x00\x00\xf0?'
p359
tp360
Rp361
ag338
ag328
(g332
S'\x00\x00\x00\x00\x00\x00\xf0?'
p362
tp363
Rp364
aa(lp365
g328
(g332
S'\x00\x00\x00\x00\x00\x00\xf0?'
p366
tp367
Rp368
ag338
ag328
(g332
S'\x00\x00\x00\x00\x00\x00\x00@'
p369
tp370
Rp371
aa(lp372
g328
(g332
S'\x00\x00\x00\x00\x00\x00\xf0?'
p373
tp374
Rp375
ag338
ag328
(g332
S'\x00\x00\x00\x00\x00\x00\x08@'
p376
tp377
Rp378
aa(lp379
g328
(g332
S'\x00\x00\x00\x00\x00\x00\xf0?'
p380
tp381
Rp382
ag346
ag328
(g332
S'\x00\x00\x00\x00\x00\x00\xf0?'
p383
tp384
Rp385
aa(lp386
g328
(g332
S'\x00\x00\x00\x00\x00\x00\xf0?'
p387
tp388
Rp389
ag346
ag328
(g332
S'\x00\x00\x00\x00\x00\x00\x00@'
p390
tp391
Rp392
aa(lp393
g328
(g332
S'\x00\x00\x00\x00\x00\x00\xf0?'
p394
tp395
Rp396
ag346
ag328
(g332
S'\x00\x00\x00\x00\x00\x00\x08@'
p397
tp398
Rp399
aa(lp400
g328
(g332
S'\x00\x00\x00\x00\x00\x00\xf0?'
p401
tp402
Rp403
ag354
ag328
(g332
S'\x00\x00\x00\x00\x00\x00\xf0?'
p404
tp405
Rp406
aa(lp407
g328
(g332
S'\x00\x00\x00\x00\x00\x00\xf0?'
p408
tp409
Rp410
ag354
ag328
(g332
S'\x00\x00\x00\x00\x00\x00\x00@'
p411
tp412
Rp413
aa(lp414
g328
(g332
S'\x00\x00\x00\x00\x00\x00\xf0?'
p415
tp416
Rp417
ag354
ag328
(g332
S'\x00\x00\x00\x00\x00\x00\x08@'
p418
tp419
Rp420
aa(lp421
g328
(g332
S'\x00\x00\x00\x00\x00\x00\x00@'
p422
tp423
Rp424
ag338
ag328
(g332
S'\x00\x00\x00\x00\x00\x00\xf0?'
p425
tp426
Rp427
aa(lp428
g328
(g332
S'\x00\x00\x00\x00\x00\x00\x00@'
p429
tp430
Rp431
ag346
ag328
(g332
S'\x00\x00\x00\x00\x00\x00\xf0?'
p432
tp433
Rp434
aa(lp435
g328
(g332
S'\x00\x00\x00\x00\x00\x00\x00@'
p436
tp437
Rp438
ag354
ag328
(g332
S'\x00\x00\x00\x00\x00\x00\xf0?'
p439
tp440
Rp441
aa(lp442
g328
(g332
S'\x00\x00\x00\x00\x00\x00\x08@'
p443
tp444
Rp445
ag338
ag328
(g332
S'\x00\x00\x00\x00\x00\x00\xf0?'
p446
tp447
Rp448
aa(lp449
g328
(g332
S'\x00\x00\x00\x00\x00\x00\x08@'
p450
tp451
Rp452
ag346
ag328
(g332
S'\x00\x00\x00\x00\x00\x00\xf0?'
p453
tp454
Rp455
aa(lp456
g328
(g332
S'\x00\x00\x00\x00\x00\x00\x08@'
p457
tp458
Rp459
ag354
ag328
(g332
S'\x00\x00\x00\x00\x00\x00\xf0?'
p460
tp461
Rp462
aaNaNaNaNaNaNaNaNaNaNaNaNaNaNaNaNaNaNaNaNaNaNaNaNaNaNaNaNaNaNaNaNaNaNaNaNaNaNaNaNaNaNaNaNaNaNasS'_formula_statement'
p463
g0
(cscisheets.core.helpers.formula_statement
FormulaStatement
p464
g2
Ntp465
Rp466
(dp467
S'_statement'
p468
Vsel = Eff > min_eff\u000agrouping_columns = [\u000a    Treatment[sel],\u000a     RunType[sel], \u000a    BRpl[sel],      \u000a  ]\u000aGroups, groupedCt = groupBy(\u000a     grouping_columns, Ct[sel])\u000aGroups, groupedEff = groupBy(\u000a     grouping_columns, Eff[sel])\u000aGroups = [[g[0], g[1], g[2]] for g in Groups]\u000aGroupedCt = roundValues(groupedCt,2)\u000aGroupedEff = roundValues(groupedEff,2)
p469
sS'_name'
p470
VGroups
p471
sS'_isExpression'
p472
I00
sS'_isStatement'
p473
I00
sS'_formula'
p474
Vsel = Eff > min_eff\u000agrouping_columns = [\u000a    Treatment[sel],\u000a     RunType[sel], \u000a    BRpl[sel],      \u000a  ]\u000aGroups, groupedCt = groupBy(\u000a     grouping_columns, Ct[sel])\u000aGroups, groupedEff = groupBy(\u000a     grouping_columns, Eff[sel])\u000aGroups = [[g[0], g[1], g[2]] for g in Groups]\u000aGroupedCt = roundValues(groupedCt,2)\u000aGroupedEff = roundValues(groupedEff,2)
p475
sbsS'_data_class'
p476
g0
(cscisheets.core.helpers.api_util
DataClass
p477
c__builtin__
tuple
p478
(cnumpy
ndarray
p479
cscisheets.core.helpers.api_util
makeArray
p480
tp481
tp482
Rp483
sg470
g471
sbag0
(g319
g2
Ntp484
Rp485
(dp486
g323
I00
sg324
g4
sg325
(lp487
(lp488
F0.92
aF0.91
aF0.91
aa(lp489
F0.83
aF0.83
aF0.85
aa(lp490
F0.82
aF0.85
aF0.82
aa(lp491
F0.85
aF0.84
aF0.85
aa(lp492
F0.87
aF0.78
aF0.85
aa(lp493
F0.84
aF0.84
aF0.77
aa(lp494
F0.92
aF0.98
aF0.9
aa(lp495
F0.9
aF0.83
aF0.84
aa(lp496
F0.87
aF0.85
aF0.83
aa(lp497
F0.79
aF0.84
aF0.86
aa(lp498
F0.83
aF0.82
aF0.83
aa(lp499
F0.81
aF0.82
aF0.8
aa(lp500
F0.84
aF0.79
aF0.81
aa(lp501
F0.77
aF0.87
aF0.81
aa(lp502
F0.78
aF0.77
aF0.79
aa(lp503
F0.88
aF0.86
aF0.89
aa(lp504
F0.87
aF0.9
aF0.86
aa(lp505
F0.82
aF0.82
aF0.79
aaNaNaNaNaNaNaNaNaNaNaNaNaNaNaNaNaNaNaNaNaNaNaNaNaNaNaNaNaNaNaNaNaNaNaNaNaNaNaNaNaNaNaNaNaNaNasg463
g0
(g464
g2
Ntp506
Rp507
(dp508
g468
NsS'_column'
p509
g485
sg472
I00
sg473
I00
sg474
Nsbsg476
g0
(g477
g478
(g479
g480
tp510
tp511
Rp512
sg470
VGroupedEff
p513
sbag0
(g319
g2
Ntp514
Rp515
(dp516
g323
I00
sg324
g4
sg325
(lp517
(lp518
F18.31
aF18.29
aF18.15
aa(lp519
F18.24
aF18.22
aF18.36
aa(lp520
F19.72
aF19.75
aF20.01
aa(lp521
F22.42
aF22.5
aF22.44
aa(lp522
F21.92
aF22.03
aF21.94
aa(lp523
F23.4
aF23.47
aF23.41
aa(lp524
F19.92
aF19.85
aF20.0
aa(lp525
F21.86
aF22.09
aF21.84
aa(lp526
F23.89
aF23.54
aF24.27
aa(lp527
F22.18
aF21.71
aF21.75
aa(lp528
F23.88
aF23.42
aF23.63
aa(lp529
F24.59
aF24.61
aF24.34
aa(lp530
F23.48
aF23.31
aF23.45
aa(lp531
F23.22
aF23.8
aF23.49
aa(lp532
F26.37
aF26.36
aF26.17
aa(lp533
F18.82
aF18.97
aF18.92
aa(lp534
F18.91
aF18.78
aF18.8
aa(lp535
F20.5
aF20.47
aF20.28
aaNaNaNaNaNaNaNaNaNaNaNaNaNaNaNaNaNaNaNaNaNaNaNaNaNaNaNaNaNaNaNaNaNaNaNaNaNaNaNaNaNaNaNaNaNaNasg463
g0
(g464
g2
Ntp536
Rp537
(dp538
g468
Nsg509
g515
sg472
I00
sg473
I00
sg474
Nsbsg476
g0
(g477
g478
(g479
g480
tp539
tp540
Rp541
sg470
VGroupedCt
p542
sbag0
(g319
g2
Ntp543
Rp544
(dp545
g323
I00
sg324
g4
sg325
(lp546
(lp547
F18.3
aF18.3
aF18.1
aa(lp548
F18.2
aF18.2
aF18.4
aa(lp549
F19.7
aF19.8
aF20.0
aa(lp550
F22.4
aF22.5
aF22.4
aa(lp551
F21.9
aF22.0
aF21.9
aa(lp552
F23.4
aF23.5
aF23.4
aa(lp553
F19.9
aF19.9
aF20.0
aa(lp554
F21.9
aF22.1
aF21.8
aa(lp555
F23.9
aF23.5
aF24.3
aa(lp556
F22.2
aF21.7
aF21.8
aa(lp557
F23.9
aF23.4
aF23.6
aa(lp558
F24.6
aF24.6
aF24.3
aa(lp559
F23.5
aF23.3
aF23.4
aa(lp560
F23.2
aF23.8
aF23.5
aa(lp561
F26.4
aF26.4
aF26.2
aa(lp562
F18.8
aF19.0
aF18.9
aa(lp563
F18.9
aF18.8
aF18.8
aa(lp564
F20.5
aF20.5
aF20.3
aaNaNaNaNaNaNaNaNaNaNaNaNaNaNaNaNaNaNaNaNaNaNaNaNaNaNaNaNaNaNaNaNaNaNaNaNaNaNaNaNaNaNaNaNaNaNasg463
g0
(g464
g2
Ntp565
Rp566
(dp567
g468
Vlength = len(Groups)\u000aStdFilteredGroupedCt = roundValues([filterExtremes(g, max_std, 2) for g in pruneNulls(GroupedCt,    required_length=length)])\u000a 
p568
sg470
VStdFilteredGroupedCt
p569
sg472
I00
sg473
I00
sg474
Vlength = len(Groups)\u000aStdFilteredGroupedCt = roundValues([filterExtremes(g, max_std, 2) for g in pruneNulls(GroupedCt,    required_length=length)])\u000a 
p570
sbsg476
g0
(g477
g478
(g479
g480
tp571
tp572
Rp573
sg470
g569
sbag0
(g319
g2
Ntp574
Rp575
(dp576
g323
I00
sg324
g4
sg325
(lp577
F18.2
aF18.3
aF19.8
aF22.4
aF21.9
aF23.4
aF19.9
aF21.9
aF23.9
aF21.9
aF23.6
aF24.5
aF23.4
aF23.5
aF26.3
aF18.9
aF18.8
aF20.4
aFnan
aFnan
aFnan
aFnan
aFnan
aFnan
aFnan
aFnan
aFnan
aFnan
aFnan
aFnan
aFnan
aFnan
aFnan
aFnan
aFnan
aFnan
aFnan
aFnan
aFnan
aFnan
aFnan
aFnan
aFnan
aFnan
aFnan
aFnan
aFnan
aFnan
aFnan
aFnan
aFnan
aFnan
aFnan
aFnan
aFnan
aFnan
aFnan
aFnan
aFnan
aFnan
aFnan
aFnan
aFnan
aFnan
asg463
g0
(g464
g2
Ntp578
Rp579
(dp580
g468
VMeanCt = [np.mean(g) for g in StdFilteredGroupedCt]\u000aMeanCt = roundValues(MeanCt,1)\u000aStdCt = [np.std(g, ddof=1) for g in StdFilteredGroupedCt]\u000aStdCt = roundValues(StdCt,3)
p581
sg470
VMeanCt
p582
sg472
I00
sg473
I00
sg474
VMeanCt = [np.mean(g) for g in StdFilteredGroupedCt]\u000aMeanCt = roundValues(MeanCt,1)\u000aStdCt = [np.std(g, ddof=1) for g in StdFilteredGroupedCt]\u000aStdCt = roundValues(StdCt,3)
p583
sbsg476
g0
(g477
g478
(g479
g480
tp584
tp585
Rp586
sg470
g582
sbag0
(g319
g2
Ntp587
Rp588
(dp589
g323
I00
sg324
g4
sg325
(lp590
F0.115
aF0.115
aF0.153
aF0.058
aF0.058
aF0.058
aF0.058
aF0.153
aF0.4
aF0.265
aF0.252
aF0.173
aF0.1
aF0.3
aF0.115
aF0.1
aF0.058
aF0.115
aFnan
aFnan
aFnan
aFnan
aFnan
aFnan
aFnan
aFnan
aFnan
aFnan
aFnan
aFnan
aFnan
aFnan
aFnan
aFnan
aFnan
aFnan
aFnan
aFnan
aFnan
aFnan
aFnan
aFnan
aFnan
aFnan
aFnan
aFnan
aFnan
aFnan
aFnan
aFnan
aFnan
aFnan
aFnan
aFnan
aFnan
aFnan
aFnan
aFnan
aFnan
aFnan
aFnan
aFnan
aFnan
aFnan
asg463
g0
(g464
g2
Ntp591
Rp592
(dp593
g468
Nsg509
g588
sg472
I00
sg473
I00
sg474
Nsbsg476
g0
(g477
g478
(g479
g480
tp594
tp595
Rp596
sg470
VStdCt
p597
sbag0
(g319
g2
Ntp598
Rp599
(dp600
g323
I00
sg324
g4
sg325
(lp601
(lp602
g328
(g332
S'\x00\x00\x00\x00\x00\x00\x00\x00'
p603
tp604
Rp605
ag328
(g332
S'\x00\x00\x00\x00\x00\x00\xf0?'
p606
tp607
Rp608
aa(lp609
g328
(g332
S'\x00\x00\x00\x00\x00\x00\xf0?'
p610
tp611
Rp612
ag328
(g332
S'\x00\x00\x00\x00\x00\x00\xf0?'
p613
tp614
Rp615
aa(lp616
g328
(g332
S'\x00\x00\x00\x00\x00\x00\xf0?'
p617
tp618
Rp619
ag328
(g332
S'\x00\x00\x00\x00\x00\x00\x00@'
p620
tp621
Rp622
aa(lp623
g328
(g332
S'\x00\x00\x00\x00\x00\x00\xf0?'
p624
tp625
Rp626
ag328
(g332
S'\x00\x00\x00\x00\x00\x00\x08@'
p627
tp628
Rp629
aa(lp630
g328
(g332
S'\x00\x00\x00\x00\x00\x00\x00@'
p631
tp632
Rp633
ag328
(g332
S'\x00\x00\x00\x00\x00\x00\xf0?'
p634
tp635
Rp636
aa(lp637
g328
(g332
S'\x00\x00\x00\x00\x00\x00\x08@'
p638
tp639
Rp640
ag328
(g332
S'\x00\x00\x00\x00\x00\x00\xf0?'
p641
tp642
Rp643
aaNaNaNaNaNaNaNaNaNaNaNaNaNaNaNaNaNaNaNaNaNaNaNaNaNaNaNaNaNaNaNaNaNaNaNaNaNaNaNaNaNaNaNaNaNaNaNaNaNaNaNaNaNaNaNaNaNaNasg463
g0
(g464
g2
Ntp644
Rp645
(dp646
g468
Vdummy = tabularize(s, 'Groups', 1, 'MeanCt', \u000a          new_category_colnm='BioRuns',\u000a          values_colnm_prefix='Gene_')
p647
sg470
VBioRuns
p648
sg472
I00
sg473
I00
sg474
Vdummy = tabularize(s, 'Groups', 1, 'MeanCt', \u000a          new_category_colnm='BioRuns',\u000a          values_colnm_prefix='Gene_')
p649
sbsg476
g0
(g477
g478
(g479
g480
tp650
tp651
Rp652
sg470
g648
sbag0
(g319
g2
Ntp653
Rp654
(dp655
g323
I00
sg324
g4
sg325
(lp656
F18.2
aF22.4
aF21.9
aF23.4
aF23.4
aF18.9
aFnan
aFnan
aFnan
aFnan
aFnan
aFnan
aFnan
aFnan
aFnan
aFnan
aFnan
aFnan
aFnan
aFnan
aFnan
aFnan
aFnan
aFnan
aFnan
aFnan
aFnan
aFnan
aFnan
aFnan
aFnan
aFnan
aFnan
aFnan
aFnan
aFnan
aFnan
aFnan
aFnan
aFnan
aFnan
aFnan
aFnan
aFnan
aFnan
aFnan
aFnan
aFnan
aFnan
aFnan
aFnan
aFnan
aFnan
aFnan
aFnan
aFnan
aFnan
aFnan
aFnan
aFnan
aFnan
aFnan
aFnan
aFnan
asg463
g0
(g464
g2
Ntp657
Rp658
(dp659
g468
Nsg509
g654
sg472
I00
sg473
I00
sg474
Nsbsg476
g0
(g477
g478
(g479
g480
tp660
tp661
Rp662
sg470
S'Gene_I'
p663
sbag0
(g319
g2
Ntp664
Rp665
(dp666
g323
I00
sg324
g4
sg325
(lp667
F18.3
aF19.9
aF21.9
aF23.9
aF23.5
aF18.8
aFnan
aFnan
aFnan
aFnan
aFnan
aFnan
aFnan
aFnan
aFnan
aFnan
aFnan
aFnan
aFnan
aFnan
aFnan
aFnan
aFnan
aFnan
aFnan
aFnan
aFnan
aFnan
aFnan
aFnan
aFnan
aFnan
aFnan
aFnan
aFnan
aFnan
aFnan
aFnan
aFnan
aFnan
aFnan
aFnan
aFnan
aFnan
aFnan
aFnan
aFnan
aFnan
aFnan
aFnan
aFnan
aFnan
aFnan
aFnan
aFnan
aFnan
aFnan
aFnan
aFnan
aFnan
aFnan
aFnan
aFnan
aFnan
asg463
g0
(g464
g2
Ntp668
Rp669
(dp670
g468
Nsg509
g665
sg472
I00
sg473
I00
sg474
Nsbsg476
g662
sg470
S'Gene_R1'
p671
sbag0
(g319
g2
Ntp672
Rp673
(dp674
g323
I00
sg324
g4
sg325
(lp675
F19.8
aF21.9
aF23.6
aF24.5
aF26.3
aF20.4
aFnan
aFnan
aFnan
aFnan
aFnan
aFnan
aFnan
aFnan
aFnan
aFnan
aFnan
aFnan
aFnan
aFnan
aFnan
aFnan
aFnan
aFnan
aFnan
aFnan
aFnan
aFnan
aFnan
aFnan
aFnan
aFnan
aFnan
aFnan
aFnan
aFnan
aFnan
aFnan
aFnan
aFnan
aFnan
aFnan
aFnan
aFnan
aFnan
aFnan
aFnan
aFnan
aFnan
aFnan
aFnan
aFnan
aFnan
aFnan
aFnan
aFnan
aFnan
aFnan
aFnan
aFnan
aFnan
aFnan
aFnan
aFnan
asg463
g0
(g464
g2
Ntp676
Rp677
(dp678
g468
Nsg509
g673
sg472
I00
sg473
I00
sg474
Nsbsg476
g662
sg470
S'Gene_R2'
p679
sbag0
(g319
g2
Ntp680
Rp681
(dp682
g323
I00
sg324
g4
sg325
(lp683
F1.07177
aF0.17678
aF1.0
aF1.41421
aF1.07177
aF0.93303
aFnan
aFnan
aFnan
aFnan
aFnan
aFnan
aFnan
aFnan
aFnan
aFnan
aFnan
aFnan
aFnan
aFnan
aFnan
aFnan
aFnan
aFnan
aFnan
aFnan
aFnan
aFnan
aFnan
aFnan
aFnan
aFnan
aFnan
aFnan
aFnan
aFnan
aFnan
aFnan
aFnan
aFnan
aFnan
aFnan
aFnan
aFnan
aFnan
aFnan
aFnan
aFnan
aFnan
aFnan
aFnan
aFnan
aFnan
aFnan
aFnan
aFnan
aFnan
aFnan
aFnan
aFnan
aFnan
aFnan
aFnan
aFnan
asg463
g0
(g464
g2
Ntp684
Rp685
(dp686
g468
VExprR1 = roundValues(2**(Gene_R1 - Gene_I),5)
p687
sg470
VExprR1
p688
sg472
I01
sg473
I00
sg474
VroundValues(2**(Gene_R1 - Gene_I),5)
p689
sbsg476
g0
(g477
g478
(g479
g480
tp690
tp691
Rp692
sg470
g688
sbag0
(g319
g2
Ntp693
Rp694
(dp695
g323
I00
sg324
g4
sg325
(lp696
F3.03143
aF0.70711
aF3.24901
aF2.14355
aF7.46426
aF2.82843
aFnan
aFnan
aFnan
aFnan
aFnan
aFnan
aFnan
aFnan
aFnan
aFnan
aFnan
aFnan
aFnan
aFnan
aFnan
aFnan
aFnan
aFnan
aFnan
aFnan
aFnan
aFnan
aFnan
aFnan
aFnan
aFnan
aFnan
aFnan
aFnan
aFnan
aFnan
aFnan
aFnan
aFnan
aFnan
aFnan
aFnan
aFnan
aFnan
aFnan
aFnan
aFnan
aFnan
aFnan
aFnan
aFnan
aFnan
aFnan
aFnan
aFnan
aFnan
aFnan
aFnan
aFnan
aFnan
aFnan
aFnan
aFnan
asg463
g0
(g464
g2
Ntp697
Rp698
(dp699
g468
VExprR2 = roundValues(2**(Gene_R2 - Gene_I),5)
p700
sg470
VExprR2
p701
sg472
I01
sg473
I00
sg474
VroundValues(2**(Gene_R2 - Gene_I),5)
p702
sbsg476
g0
(g477
g478
(g479
g480
tp703
tp704
Rp705
sg470
g701
sbag0
(g319
g2
Ntp706
Rp707
(dp708
g323
I00
sg324
g4
sg325
(lp709
F1.802
aF0.354
aF1.803
aF1.741
aF2.828
aF1.625
aFnan
aFnan
aFnan
aFnan
aFnan
aFnan
aFnan
aFnan
aFnan
aFnan
aFnan
aFnan
aFnan
aFnan
aFnan
aFnan
aFnan
aFnan
aFnan
aFnan
aFnan
aFnan
aFnan
aFnan
aFnan
aFnan
aFnan
aFnan
aFnan
aFnan
aFnan
aFnan
aFnan
aFnan
aFnan
aFnan
aFnan
aFnan
aFnan
aFnan
aFnan
aFnan
aFnan
aFnan
aFnan
aFnan
aFnan
aFnan
aFnan
aFnan
aFnan
aFnan
aFnan
aFnan
aFnan
aFnan
aFnan
aFnan
asg463
g0
(g464
g2
Ntp710
Rp711
(dp712
g468
VGeoMean = roundValues(np.sqrt(ExprR1*ExprR2), 3)
p713
sg470
VGeoMean
p714
sg472
I01
sg473
I00
sg474
VroundValues(np.sqrt(ExprR1*ExprR2), 3)
p715
sbsg476
g0
(g477
g478
(g479
g480
tp716
tp717
Rp718
sg470
g714
sbag0
(g319
g2
Ntp719
Rp720
(dp721
g323
I00
sg324
g4
sg325
(lp722
F1.0
aF1.0
aF1.0
aF1.0
aF1.0
aF1.0
aF1.0
aF1.0
aF1.0
aF1.0
aF1.0
aF1.0
aF2.0
aF2.0
aF2.0
aF3.0
aF3.0
aF3.0
aF1.0
aF1.0
aF1.0
aF2.0
aF2.0
aF2.0
aF3.0
aF3.0
aF3.0
aF1.0
aF1.0
aF1.0
aF2.0
aF2.0
aF2.0
aF3.0
aF3.0
aF3.0
aF1.0
aF1.0
aF1.0
aF1.0
aF1.0
aF1.0
aF1.0
aF1.0
aF1.0
aF1.0
aF1.0
aF1.0
aF1.0
aF1.0
aF1.0
aF1.0
aF1.0
aF1.0
aFnan
aFnan
aFnan
aFnan
aFnan
aFnan
aFnan
aFnan
aFnan
aFnan
asg463
g0
(g464
g2
Ntp723
Rp724
(dp725
g468
Nsg470
S'BRpl'
p726
sg472
I00
sg473
I00
sg474
Nsbsg476
g0
(g477
g478
(cscisheets.core.helpers.extended_array
ExtendedArray
p727
g480
tp728
tp729
Rp730
sg470
g726
sbag0
(g319
g2
Ntp731
Rp732
(dp733
g323
I00
sg324
g4
sg325
(lp734
F18.31
aF18.29
aF18.15
aF18.24
aF18.22
aF18.36
aF19.72
aF19.75
aF20.01
aF22.42
aF22.5
aF22.44
aF21.92
aF22.03
aF21.94
aF23.4
aF23.47
aF23.41
aF19.92
aF19.85
aF20.0
aF21.86
aF22.09
aF21.84
aF23.89
aF23.54
aF24.27
aF22.18
aF21.71
aF21.75
aF23.88
aF23.42
aF23.63
aF24.59
aF24.61
aF24.34
aF23.48
aF23.31
aF23.45
aF23.22
aF23.8
aF23.49
aF26.37
aF26.36
aF26.17
aF18.82
aF18.97
aF18.92
aF18.91
aF18.78
aF18.8
aF20.5
aF20.47
aF20.28
aFnan
aFnan
aFnan
aFnan
aFnan
aFnan
aFnan
aFnan
aFnan
aFnan
asg463
g0
(g464
g2
Ntp735
Rp736
(dp737
g468
Nsg470
S'Ct'
p738
sg472
I00
sg473
I00
sg474
Nsbsg476
g730
sg470
g738
sbag0
(g319
g2
Ntp739
Rp740
(dp741
g323
I00
sg324
g4
sg325
(lp742
F0.919
aF0.9106
aF0.9129
aF0.8266
aF0.8343
aF0.8496
aF0.8157
aF0.8543
aF0.8208
aF0.8453
aF0.8426
aF0.8524
aF0.8658
aF0.7809
aF0.8512
aF0.8442
aF0.8357
aF0.7658
aF0.9179
aF0.9783
aF0.8971
aF0.8957
aF0.8287
aF0.8387
aF0.8746
aF0.8493
aF0.8349
aF0.7857
aF0.8427
aF0.8637
aF0.8281
aF0.8203
aF0.8288
aF0.8138
aF0.8242
aF0.804
aF0.8352
aF0.7886
aF0.8105
aF0.7701
aF0.8746
aF0.8139
aF0.7795
aF0.7676
aF0.7947
aF0.876
aF0.8597
aF0.8873
aF0.8715
aF0.8977
aF0.856
aF0.8179
aF0.8173
aF0.7894
aFnan
aFnan
aFnan
aFnan
aFnan
aFnan
aFnan
aFnan
aFnan
aFnan
asg463
g0
(g464
g2
Ntp743
Rp744
(dp745
g468
Nsg470
S'Eff'
p746
sg472
I00
sg473
I00
sg474
Nsbsg476
g730
sg470
g746
sbag0
(g319
g2
Ntp747
Rp748
(dp749
g323
I00
sg324
g4
sg325
(lp750
g338
ag338
ag338
ag346
ag346
ag346
ag354
ag354
ag354
ag338
ag338
ag338
ag338
ag338
ag338
ag338
ag338
ag338
ag346
ag346
ag346
ag346
ag346
ag346
ag346
ag346
ag346
ag354
ag354
ag354
ag354
ag354
ag354
ag354
ag354
ag354
ag338
ag338
ag338
ag346
ag346
ag346
ag354
ag354
ag354
ag338
ag338
ag338
ag346
ag346
ag346
ag354
ag354
ag354
aNaNaNaNaNaNaNaNaNaNasg463
g0
(g464
g2
Ntp751
Rp752
(dp753
g468
Nsg470
S'RunType'
p754
sg472
I00
sg473
I00
sg474
Nsbsg476
g730
sg470
g754
sbag0
(g319
g2
Ntp755
Rp756
(dp757
g323
I00
sg324
g4
sg325
(lp758
Va
p759
aVb
p760
aVc
p761
ag759
ag760
ag761
ag759
ag760
ag761
ag759
ag760
ag761
ag759
ag760
ag761
ag759
ag760
ag761
ag759
ag760
ag761
ag759
ag760
ag761
ag759
ag760
ag761
ag759
ag760
ag761
ag759
ag760
ag761
ag759
ag760
ag761
ag759
ag760
ag761
ag759
ag760
ag761
ag759
ag760
ag761
ag759
ag760
ag761
ag759
ag760
ag761
ag759
ag760
ag761
aNaNaNaNaNaNaNaNaNaNasg463
g0
(g464
g2
Ntp762
Rp763
(dp764
g468
Nsg470
S'TRpl'
p765
sg472
I00
sg473
I00
sg474
Nsbsg476
g730
sg470
g765
sbag0
(g319
g2
Ntp766
Rp767
(dp768
g323
I00
sg324
g4
sg325
(lp769
F0.0
aF0.0
aF0.0
aF0.0
aF0.0
aF0.0
aF0.0
aF0.0
aF0.0
aF1.0
aF1.0
aF1.0
aF1.0
aF1.0
aF1.0
aF1.0
aF1.0
aF1.0
aF1.0
aF1.0
aF1.0
aF1.0
aF1.0
aF1.0
aF1.0
aF1.0
aF1.0
aF1.0
aF1.0
aF1.0
aF1.0
aF1.0
aF1.0
aF1.0
aF1.0
aF1.0
aF2.0
aF2.0
aF2.0
aF2.0
aF2.0
aF2.0
aF2.0
aF2.0
aF2.0
aF3.0
aF3.0
aF3.0
aF3.0
aF3.0
aF3.0
aF3.0
aF3.0
aF3.0
aFnan
aFnan
aFnan
aFnan
aFnan
aFnan
aFnan
aFnan
aFnan
aFnan
asg463
g0
(g464
g2
Ntp770
Rp771
(dp772
g468
Nsg470
S'Treatment'
p773
sg472
I00
sg473
I00
sg474
Nsbsg476
g730
sg470
g773
sbasS'_is_evaluate_formulas'
p774
I01
sS'_prologue'
p775
g0
(g464
g2
Ntp776
Rp777
(dp778
g468
V# Prologue\u000aimport math as mt\u000aimport numpy as np\u000afrom os import listdir\u000afrom os.path import isfile, join\u000aimport pandas as pd\u000aimport scipy as sp\u000afrom numpy import nan  # Must follow sympy import \u000a\u000axlsx_path =   '/mnt/hgfs/josephhellerstein/home/Technical/SciSheets/CaseStudies/Kristen/workbooks/data.xlsx'\u000agene = ParmValues[0]\u000arun = ParmValues[1] == 'True'\u000ashow_raw = ParmValues[2] == 'True'\u000ashow_block1 = ParmValues[3] == 'True'\u000ashow_block2 = ParmValues[4] == 'True'\u000ashow_block3 = ParmValues[5] == 'True'\u000ashow_params = ParmValues[8] == 'True'\u000a#show_params = True\u000amax_std  = float(ParmValues[6])\u000amin_eff = float(ParmValues[7])\u000aworksheet = gene + "-I"\u000as.getTable().setIsEvaluateFormulas(run)\u000as.setColumnVisibility()\u000as.setColumnVisibility(['Groups', 'GroupedEff', 'GroupedCt', 'StdFilteredGroupedCt', 'MeanCt',\u000a    'StdCt'], is_visible=show_block1)\u000as.setColumnVisibility(['BioRuns', 'Gene_I', 'Gene_R1', 'Gene_R2', 'ExprR1', 'ExprR2', \u000a    'GeoMean'], is_visible=show_block2)\u000as.setColumnVisibility(['GeoGroups', 'GroupedGeoMeans', 'NrmlGeoGroupedMeans', \u000a    'MeanNrmlGeoGroups', 'StdNrmlGeoGroups'], is_visible=show_block3)\u000aif run:\u000a  Groups = []\u000a  GroupedCt = []\u000a  GroupedEff = []\u000a  MeanCt = []\u000a  Imp = []\u000a  s.deleteColumn('Ct')\u000a  s.deleteColumn('RunType')\u000a  s.deleteColumn('BRpl')\u000a  s.deleteColumn('TRpl')\u000a  s.deleteColumn('Treatment')\u000a  s.deleteColumn('Eff')\u000aif run:\u000a  importExcelToTable(s, xlsx_path, worksheet=worksheet,\u000a      column_position='ParmValues',\u000a      names=['Treatment', 'RunType', 'BRpl', 'TRpl', 'Eff', 'Ct'])\u000as.setColumnVisibility(['BRpl', 'Ct', 'Eff', 'RunType', 'TRpl', 'Treatment'], is_visible=show_raw)\u000as.setColumnVisibility(['ParmNames', 'ParmValues'], show_params)
p779
sg470
VSingleGene
p780
sg472
I00
sg473
I00
sg474
V# Prologue\u000aimport math as mt\u000aimport numpy as np\u000afrom os import listdir\u000afrom os.path import isfile, join\u000aimport pandas as pd\u000aimport scipy as sp\u000afrom numpy import nan  # Must follow sympy import \u000a\u000axlsx_path =   '/mnt/hgfs/josephhellerstein/home/Technical/SciSheets/CaseStudies/Kristen/workbooks/data.xlsx'\u000agene = ParmValues[0]\u000arun = ParmValues[1] == 'True'\u000ashow_raw = ParmValues[2] == 'True'\u000ashow_block1 = ParmValues[3] == 'True'\u000ashow_block2 = ParmValues[4] == 'True'\u000ashow_block3 = ParmValues[5] == 'True'\u000ashow_params = ParmValues[8] == 'True'\u000a#show_params = True\u000amax_std  = float(ParmValues[6])\u000amin_eff = float(ParmValues[7])\u000aworksheet = gene + "-I"\u000as.getTable().setIsEvaluateFormulas(run)\u000as.setColumnVisibility()\u000as.setColumnVisibility(['Groups', 'GroupedEff', 'GroupedCt', 'StdFilteredGroupedCt', 'MeanCt',\u000a    'StdCt'], is_visible=show_block1)\u000as.setColumnVisibility(['BioRuns', 'Gene_I', 'Gene_R1', 'Gene_R2', 'ExprR1', 'ExprR2', \u000a    'GeoMean'], is_visible=show_block2)\u000as.setColumnVisibility(['GeoGroups', 'GroupedGeoMeans', 'NrmlGeoGroupedMeans', \u000a    'MeanNrmlGeoGroups', 'StdNrmlGeoGroups'], is_visible=show_block3)\u000aif run:\u000a  Groups = []\u000a  GroupedCt = []\u000a  GroupedEff = []\u000a  MeanCt = []\u000a  Imp = []\u000a  s.deleteColumn('Ct')\u000a  s.deleteColumn('RunType')\u000a  s.deleteColumn('BRpl')\u000a  s.deleteColumn('TRpl')\u000a  s.deleteColumn('Treatment')\u000a  s.deleteColumn('Eff')\u000aif run:\u000a  importExcelToTable(s, xlsx_path, worksheet=worksheet,\u000a      column_position='ParmValues',\u000a      names=['Treatment', 'RunType', 'BRpl', 'TRpl', 'Eff', 'Ct'])\u000as.setColumnVisibility(['BRpl', 'Ct', 'Eff', 'RunType', 'TRpl', 'Treatment'], is_visible=show_raw)\u000as.setColumnVisibility(['ParmNames', 'ParmValues'], show_params)
p781
sbsS'_epilogue'
p782
g0
(g464
g2
Ntp783
Rp784
(dp785
g468
V# Epilogue\u000aif run:\u000a  worksheet = "%s-O" % gene\u000a  exportTableToExcel(s, xlsx_path, worksheet=worksheet, columns=['GeoGroups',  \u000a      'MeanNrmlGeoGroups', 'StdNrmlGeoGroups'])\u000a
p786
sg470
g780
sg472
I00
sg473
I00
sg474
V# Epilogue\u000aif run:\u000a  worksheet = "%s-O" % gene\u000a  exportTableToExcel(s, xlsx_path, worksheet=worksheet, columns=['GeoGroups',  \u000a      'MeanNrmlGeoGroups', 'StdNrmlGeoGroups'])\u000a
p787
sbsg470
g780
sS'_columns'
p788
(lp789
g0
(g319
g2
Ntp790
Rp791
(dp792
g323
I01
sg324
g4
sg325
(lp793
S'1'
p794
aS'2'
p795
aS'3'
p796
aS'4'
p797
aS'5'
p798
aS'6'
p799
aS'7'
p800
aS'8'
p801
aS'9'
p802
aS'10'
p803
aS'11'
p804
aS'12'
p805
aS'13'
p806
aS'14'
p807
aS'15'
p808
aS'16'
p809
aS'17'
p810
aS'18'
p811
aS'19'
p812
aS'20'
p813
aS'21'
p814
aS'22'
p815
aS'23'
p816
aS'24'
p817
aS'25'
p818
aS'26'
p819
aS'27'
p820
aS'28'
p821
aS'29'
p822
aS'30'
p823
aS'31'
p824
aS'32'
p825
aS'33'
p826
aS'34'
p827
aS'35'
p828
aS'36'
p829
aS'37'
p830
aS'38'
p831
aS'39'
p832
aS'40'
p833
aS'41'
p834
aS'42'
p835
aS'43'
p836
aS'44'
p837
aS'45'
p838
aS'46'
p839
aS'47'
p840
aS'48'
p841
aS'49'
p842
aS'50'
p843
aS'51'
p844
aS'52'
p845
aS'53'
p846
aS'54'
p847
aS'55'
p848
aS'56'
p849
aS'57'
p850
aS'58'
p851
aS'59'
p852
aS'60'
p853
aS'61'
p854
aS'62'
p855
aS'63'
p856
aS'64'
p857
asg463
g0
(g464
g2
Ntp858
Rp859
(dp860
g468
Nsg509
g791
sg472
I00
sg473
I00
sg474
Nsbsg476
g0
(g477
g478
(g479
g480
tp861
tp862
Rp863
sg470
S'row'
p864
sbag0
(g319
g2
Ntp865
Rp866
(dp867
g323
I00
sg324
g4
sg325
(lp868
Vgene
p869
aVrun
p870
aVshow_raw
p871
aVshow_block1
p872
aVshow_block2
p873
aVshow_block3
p874
aVmax_std
p875
aVmin_eff
p876
aVshow_params
p877
aVnan
p878
aVnan
p879
aVnan
p880
aVnan
p881
aVnan
p882
aVnan
p883
aVnan
p884
aVnan
p885
aVnan
p886
aVnan
p887
aVnan
p888
aVnan
p889
aVnan
p890
aVnan
p891
aVnan
p892
aVnan
p893
aVnan
p894
aVnan
p895
aVnan
p896
aVnan
p897
aVnan
p898
aVnan
p899
aVnan
p900
aVnan
p901
aVnan
p902
aVnan
p903
aVnan
p904
aVnan
p905
aVnan
p906
aVnan
p907
aVnan
p908
aVnan
p909
aVnan
p910
aVnan
p911
aVnan
p912
aVnan
p913
aVnan
p914
aVnan
p915
aVnan
p916
aVnan
p917
aVnan
p918
aVnan
p919
aVnan
p920
aVnan
p921
aVnan
p922
aNaNaNaNaNaNaNaNaNaNasg463
g0
(g464
g2
Ntp923
Rp924
(dp925
g468
Nsg509
g866
sg472
I00
sg473
I00
sg474
Nsbsg476
g0
(g477
g478
(g479
g480
tp926
tp927
Rp928
sg470
VParmNames
p929
sbag0
(g319
g2
Ntp930
Rp931
(dp932
g323
I00
sg324
g4
sg325
(lp933
VGene2
p934
aVTrue
p935
aVFalse
p936
aVFalse
p937
aVFalse
p938
aVTrue
p939
aF0.5
aV0.7
p940
aVTrue
p941
aV
p942
aVnan
p943
aVnan
p944
aVnan
p945
aVnan
p946
aVnan
p947
aVnan
p948
aVnan
p949
aVnan
p950
aVnan
p951
aVnan
p952
aVnan
p953
aVnan
p954
aVnan
p955
aVnan
p956
aVnan
p957
aVnan
p958
aVnan
p959
aVnan
p960
aVnan
p961
aVnan
p962
aVnan
p963
aVnan
p964
aVnan
p965
aVnan
p966
aVnan
p967
aVnan
p968
aVnan
p969
aVnan
p970
aVnan
p971
aVnan
p972
aVnan
p973
aVnan
p974
aVnan
p975
aVnan
p976
aVnan
p977
aVnan
p978
aVnan
p979
aVnan
p980
aVnan
p981
aVnan
p982
aVnan
p983
aVnan
p984
aVnan
p985
aVnan
p986
aNaNaNaNaNaNaNaNaNaNasg463
g0
(g464
g2
Ntp987
Rp988
(dp989
g468
Nsg470
VParmValues
p990
sg472
I00
sg473
I00
sg474
Nsbsg476
g0
(g477
g478
(g479
g480
tp991
tp992
Rp993
sg470
g990
sbag767
ag748
ag720
ag756
ag740
ag732
ag321
ag485
ag515
ag544
ag575
ag588
ag599
ag654
ag665
ag673
ag681
ag694
ag707
ag0
(g319
g2
Ntp994
Rp995
(dp996
g323
I00
sg324
g4
sg325
(lp997
(lp998
g328
(g332
S'\x00\x00\x00\x00\x00\x00\x00\x00'
p999
tp1000
Rp1001
aa(lp1002
g328
(g332
S'\x00\x00\x00\x00\x00\x00\xf0?'
p1003
tp1004
Rp1005
aa(lp1006
g328
(g332
S'\x00\x00\x00\x00\x00\x00\x00@'
p1007
tp1008
Rp1009
aa(lp1010
g328
(g332
S'\x00\x00\x00\x00\x00\x00\x08@'
p1011
tp1012
Rp1013
aaNaNaNaNaNaNaNaNaNaNaNaNaNaNaNaNaNaNaNaNaNaNaNaNaNaNaNaNaNaNaNaNaNaNaNaNaNaNaNaNaNaNaNaNaNaNaNaNaNaNaNaNaNaNaNaNaNaNaNaNasg463
g0
(g464
g2
Ntp1014
Rp1015
(dp1016
g468
Vcat_vals = [br[0] for br in pruneNulls(BioRuns)]\u000aclean_geo = [x for x in GeoMean if x is not None]\u000aGeoGroups, groupedGeoMeans = groupBy(cat_vals, clean_geo)\u000aGroupedGeoMeans = roundValues(groupedGeoMeans, 3)\u000aGeoGroups = [[x] for x in GeoGroups]
p1017
sg470
VGeoGroups
p1018
sg472
I00
sg473
I00
sg474
Vcat_vals = [br[0] for br in pruneNulls(BioRuns)]\u000aclean_geo = [x for x in GeoMean if x is not None]\u000aGeoGroups, groupedGeoMeans = groupBy(cat_vals, clean_geo)\u000aGroupedGeoMeans = roundValues(groupedGeoMeans, 3)\u000aGeoGroups = [[x] for x in GeoGroups]
p1019
sbsg476
g0
(g477
g478
(g479
g480
tp1020
tp1021
Rp1022
sg470
g1018
sbag0
(g319
g2
Ntp1023
Rp1024
(dp1025
g323
I00
sg324
g4
sg325
(lp1026
cnumpy.core.multiarray
_reconstruct
p1027
(g479
(I0
tp1028
S'b'
p1029
tp1030
Rp1031
(I1
(I1
tp1032
g332
I00
S'\xa2E\xb6\xf3\xfd\xd4\xfc?'
p1033
tp1034
bag1027
(g479
(I0
tp1035
g1029
tp1036
Rp1037
(I1
(I3
tp1038
g332
I00
S'\x0e-\xb2\x9d\xef\xa7\xd6?\x0c\x02+\x87\x16\xd9\xfc?B`\xe5\xd0"\xdb\xfb?'
p1039
tp1040
bag1027
(g479
(I0
tp1041
g1029
tp1042
Rp1043
(I1
(I1
tp1044
g332
I00
S'9\xb4\xc8v\xbe\x9f\x06@'
p1045
tp1046
bag1027
(g479
(I0
tp1047
g1029
tp1048
Rp1049
(I1
(I1
tp1050
g332
I00
S'\x00\x00\x00\x00\x00\x00\xfa?'
p1051
tp1052
baNaNaNaNaNaNaNaNaNaNaNaNaNaNaNaNaNaNaNaNaNaNaNaNaNaNaNaNaNaNaNaNaNaNaNaNaNaNaNaNaNaNaNaNaNaNaNaNaNaNaNaNaNaNaNaNaNaNaNaNasg463
g0
(g464
g2
Ntp1053
Rp1054
(dp1055
g468
Nsg509
g1024
sg472
I00
sg473
I00
sg474
Nsbsg476
g0
(g477
g478
(g479
g480
tp1056
tp1057
Rp1058
sg470
VGroupedGeoMeans
p1059
sbag0
(g319
g2
Ntp1060
Rp1061
(dp1062
g323
I00
sg324
g4
sg325
(lp1063
g1027
(g479
(I0
tp1064
g1029
tp1065
Rp1066
(I1
(I1
tp1067
g332
I00
S'\x00\x00\x00\x00\x00\x00\xf0?'
p1068
tp1069
bag1027
(g479
(I0
tp1070
g1029
tp1071
Rp1072
(I1
(I3
tp1073
g332
I00
S'J\x0c\x02+\x87\x16\xc9?j\xbct\x93\x18\x04\xf0?\xb6\xf3\xfd\xd4x\xe9\xee?'
p1074
tp1075
bag1027
(g479
(I0
tp1076
g1029
tp1077
Rp1078
(I1
(I1
tp1079
g332
I00
S'\xb4\xc8v\xbe\x9f\x1a\xf9?'
p1080
tp1081
bag1027
(g479
(I0
tp1082
g1029
tp1083
Rp1084
(I1
(I1
tp1085
g332
I00
S'w\xbe\x9f\x1a/\xdd\xec?'
p1086
tp1087
baNaNaNaNaNaNaNaNaNaNaNaNaNaNaNaNaNaNaNaNaNaNaNaNaNaNaNaNaNaNaNaNaNaNaNaNaNaNaNaNaNaNaNaNaNaNaNaNaNaNaNaNaNaNaNaNaNaNaNaNasg463
g0
(g464
g2
Ntp1088
Rp1089
(dp1090
g468
Vref = np.mean(GroupedGeoMeans[0])\u000aNrmlGeoGroupedMeans = [ [x/ref for x in g] for g in GroupedGeoMeans if g is not None]  \u000aNrmlGeoGroupedMeans = roundValues(NrmlGeoGroupedMeans, 3)
p1091
sg470
VNrmlGeoGroupedMeans
p1092
sg472
I00
sg473
I00
sg474
Vref = np.mean(GroupedGeoMeans[0])\u000aNrmlGeoGroupedMeans = [ [x/ref for x in g] for g in GroupedGeoMeans if g is not None]  \u000aNrmlGeoGroupedMeans = roundValues(NrmlGeoGroupedMeans, 3)
p1093
sbsg476
g0
(g477
g478
(g479
g480
tp1094
tp1095
Rp1096
sg470
g1092
sbag0
(g319
g2
Ntp1097
Rp1098
(dp1099
g323
I00
sg324
g4
sg325
(lp1100
F1.0
aF0.721
aF1.569
aF0.902
aFnan
aFnan
aFnan
aFnan
aFnan
aFnan
aFnan
aFnan
aFnan
aFnan
aFnan
aFnan
aFnan
aFnan
aFnan
aFnan
aFnan
aFnan
aFnan
aFnan
aFnan
aFnan
aFnan
aFnan
aFnan
aFnan
aFnan
aFnan
aFnan
aFnan
aFnan
aFnan
aFnan
aFnan
aFnan
aFnan
aFnan
aFnan
aFnan
aFnan
aFnan
aFnan
aFnan
aFnan
aFnan
aFnan
aFnan
aFnan
aFnan
aFnan
aFnan
aFnan
aFnan
aFnan
aFnan
aFnan
aFnan
aFnan
aFnan
aFnan
asg463
g0
(g464
g2
Ntp1101
Rp1102
(dp1103
g468
VMeanNrmlGeoGroups = [round(np.mean(g), 3) for g in NrmlGeoGroupedMeans]
p1104
sg470
VMeanNrmlGeoGroups
p1105
sg472
I01
sg473
I00
sg474
V[round(np.mean(g), 3) for g in NrmlGeoGroupedMeans]
p1106
sbsg476
g0
(g477
g478
(g479
g480
tp1107
tp1108
Rp1109
sg470
g1105
sbag0
(g319
g2
Ntp1110
Rp1111
(dp1112
g323
I00
sg324
g4
sg325
(lp1113
Fnan
aF0.263
aFnan
aFnan
aFnan
aFnan
aFnan
aFnan
aFnan
aFnan
aFnan
aFnan
aFnan
aFnan
aFnan
aFnan
aFnan
aFnan
aFnan
aFnan
aFnan
aFnan
aFnan
aFnan
aFnan
aFnan
aFnan
aFnan
aFnan
aFnan
aFnan
aFnan
aFnan
aFnan
aFnan
aFnan
aFnan
aFnan
aFnan
aFnan
aFnan
aFnan
aFnan
aFnan
aFnan
aFnan
aFnan
aFnan
aFnan
aFnan
aFnan
aFnan
aFnan
aFnan
aFnan
aFnan
aFnan
aFnan
aFnan
aFnan
aFnan
aFnan
aFnan
aFnan
asg463
g0
(g464
g2
Ntp1114
Rp1115
(dp1116
g468
VStdNrmlGeoGroups = [round(np.std(g, ddof=1)/np.sqrt(len(g)), 3) for g in NrmlGeoGroupedMeans]\u000a
p1117
sg470
VStdNrmlGeoGroups
p1118
sg472
I01
sg473
I00
sg474
V[round(np.std(g, ddof=1)/np.sqrt(len(g)), 3) for g in NrmlGeoGroupedMeans]\u000a
p1119
sbsg476
g0
(g477
g478
(g479
g480
tp1120
tp1121
Rp1122
sg470
g1118
sbasg312
V/home/ubuntu/SciSheets/mysite/user/guest/tables/kristen_single_gene.pcl
p1123
sb.