ccopy_reg
_reconstructor
p0
(cscisheets.ui.dt_table
DTTable
p1
c__builtin__
object
p2
Ntp3
Rp4
(dp5
S'_versioned_file'
p6
g0
(cmysite.helpers.versioned_file
VersionedFile
p7
g2
Ntp8
Rp9
(dp10
S'_redo_stack'
p11
g0
(cmysite.helpers.file_stack
FileStack
p12
g2
Ntp13
Rp14
(dp15
S'_dirpath'
p16
S'/home/ubuntu/SciSheets/mysite/user/guest/tables/backup'
p17
sS'_max_depth'
p18
I5
sS'_filename_pfx'
p19
Vkristen_single_gene.r
p20
sbsS'_max_versions'
p21
I5
sS'_undo_stack'
p22
g0
(g12
g2
Ntp23
Rp24
(dp25
g16
g17
sg18
I5
sg19
Vkristen_single_gene.u
p26
sbsS'_checkpoint_history'
p27
(lp28
VCell/Update
p29
aVCell/Update
p30
aVCell/Update
p31
aVCell/Update
p32
aVCell/Update
p33
aVCell/Update
p34
aVCell/Update
p35
aVCell/Update
p36
aVCell/Update
p37
aVCell/Update
p38
aVCell/Update
p39
aVCell/Update
p40
aVColumn/Formula
p41
aVColumn/Formula
p42
aVColumn/Append
p43
aVColumn/Formula
p44
aVColumn/Delete
p45
aVCell/Update
p46
aVColumn/Formula
p47
aVCell/Update
p48
aVCell/Update
p49
aVColumn/Formula
p50
aVColumn/Formula
p51
aVCell/Update
p52
aVColumn/Formula
p53
aVColumn/Formula
p54
aVCell/Update
p55
aVCell/Update
p56
aVCell/Update
p57
aVCell/Update
p58
aVColumn/Formula
p59
aVCell/Update
p60
aVCell/Update
p61
aVCell/Update
p62
aVColumn/Formula
p63
aVCell/Update
p64
aVColumn/Formula
p65
aVColumn/Formula
p66
aVCell/Update
p67
aVCell/Update
p68
aVCell/Update
p69
aVCell/Update
p70
aVCell/Update
p71
aVCell/Update
p72
aVCell/Update
p73
aVCell/Update
p74
aVCell/Update
p75
aVColumn/Formula
p76
aVCell/Update
p77
aVCell/Update
p78
aVCell/Update
p79
aVCell/Update
p80
aVCell/Update
p81
aVCell/Update
p82
aVCell/Update
p83
aVCell/Update
p84
aVCell/Update
p85
aVCell/Update
p86
aVCell/Update
p87
aVCell/Update
p88
aVColumn/Formula
p89
aVColumn/Formula
p90
aVColumn/Formula
p91
aVCell/Update
p92
aVCell/Update
p93
aVCell/Update
p94
aVCell/Update
p95
aVCell/Update
p96
aVColumn/Formula
p97
aVCell/Update
p98
aVCell/Update
p99
aVCell/Update
p100
aVCell/Update
p101
aVCell/Update
p102
aVCell/Update
p103
aVCell/Update
p104
aVColumn/Formula
p105
aVColumn/Formula
p106
aVColumn/Formula
p107
aVCell/Update
p108
aVCell/Update
p109
aVColumn/Formula
p110
aVCell/Update
p111
aVCell/Update
p112
aVCell/Update
p113
aVCell/Update
p114
aVCell/Update
p115
aVCell/Update
p116
aVCell/Update
p117
aVCell/Update
p118
aVColumn/Formula
p119
aVCell/Update
p120
aVColumn/Formula
p121
aVColumn/Formula
p122
aVColumn/Formula
p123
aVCell/Update
p124
aVCell/Update
p125
aVColumn/Formula
p126
aVColumn/Formula
p127
aVColumn/Formula
p128
aVColumn/Formula
p129
aVCell/Update
p130
aVColumn/Formula
p131
aVColumn/Formula
p132
aVColumn/Formula
p133
aVCell/Update
p134
aVCell/Update
p135
aVCell/Update
p136
aVCell/Update
p137
aVCell/Update
p138
aVCell/Update
p139
aVCell/Update
p140
aVCell/Update
p141
aVCell/Update
p142
aVCell/Update
p143
aVColumn/Formula
p144
aVColumn/Formula
p145
aVColumn/Formula
p146
aVColumn/Formula
p147
aVCell/Update
p148
aVCell/Update
p149
aVColumn/Formula
p150
aVCell/Update
p151
aVCell/Update
p152
aVCell/Update
p153
aVCell/Update
p154
aVCell/Update
p155
aVCell/Update
p156
aVCell/Update
p157
aVCell/Update
p158
aVCell/Update
p159
aVCell/Update
p160
aVCell/Update
p161
aVCell/Update
p162
aVCell/Update
p163
aVColumn/Formula
p164
aVColumn/Formula
p165
aVCell/Update
p166
aVCell/Update
p167
aVCell/Update
p168
aVColumn/Formula
p169
aVCell/Update
p170
aVCell/Update
p171
aVCell/Update
p172
aVCell/Update
p173
aVColumn/Formula
p174
aVColumn/Formula
p175
aVColumn/Formula
p176
aVColumn/Formula
p177
aVCell/Update
p178
aVColumn/Formula
p179
aVCell/Update
p180
aVCell/Update
p181
aVCell/Update
p182
aVCell/Update
p183
aVCell/Update
p184
aVCell/Update
p185
aVCell/Update
p186
aVCell/Update
p187
aVCell/Update
p188
aVColumn/Formula
p189
aVCell/Update
p190
aVCell/Update
p191
aVCell/Update
p192
aVCell/Update
p193
aVCell/Update
p194
aVCell/Update
p195
aVCell/Update
p196
aVCell/Update
p197
aVCell/Update
p198
aVCell/Update
p199
aVCell/Update
p200
aVCell/Update
p201
aVCell/Update
p202
aVCell/Update
p203
aVCell/Update
p204
aVCell/Update
p205
aVCell/Update
p206
aVCell/Update
p207
aVCell/Update
p208
aVCell/Update
p209
aVCell/Update
p210
aVCell/Update
p211
aVCell/Update
p212
aVCell/Update
p213
aVCell/Update
p214
aVCell/Update
p215
aVCell/Update
p216
aVCell/Update
p217
aVCell/Update
p218
aVCell/Update
p219
aVCell/Update
p220
aVCell/Update
p221
aVCell/Update
p222
aVCell/Update
p223
aVCell/Update
p224
aVCell/Update
p225
aVCell/Update
p226
aVCell/Update
p227
aVCell/Update
p228
aVCell/Update
p229
aVCell/Update
p230
aVCell/Update
p231
aVCell/Update
p232
aVCell/Update
p233
aVCell/Update
p234
aVCell/Update
p235
aVCell/Update
p236
aVCell/Update
p237
aVCell/Update
p238
aVCell/Update
p239
aVCell/Update
p240
aVCell/Update
p241
aVCell/Update
p242
aVCell/Update
p243
aVCell/Update
p244
aVCell/Update
p245
aVCell/Update
p246
aVCell/Update
p247
aVCell/Update
p248
aVCell/Update
p249
aVCell/Update
p250
aVCell/Update
p251
aVCell/Update
p252
aVCell/Update
p253
aVCell/Update
p254
aVCell/Update
p255
aVCell/Update
p256
aVCell/Update
p257
aVCell/Update
p258
aVCell/Update
p259
aVCell/Update
p260
aVCell/Update
p261
aVCell/Update
p262
aVCell/Update
p263
aVCell/Update
p264
aVCell/Update
p265
aVCell/Update
p266
aVCell/Update
p267
aVCell/Update
p268
aVCell/Update
p269
aVCell/Update
p270
aVCell/Update
p271
aVColumn/Formula
p272
aVColumn/Formula
p273
aVCell/Update
p274
aVCell/Update
p275
aVCell/Update
p276
aVCell/Update
p277
aVColumn/Formula
p278
aVColumn/Formula
p279
aVColumn/Formula
p280
aVCell/Update
p281
aVCell/Update
p282
aVCell/Update
p283
aVCell/Update
p284
aVColumn/Formula
p285
aVColumn/Formula
p286
aVColumn/Formula
p287
aVCell/Update
p288
aVCell/Update
p289
aVColumn/Formula
p290
aVCell/Update
p291
aVCell/Update
p292
aVCell/Update
p293
aVCell/Update
p294
aVCell/Update
p295
aVCell/Update
p296
aVColumn/Formula
p297
aVCell/Update
p298
aVColumn/Formula
p299
aVCell/Update
p300
aVCell/Update
p301
aVColumn/Formula
p302
aVColumn/Formula
p303
aVCell/Update
p304
aVCell/Update
p305
aVCell/Update
p306
aVCell/Update
p307
aVColumn/Formula
p308
aVColumn/Formula
p309
aVColumn/Formula
p310
aVColumn/Formula
p311
aVColumn/Formula
p312
aVCell/Update
p313
aVCell/Update
p314
aVColumn/Formula
p315
aVCell/Update
p316
aVColumn/Formula
p317
aVColumn/Formula
p318
aVCell/Update
p319
aVCell/Update
p320
aVCell/Update
p321
aVColumn/Formula
p322
aVColumn/Formula
p323
aVColumn/Formula
p324
aVCell/Update
p325
aVColumn/Formula
p326
aVCell/Update
p327
aVColumn/Formula
p328
aVColumn/Formula
p329
aVColumn/Formula
p330
aVColumn/Formula
p331
aVColumn/Formula
p332
aVColumn/Formula
p333
aVCell/Update
p334
aVColumn/Formula
p335
aVCell/Update
p336
aVCell/Update
p337
aVCell/Update
p338
aVColumn/Formula
p339
aVColumn/Formula
p340
aVColumn/Formula
p341
aVColumn/Formula
p342
aVColumn/Formula
p343
aVCell/Update
p344
aVCell/Update
p345
aVCell/Update
p346
aVColumn/Formula
p347
aVCell/Update
p348
aVCell/Update
p349
aVColumn/Formula
p350
aVColumn/Formula
p351
aVColumn/Formula
p352
aVColumn/Formula
p353
aVColumn/Formula
p354
aVColumn/Formula
p355
aVCell/Update
p356
aVColumn/Formula
p357
aVColumn/Formula
p358
aVColumn/Formula
p359
aVCell/Update
p360
aVCell/Update
p361
aVCell/Update
p362
aVColumn/Formula
p363
aVColumn/Formula
p364
aVCell/Update
p365
aVColumn/Formula
p366
aVColumn/Formula
p367
aVColumn/Formula
p368
aVColumn/Formula
p369
aVColumn/Formula
p370
aVColumn/Formula
p371
aVCell/Update
p372
aVCell/Update
p373
aVColumn/Formula
p374
aVCell/Update
p375
aVColumn/Formula
p376
aVColumn/Formula
p377
aVCell/Update
p378
aVCell/Update
p379
aVCell/Update
p380
aVCell/Update
p381
aVCell/Update
p382
aVColumn/Formula
p383
aVCell/Update
p384
aVCell/Update
p385
aVColumn/Formula
p386
aVColumn/Formula
p387
aVCell/Update
p388
aVCell/Update
p389
aVColumn/Formula
p390
aVColumn/Formula
p391
aVCell/Update
p392
aVCell/Update
p393
aVCell/Update
p394
aVCell/Update
p395
aVCell/Update
p396
aVCell/Update
p397
aVColumn/Formula
p398
aVCell/Update
p399
aVColumn/Formula
p400
aVCell/Update
p401
aVCell/Update
p402
aVColumn/Formula
p403
aVCell/Update
p404
aVColumn/Formula
p405
aVCell/Update
p406
aVColumn/Formula
p407
aVColumn/Formula
p408
aVCell/Update
p409
aVCell/Update
p410
aVCell/Update
p411
aVColumn/Formula
p412
aVColumn/Formula
p413
aVColumn/Formula
p414
aVCell/Update
p415
aVCell/Update
p416
aVColumn/Formula
p417
aVCell/Update
p418
aVColumn/Formula
p419
aVCell/Update
p420
aVCell/Update
p421
aVCell/Update
p422
aVCell/Update
p423
aVCell/Update
p424
aVCell/Update
p425
aVCell/Update
p426
aVCell/Update
p427
aVCell/Update
p428
aVCell/Update
p429
aVCell/Update
p430
aVCell/Update
p431
aVCell/Update
p432
aVCell/Update
p433
aVCell/Update
p434
aVCell/Update
p435
aVCell/Update
p436
aVCell/Update
p437
aVCell/Update
p438
aVCell/Update
p439
aVCell/Update
p440
aVCell/Update
p441
aVCell/Update
p442
aVColumn/Formula
p443
aVCell/Update
p444
aVColumn/Formula
p445
aVCell/Update
p446
aVCell/Update
p447
aVCell/Update
p448
aVCell/Update
p449
aVCell/Update
p450
aVCell/Update
p451
aVCell/Update
p452
aVCell/Update
p453
aVCell/Update
p454
aVCell/Update
p455
aVCell/Update
p456
aVCell/Update
p457
aVCell/Update
p458
aVColumn/Formula
p459
aVCell/Update
p460
aVCell/Update
p461
aVCell/Update
p462
aVCell/Update
p463
aVColumn/Formula
p464
aVCell/Update
p465
aVCell/Update
p466
aVCell/Update
p467
aVCell/Update
p468
aVCell/Update
p469
aVCell/Update
p470
aVCell/Update
p471
aVColumn/Formula
p472
aVColumn/Formula
p473
aVCell/Update
p474
aVCell/Update
p475
aVColumn/Formula
p476
aVCell/Update
p477
aVCell/Update
p478
aVCell/Update
p479
aVCell/Update
p480
aVCell/Update
p481
aVCell/Update
p482
aVColumn/Formula
p483
aVColumn/Formula
p484
aVColumn/Formula
p485
aVColumn/Formula
p486
aVColumn/Formula
p487
aVColumn/Formula
p488
aVColumn/Formula
p489
aVCell/Update
p490
aVCell/Update
p491
aVCell/Update
p492
aVColumn/Formula
p493
aVColumn/Formula
p494
aVColumn/Formula
p495
aVCell/Update
p496
aVCell/Update
p497
aVCell/Update
p498
aVCell/Update
p499
aVCell/Update
p500
aVColumn/Formula
p501
aVCell/Update
p502
aVColumn/Formula
p503
aVCell/Update
p504
aVCell/Update
p505
aVCell/Update
p506
aVCell/Update
p507
aVCell/Update
p508
aVCell/Update
p509
asS'_filepath'
p510
V/home/ubuntu/SciSheets/mysite/user/guest/tables/kristen_single_gene.pcl
p511
sS'_backup_dir'
p512
g17
sbsS'_namespace'
p513
(dp514
sS'_hidden_columns'
p515
(lp516
g0
(cscisheets.core.column
Column
p517
g2
Ntp518
Rp519
(dp520
S'_asis'
p521
I00
sS'_owning_table'
p522
g4
sS'_cells'
p523
(lp524
(lp525
cnumpy.core.multiarray
scalar
p526
(cnumpy
dtype
p527
(S'i8'
p528
I0
I1
tp529
Rp530
(I3
S'<'
p531
NNNI-1
I-1
I0
tp532
bS'\x00\x00\x00\x00\x00\x00\x00\x00'
p533
tp534
Rp535
ag526
(g527
(S'U1'
p536
I0
I1
tp537
Rp538
(I3
S'<'
p539
NNNI4
I4
I8
tp540
bS'I\x00\x00\x00'
p541
tp542
Rp543
ag526
(g530
S'\x01\x00\x00\x00\x00\x00\x00\x00'
p544
tp545
Rp546
aa(lp547
g526
(g530
S'\x00\x00\x00\x00\x00\x00\x00\x00'
p548
tp549
Rp550
ag526
(g527
(S'U2'
p551
I0
I1
tp552
Rp553
(I3
S'<'
p554
NNNI8
I4
I8
tp555
bS'R\x00\x00\x001\x00\x00\x00'
p556
tp557
Rp558
ag526
(g530
S'\x01\x00\x00\x00\x00\x00\x00\x00'
p559
tp560
Rp561
aa(lp562
g526
(g530
S'\x00\x00\x00\x00\x00\x00\x00\x00'
p563
tp564
Rp565
ag526
(g527
(S'U2'
p566
I0
I1
tp567
Rp568
(I3
S'<'
p569
NNNI8
I4
I8
tp570
bS'R\x00\x00\x002\x00\x00\x00'
p571
tp572
Rp573
ag526
(g530
S'\x01\x00\x00\x00\x00\x00\x00\x00'
p574
tp575
Rp576
aa(lp577
g526
(g530
S'\x01\x00\x00\x00\x00\x00\x00\x00'
p578
tp579
Rp580
ag543
ag526
(g530
S'\x01\x00\x00\x00\x00\x00\x00\x00'
p581
tp582
Rp583
aa(lp584
g526
(g530
S'\x01\x00\x00\x00\x00\x00\x00\x00'
p585
tp586
Rp587
ag543
ag526
(g530
S'\x02\x00\x00\x00\x00\x00\x00\x00'
p588
tp589
Rp590
aa(lp591
g526
(g530
S'\x01\x00\x00\x00\x00\x00\x00\x00'
p592
tp593
Rp594
ag543
ag526
(g530
S'\x03\x00\x00\x00\x00\x00\x00\x00'
p595
tp596
Rp597
aa(lp598
g526
(g530
S'\x01\x00\x00\x00\x00\x00\x00\x00'
p599
tp600
Rp601
ag558
ag526
(g530
S'\x01\x00\x00\x00\x00\x00\x00\x00'
p602
tp603
Rp604
aa(lp605
g526
(g530
S'\x01\x00\x00\x00\x00\x00\x00\x00'
p606
tp607
Rp608
ag558
ag526
(g530
S'\x02\x00\x00\x00\x00\x00\x00\x00'
p609
tp610
Rp611
aa(lp612
g526
(g530
S'\x01\x00\x00\x00\x00\x00\x00\x00'
p613
tp614
Rp615
ag558
ag526
(g530
S'\x03\x00\x00\x00\x00\x00\x00\x00'
p616
tp617
Rp618
aa(lp619
g526
(g530
S'\x01\x00\x00\x00\x00\x00\x00\x00'
p620
tp621
Rp622
ag573
ag526
(g530
S'\x01\x00\x00\x00\x00\x00\x00\x00'
p623
tp624
Rp625
aa(lp626
g526
(g530
S'\x01\x00\x00\x00\x00\x00\x00\x00'
p627
tp628
Rp629
ag573
ag526
(g530
S'\x02\x00\x00\x00\x00\x00\x00\x00'
p630
tp631
Rp632
aa(lp633
g526
(g530
S'\x01\x00\x00\x00\x00\x00\x00\x00'
p634
tp635
Rp636
ag573
ag526
(g530
S'\x03\x00\x00\x00\x00\x00\x00\x00'
p637
tp638
Rp639
aa(lp640
g526
(g530
S'\x02\x00\x00\x00\x00\x00\x00\x00'
p641
tp642
Rp643
ag543
ag526
(g530
S'\x01\x00\x00\x00\x00\x00\x00\x00'
p644
tp645
Rp646
aa(lp647
g526
(g530
S'\x02\x00\x00\x00\x00\x00\x00\x00'
p648
tp649
Rp650
ag558
ag526
(g530
S'\x01\x00\x00\x00\x00\x00\x00\x00'
p651
tp652
Rp653
aa(lp654
g526
(g530
S'\x02\x00\x00\x00\x00\x00\x00\x00'
p655
tp656
Rp657
ag573
ag526
(g530
S'\x01\x00\x00\x00\x00\x00\x00\x00'
p658
tp659
Rp660
aa(lp661
g526
(g530
S'\x03\x00\x00\x00\x00\x00\x00\x00'
p662
tp663
Rp664
ag543
ag526
(g530
S'\x01\x00\x00\x00\x00\x00\x00\x00'
p665
tp666
Rp667
aa(lp668
g526
(g530
S'\x03\x00\x00\x00\x00\x00\x00\x00'
p669
tp670
Rp671
ag558
ag526
(g530
S'\x01\x00\x00\x00\x00\x00\x00\x00'
p672
tp673
Rp674
aa(lp675
g526
(g530
S'\x03\x00\x00\x00\x00\x00\x00\x00'
p676
tp677
Rp678
ag573
ag526
(g530
S'\x01\x00\x00\x00\x00\x00\x00\x00'
p679
tp680
Rp681
aa(lp682
g526
(g530
S'\x04\x00\x00\x00\x00\x00\x00\x00'
p683
tp684
Rp685
ag543
ag526
(g530
S'\x01\x00\x00\x00\x00\x00\x00\x00'
p686
tp687
Rp688
aa(lp689
g526
(g530
S'\x04\x00\x00\x00\x00\x00\x00\x00'
p690
tp691
Rp692
ag558
ag526
(g530
S'\x01\x00\x00\x00\x00\x00\x00\x00'
p693
tp694
Rp695
aa(lp696
g526
(g530
S'\x04\x00\x00\x00\x00\x00\x00\x00'
p697
tp698
Rp699
ag573
ag526
(g530
S'\x01\x00\x00\x00\x00\x00\x00\x00'
p700
tp701
Rp702
aasS'_formula_statement'
p703
g0
(cscisheets.core.helpers.formula_statement
FormulaStatement
p704
g2
Ntp705
Rp706
(dp707
S'_statement'
p708
Vsel = [e > min_eff for e in Eff]\u000apairs = zip(range(len(sel)), sel)\u000apTreatment = [Treatment[i] for i,b in pairs if b]\u000apRunType = [RunType[i] for i,b in pairs if b]\u000apBRpl = [BRpl[i] for i,b in pairs if b]\u000agrouping_columns = [pTreatment, pRunType, pBRpl]\u000apCt = [Ct[i] for i,b in pairs if b]\u000apEff = [Eff[i] for i,b in pairs if b]\u000aGroups, groupedCt = groupBy(\u000a     grouping_columns, pCt)\u000aGroups, groupedEff = groupBy(\u000a     grouping_columns, pEff)\u000aGroups = [[g[0], g[1], g[2]] for g in Groups]\u000aGroupedCt = roundValues(groupedCt,2)\u000aGroupedEff = roundValues(groupedEff,2)
p709
sS'_name'
p710
VGroups
p711
sS'_isExpression'
p712
I00
sS'_isStatement'
p713
I00
sS'_formula'
p714
Vsel = [e > min_eff for e in Eff]\u000apairs = zip(range(len(sel)), sel)\u000apTreatment = [Treatment[i] for i,b in pairs if b]\u000apRunType = [RunType[i] for i,b in pairs if b]\u000apBRpl = [BRpl[i] for i,b in pairs if b]\u000agrouping_columns = [pTreatment, pRunType, pBRpl]\u000apCt = [Ct[i] for i,b in pairs if b]\u000apEff = [Eff[i] for i,b in pairs if b]\u000aGroups, groupedCt = groupBy(\u000a     grouping_columns, pCt)\u000aGroups, groupedEff = groupBy(\u000a     grouping_columns, pEff)\u000aGroups = [[g[0], g[1], g[2]] for g in Groups]\u000aGroupedCt = roundValues(groupedCt,2)\u000aGroupedEff = roundValues(groupedEff,2)
p715
sbsS'_data_class'
p716
g0
(cscisheets.core.helpers.api_util
DataClass
p717
c__builtin__
tuple
p718
(cnumpy
ndarray
p719
cscisheets.core.helpers.api_util
makeArray
p720
tp721
tp722
Rp723
sg710
g711
sbag0
(g517
g2
Ntp724
Rp725
(dp726
g521
I00
sg522
g4
sg523
(lp727
cnumpy.core.multiarray
_reconstruct
p728
(g719
(I0
tp729
S'b'
p730
tp731
Rp732
(I1
(I4
tp733
g527
(S'f8'
p734
I0
I1
tp735
Rp736
(I3
S'<'
p737
NNNI-1
I-1
I0
tp738
bI00
S'\xe1z\x14\xaeG\xe1\xea?{\x14\xaeG\xe1z\xec?\xcd\xcc\xcc\xcc\xcc\xcc\xec?\xd7\xa3p=\n\xd7\xeb?'
p739
tp740
bag728
(g719
(I0
tp741
g730
tp742
Rp743
(I1
(I3
tp744
g736
I00
S'\x8f\xc2\xf5(\\\x8f\xea?\x8f\xc2\xf5(\\\x8f\xea?333333\xeb?'
p745
tp746
bag728
(g719
(I0
tp747
g730
tp748
Rp749
(I1
(I3
tp750
g736
I00
S'=\n\xd7\xa3p=\xea?333333\xeb?=\n\xd7\xa3p=\xea?'
p751
tp752
bag728
(g719
(I0
tp753
g730
tp754
Rp755
(I1
(I3
tp756
g736
I00
S'\x14\xaeG\xe1z\x14\xee?\x8f\xc2\xf5(\\\x8f\xea?\xe1z\x14\xaeG\xe1\xea?'
p757
tp758
bag728
(g719
(I0
tp759
g730
tp760
Rp761
(I1
(I3
tp762
g736
I00
S'\x9a\x99\x99\x99\x99\x99\xe9?\xe1z\x14\xaeG\xe1\xea?H\xe1z\x14\xaeG\xe9?'
p763
tp764
bag728
(g719
(I0
tp765
g730
tp766
Rp767
(I1
(I3
tp768
g736
I00
S'\x8f\xc2\xf5(\\\x8f\xea?\x9a\x99\x99\x99\x99\x99\xe9?\x8f\xc2\xf5(\\\x8f\xea?'
p769
tp770
bag728
(g719
(I0
tp771
g730
tp772
Rp773
(I1
(I3
tp774
g736
I00
S'q=\n\xd7\xa3p\xed?\\\x8f\xc2\xf5(\\\xef?\xcd\xcc\xcc\xcc\xcc\xcc\xec?'
p775
tp776
bag728
(g719
(I0
tp777
g730
tp778
Rp779
(I1
(I3
tp780
g736
I00
S'\xcd\xcc\xcc\xcc\xcc\xcc\xec?\x8f\xc2\xf5(\\\x8f\xea?\xe1z\x14\xaeG\xe1\xea?'
p781
tp782
bag728
(g719
(I0
tp783
g730
tp784
Rp785
(I1
(I3
tp786
g736
I00
S'\xd7\xa3p=\n\xd7\xeb?333333\xeb?\x8f\xc2\xf5(\\\x8f\xea?'
p787
tp788
bag728
(g719
(I0
tp789
g730
tp790
Rp791
(I1
(I3
tp792
g736
I00
S'H\xe1z\x14\xaeG\xe9?\xe1z\x14\xaeG\xe1\xea?\x85\xebQ\xb8\x1e\x85\xeb?'
p793
tp794
bag728
(g719
(I0
tp795
g730
tp796
Rp797
(I1
(I3
tp798
g736
I00
S'\x8f\xc2\xf5(\\\x8f\xea?=\n\xd7\xa3p=\xea?\x8f\xc2\xf5(\\\x8f\xea?'
p799
tp800
bag728
(g719
(I0
tp801
g730
tp802
Rp803
(I1
(I3
tp804
g736
I00
S'\xecQ\xb8\x1e\x85\xeb\xe9?=\n\xd7\xa3p=\xea?\x9a\x99\x99\x99\x99\x99\xe9?'
p805
tp806
bag728
(g719
(I0
tp807
g730
tp808
Rp809
(I1
(I3
tp810
g736
I00
S'\xe1z\x14\xaeG\xe1\xea?\x9a\x99\x99\x99\x99\x99\xe9?\xecQ\xb8\x1e\x85\xeb\xe9?'
p811
tp812
bag728
(g719
(I0
tp813
g730
tp814
Rp815
(I1
(I3
tp816
g736
I00
S'\xa4p=\n\xd7\xa3\xe8?\xd7\xa3p=\n\xd7\xeb?\xecQ\xb8\x1e\x85\xeb\xe9?'
p817
tp818
bag728
(g719
(I0
tp819
g730
tp820
Rp821
(I1
(I3
tp822
g736
I00
S'\xf6(\\\x8f\xc2\xf5\xe8?\xa4p=\n\xd7\xa3\xe8?H\xe1z\x14\xaeG\xe9?'
p823
tp824
bag728
(g719
(I0
tp825
g730
tp826
Rp827
(I1
(I3
tp828
g736
I00
S'333333\xeb?333333\xeb?\xe1z\x14\xaeG\xe1\xea?'
p829
tp830
bag728
(g719
(I0
tp831
g730
tp832
Rp833
(I1
(I3
tp834
g736
I00
S'\xd7\xa3p=\n\xd7\xeb?\xcd\xcc\xcc\xcc\xcc\xcc\xec?\x85\xebQ\xb8\x1e\x85\xeb?'
p835
tp836
bag728
(g719
(I0
tp837
g730
tp838
Rp839
(I1
(I3
tp840
g736
I00
S'=\n\xd7\xa3p=\xea?=\n\xd7\xa3p=\xea?H\xe1z\x14\xaeG\xe9?'
p841
tp842
bag728
(g719
(I0
tp843
g730
tp844
Rp845
(I1
(I3
tp846
g736
I00
S'333333\xeb?333333\xeb?\xe1z\x14\xaeG\xe1\xea?'
p847
tp848
bag728
(g719
(I0
tp849
g730
tp850
Rp851
(I1
(I3
tp852
g736
I00
S'\xd7\xa3p=\n\xd7\xeb?\xcd\xcc\xcc\xcc\xcc\xcc\xec?\x85\xebQ\xb8\x1e\x85\xeb?'
p853
tp854
bag728
(g719
(I0
tp855
g730
tp856
Rp857
(I1
(I3
tp858
g736
I00
S'=\n\xd7\xa3p=\xea?=\n\xd7\xa3p=\xea?H\xe1z\x14\xaeG\xe9?'
p859
tp860
basg703
g0
(g704
g2
Ntp861
Rp862
(dp863
g708
NsS'_column'
p864
g725
sg712
I00
sg713
I00
sg714
Nsbsg716
g0
(g717
g718
(g719
g720
tp865
tp866
Rp867
sg710
VGroupedEff
p868
sbag0
(g517
g2
Ntp869
Rp870
(dp871
g521
I00
sg522
g4
sg523
(lp872
g728
(g719
(I0
tp873
g730
tp874
Rp875
(I1
(I4
tp876
g736
I00
S'\x00\x00\x00\x00\x00\x007@\\\x8f\xc2\xf5(\xdc6@\xcd\xcc\xcc\xcc\xcc\xcc6@\x00\x00\x00\x00\x00\x007@'
p877
tp878
bag728
(g719
(I0
tp879
g730
tp880
Rp881
(I1
(I3
tp882
g736
I00
S'=\n\xd7\xa3p=2@\xb8\x1e\x85\xebQ82@\\\x8f\xc2\xf5(\\2@'
p883
tp884
bag728
(g719
(I0
tp885
g730
tp886
Rp887
(I1
(I3
tp888
g736
I00
S'\xb8\x1e\x85\xebQ\xb83@\x00\x00\x00\x00\x00\xc03@\xc3\xf5(\\\x8f\x024@'
p889
tp890
bag728
(g719
(I0
tp891
g730
tp892
Rp893
(I1
(I3
tp894
g736
I00
S'\xaeG\xe1z\x14\xae:@\xe1z\x14\xaeG!;@\xf6(\\\x8f\xc25;@'
p895
tp896
bag728
(g719
(I0
tp897
g730
tp898
Rp899
(I1
(I3
tp900
g736
I00
S'\xc3\xf5(\\\x8f\xc2:@\xf6(\\\x8f\xc2\xb5:@q=\n\xd7\xa30:@'
p901
tp902
bag728
(g719
(I0
tp903
g730
tp904
Rp905
(I1
(I3
tp906
g736
I00
S'{\x14\xaeG\xe1\xfa=@\x1f\x85\xebQ\xb8\x1e>@)\\\x8f\xc2\xf5h=@'
p907
tp908
bag728
(g719
(I0
tp909
g730
tp910
Rp911
(I1
(I3
tp912
g736
I00
S'\xecQ\xb8\x1e\x85\xeb3@\x9a\x99\x99\x99\x99\xd93@\x00\x00\x00\x00\x00\x004@'
p913
tp914
bag728
(g719
(I0
tp915
g730
tp916
Rp917
(I1
(I3
tp918
g736
I00
S'\\\x8f\xc2\xf5(\xdc5@\xd7\xa3p=\n\x176@\xd7\xa3p=\n\xd75@'
p919
tp920
bag728
(g719
(I0
tp921
g730
tp922
Rp923
(I1
(I3
tp924
g736
I00
S'\xa4p=\n\xd7\xe37@\n\xd7\xa3p=\x8a7@\x85\xebQ\xb8\x1eE8@'
p925
tp926
bag728
(g719
(I0
tp927
g730
tp928
Rp929
(I1
(I3
tp930
g736
I00
S'\xaeG\xe1z\x14.6@\xf6(\\\x8f\xc2\xb55@\x00\x00\x00\x00\x00\xc05@'
p931
tp932
bag728
(g719
(I0
tp933
g730
tp934
Rp935
(I1
(I3
tp936
g736
I00
S'\xe1z\x14\xaeG\xe17@\xecQ\xb8\x1e\x85k7@\xe1z\x14\xaeG\xa17@'
p937
tp938
bag728
(g719
(I0
tp939
g730
tp940
Rp941
(I1
(I3
tp942
g736
I00
S'\xd7\xa3p=\n\x978@\\\x8f\xc2\xf5(\x9c8@\xd7\xa3p=\nW8@'
p943
tp944
bag728
(g719
(I0
tp945
g730
tp946
Rp947
(I1
(I3
tp948
g736
I00
S'33333\xf3=@33333s>@\xe1z\x14\xaeG\xe1=@'
p949
tp950
bag728
(g719
(I0
tp951
g730
tp952
Rp953
(I1
(I3
tp954
g736
I00
S'\xb8\x1e\x85\xebQ87@\xcd\xcc\xcc\xcc\xcc\xcc7@=\n\xd7\xa3p}7@'
p955
tp956
bag728
(g719
(I0
tp957
g730
tp958
Rp959
(I1
(I3
tp960
g736
I00
S'\x1f\x85\xebQ\xb8^:@\\\x8f\xc2\xf5(\\:@\xecQ\xb8\x1e\x85+:@'
p961
tp962
bag728
(g719
(I0
tp963
g730
tp964
Rp965
(I1
(I3
tp966
g736
I00
S'\xcd\xcc\xcc\xcc\xcc\xcc8@\xb8\x1e\x85\xebQ\xf88@\xe1z\x14\xaeG\xa18@'
p967
tp968
bag728
(g719
(I0
tp969
g730
tp970
Rp971
(I1
(I3
tp972
g736
I00
S')\\\x8f\xc2\xf5\xe82@H\xe1z\x14\xae\xc72@\xcd\xcc\xcc\xcc\xcc\xcc2@'
p973
tp974
bag728
(g719
(I0
tp975
g730
tp976
Rp977
(I1
(I3
tp978
g736
I00
S'\x00\x00\x00\x00\x00\x804@\xb8\x1e\x85\xebQx4@H\xe1z\x14\xaeG4@'
p979
tp980
bag728
(g719
(I0
tp981
g730
tp982
Rp983
(I1
(I3
tp984
g736
I00
S'\xcd\xcc\xcc\xcc\xcc\xcc8@\xb8\x1e\x85\xebQ\xf88@\xe1z\x14\xaeG\xa18@'
p985
tp986
bag728
(g719
(I0
tp987
g730
tp988
Rp989
(I1
(I3
tp990
g736
I00
S')\\\x8f\xc2\xf5\xe82@H\xe1z\x14\xae\xc72@\xcd\xcc\xcc\xcc\xcc\xcc2@'
p991
tp992
bag728
(g719
(I0
tp993
g730
tp994
Rp995
(I1
(I3
tp996
g736
I00
S'\x00\x00\x00\x00\x00\x804@\xb8\x1e\x85\xebQx4@H\xe1z\x14\xaeG4@'
p997
tp998
basg703
g0
(g704
g2
Ntp999
Rp1000
(dp1001
g708
Nsg864
g870
sg712
I00
sg713
I00
sg714
Nsbsg716
g0
(g717
g718
(g719
g720
tp1002
tp1003
Rp1004
sg710
VGroupedCt
p1005
sbag0
(g517
g2
Ntp1006
Rp1007
(dp1008
g521
I00
sg522
g4
sg523
(lp1009
g728
(g719
(I0
tp1010
g730
tp1011
Rp1012
(I1
(I4
tp1013
g736
I00
S'\x00\x00\x00\x00\x00\x007@fffff\xe66@\xcd\xcc\xcc\xcc\xcc\xcc6@\x00\x00\x00\x00\x00\x007@'
p1014
tp1015
bag728
(g719
(I0
tp1016
g730
tp1017
Rp1018
(I1
(I3
tp1019
g736
I00
S'3333332@3333332@ffffff2@'
p1020
tp1021
bag728
(g719
(I0
tp1022
g730
tp1023
Rp1024
(I1
(I3
tp1025
g736
I00
S'33333\xb33@\xcd\xcc\xcc\xcc\xcc\xcc3@\x00\x00\x00\x00\x00\x004@'
p1026
tp1027
bag728
(g719
(I0
tp1028
g730
tp1029
Rp1030
(I1
(I3
tp1031
g736
I00
S'33333\xb3:@\x9a\x99\x99\x99\x99\x19;@333333;@'
p1032
tp1033
bag728
(g719
(I0
tp1034
g730
tp1035
Rp1036
(I1
(I3
tp1037
g736
I00
S'\xcd\xcc\xcc\xcc\xcc\xcc:@33333\xb3:@333333:@'
p1038
tp1039
bag728
(g719
(I0
tp1040
g730
tp1041
Rp1042
(I1
(I3
tp1043
g736
I00
S'\x00\x00\x00\x00\x00\x00>@\x9a\x99\x99\x99\x99\x19>@ffffff=@'
p1044
tp1045
bag728
(g719
(I0
tp1046
g730
tp1047
Rp1048
(I1
(I3
tp1049
g736
I00
S'fffff\xe63@fffff\xe63@\x00\x00\x00\x00\x00\x004@'
p1050
tp1051
bag728
(g719
(I0
tp1052
g730
tp1053
Rp1054
(I1
(I3
tp1055
g736
I00
S'fffff\xe65@\x9a\x99\x99\x99\x99\x196@\xcd\xcc\xcc\xcc\xcc\xcc5@'
p1056
tp1057
bag728
(g719
(I0
tp1058
g730
tp1059
Rp1060
(I1
(I3
tp1061
g736
I00
S'fffff\xe67@\x00\x00\x00\x00\x00\x807@\xcd\xcc\xcc\xcc\xccL8@'
p1062
tp1063
bag728
(g719
(I0
tp1064
g730
tp1065
Rp1066
(I1
(I3
tp1067
g736
I00
S'3333336@33333\xb35@\xcd\xcc\xcc\xcc\xcc\xcc5@'
p1068
tp1069
bag728
(g719
(I0
tp1070
g730
tp1071
Rp1072
(I1
(I3
tp1073
g736
I00
S'fffff\xe67@ffffff7@\x9a\x99\x99\x99\x99\x997@'
p1074
tp1075
bag728
(g719
(I0
tp1076
g730
tp1077
Rp1078
(I1
(I3
tp1079
g736
I00
S'\x9a\x99\x99\x99\x99\x998@\x9a\x99\x99\x99\x99\x998@\xcd\xcc\xcc\xcc\xccL8@'
p1080
tp1081
bag728
(g719
(I0
tp1082
g730
tp1083
Rp1084
(I1
(I3
tp1085
g736
I00
S'fffff\xe6=@ffffff>@fffff\xe6=@'
p1086
tp1087
bag728
(g719
(I0
tp1088
g730
tp1089
Rp1090
(I1
(I3
tp1091
g736
I00
S'3333337@\xcd\xcc\xcc\xcc\xcc\xcc7@\x00\x00\x00\x00\x00\x807@'
p1092
tp1093
bag728
(g719
(I0
tp1094
g730
tp1095
Rp1096
(I1
(I3
tp1097
g736
I00
S'ffffff:@ffffff:@333333:@'
p1098
tp1099
bag728
(g719
(I0
tp1100
g730
tp1101
Rp1102
(I1
(I3
tp1103
g736
I00
S'\xcd\xcc\xcc\xcc\xcc\xcc8@\x00\x00\x00\x00\x00\x009@\x9a\x99\x99\x99\x99\x998@'
p1104
tp1105
bag728
(g719
(I0
tp1106
g730
tp1107
Rp1108
(I1
(I3
tp1109
g736
I00
S'fffff\xe62@\xcd\xcc\xcc\xcc\xcc\xcc2@\xcd\xcc\xcc\xcc\xcc\xcc2@'
p1110
tp1111
bag728
(g719
(I0
tp1112
g730
tp1113
Rp1114
(I1
(I3
tp1115
g736
I00
S'\x00\x00\x00\x00\x00\x804@\x00\x00\x00\x00\x00\x804@\xcd\xcc\xcc\xcc\xccL4@'
p1116
tp1117
bag728
(g719
(I0
tp1118
g730
tp1119
Rp1120
(I1
(I3
tp1121
g736
I00
S'\xcd\xcc\xcc\xcc\xcc\xcc8@\x00\x00\x00\x00\x00\x009@\x9a\x99\x99\x99\x99\x998@'
p1122
tp1123
bag728
(g719
(I0
tp1124
g730
tp1125
Rp1126
(I1
(I3
tp1127
g736
I00
S'fffff\xe62@\xcd\xcc\xcc\xcc\xcc\xcc2@\xcd\xcc\xcc\xcc\xcc\xcc2@'
p1128
tp1129
bag728
(g719
(I0
tp1130
g730
tp1131
Rp1132
(I1
(I3
tp1133
g736
I00
S'\x00\x00\x00\x00\x00\x804@\x00\x00\x00\x00\x00\x804@\xcd\xcc\xcc\xcc\xccL4@'
p1134
tp1135
basg703
g0
(g704
g2
Ntp1136
Rp1137
(dp1138
g708
Vlength = len(Groups)\u000aStdFilteredGroupedCt = roundValues([filterExtremes(g, max_std, 2) for g in pruneNulls(GroupedCt)])\u000a 
p1139
sg710
VStdFilteredGroupedCt
p1140
sg712
I00
sg713
I00
sg714
Vlength = len(Groups)\u000aStdFilteredGroupedCt = roundValues([filterExtremes(g, max_std, 2) for g in pruneNulls(GroupedCt)])\u000a 
p1141
sbsg716
g0
(g717
g718
(g719
g720
tp1142
tp1143
Rp1144
sg710
g1140
sbag0
(g517
g2
Ntp1145
Rp1146
(dp1147
g521
I00
sg522
g4
sg523
(lp1148
F22.9
aF18.3
aF19.8
aF27.0
aF26.6
aF29.8
aF19.9
aF21.9
aF23.9
aF21.9
aF23.6
aF24.5
aF30.1
aF23.5
aF26.3
aF24.8
aF18.8
aF20.4
aF24.8
aF18.8
aF20.4
aFnan
aFnan
aFnan
aFnan
aFnan
aFnan
aFnan
aFnan
aFnan
aFnan
aFnan
aFnan
aFnan
aFnan
aFnan
aFnan
aFnan
aFnan
aFnan
aFnan
aFnan
aFnan
aFnan
aFnan
aFnan
aFnan
aFnan
aFnan
aFnan
aFnan
aFnan
aFnan
aFnan
aFnan
aFnan
aFnan
aFnan
aFnan
aFnan
aFnan
aFnan
aFnan
aFnan
asg703
g0
(g704
g2
Ntp1149
Rp1150
(dp1151
g708
VMeanCt = [np.mean(g) for g in StdFilteredGroupedCt]\u000aMeanCt = roundValues(MeanCt,1)\u000aStdCt = [np.std(g, ddof=1) if len(g) > 2 else 0 for g in StdFilteredGroupedCt]\u000aStdCt = roundValues(StdCt,3)
p1152
sg710
VMeanCt
p1153
sg712
I00
sg713
I00
sg714
VMeanCt = [np.mean(g) for g in StdFilteredGroupedCt]\u000aMeanCt = roundValues(MeanCt,1)\u000aStdCt = [np.std(g, ddof=1) if len(g) > 2 else 0 for g in StdFilteredGroupedCt]\u000aStdCt = roundValues(StdCt,3)
p1154
sbsg716
g0
(g717
g718
(g719
g720
tp1155
tp1156
Rp1157
sg710
g1153
sbag0
(g517
g2
Ntp1158
Rp1159
(dp1160
g521
I00
sg522
g4
sg523
(lp1161
F0.096
aF0.115
aF0.153
aF0.265
aF0.321
aF0.379
aF0.058
aF0.153
aF0.4
aF0.265
aF0.252
aF0.173
aF0.289
aF0.3
aF0.115
aF0.2
aF0.058
aF0.115
aF0.2
aF0.058
aF0.115
asg703
g0
(g704
g2
Ntp1162
Rp1163
(dp1164
g708
Nsg864
g1159
sg712
I00
sg713
I00
sg714
Nsbsg716
g0
(g717
g718
(g719
g720
tp1165
tp1166
Rp1167
sg710
VStdCt
p1168
sbag0
(g517
g2
Ntp1169
Rp1170
(dp1171
g521
I00
sg522
g4
sg523
(lp1172
(lp1173
V0.0
p1174
aV1.0
p1175
aa(lp1176
V1.0
p1177
aV1.0
p1178
aa(lp1179
V1.0
p1180
aV2.0
p1181
aa(lp1182
V1.0
p1183
aV3.0
p1184
aa(lp1185
V2.0
p1186
aV1.0
p1187
aa(lp1188
V3.0
p1189
aV1.0
p1190
aaNaNaNaNaNaNaNaNaNaNaNaNaNaNaNaNaNaNaNaNaNaNaNaNaNaNaNaNaNaNaNaNaNaNaNaNaNaNaNaNaNaNaNaNaNaNaNaNaNaNaNaNaNaNaNaNaNaNasg703
g0
(g704
g2
Ntp1191
Rp1192
(dp1193
g708
Vdummy = tabularize(s, 'Groups', 1, 'MeanCt', \u000a          new_category_colnm='BioRuns',\u000a          values_colnm_prefix='Gene_')
p1194
sg710
VBioRuns
p1195
sg712
I00
sg713
I00
sg714
Vdummy = tabularize(s, 'Groups', 1, 'MeanCt', \u000a          new_category_colnm='BioRuns',\u000a          values_colnm_prefix='Gene_')
p1196
sbsg716
g0
(g717
g718
(g719
g720
tp1197
tp1198
Rp1199
sg710
g1195
sbag0
(g517
g2
Ntp1200
Rp1201
(dp1202
g521
I00
sg522
g4
sg523
(lp1203
F22.9
aF27.0
aF26.6
aF29.8
aF30.1
aF24.8
aFnan
aFnan
aFnan
aFnan
aFnan
aFnan
aFnan
aFnan
aFnan
aFnan
aFnan
aFnan
aFnan
aFnan
aFnan
aFnan
aFnan
aFnan
aFnan
aFnan
aFnan
aFnan
aFnan
aFnan
aFnan
aFnan
aFnan
aFnan
aFnan
aFnan
aFnan
aFnan
aFnan
aFnan
aFnan
aFnan
aFnan
aFnan
aFnan
aFnan
aFnan
aFnan
aFnan
aFnan
aFnan
aFnan
aFnan
aFnan
aFnan
aFnan
aFnan
aFnan
aFnan
aFnan
aFnan
aFnan
aFnan
aFnan
asg703
g0
(g704
g2
Ntp1204
Rp1205
(dp1206
g708
Nsg864
g1201
sg712
I00
sg713
I00
sg714
Nsbsg716
g0
(g717
g718
(g719
g720
tp1207
tp1208
Rp1209
sg710
S'Gene_I'
p1210
sbag0
(g517
g2
Ntp1211
Rp1212
(dp1213
g521
I00
sg522
g4
sg523
(lp1214
F18.3
aF19.9
aF21.9
aF23.9
aF23.5
aF18.8
aFnan
aFnan
aFnan
aFnan
aFnan
aFnan
aFnan
aFnan
aFnan
aFnan
aFnan
aFnan
aFnan
aFnan
aFnan
aFnan
aFnan
aFnan
aFnan
aFnan
aFnan
aFnan
aFnan
aFnan
aFnan
aFnan
aFnan
aFnan
aFnan
aFnan
aFnan
aFnan
aFnan
aFnan
aFnan
aFnan
aFnan
aFnan
aFnan
aFnan
aFnan
aFnan
aFnan
aFnan
aFnan
aFnan
aFnan
aFnan
aFnan
aFnan
aFnan
aFnan
aFnan
aFnan
aFnan
aFnan
aFnan
aFnan
asg703
g0
(g704
g2
Ntp1215
Rp1216
(dp1217
g708
Nsg864
g1212
sg712
I00
sg713
I00
sg714
Nsbsg716
g1209
sg710
S'Gene_R1'
p1218
sbag0
(g517
g2
Ntp1219
Rp1220
(dp1221
g521
I00
sg522
g4
sg523
(lp1222
F19.8
aF21.9
aF23.6
aF24.5
aF26.3
aF20.4
aFnan
aFnan
aFnan
aFnan
aFnan
aFnan
aFnan
aFnan
aFnan
aFnan
aFnan
aFnan
aFnan
aFnan
aFnan
aFnan
aFnan
aFnan
aFnan
aFnan
aFnan
aFnan
aFnan
aFnan
aFnan
aFnan
aFnan
aFnan
aFnan
aFnan
aFnan
aFnan
aFnan
aFnan
aFnan
aFnan
aFnan
aFnan
aFnan
aFnan
aFnan
aFnan
aFnan
aFnan
aFnan
aFnan
aFnan
aFnan
aFnan
aFnan
aFnan
aFnan
aFnan
aFnan
aFnan
aFnan
aFnan
aFnan
asg703
g0
(g704
g2
Ntp1223
Rp1224
(dp1225
g708
Nsg864
g1220
sg712
I00
sg713
I00
sg714
Nsbsg716
g1209
sg710
S'Gene_R2'
p1226
sbag0
(g517
g2
Ntp1227
Rp1228
(dp1229
g521
I00
sg522
g4
sg523
(lp1230
F0.04123
aF0.00729
aF0.03847
aF0.01675
aF0.01031
aF0.01563
aFnan
aFnan
aFnan
aFnan
aFnan
aFnan
aFnan
aFnan
aFnan
aFnan
aFnan
aFnan
aFnan
aFnan
aFnan
aFnan
aFnan
aFnan
aFnan
aFnan
aFnan
aFnan
aFnan
aFnan
aFnan
aFnan
aFnan
aFnan
aFnan
aFnan
aFnan
aFnan
aFnan
aFnan
aFnan
aFnan
aFnan
aFnan
aFnan
aFnan
aFnan
aFnan
aFnan
aFnan
aFnan
aFnan
aFnan
aFnan
aFnan
aFnan
aFnan
aFnan
aFnan
aFnan
aFnan
aFnan
aFnan
aFnan
asg703
g0
(g704
g2
Ntp1231
Rp1232
(dp1233
g708
VExprR1 = roundValues(2**(Gene_R1 - Gene_I),5)
p1234
sg710
VExprR1
p1235
sg712
I01
sg713
I00
sg714
VroundValues(2**(Gene_R1 - Gene_I),5)
p1236
sbsg716
g0
(g717
g718
(g719
g720
tp1237
tp1238
Rp1239
sg710
g1235
sbag0
(g517
g2
Ntp1240
Rp1241
(dp1242
g521
I00
sg522
g4
sg523
(lp1243
F0.11663
aF0.02916
aF0.125
aF0.02538
aF0.07179
aF0.04737
aFnan
aFnan
aFnan
aFnan
aFnan
aFnan
aFnan
aFnan
aFnan
aFnan
aFnan
aFnan
aFnan
aFnan
aFnan
aFnan
aFnan
aFnan
aFnan
aFnan
aFnan
aFnan
aFnan
aFnan
aFnan
aFnan
aFnan
aFnan
aFnan
aFnan
aFnan
aFnan
aFnan
aFnan
aFnan
aFnan
aFnan
aFnan
aFnan
aFnan
aFnan
aFnan
aFnan
aFnan
aFnan
aFnan
aFnan
aFnan
aFnan
aFnan
aFnan
aFnan
aFnan
aFnan
aFnan
aFnan
aFnan
aFnan
asg703
g0
(g704
g2
Ntp1244
Rp1245
(dp1246
g708
VExprR2 = roundValues(2**(Gene_R2 - Gene_I),5)
p1247
sg710
VExprR2
p1248
sg712
I01
sg713
I00
sg714
VroundValues(2**(Gene_R2 - Gene_I),5)
p1249
sbsg716
g0
(g717
g718
(g719
g720
tp1250
tp1251
Rp1252
sg710
g1248
sbag0
(g517
g2
Ntp1253
Rp1254
(dp1255
g521
I00
sg522
g4
sg523
(lp1256
F0.069
aF0.015
aF0.069
aF0.021
aF0.027
aF0.027
aFnan
aFnan
aFnan
aFnan
aFnan
aFnan
aFnan
aFnan
aFnan
aFnan
aFnan
aFnan
aFnan
aFnan
aFnan
aFnan
aFnan
aFnan
aFnan
aFnan
aFnan
aFnan
aFnan
aFnan
aFnan
aFnan
aFnan
aFnan
aFnan
aFnan
aFnan
aFnan
aFnan
aFnan
aFnan
aFnan
aFnan
aFnan
aFnan
aFnan
aFnan
aFnan
aFnan
aFnan
aFnan
aFnan
aFnan
aFnan
aFnan
aFnan
aFnan
aFnan
aFnan
aFnan
aFnan
aFnan
aFnan
aFnan
asg703
g0
(g704
g2
Ntp1257
Rp1258
(dp1259
g708
VGeoMean = roundValues(np.sqrt(ExprR1*ExprR2), 3)
p1260
sg710
VGeoMean
p1261
sg712
I01
sg713
I00
sg714
VroundValues(np.sqrt(ExprR1*ExprR2), 3)
p1262
sbsg716
g0
(g717
g718
(g719
g720
tp1263
tp1264
Rp1265
sg710
g1261
sbag0
(g517
g2
Ntp1266
Rp1267
(dp1268
g521
I00
sg522
g4
sg523
(lp1269
I1
aI1
aI1
aI1
aI1
aI1
aI1
aI1
aI1
aI1
aI1
aI1
aI1
aI2
aI2
aI2
aI3
aI3
aI3
aI1
aI1
aI1
aI2
aI2
aI2
aI3
aI3
aI3
aI1
aI1
aI1
aI2
aI2
aI2
aI3
aI3
aI3
aI1
aI1
aI1
aI1
aI1
aI1
aI1
aI1
aI1
aI1
aI1
aI1
aI1
aI1
aI1
aI1
aI1
aI1
aI1
aI1
aI1
aI1
aI1
aI1
aI1
aI1
aI1
asg703
g0
(g704
g2
Ntp1270
Rp1271
(dp1272
g708
Nsg710
S'BRpl'
p1273
sg712
I00
sg713
I00
sg714
Nsbsg716
g0
(g717
g718
(cscisheets.core.helpers.extended_array
ExtendedArray
p1274
g720
tp1275
tp1276
Rp1277
sg710
g1273
sbag0
(g517
g2
Ntp1278
Rp1279
(dp1280
g521
I00
sg522
g4
sg523
(lp1281
F23.0
aF22.86
aF22.8
aF23.0
aF18.24
aF18.22
aF18.36
aF19.72
aF19.75
aF20.01
aF26.68
aF27.13
aF27.21
aF26.76
aF26.71
aF26.19
aF29.98
aF30.12
aF29.41
aF19.92
aF19.85
aF20.0
aF21.86
aF22.09
aF21.84
aF23.89
aF23.54
aF24.27
aF22.18
aF21.71
aF21.75
aF23.88
aF23.42
aF23.63
aF24.59
aF24.61
aF24.34
aF29.95
aF30.45
aF29.88
aF23.22
aF23.8
aF23.49
aF26.37
aF26.36
aF26.17
aF24.8
aF24.97
aF24.63
aF18.91
aF18.78
aF18.8
aF20.5
aF20.47
aF20.28
aF24.8
aF24.97
aF24.63
aF18.91
aF18.78
aF18.8
aF20.5
aF20.47
aF20.28
asg703
g0
(g704
g2
Ntp1282
Rp1283
(dp1284
g708
Nsg710
S'Ct'
p1285
sg712
I00
sg713
I00
sg714
Nsbsg716
g1277
sg710
g1285
sbag0
(g517
g2
Ntp1286
Rp1287
(dp1288
g521
I00
sg522
g4
sg523
(lp1289
F0.8371
aF0.891
aF0.8956
aF0.8671
aF0.8266
aF0.8343
aF0.8496
aF0.8157
aF0.8543
aF0.8208
aF0.9399
aF0.8296
aF0.8361
aF0.8039
aF0.8399
aF0.7935
aF0.8264
aF0.7974
aF0.8252
aF0.9179
aF0.9783
aF0.8971
aF0.8957
aF0.8287
aF0.8387
aF0.8746
aF0.8493
aF0.8349
aF0.7857
aF0.8427
aF0.8637
aF0.8281
aF0.8203
aF0.8288
aF0.8138
aF0.8242
aF0.804
aF0.8418
aF0.7959
aF0.8071
aF0.7701
aF0.8746
aF0.8139
aF0.7795
aF0.7676
aF0.7947
aF0.8513
aF0.8485
aF0.8401
aF0.8715
aF0.8977
aF0.856
aF0.8179
aF0.8173
aF0.7894
aF0.8513
aF0.8485
aF0.8401
aF0.8715
aF0.8977
aF0.856
aF0.8179
aF0.8173
aF0.7894
asg703
g0
(g704
g2
Ntp1290
Rp1291
(dp1292
g708
Nsg710
S'Eff'
p1293
sg712
I00
sg713
I00
sg714
Nsbsg716
g1277
sg710
g1293
sbag0
(g517
g2
Ntp1294
Rp1295
(dp1296
g521
I00
sg522
g4
sg523
(lp1297
VI
p1298
ag1298
ag1298
ag1298
aVR1
p1299
ag1299
ag1299
aVR2
p1300
ag1300
ag1300
ag1298
ag1298
ag1298
ag1298
ag1298
ag1298
ag1298
ag1298
ag1298
ag1299
ag1299
ag1299
ag1299
ag1299
ag1299
ag1299
ag1299
ag1299
ag1300
ag1300
ag1300
ag1300
ag1300
ag1300
ag1300
ag1300
ag1300
ag1298
ag1298
ag1298
ag1299
ag1299
ag1299
ag1300
ag1300
ag1300
ag1298
ag1298
ag1298
ag1299
ag1299
ag1299
ag1300
ag1300
ag1300
ag1298
ag1298
ag1298
ag1299
ag1299
ag1299
ag1300
ag1300
ag1300
asg703
g0
(g704
g2
Ntp1301
Rp1302
(dp1303
g708
Nsg710
S'RunType'
p1304
sg712
I00
sg713
I00
sg714
Nsbsg716
g1277
sg710
g1304
sbag0
(g517
g2
Ntp1305
Rp1306
(dp1307
g521
I00
sg522
g4
sg523
(lp1308
Va
p1309
aVb
p1310
aVc
p1311
aVd
p1312
ag1309
ag1310
ag1311
ag1309
ag1310
ag1311
ag1309
ag1310
ag1311
ag1309
ag1310
ag1311
ag1309
ag1310
ag1311
ag1309
ag1310
ag1311
ag1309
ag1310
ag1311
ag1309
ag1310
ag1311
ag1309
ag1310
ag1311
ag1309
ag1310
ag1311
ag1309
ag1310
ag1311
ag1309
ag1310
ag1311
ag1309
ag1310
ag1311
ag1309
ag1310
ag1311
ag1309
ag1310
ag1311
ag1309
ag1310
ag1311
ag1309
ag1310
ag1311
ag1309
ag1310
ag1311
ag1309
ag1310
ag1311
ag1309
ag1310
ag1311
asg703
g0
(g704
g2
Ntp1313
Rp1314
(dp1315
g708
Nsg710
S'TRpl'
p1316
sg712
I00
sg713
I00
sg714
Nsbsg716
g1277
sg710
g1316
sbag0
(g517
g2
Ntp1317
Rp1318
(dp1319
g521
I00
sg522
g4
sg523
(lp1320
I0
aI0
aI0
aI0
aI0
aI0
aI0
aI0
aI0
aI0
aI1
aI1
aI1
aI1
aI1
aI1
aI1
aI1
aI1
aI1
aI1
aI1
aI1
aI1
aI1
aI1
aI1
aI1
aI1
aI1
aI1
aI1
aI1
aI1
aI1
aI1
aI1
aI2
aI2
aI2
aI2
aI2
aI2
aI2
aI2
aI2
aI3
aI3
aI3
aI3
aI3
aI3
aI3
aI3
aI3
aI4
aI4
aI4
aI4
aI4
aI4
aI4
aI4
aI4
asg703
g0
(g704
g2
Ntp1321
Rp1322
(dp1323
g708
Nsg710
S'Treatment'
p1324
sg712
I00
sg713
I00
sg714
Nsbsg716
g1277
sg710
g1324
sbasS'_is_evaluate_formulas'
p1325
I01
sS'_prologue'
p1326
g0
(g704
g2
Ntp1327
Rp1328
(dp1329
g708
V# Prologue\u000aimport math as mt\u000aimport numpy as np\u000afrom os import listdir\u000afrom os.path import isfile, join\u000aimport pandas as pd\u000aimport scipy as sp\u000afrom numpy import nan  # Must follow sympy import \u000a\u000axlsx_path =   '/mnt/hgfs/josephhellerstein/home/Technical/SciSheets/CaseStudies/Kristen/workbooks/data.xlsx'\u000agene = ParmValues[0]\u000arun = ParmValues[1] == 'True'\u000ashow_raw = ParmValues[2] == 'True'\u000ashow_block1 = ParmValues[3] == 'True'\u000ashow_block2 = ParmValues[4] == 'True'\u000ashow_block3 = ParmValues[5] == 'True'\u000ashow_params = ParmValues[8] == 'True'\u000a#show_params = True\u000amax_std  = float(ParmValues[6])\u000amin_eff = float(ParmValues[7])\u000aworksheet = gene + "-I"\u000as.getTable().setIsEvaluateFormulas(run)\u000as.setColumnVisibility()\u000as.setColumnVisibility(['Groups', 'GroupedEff', 'GroupedCt', 'StdFilteredGroupedCt', 'MeanCt',\u000a    'StdCt'], is_visible=show_block1)\u000as.setColumnVisibility(['BioRuns', 'Gene_I', 'Gene_R1', 'Gene_R2', 'ExprR1', 'ExprR2', \u000a    'GeoMean'], is_visible=show_block2)\u000as.setColumnVisibility(['GeoGroups', 'GroupedGeoMeans', 'NrmlGeoGroupedMeans', \u000a    'MeanNrmlGeoGroups', 'StdNrmlGeoGroups'], is_visible=show_block3)\u000aif run:\u000a  Groups = []\u000a  GroupedCt = []\u000a  GroupedEff = []\u000a  MeanCt = []\u000a  Imp = []\u000a  s.deleteColumn('Ct')\u000a  s.deleteColumn('RunType')\u000a  s.deleteColumn('BRpl')\u000a  s.deleteColumn('TRpl')\u000a  s.deleteColumn('Treatment')\u000a  s.deleteColumn('Eff')\u000aif run:\u000a  importExcelToTable(s, xlsx_path, worksheet=worksheet,\u000a      column_position='ParmValues',\u000a      names=['Treatment', 'RunType', 'BRpl', 'TRpl', 'Eff', 'Ct'])\u000as.setColumnVisibility(['BRpl', 'Ct', 'Eff', 'RunType', 'TRpl', 'Treatment'], is_visible=show_raw)\u000as.setColumnVisibility(['ParmNames', 'ParmValues'], show_params)
p1330
sg710
VSingleGene
p1331
sg712
I00
sg713
I00
sg714
V# Prologue\u000aimport math as mt\u000aimport numpy as np\u000afrom os import listdir\u000afrom os.path import isfile, join\u000aimport pandas as pd\u000aimport scipy as sp\u000afrom numpy import nan  # Must follow sympy import \u000a\u000axlsx_path =   '/mnt/hgfs/josephhellerstein/home/Technical/SciSheets/CaseStudies/Kristen/workbooks/data.xlsx'\u000agene = ParmValues[0]\u000arun = ParmValues[1] == 'True'\u000ashow_raw = ParmValues[2] == 'True'\u000ashow_block1 = ParmValues[3] == 'True'\u000ashow_block2 = ParmValues[4] == 'True'\u000ashow_block3 = ParmValues[5] == 'True'\u000ashow_params = ParmValues[8] == 'True'\u000a#show_params = True\u000amax_std  = float(ParmValues[6])\u000amin_eff = float(ParmValues[7])\u000aworksheet = gene + "-I"\u000as.getTable().setIsEvaluateFormulas(run)\u000as.setColumnVisibility()\u000as.setColumnVisibility(['Groups', 'GroupedEff', 'GroupedCt', 'StdFilteredGroupedCt', 'MeanCt',\u000a    'StdCt'], is_visible=show_block1)\u000as.setColumnVisibility(['BioRuns', 'Gene_I', 'Gene_R1', 'Gene_R2', 'ExprR1', 'ExprR2', \u000a    'GeoMean'], is_visible=show_block2)\u000as.setColumnVisibility(['GeoGroups', 'GroupedGeoMeans', 'NrmlGeoGroupedMeans', \u000a    'MeanNrmlGeoGroups', 'StdNrmlGeoGroups'], is_visible=show_block3)\u000aif run:\u000a  Groups = []\u000a  GroupedCt = []\u000a  GroupedEff = []\u000a  MeanCt = []\u000a  Imp = []\u000a  s.deleteColumn('Ct')\u000a  s.deleteColumn('RunType')\u000a  s.deleteColumn('BRpl')\u000a  s.deleteColumn('TRpl')\u000a  s.deleteColumn('Treatment')\u000a  s.deleteColumn('Eff')\u000aif run:\u000a  importExcelToTable(s, xlsx_path, worksheet=worksheet,\u000a      column_position='ParmValues',\u000a      names=['Treatment', 'RunType', 'BRpl', 'TRpl', 'Eff', 'Ct'])\u000as.setColumnVisibility(['BRpl', 'Ct', 'Eff', 'RunType', 'TRpl', 'Treatment'], is_visible=show_raw)\u000as.setColumnVisibility(['ParmNames', 'ParmValues'], show_params)
p1332
sbsS'_epilogue'
p1333
g0
(g704
g2
Ntp1334
Rp1335
(dp1336
g708
V# Epilogue\u000aif run:\u000a  worksheet = "%s-O" % gene\u000a  exportTableToExcel(s, xlsx_path, worksheet=worksheet, columns=['GeoGroups',  \u000a      'MeanNrmlGeoGroups', 'StdNrmlGeoGroups'])\u000a
p1337
sg710
g1331
sg712
I00
sg713
I00
sg714
V# Epilogue\u000aif run:\u000a  worksheet = "%s-O" % gene\u000a  exportTableToExcel(s, xlsx_path, worksheet=worksheet, columns=['GeoGroups',  \u000a      'MeanNrmlGeoGroups', 'StdNrmlGeoGroups'])\u000a
p1338
sbsg710
g1331
sS'_columns'
p1339
(lp1340
g0
(g517
g2
Ntp1341
Rp1342
(dp1343
g521
I01
sg522
g4
sg523
(lp1344
S'1'
p1345
aS'2'
p1346
aS'3'
p1347
aS'4'
p1348
aS'5'
p1349
aS'6'
p1350
aS'7'
p1351
aS'8'
p1352
aS'9'
p1353
aS'10'
p1354
aS'11'
p1355
aS'12'
p1356
aS'13'
p1357
aS'14'
p1358
aS'15'
p1359
aS'16'
p1360
aS'17'
p1361
aS'18'
p1362
aS'19'
p1363
aS'20'
p1364
aS'21'
p1365
aS'22'
p1366
aS'23'
p1367
aS'24'
p1368
aS'25'
p1369
aS'26'
p1370
aS'27'
p1371
aS'28'
p1372
aS'29'
p1373
aS'30'
p1374
aS'31'
p1375
aS'32'
p1376
aS'33'
p1377
aS'34'
p1378
aS'35'
p1379
aS'36'
p1380
aS'37'
p1381
aS'38'
p1382
aS'39'
p1383
aS'40'
p1384
aS'41'
p1385
aS'42'
p1386
aS'43'
p1387
aS'44'
p1388
aS'45'
p1389
aS'46'
p1390
aS'47'
p1391
aS'48'
p1392
aS'49'
p1393
aS'50'
p1394
aS'51'
p1395
aS'52'
p1396
aS'53'
p1397
aS'54'
p1398
aS'55'
p1399
aS'56'
p1400
aS'57'
p1401
aS'58'
p1402
aS'59'
p1403
aS'60'
p1404
aS'61'
p1405
aS'62'
p1406
aS'63'
p1407
aS'64'
p1408
asg703
g0
(g704
g2
Ntp1409
Rp1410
(dp1411
g708
Nsg864
g1342
sg712
I00
sg713
I00
sg714
Nsbsg716
g0
(g717
g718
(g719
g720
tp1412
tp1413
Rp1414
sg710
S'row'
p1415
sbag0
(g517
g2
Ntp1416
Rp1417
(dp1418
g521
I00
sg522
g4
sg523
(lp1419
Vgene
p1420
aVrun
p1421
aVshow_raw
p1422
aVshow_block1
p1423
aVshow_block2
p1424
aVshow_block3
p1425
aVmax_std
p1426
aVmin_eff
p1427
aVshow_params
p1428
aVnan
p1429
aVnan
p1430
aVnan
p1431
aVnan
p1432
aVnan
p1433
aVnan
p1434
aVnan
p1435
aVnan
p1436
aVnan
p1437
aVnan
p1438
aVnan
p1439
aVnan
p1440
aVnan
p1441
aVnan
p1442
aVnan
p1443
aVnan
p1444
aVnan
p1445
aVnan
p1446
aVnan
p1447
aVnan
p1448
aVnan
p1449
aVnan
p1450
aVnan
p1451
aVnan
p1452
aVnan
p1453
aVnan
p1454
aVnan
p1455
aVnan
p1456
aVnan
p1457
aVnan
p1458
aVnan
p1459
aVnan
p1460
aVnan
p1461
aVnan
p1462
aVnan
p1463
aVnan
p1464
aVnan
p1465
aVnan
p1466
aVnan
p1467
aVnan
p1468
aVnan
p1469
aVnan
p1470
aVnan
p1471
aVnan
p1472
aVnan
p1473
aNaNaNaNaNaNaNaNaNaNasg703
g0
(g704
g2
Ntp1474
Rp1475
(dp1476
g708
Nsg864
g1417
sg712
I00
sg713
I00
sg714
Nsbsg716
g0
(g717
g718
(g719
g720
tp1477
tp1478
Rp1479
sg710
VParmNames
p1480
sbag0
(g517
g2
Ntp1481
Rp1482
(dp1483
g521
I00
sg522
g4
sg523
(lp1484
VGene1
p1485
aVTrue
p1486
aVFalse
p1487
aVFalse
p1488
aVFalse
p1489
aVTrue
p1490
aF0.5
aF0.7
aVTrue
p1491
aV
p1492
aVnan
p1493
aVnan
p1494
aVnan
p1495
aVnan
p1496
aVnan
p1497
aVnan
p1498
aVnan
p1499
aVnan
p1500
aVnan
p1501
aVnan
p1502
aVnan
p1503
aVnan
p1504
aVnan
p1505
aVnan
p1506
aVnan
p1507
aVnan
p1508
aVnan
p1509
aVnan
p1510
aVnan
p1511
aVnan
p1512
aVnan
p1513
aVnan
p1514
aVnan
p1515
aVnan
p1516
aVnan
p1517
aVnan
p1518
aVnan
p1519
aVnan
p1520
aVnan
p1521
aVnan
p1522
aVnan
p1523
aVnan
p1524
aVnan
p1525
aVnan
p1526
aVnan
p1527
aVnan
p1528
aVnan
p1529
aVnan
p1530
aVnan
p1531
aVnan
p1532
aVnan
p1533
aVnan
p1534
aVnan
p1535
aVnan
p1536
aNaNaNaNaNaNaNaNaNaNasg703
g0
(g704
g2
Ntp1537
Rp1538
(dp1539
g708
Nsg710
VParmValues
p1540
sg712
I00
sg713
I00
sg714
Nsbsg716
g0
(g717
g718
(g719
g720
tp1541
tp1542
Rp1543
sg710
g1540
sbag1318
ag1295
ag1267
ag1306
ag1287
ag1279
ag519
ag725
ag870
ag1007
ag1146
ag1159
ag1170
ag1201
ag1212
ag1220
ag1228
ag1241
ag1254
ag0
(g517
g2
Ntp1544
Rp1545
(dp1546
g521
I00
sg522
g4
sg523
(lp1547
F0.0
aF1.0
aF2.0
aF3.0
asg703
g0
(g704
g2
Ntp1548
Rp1549
(dp1550
g708
Vcat_vals = [br[0] for br in pruneNulls(BioRuns)]\u000aclean_geo = [x for x in GeoMean if x is not None]\u000aGeoGroups, groupedGeoMeans = groupBy(cat_vals, clean_geo)\u000aGroupedGeoMeans = roundValues(groupedGeoMeans, 3)
p1551
sg710
VGeoGroups
p1552
sg712
I00
sg713
I00
sg714
Vcat_vals = [br[0] for br in pruneNulls(BioRuns)]\u000aclean_geo = [x for x in GeoMean if x is not None]\u000aGeoGroups, groupedGeoMeans = groupBy(cat_vals, clean_geo)\u000aGroupedGeoMeans = roundValues(groupedGeoMeans, 3)
p1553
sbsg716
g0
(g717
g718
(g719
g720
tp1554
tp1555
Rp1556
sg710
g1552
sbag0
(g517
g2
Ntp1557
Rp1558
(dp1559
g521
I00
sg522
g4
sg523
(lp1560
g728
(g719
(I0
tp1561
g730
tp1562
Rp1563
(I1
(I1
tp1564
g736
I00
S'D\x8bl\xe7\xfb\xa9\xb1?'
p1565
tp1566
bag728
(g719
(I0
tp1567
g730
tp1568
Rp1569
(I1
(I3
tp1570
g736
I00
S'\xb8\x1e\x85\xebQ\xb8\x8e?D\x8bl\xe7\xfb\xa9\xb1?\x1b/\xdd$\x06\x81\x95?'
p1571
tp1572
bag728
(g719
(I0
tp1573
g730
tp1574
Rp1575
(I1
(I1
tp1576
g736
I00
S'\xd9\xce\xf7S\xe3\xa5\x9b?'
p1577
tp1578
bag728
(g719
(I0
tp1579
g730
tp1580
Rp1581
(I1
(I1
tp1582
g736
I00
S'\xd9\xce\xf7S\xe3\xa5\x9b?'
p1583
tp1584
basg703
g0
(g704
g2
Ntp1585
Rp1586
(dp1587
g708
Nsg864
g1558
sg712
I00
sg713
I00
sg714
Nsbsg716
g0
(g717
g718
(g719
g720
tp1588
tp1589
Rp1590
sg710
VGroupedGeoMeans
p1591
sbag0
(g517
g2
Ntp1592
Rp1593
(dp1594
g521
I00
sg522
g4
sg523
(lp1595
g728
(g719
(I0
tp1596
g730
tp1597
Rp1598
(I1
(I1
tp1599
g736
I00
S'\x00\x00\x00\x00\x00\x00\xf0?'
p1600
tp1601
bag728
(g719
(I0
tp1602
g730
tp1603
Rp1604
(I1
(I3
tp1605
g736
I00
S'-\xb2\x9d\xef\xa7\xc6\xcb?\x00\x00\x00\x00\x00\x00\xf0?\xdb\xf9~j\xbct\xd3?'
p1606
tp1607
bag728
(g719
(I0
tp1608
g730
tp1609
Rp1610
(I1
(I1
tp1611
g736
I00
S'\xa0\x1a/\xdd$\x06\xd9?'
p1612
tp1613
bag728
(g719
(I0
tp1614
g730
tp1615
Rp1616
(I1
(I1
tp1617
g736
I00
S'\xa0\x1a/\xdd$\x06\xd9?'
p1618
tp1619
basg703
g0
(g704
g2
Ntp1620
Rp1621
(dp1622
g708
Vref = np.mean(GroupedGeoMeans[0])\u000aNrmlGeoGroupedMeans = [ [x/ref for x in g] for g in GroupedGeoMeans if g is not None]  \u000aNrmlGeoGroupedMeans = roundValues(NrmlGeoGroupedMeans, 3)
p1623
sg710
VNrmlGeoGroupedMeans
p1624
sg712
I00
sg713
I00
sg714
Vref = np.mean(GroupedGeoMeans[0])\u000aNrmlGeoGroupedMeans = [ [x/ref for x in g] for g in GroupedGeoMeans if g is not None]  \u000aNrmlGeoGroupedMeans = roundValues(NrmlGeoGroupedMeans, 3)
p1625
sbsg716
g0
(g717
g718
(g719
g720
tp1626
tp1627
Rp1628
sg710
g1624
sbag0
(g517
g2
Ntp1629
Rp1630
(dp1631
g521
I00
sg522
g4
sg523
(lp1632
F1.0
aF0.507
aF0.391
aF0.391
asg703
g0
(g704
g2
Ntp1633
Rp1634
(dp1635
g708
VMeanNrmlGeoGroups = [round(np.mean(g), 3) for g in NrmlGeoGroupedMeans]
p1636
sg710
VMeanNrmlGeoGroups
p1637
sg712
I01
sg713
I00
sg714
V[round(np.mean(g), 3) for g in NrmlGeoGroupedMeans]
p1638
sbsg716
g0
(g717
g718
(g719
g720
tp1639
tp1640
Rp1641
sg710
g1637
sbag0
(g517
g2
Ntp1642
Rp1643
(dp1644
g521
I00
sg522
g4
sg523
(lp1645
F0.248
asg703
g0
(g704
g2
Ntp1646
Rp1647
(dp1648
g708
VStdNrmlGeoGroups = []\u000afor grp in NrmlGeoGroupedMeans:\u000a  if len(grp) > 1:\u000a    val = np.std(grp, ddof=1)/np.sqrt(len(grp))\u000a    val = round(val, 3)\u000a    StdNrmlGeoGroups.append(val)\u000a
p1649
sg710
VStdNrmlGeoGroups
p1650
sg712
I00
sg713
I00
sg714
VStdNrmlGeoGroups = []\u000afor grp in NrmlGeoGroupedMeans:\u000a  if len(grp) > 1:\u000a    val = np.std(grp, ddof=1)/np.sqrt(len(grp))\u000a    val = round(val, 3)\u000a    StdNrmlGeoGroups.append(val)\u000a
p1651
sbsg716
g0
(g717
g718
(g719
g720
tp1652
tp1653
Rp1654
sg710
g1650
sbasg510
V/home/ubuntu/SciSheets/mysite/user/guest/tables/kristen_single_gene.pcl
p1655
sb.