ccopy_reg
_reconstructor
p0
(cscisheets.ui.dt_table
DTTable
p1
c__builtin__
object
p2
Ntp3
Rp4
(dp5
S'_hidden_columns'
p6
(lp7
g0
(cscisheets.core.column
Column
p8
g2
Ntp9
Rp10
(dp11
S'_asis'
p12
I00
sS'_owning_table'
p13
g4
sS'_cells'
p14
(lp15
I1
aI1
aI1
aI2
aI2
aI2
aI3
aI3
aI3
aI1
aI1
aI1
aI1
aI1
aI1
aI1
aI1
aI1
aI1
aI1
aI1
aI2
aI2
aI2
aI3
aI3
aI3
aI1
aI1
aI1
aI1
aI1
aI1
aI1
aI1
aI1
aI1
aI1
aI1
aI2
aI2
aI2
aI3
aI3
aI3
aI1
aI1
aI1
aI1
aI1
aI1
aI1
aI1
aI1
asS'_formula_statement'
p16
g0
(cscisheets.core.column
FormulaStatement
p17
g2
Ntp18
Rp19
(dp20
S'_statement'
p21
NsS'_column'
p22
g10
sS'_isExpression'
p23
I00
sS'_isStatement'
p24
I00
sS'_formula'
p25
NsbsS'_data_class'
p26
g0
(cscisheets.core.helpers.api_util
DataClass
p27
c__builtin__
tuple
p28
(cnumpy
ndarray
p29
cscisheets.core.helpers.api_util
makeArray
p30
tp31
tp32
Rp33
sS'_name'
p34
S'BRpl'
p35
sbag0
(g8
g2
Ntp36
Rp37
(dp38
g12
I00
sg13
g4
sg14
(lp39
F22.42
aF22.5
aF22.44
aF21.92
aF22.03
aF21.94
aF23.4
aF23.47
aF23.41
aF23.48
aF23.31
aF23.45
aF18.82
aF18.97
aF18.92
aF18.31
aF18.29
aF18.15
aF19.92
aF19.85
aF20.0
aF21.86
aF22.09
aF21.84
aF23.89
aF23.54
aF24.27
aF23.22
aF23.8
aF23.49
aF18.91
aF18.78
aF18.8
aF18.24
aF18.22
aF18.36
aF22.18
aF21.71
aF21.75
aF23.88
aF23.42
aF23.63
aF24.59
aF24.61
aF24.34
aF26.37
aF26.36
aF26.17
aF20.5
aF20.47
aF20.28
aF19.72
aF19.75
aF20.01
asg16
g0
(g17
g2
Ntp40
Rp41
(dp42
g21
Nsg22
g37
sg23
I00
sg24
I00
sg25
Nsbsg26
g33
sg34
S'Ct'
p43
sbag0
(g8
g2
Ntp44
Rp45
(dp46
g12
I00
sg13
g4
sg14
(lp47
F0.8453
aF0.8426
aF0.8524
aF0.8658
aF0.7809
aF0.8512
aF0.8442
aF0.8357
aF0.7658
aF0.8352
aF0.7886
aF0.8105
aF0.876
aF0.8597
aF0.8873
aF0.919
aF0.9106
aF0.9129
aF0.9179
aF0.9783
aF0.8971
aF0.8957
aF0.8287
aF0.8387
aF0.8746
aF0.8493
aF0.8349
aF0.7701
aF0.8746
aF0.8139
aF0.8715
aF0.8977
aF0.856
aF0.8266
aF0.8343
aF0.8496
aF0.7857
aF0.8427
aF0.8637
aF0.8281
aF0.8203
aF0.8288
aF0.8138
aF0.8242
aF0.804
aF0.7795
aF0.7676
aF0.7947
aF0.8179
aF0.8173
aF0.7894
aF0.8157
aF0.8543
aF0.8208
asg16
g0
(g17
g2
Ntp48
Rp49
(dp50
g21
Nsg22
g45
sg23
I00
sg24
I00
sg25
Nsbsg26
g33
sg34
S'Eff'
p51
sbag0
(g8
g2
Ntp52
Rp53
(dp54
g12
I00
sg13
g4
sg14
(lp55
VI
p56
ag56
ag56
ag56
ag56
ag56
ag56
ag56
ag56
ag56
ag56
ag56
ag56
ag56
ag56
ag56
ag56
ag56
aVR1
p57
aVR1
p58
aVR1
p59
aVR1
p60
aVR1
p61
aVR1
p62
aVR1
p63
aVR1
p64
aVR1
p65
aVR1
p66
aVR1
p67
aVR1
p68
aVR1
p69
aVR1
p70
aVR1
p71
aVR1
p72
aVR1
p73
aVR1
p74
aVR2
p75
aVR2
p76
aVR2
p77
aVR2
p78
aVR2
p79
aVR2
p80
aVR2
p81
aVR2
p82
aVR2
p83
aVR2
p84
aVR2
p85
aVR2
p86
aVR2
p87
aVR2
p88
aVR2
p89
aVR2
p90
aVR2
p91
aVR2
p92
asg16
g0
(g17
g2
Ntp93
Rp94
(dp95
g21
Nsg22
g53
sg23
I00
sg24
I00
sg25
Nsbsg26
g33
sg34
S'RunType'
p96
sbag0
(g8
g2
Ntp97
Rp98
(dp99
g12
I00
sg13
g4
sg14
(lp100
VSEP1 2012 P17F4 3a
p101
aVSEP1 2012 P17F4 b
p102
aVSEP1 2012 P17F4 c
p103
aVSEP1 2012 P17F5 a
p104
aVSEP1 2012 P17F5 b
p105
aVSEP1 2012 P17F5 c
p106
aVSEP1 2012 P1F3 SEP1a
p107
aVSEP1 2012 P1F3 SEP1b
p108
aVSEP1 2012 P1F3 SEP1c
p109
aVSEP1-2 2012 P11aF2 a
p110
aVSEP1-2 2012 P11aF2 b
p111
aVSEP1-2 2012 P11aF2 c
p112
aVSEP1-3 2012 P15F2 a
p113
aVSEP1-3 2012 P15F2 b
p114
aVSEP1-3 2012 P15F2 c
p115
aVuntreated 2012 P12F1 SEP3-3 1:2a
p116
aVuntreated 2012 P12F1 SEP3-3 1:2b
p117
aVuntreated 2012 P12F1 SEP3-3 1:2c
p118
aVSEP1 2012 P17F4 ACTa
p119
aVSEP1 2012 P17F4 ACTb
p120
aVSEP1 2012 P17F4 ACTc
p121
aVSEP1 2012 P17F5 ACTa
p122
aVSEP1 2012 P17F5 ACTb
p123
aVSEP1 2012 P17F5 ACTc
p124
aVSEP1 2012 P1F3 ACTa
p125
aVSEP1 2012 P1F3 ACTb
p126
aVSEP1 2012 P1F3 ACTc
p127
aVSEP1-2 2012 P11aF2 ACTa
p128
aVSEP1-2 2012 P11aF2 ACTb
p129
aVSEP1-2 2012 P11aF2 ACTc
p130
aVSEP1-3 2012 P15F2 ACTa
p131
aVSEP1-3 2012 P15F2 ACTb
p132
aVSEP1-3 2012 P15F2 ACTc
p133
aVuntreated 2012 P12F1 ACTa
p134
aVuntreated 2012 P12F1 ACTb
p135
aVuntreated 2012 P12F1 ACTc
p136
aVSEP1 2012 P17F4 EEF1a
p137
aVSEP1 2012 P17F4 EEF1b
p138
aVSEP1 2012 P17F4 EEF1c
p139
aVSEP1 2012 P17F5 EEF1a
p140
aVSEP1 2012 P17F5 EEF1b
p141
aVSEP1 2012 P17F5 EEF1c
p142
aVSEP1 2012 P1F3 EEF1a
p143
aVSEP1 2012 P1F3 EEF1b
p144
aVSEP1 2012 P1F3 EEF1c
p145
aVSEP1-2 2012 P11aF2 EEF1a
p146
aVSEP1-2 2012 P11aF2 EEF1b
p147
aVSEP1-2 2012 P11aF2 EEF1c
p148
aVSEP1-3 2012 P15F2 EEF1a
p149
aVSEP1-3 2012 P15F2 EEF1b
p150
aVSEP1-3 2012 P15F2 EEF1c
p151
aVuntreated 2012 P12F1 EEF1a
p152
aVuntreated 2012 P12F1 EEF1b
p153
aVuntreated 2012 P12F1 EEF1c
p154
asg16
g0
(g17
g2
Ntp155
Rp156
(dp157
g21
Nsg22
g98
sg23
I00
sg24
I00
sg25
Nsbsg26
g33
sg34
S'SmplName'
p158
sbag0
(g8
g2
Ntp159
Rp160
(dp161
g12
I00
sg13
g4
sg14
(lp162
Va
p163
aVb
p164
aVc
p165
ag163
ag164
ag165
ag163
ag164
ag165
ag163
ag164
ag165
ag163
ag164
ag165
ag163
ag164
ag165
ag163
ag164
ag165
ag163
ag164
ag165
ag163
ag164
ag165
ag163
ag164
ag165
ag163
ag164
ag165
ag163
ag164
ag165
ag163
ag164
ag165
ag163
ag164
ag165
ag163
ag164
ag165
ag163
ag164
ag165
ag163
ag164
ag165
ag163
ag164
ag165
asg16
g0
(g17
g2
Ntp166
Rp167
(dp168
g21
Nsg22
g160
sg23
I00
sg24
I00
sg25
Nsbsg26
g33
sg34
S'TRpl'
p169
sbag0
(g8
g2
Ntp170
Rp171
(dp172
g12
I00
sg13
g4
sg14
(lp173
I1
aI1
aI1
aI1
aI1
aI1
aI1
aI1
aI1
aI2
aI2
aI2
aI3
aI3
aI3
aI0
aI0
aI0
aI1
aI1
aI1
aI1
aI1
aI1
aI1
aI1
aI1
aI2
aI2
aI2
aI3
aI3
aI3
aI0
aI0
aI0
aI1
aI1
aI1
aI1
aI1
aI1
aI1
aI1
aI1
aI2
aI2
aI2
aI3
aI3
aI3
aI0
aI0
aI0
asg16
g0
(g17
g2
Ntp174
Rp175
(dp176
g21
Nsg22
g171
sg23
I00
sg24
I00
sg25
Nsbsg26
g33
sg34
S'Treatment'
p177
sbag0
(g8
g2
Ntp178
Rp179
(dp180
g12
I00
sg13
g4
sg14
(lp181
(lp182
S'1'
p183
aS'I'
p184
aS'0'
p185
aa(lp186
g183
aS'I'
p187
ag183
aa(lp188
g183
aS'I'
p189
aS'2'
p190
aa(lp191
g183
aS'I'
p192
aS'3'
p193
aa(lp194
g183
aS'R1'
p195
ag185
aa(lp196
g183
aS'R1'
p197
ag183
aa(lp198
g183
aS'R1'
p199
ag190
aa(lp200
g183
aS'R1'
p201
ag193
aa(lp202
g183
aS'R2'
p203
ag185
aa(lp204
g183
aS'R2'
p205
ag183
aa(lp206
g183
aS'R2'
p207
ag190
aa(lp208
g183
aS'R2'
p209
ag193
aa(lp210
g190
aS'I'
p211
ag183
aa(lp212
g190
aS'R1'
p213
ag183
aa(lp214
g190
aS'R2'
p215
ag183
aa(lp216
g193
aS'I'
p217
ag183
aa(lp218
g193
aS'R1'
p219
ag183
aa(lp220
g193
aS'R2'
p221
ag183
aaNaNaNaNaNaNaNaNaNaNaNaNaNaNaNaNaNaNaNaNaNaNaNaNaNaNaNaNaNaNaNaNaNaNaNaNasg16
g0
(g17
g2
Ntp222
Rp223
(dp224
g21
Vif run:\u000a  selector = Eff > 0.7\u000a  GroupingColumns =   [\u000a      BRpl[selector],\u000a      RunType[selector], \u000a      Treatment[selector]\u000a    ]\u000a  Groups, groupedCt = groupBy(\u000a    GroupingColumns, Ct[selector])\u000a  Groups, groupedEff = groupBy(\u000a    GroupingColumns, Eff[selector])\u000a  GroupedCt = roundValues(groupedCt)\u000a  GroupedEff = roundValues(groupedEff)
p225
sg22
g179
sg23
I00
sg24
I00
sg25
Vif run:\u000a  selector = Eff > 0.7\u000a  GroupingColumns =   [\u000a      BRpl[selector],\u000a      RunType[selector], \u000a      Treatment[selector]\u000a    ]\u000a  Groups, groupedCt = groupBy(\u000a    GroupingColumns, Ct[selector])\u000a  Groups, groupedEff = groupBy(\u000a    GroupingColumns, Eff[selector])\u000a  GroupedCt = roundValues(groupedCt)\u000a  GroupedEff = roundValues(groupedEff)
p226
sbsg26
g0
(g27
g28
(g29
g30
tp227
tp228
Rp229
sg34
VGroups
p230
sbag0
(g8
g2
Ntp231
Rp232
(dp233
g12
I00
sg13
g4
sg14
(lp234
(lp235
F0.9
aF0.9
aF0.9
aa(lp236
F0.8
aF0.8
aF0.9
aa(lp237
F0.8
aF0.8
aF0.8
aa(lp238
F0.9
aF0.9
aF0.9
aa(lp239
F0.8
aF0.8
aF0.8
aa(lp240
F0.9
aF1.0
aF0.9
aa(lp241
F0.8
aF0.9
aF0.8
aa(lp242
F0.9
aF0.9
aF0.9
aa(lp243
F0.8
aF0.9
aF0.8
aa(lp244
F0.8
aF0.8
aF0.9
aa(lp245
F0.8
aF0.8
aF0.8
aa(lp246
F0.8
aF0.8
aF0.8
aa(lp247
F0.9
aF0.8
aF0.9
aa(lp248
F0.9
aF0.8
aF0.8
aa(lp249
F0.8
aF0.8
aF0.8
aa(lp250
F0.8
aF0.8
aF0.8
aa(lp251
F0.9
aF0.8
aF0.8
aa(lp252
F0.8
aF0.8
aF0.8
aaNaNaNaNaNaNaNaNaNaNaNaNaNaNaNaNaNaNaNaNaNaNaNaNaNaNaNaNaNaNaNaNaNaNaNaNasg16
g0
(g17
g2
Ntp253
Rp254
(dp255
g21
Nsg22
g232
sg23
I00
sg24
I00
sg25
Nsbsg26
g0
(g27
g28
(g29
g30
tp256
tp257
Rp258
sg34
VGroupedEff
p259
sbag0
(g8
g2
Ntp260
Rp261
(dp262
g12
I00
sg13
g4
sg14
(lp263
(lp264
F18.3
aF18.3
aF18.1
aa(lp265
F22.4
aF22.5
aF22.4
aa(lp266
F23.5
aF23.3
aF23.4
aa(lp267
F18.8
aF19.0
aF18.9
aa(lp268
F18.2
aF18.2
aF18.4
aa(lp269
F19.9
aF19.9
aF20.0
aa(lp270
F23.2
aF23.8
aF23.5
aa(lp271
F18.9
aF18.8
aF18.8
aa(lp272
F19.7
aF19.8
aF20.0
aa(lp273
F22.2
aF21.7
aF21.8
aa(lp274
F26.4
aF26.4
aF26.2
aa(lp275
F20.5
aF20.5
aF20.3
aa(lp276
F21.9
aF22.0
aF21.9
aa(lp277
F21.9
aF22.1
aF21.8
aa(lp278
F23.9
aF23.4
aF23.6
aa(lp279
F23.4
aF23.5
aF23.4
aa(lp280
F23.9
aF23.5
aF24.3
aa(lp281
F24.6
aF24.6
aF24.3
aaNaNaNaNaNaNaNaNaNaNaNaNaNaNaNaNaNaNaNaNaNaNaNaNaNaNaNaNaNaNaNaNaNaNaNaNasg16
g0
(g17
g2
Ntp282
Rp283
(dp284
g21
Nsg22
g261
sg23
I00
sg24
I00
sg25
Nsbsg26
g0
(g27
g28
(g29
g30
tp285
tp286
Rp287
sg34
VGroupedCt
p288
sbag0
(g8
g2
Ntp289
Rp290
(dp291
g12
I00
sg13
g4
sg14
(lp292
F18.2
aF22.4
aF23.4
aF18.9
aF18.3
aF19.9
aF23.5
aF18.8
aF19.8
aF21.9
aF26.3
aF20.4
aF21.9
aF21.9
aF23.6
aF23.4
aF23.9
aF24.5
aFnan
aFnan
aFnan
aFnan
aFnan
aFnan
aFnan
aFnan
aFnan
aFnan
aFnan
aFnan
aFnan
aFnan
aFnan
aFnan
aFnan
aFnan
aFnan
aFnan
aFnan
aFnan
aFnan
aFnan
aFnan
aFnan
aFnan
aFnan
aFnan
aFnan
aFnan
aFnan
aFnan
aFnan
aFnan
aFnan
asg16
g0
(g17
g2
Ntp293
Rp294
(dp295
g21
Vfiltered_group = [filterExtremes(g, 0.5, 2) for g in GroupedCt]\u000aMeanCt = [np.mean(g) for g in filtered_group]\u000aMeanCt = roundValues(MeanCt,1)\u000as.setColumnVisibility(['Groups', 'GroupedEff', 'GroupedCt', 'MeanCt'], is_visible=show_group1)
p296
sg22
g290
sg23
I00
sg24
I00
sg25
Vfiltered_group = [filterExtremes(g, 0.5, 2) for g in GroupedCt]\u000aMeanCt = [np.mean(g) for g in filtered_group]\u000aMeanCt = roundValues(MeanCt,1)\u000as.setColumnVisibility(['Groups', 'GroupedEff', 'GroupedCt', 'MeanCt'], is_visible=show_group1)
p297
sbsg26
g0
(g27
g28
(g29
g30
tp298
tp299
Rp300
sg34
VMeanCt
p301
sbag0
(g8
g2
Ntp302
Rp303
(dp304
g12
I00
sg13
g4
sg14
(lp305
(lp306
S'1'
p307
aS'0'
p308
aa(lp309
g307
ag307
aa(lp310
g307
aS'2'
p311
aa(lp312
g307
aS'3'
p313
aa(lp314
g311
ag307
aa(lp315
g313
ag307
aaNaNaNaNaNaNaNaNaNaNaNaNaNaNaNaNaNaNaNaNaNaNaNaNaNaNaNaNaNaNaNaNaNaNaNaNaNaNaNaNaNaNaNaNaNaNaNaNasg16
g0
(g17
g2
Ntp316
Rp317
(dp318
g21
Vif run:\u000a  tabularize(s, 'Groups', 1, 'MeanCt', \u000a      new_category_colnm='BioRuns',\u000a      values_colnm_prefix='Gene_')\u000a  BioRuns = s.getColumnValues('BioRuns')
p319
sg22
g303
sg23
I00
sg24
I00
sg25
Vif run:\u000a  tabularize(s, 'Groups', 1, 'MeanCt', \u000a      new_category_colnm='BioRuns',\u000a      values_colnm_prefix='Gene_')\u000a  BioRuns = s.getColumnValues('BioRuns')
p320
sbsg26
g0
(g27
g28
(g29
g30
tp321
tp322
Rp323
sg34
VBioRuns
p324
sbag0
(g8
g2
Ntp325
Rp326
(dp327
g12
I00
sg13
g4
sg14
(lp328
F18.2
aF22.4
aF23.4
aF18.9
aF21.9
aF23.4
aFnan
aFnan
aFnan
aFnan
aFnan
aFnan
aFnan
aFnan
aFnan
aFnan
aFnan
aFnan
aFnan
aFnan
aFnan
aFnan
aFnan
aFnan
aFnan
aFnan
aFnan
aFnan
aFnan
aFnan
aFnan
aFnan
aFnan
aFnan
aFnan
aFnan
aFnan
aFnan
aFnan
aFnan
aFnan
aFnan
aFnan
aFnan
aFnan
aFnan
aFnan
aFnan
aFnan
aFnan
aFnan
aFnan
aFnan
aFnan
asg16
g0
(g17
g2
Ntp329
Rp330
(dp331
g21
Nsg22
g326
sg23
I00
sg24
I00
sg25
Nsbsg26
g0
(g27
g28
(g29
g30
tp332
tp333
Rp334
sg34
S'Gene_I'
p335
sbag0
(g8
g2
Ntp336
Rp337
(dp338
g12
I00
sg13
g4
sg14
(lp339
F18.3
aF19.9
aF23.5
aF18.8
aF21.9
aF23.9
aFnan
aFnan
aFnan
aFnan
aFnan
aFnan
aFnan
aFnan
aFnan
aFnan
aFnan
aFnan
aFnan
aFnan
aFnan
aFnan
aFnan
aFnan
aFnan
aFnan
aFnan
aFnan
aFnan
aFnan
aFnan
aFnan
aFnan
aFnan
aFnan
aFnan
aFnan
aFnan
aFnan
aFnan
aFnan
aFnan
aFnan
aFnan
aFnan
aFnan
aFnan
aFnan
aFnan
aFnan
aFnan
aFnan
aFnan
aFnan
asg16
g0
(g17
g2
Ntp340
Rp341
(dp342
g21
Nsg22
g337
sg23
I00
sg24
I00
sg25
Nsbsg26
g334
sg34
S'Gene_R1'
p343
sbag0
(g8
g2
Ntp344
Rp345
(dp346
g12
I00
sg13
g4
sg14
(lp347
F19.8
aF21.9
aF26.3
aF20.4
aF23.6
aF24.5
aFnan
aFnan
aFnan
aFnan
aFnan
aFnan
aFnan
aFnan
aFnan
aFnan
aFnan
aFnan
aFnan
aFnan
aFnan
aFnan
aFnan
aFnan
aFnan
aFnan
aFnan
aFnan
aFnan
aFnan
aFnan
aFnan
aFnan
aFnan
aFnan
aFnan
aFnan
aFnan
aFnan
aFnan
aFnan
aFnan
aFnan
aFnan
aFnan
aFnan
aFnan
aFnan
aFnan
aFnan
aFnan
aFnan
aFnan
aFnan
asg16
g0
(g17
g2
Ntp348
Rp349
(dp350
g21
Nsg22
g345
sg23
I00
sg24
I00
sg25
Nsbsg26
g334
sg34
S'Gene_R2'
p351
sbag0
(g8
g2
Ntp352
Rp353
(dp354
g12
I00
sg13
g4
sg14
(lp355
F1.07177
aF0.17678
aF1.07177
aF0.93303
aF1.0
aF1.41421
aFnan
aFnan
aFnan
aFnan
aFnan
aFnan
aFnan
aFnan
aFnan
aFnan
aFnan
aFnan
aFnan
aFnan
aFnan
aFnan
aFnan
aFnan
aFnan
aFnan
aFnan
aFnan
aFnan
aFnan
aFnan
aFnan
aFnan
aFnan
aFnan
aFnan
aFnan
aFnan
aFnan
aFnan
aFnan
aFnan
aFnan
aFnan
aFnan
aFnan
aFnan
aFnan
aFnan
aFnan
aFnan
aFnan
aFnan
aFnan
asg16
g0
(g17
g2
Ntp356
Rp357
(dp358
g21
VExprR1 = roundValues(2**(Gene_R1 - Gene_I),5)
p359
sg22
g353
sg23
I01
sg24
I00
sg25
VroundValues(2**(Gene_R1 - Gene_I),5)
p360
sbsg26
g0
(g27
g28
(g29
g30
tp361
tp362
Rp363
sg34
VExprR1
p364
sbag0
(g8
g2
Ntp365
Rp366
(dp367
g12
I00
sg13
g4
sg14
(lp368
F3.03143
aF0.70711
aF7.46426
aF2.82843
aF3.24901
aF2.14355
aFnan
aFnan
aFnan
aFnan
aFnan
aFnan
aFnan
aFnan
aFnan
aFnan
aFnan
aFnan
aFnan
aFnan
aFnan
aFnan
aFnan
aFnan
aFnan
aFnan
aFnan
aFnan
aFnan
aFnan
aFnan
aFnan
aFnan
aFnan
aFnan
aFnan
aFnan
aFnan
aFnan
aFnan
aFnan
aFnan
aFnan
aFnan
aFnan
aFnan
aFnan
aFnan
aFnan
aFnan
aFnan
aFnan
aFnan
aFnan
asg16
g0
(g17
g2
Ntp369
Rp370
(dp371
g21
VExprR2 = roundValues(2**(Gene_R2 - Gene_I),5)
p372
sg22
g366
sg23
I01
sg24
I00
sg25
VroundValues(2**(Gene_R2 - Gene_I),5)
p373
sbsg26
g0
(g27
g28
(g29
g30
tp374
tp375
Rp376
sg34
VExprR2
p377
sbag0
(g8
g2
Ntp378
Rp379
(dp380
g12
I00
sg13
g4
sg14
(lp381
F1.802
aF0.354
aF2.828
aF1.625
aF1.803
aF1.741
aFnan
aFnan
aFnan
aFnan
aFnan
aFnan
aFnan
aFnan
aFnan
aFnan
aFnan
aFnan
aFnan
aFnan
aFnan
aFnan
aFnan
aFnan
aFnan
aFnan
aFnan
aFnan
aFnan
aFnan
aFnan
aFnan
aFnan
aFnan
aFnan
aFnan
aFnan
aFnan
aFnan
aFnan
aFnan
aFnan
aFnan
aFnan
aFnan
aFnan
aFnan
aFnan
aFnan
aFnan
aFnan
aFnan
aFnan
aFnan
asg16
g0
(g17
g2
Ntp382
Rp383
(dp384
g21
VroundValues(np.sqrt(ExprR1*ExprR2), 3)\u000as.setColumnVisibility(['BioRuns', 'Gene_I', 'Gene_R1', 'Gene_R2', 'ExprR1', 'ExprR2', 'GeoMean'], is_visible=show_group2)
p385
sg22
g379
sg23
I00
sg24
I00
sg25
VroundValues(np.sqrt(ExprR1*ExprR2), 3)\u000as.setColumnVisibility(['BioRuns', 'Gene_I', 'Gene_R1', 'Gene_R2', 'ExprR1', 'ExprR2', 'GeoMean'], is_visible=show_group2)
p386
sbsg26
g0
(g27
g28
(g29
g30
tp387
tp388
Rp389
sg34
VGeoMean
p390
sbasS'_columns'
p391
(lp392
g0
(g8
g2
Ntp393
Rp394
(dp395
g12
I01
sg13
g4
sg14
(lp396
g183
ag190
ag193
aS'4'
p397
aS'5'
p398
aS'6'
p399
aS'7'
p400
aS'8'
p401
aS'9'
p402
aS'10'
p403
aS'11'
p404
aS'12'
p405
aS'13'
p406
aS'14'
p407
aS'15'
p408
aS'16'
p409
aS'17'
p410
aS'18'
p411
aS'19'
p412
aS'20'
p413
aS'21'
p414
aS'22'
p415
aS'23'
p416
aS'24'
p417
aS'25'
p418
aS'26'
p419
aS'27'
p420
aS'28'
p421
aS'29'
p422
aS'30'
p423
aS'31'
p424
aS'32'
p425
aS'33'
p426
aS'34'
p427
aS'35'
p428
aS'36'
p429
aS'37'
p430
aS'38'
p431
aS'39'
p432
aS'40'
p433
aS'41'
p434
aS'42'
p435
aS'43'
p436
aS'44'
p437
aS'45'
p438
aS'46'
p439
aS'47'
p440
aS'48'
p441
aS'49'
p442
aS'50'
p443
aS'51'
p444
aS'52'
p445
aS'53'
p446
aS'54'
p447
asg16
g0
(g17
g2
Ntp448
Rp449
(dp450
g21
Nsg22
g394
sg23
I00
sg24
I00
sg25
Nsbsg26
g0
(g27
g28
(g29
g30
tp451
tp452
Rp453
sg34
S'row'
p454
sbag0
(g8
g2
Ntp455
Rp456
(dp457
g12
I00
sg13
g4
sg14
(lp458
Vgene
p459
aVrun
p460
aVshow_raw
p461
aVshow_group1
p462
aVshow_group2
p463
aVshow_group3
p464
aVnan
p465
aVnan
p466
aVnan
p467
aVnan
p468
aVnan
p469
aVnan
p470
aVnan
p471
aVnan
p472
aVnan
p473
aVnan
p474
aVnan
p475
aVnan
p476
aVnan
p477
aVnan
p478
aVnan
p479
aVnan
p480
aVnan
p481
aVnan
p482
aVnan
p483
aVnan
p484
aVnan
p485
aVnan
p486
aVnan
p487
aVnan
p488
aVnan
p489
aVnan
p490
aVnan
p491
aVnan
p492
aVnan
p493
aVnan
p494
aVnan
p495
aVnan
p496
aVnan
p497
aVnan
p498
aVnan
p499
aVnan
p500
aVnan
p501
aVnan
p502
aVnan
p503
aVnan
p504
aVnan
p505
aVnan
p506
aVnan
p507
aVnan
p508
aVnan
p509
aVnan
p510
aVnan
p511
aVnan
p512
asg16
g0
(g17
g2
Ntp513
Rp514
(dp515
g21
Nsg22
g456
sg23
I00
sg24
I00
sg25
Nsbsg26
g0
(g27
g28
(g29
g30
tp516
tp517
Rp518
sg34
VParmNames
p519
sbag0
(g8
g2
Ntp520
Rp521
(dp522
g12
I00
sg13
g4
sg14
(lp523
VGene2
p524
aVTrue
p525
aVFalse
p526
aVFalse
p527
aVFalse
p528
aVTrue
p529
aVnan
p530
aVnan
p531
aVnan
p532
aVnan
p533
aVnan
p534
aVnan
p535
aVnan
p536
aVnan
p537
aVnan
p538
aVnan
p539
aVnan
p540
aVnan
p541
aVnan
p542
aVnan
p543
aVnan
p544
aVnan
p545
aVnan
p546
aVnan
p547
aVnan
p548
aVnan
p549
aVnan
p550
aVnan
p551
aVnan
p552
aVnan
p553
aVnan
p554
aVnan
p555
aVnan
p556
aVnan
p557
aVnan
p558
aVnan
p559
aVnan
p560
aVnan
p561
aVnan
p562
aVnan
p563
aVnan
p564
aVnan
p565
aVnan
p566
aVnan
p567
aVnan
p568
aVnan
p569
aVnan
p570
aVnan
p571
aVnan
p572
aVnan
p573
aVnan
p574
aVnan
p575
aVnan
p576
aVnan
p577
asg16
g0
(g17
g2
Ntp578
Rp579
(dp580
g21
Vxlsx_path = '/mnt/hgfs/josephhellerstein/home/Technical/SciSheets/CaseStudies/Kristen/workbooks/data.xlsx'\u000as.setColumnVisibility()\u000agene = ParmValues[0]\u000arun = ParmValues[1] == 'True'\u000ashow_raw = ParmValues[2] == 'True'\u000ashow_group1 = ParmValues[3] == 'True'\u000ashow_group2 = ParmValues[4] == 'True'\u000ashow_group3 = ParmValues[5] == 'True'\u000aworksheet = gene + "-I"\u000aif False:\u000a  Groups = []\u000a  GroupedCt = []\u000a  GroupedEff = []\u000a  MeanCt = []\u000a  Imp = []\u000a  s.deleteColumn('Ct')\u000a  s.deleteColumn('RunType')\u000a  s.deleteColumn('BRpl')\u000a  s.deleteColumn('TRpl')\u000a  s.deleteColumn('Treatment')\u000a  s.deleteColumn('SmplName')\u000a  s.deleteColumn('Eff')\u000aif run:\u000a  importExcelToTable(s, xlsx_path, worksheet=worksheet)\u000a  BRpl = s.getColumnValues('BRpl')\u000a  Ct = s.getColumnValues('Ct')\u000a  Eff = s.getColumnValues('Eff')\u000a  RunType = s.getColumnValues('RunType')\u000a  TRpl = s.getColumnValues('TRpl')\u000a  Treatment = s.getColumnValues('Treatment')\u000a  s.setColumnVisibility(['BRpl', 'Ct', 'Eff', 'RunType', 'SmplName', 'TRpl', 'Treatment'], is_visible=show_raw)
p581
sg22
g521
sg23
I00
sg24
I00
sg25
Vxlsx_path = '/mnt/hgfs/josephhellerstein/home/Technical/SciSheets/CaseStudies/Kristen/workbooks/data.xlsx'\u000as.setColumnVisibility()\u000agene = ParmValues[0]\u000arun = ParmValues[1] == 'True'\u000ashow_raw = ParmValues[2] == 'True'\u000ashow_group1 = ParmValues[3] == 'True'\u000ashow_group2 = ParmValues[4] == 'True'\u000ashow_group3 = ParmValues[5] == 'True'\u000aworksheet = gene + "-I"\u000aif False:\u000a  Groups = []\u000a  GroupedCt = []\u000a  GroupedEff = []\u000a  MeanCt = []\u000a  Imp = []\u000a  s.deleteColumn('Ct')\u000a  s.deleteColumn('RunType')\u000a  s.deleteColumn('BRpl')\u000a  s.deleteColumn('TRpl')\u000a  s.deleteColumn('Treatment')\u000a  s.deleteColumn('SmplName')\u000a  s.deleteColumn('Eff')\u000aif run:\u000a  importExcelToTable(s, xlsx_path, worksheet=worksheet)\u000a  BRpl = s.getColumnValues('BRpl')\u000a  Ct = s.getColumnValues('Ct')\u000a  Eff = s.getColumnValues('Eff')\u000a  RunType = s.getColumnValues('RunType')\u000a  TRpl = s.getColumnValues('TRpl')\u000a  Treatment = s.getColumnValues('Treatment')\u000a  s.setColumnVisibility(['BRpl', 'Ct', 'Eff', 'RunType', 'SmplName', 'TRpl', 'Treatment'], is_visible=show_raw)
p582
sbsg26
g0
(g27
g28
(g29
g30
tp583
tp584
Rp585
sg34
VParmValues
p586
sbag179
ag232
ag261
ag290
ag303
ag326
ag337
ag345
ag353
ag366
ag379
ag0
(g8
g2
Ntp587
Rp588
(dp589
g12
I00
sg13
g4
sg14
(lp590
(lp591
g185
aa(lp592
g183
aa(lp593
g190
aa(lp594
g193
aaNaNaNaNaNaNaNaNaNaNaNaNaNaNaNaNaNaNaNaNaNaNaNaNaNaNaNaNaNaNaNaNaNaNaNaNaNaNaNaNaNaNaNaNaNaNaNaNaNaNasg16
g0
(g17
g2
Ntp595
Rp596
(dp597
g21
Nsg22
g588
sg23
I00
sg24
I00
sg25
Nsbsg26
g0
(g27
g28
(g29
g30
tp598
tp599
Rp600
sg34
VGeoGroups
p601
sbag0
(g8
g2
Ntp602
Rp603
(dp604
g12
I00
sg13
g4
sg14
(lp605
cnumpy.core.multiarray
_reconstruct
p606
(g29
(I0
tp607
S'b'
p608
tp609
Rp610
(I1
(I1
tp611
cnumpy
dtype
p612
(S'f8'
p613
I0
I1
tp614
Rp615
(I3
S'<'
p616
NNNI-1
I-1
I0
tp617
bI00
S'\xa2E\xb6\xf3\xfd\xd4\xfc?'
p618
tp619
bag606
(g29
(I0
tp620
g608
tp621
Rp622
(I1
(I3
tp623
g615
I00
S'\x0e-\xb2\x9d\xef\xa7\xd6?\x0c\x02+\x87\x16\xd9\xfc?B`\xe5\xd0"\xdb\xfb?'
p624
tp625
bag606
(g29
(I0
tp626
g608
tp627
Rp628
(I1
(I1
tp629
g615
I00
S'9\xb4\xc8v\xbe\x9f\x06@'
p630
tp631
bag606
(g29
(I0
tp632
g608
tp633
Rp634
(I1
(I1
tp635
g615
I00
S'\x00\x00\x00\x00\x00\x00\xfa?'
p636
tp637
baNaNaNaNaNaNaNaNaNaNaNaNaNaNaNaNaNaNaNaNaNaNaNaNaNaNaNaNaNaNaNaNaNaNaNaNaNaNaNaNaNaNaNaNaNaNaNaNaNaNasg16
g0
(g17
g2
Ntp638
Rp639
(dp640
g21
Vcat_vals = [br for br in BioRuns if br is not None]\u000acat_vals = [br[1] for br in cat_vals]\u000aclean_geo = [x for x in GeoMean if not np.isnan(x)]\u000aGeoGroups, groupedGeoMean = groupBy(cat_vals, clean_geo)\u000aGroupedGeoMean = roundValues(groupedGeoMean, 3)
p641
sg22
g603
sg23
I00
sg24
I00
sg25
Vcat_vals = [br for br in BioRuns if br is not None]\u000acat_vals = [br[1] for br in cat_vals]\u000aclean_geo = [x for x in GeoMean if not np.isnan(x)]\u000aGeoGroups, groupedGeoMean = groupBy(cat_vals, clean_geo)\u000aGroupedGeoMean = roundValues(groupedGeoMean, 3)
p642
sbsg26
g0
(g27
g28
(g29
g30
tp643
tp644
Rp645
sg34
VGroupedGeoMeans
p646
sbag0
(g8
g2
Ntp647
Rp648
(dp649
g12
I00
sg13
g4
sg14
(lp650
Fnan
aFnan
aFnan
aFnan
aFnan
aFnan
aFnan
aFnan
aFnan
aFnan
aFnan
aFnan
aFnan
aFnan
aFnan
aFnan
aFnan
aFnan
aFnan
aFnan
aFnan
aFnan
aFnan
aFnan
aFnan
aFnan
aFnan
aFnan
aFnan
aFnan
aFnan
aFnan
aFnan
aFnan
aFnan
aFnan
aFnan
aFnan
aFnan
aFnan
aFnan
aFnan
aFnan
aFnan
aFnan
aFnan
aFnan
aFnan
aFnan
aFnan
aFnan
aFnan
aFnan
aFnan
asg16
g0
(g17
g2
Ntp651
Rp652
(dp653
g21
Nsg22
g648
sg23
I00
sg24
I00
sg25
Nsbsg26
g0
(g27
g28
(g29
g30
tp654
tp655
Rp656
sg34
VNrmlGeoGroupedMeans
p657
sbag0
(g8
g2
Ntp658
Rp659
(dp660
g12
I00
sg13
g4
sg14
(lp661
Fnan
aFnan
aFnan
aFnan
aFnan
aFnan
aFnan
aFnan
aFnan
aFnan
aFnan
aFnan
aFnan
aFnan
aFnan
aFnan
aFnan
aFnan
aFnan
aFnan
aFnan
aFnan
aFnan
aFnan
aFnan
aFnan
aFnan
aFnan
aFnan
aFnan
aFnan
aFnan
aFnan
aFnan
aFnan
aFnan
aFnan
aFnan
aFnan
aFnan
aFnan
aFnan
aFnan
aFnan
aFnan
aFnan
aFnan
aFnan
aFnan
aFnan
aFnan
aFnan
aFnan
aFnan
asg16
g0
(g17
g2
Ntp662
Rp663
(dp664
g21
Nsg22
g659
sg23
I00
sg24
I00
sg25
Nsbsg26
g0
(g27
g28
(g29
g30
tp665
tp666
Rp667
sg34
VMeanNrmlGeoGroups
p668
sbag0
(g8
g2
Ntp669
Rp670
(dp671
g12
I00
sg13
g4
sg14
(lp672
Fnan
aFnan
aFnan
aFnan
aFnan
aFnan
aFnan
aFnan
aFnan
aFnan
aFnan
aFnan
aFnan
aFnan
aFnan
aFnan
aFnan
aFnan
aFnan
aFnan
aFnan
aFnan
aFnan
aFnan
aFnan
aFnan
aFnan
aFnan
aFnan
aFnan
aFnan
aFnan
aFnan
aFnan
aFnan
aFnan
aFnan
aFnan
aFnan
aFnan
aFnan
aFnan
aFnan
aFnan
aFnan
aFnan
aFnan
aFnan
aFnan
aFnan
aFnan
aFnan
aFnan
aFnan
asg16
g0
(g17
g2
Ntp673
Rp674
(dp675
g21
V#s.setColumnVisibility(['GeoGroups', 'GroupedGeoMean', 'GeoGroupMeans', 'GeoGroupStd'], is_visible=show_group3)
p676
sg22
g670
sg23
I00
sg24
I00
sg25
g676
sbsg26
g0
(g27
g28
(g29
g30
tp677
tp678
Rp679
sg34
VStdNrmlGeoGroups
p680
sbag10
ag37
ag45
ag53
ag98
ag160
ag171
asS'_filepath'
p681
V/home/ubuntu/SciSheets/mysite/user/guest/tables/kristen_single_gene.pcl
p682
sg34
VSingleGene
p683
sb.