ccopy_reg
_reconstructor
p0
(cscisheets.ui.dt_table
DTTable
p1
c__builtin__
object
p2
Ntp3
Rp4
(dp5
S'_versioned_file'
p6
g0
(cmysite.helpers.versioned_file
VersionedFile
p7
g2
Ntp8
Rp9
(dp10
S'_redo_stack'
p11
g0
(cmysite.helpers.file_stack
FileStack
p12
g2
Ntp13
Rp14
(dp15
S'_dirpath'
p16
S'/home/ubuntu/SciSheets/mysite/user/guest/tables/backup'
p17
sS'_max_depth'
p18
I5
sS'_filename_pfx'
p19
Vkristen_single_gene.r
p20
sbsS'_max_versions'
p21
I5
sS'_undo_stack'
p22
g0
(g12
g2
Ntp23
Rp24
(dp25
g16
g17
sg18
I5
sg19
Vkristen_single_gene.u
p26
sbsS'_checkpoint_history'
p27
(lp28
VCell/Update
p29
aVCell/Update
p30
aVCell/Update
p31
aVCell/Update
p32
aVCell/Update
p33
aVCell/Update
p34
aVCell/Update
p35
aVCell/Update
p36
aVCell/Update
p37
aVCell/Update
p38
aVCell/Update
p39
aVCell/Update
p40
aVColumn/Formula
p41
aVColumn/Formula
p42
aVColumn/Append
p43
aVColumn/Formula
p44
aVColumn/Delete
p45
aVCell/Update
p46
aVColumn/Formula
p47
aVCell/Update
p48
aVCell/Update
p49
aVColumn/Formula
p50
aVColumn/Formula
p51
aVCell/Update
p52
aVColumn/Formula
p53
aVColumn/Formula
p54
aVCell/Update
p55
aVCell/Update
p56
aVCell/Update
p57
aVCell/Update
p58
aVColumn/Formula
p59
aVCell/Update
p60
aVCell/Update
p61
aVCell/Update
p62
aVColumn/Formula
p63
aVCell/Update
p64
aVColumn/Formula
p65
aVColumn/Formula
p66
aVCell/Update
p67
aVCell/Update
p68
aVCell/Update
p69
aVCell/Update
p70
aVCell/Update
p71
aVCell/Update
p72
aVCell/Update
p73
aVCell/Update
p74
aVCell/Update
p75
aVColumn/Formula
p76
aVCell/Update
p77
aVCell/Update
p78
aVCell/Update
p79
aVCell/Update
p80
aVCell/Update
p81
aVCell/Update
p82
aVCell/Update
p83
aVCell/Update
p84
aVCell/Update
p85
aVCell/Update
p86
aVCell/Update
p87
aVCell/Update
p88
aVColumn/Formula
p89
aVColumn/Formula
p90
aVColumn/Formula
p91
aVCell/Update
p92
aVCell/Update
p93
aVCell/Update
p94
aVCell/Update
p95
aVCell/Update
p96
aVColumn/Formula
p97
aVCell/Update
p98
aVCell/Update
p99
aVCell/Update
p100
aVCell/Update
p101
aVCell/Update
p102
aVCell/Update
p103
aVCell/Update
p104
asS'_filepath'
p105
V/home/ubuntu/SciSheets/mysite/user/guest/tables/kristen_single_gene.pcl
p106
sS'_backup_dir'
p107
g17
sbsS'_namespace'
p108
(dp109
sS'_hidden_columns'
p110
(lp111
g0
(cscisheets.core.column
Column
p112
g2
Ntp113
Rp114
(dp115
S'_asis'
p116
I00
sS'_owning_table'
p117
g4
sS'_cells'
p118
(lp119
VSEP1 2012 P17F4 3a
p120
aVSEP1 2012 P17F4 b
p121
aVSEP1 2012 P17F4 c
p122
aVSEP1 2012 P17F5 a
p123
aVSEP1 2012 P17F5 b
p124
aVSEP1 2012 P17F5 c
p125
aVSEP1 2012 P1F3 SEP1a
p126
aVSEP1 2012 P1F3 SEP1b
p127
aVSEP1 2012 P1F3 SEP1c
p128
aVSEP1-2 2012 P11aF2 a
p129
aVSEP1-2 2012 P11aF2 b
p130
aVSEP1-2 2012 P11aF2 c
p131
aVSEP1-3 2012 P15F2 a
p132
aVSEP1-3 2012 P15F2 b
p133
aVSEP1-3 2012 P15F2 c
p134
aVuntreated 2012 P12F1 SEP3-3 1:2a
p135
aVuntreated 2012 P12F1 SEP3-3 1:2b
p136
aVuntreated 2012 P12F1 SEP3-3 1:2c
p137
aVSEP1 2012 P17F4 ACTa
p138
aVSEP1 2012 P17F4 ACTb
p139
aVSEP1 2012 P17F4 ACTc
p140
aVSEP1 2012 P17F5 ACTa
p141
aVSEP1 2012 P17F5 ACTb
p142
aVSEP1 2012 P17F5 ACTc
p143
aVSEP1 2012 P1F3 ACTa
p144
aVSEP1 2012 P1F3 ACTb
p145
aVSEP1 2012 P1F3 ACTc
p146
aVSEP1-2 2012 P11aF2 ACTa
p147
aVSEP1-2 2012 P11aF2 ACTb
p148
aVSEP1-2 2012 P11aF2 ACTc
p149
aVSEP1-3 2012 P15F2 ACTa
p150
aVSEP1-3 2012 P15F2 ACTb
p151
aVSEP1-3 2012 P15F2 ACTc
p152
aVuntreated 2012 P12F1 ACTa
p153
aVuntreated 2012 P12F1 ACTb
p154
aVuntreated 2012 P12F1 ACTc
p155
aVSEP1 2012 P17F4 EEF1a
p156
aVSEP1 2012 P17F4 EEF1b
p157
aVSEP1 2012 P17F4 EEF1c
p158
aVSEP1 2012 P17F5 EEF1a
p159
aVSEP1 2012 P17F5 EEF1b
p160
aVSEP1 2012 P17F5 EEF1c
p161
aVSEP1 2012 P1F3 EEF1a
p162
aVSEP1 2012 P1F3 EEF1b
p163
aVSEP1 2012 P1F3 EEF1c
p164
aVSEP1-2 2012 P11aF2 EEF1a
p165
aVSEP1-2 2012 P11aF2 EEF1b
p166
aVSEP1-2 2012 P11aF2 EEF1c
p167
aVSEP1-3 2012 P15F2 EEF1a
p168
aVSEP1-3 2012 P15F2 EEF1b
p169
aVSEP1-3 2012 P15F2 EEF1c
p170
aVuntreated 2012 P12F1 EEF1a
p171
aVuntreated 2012 P12F1 EEF1b
p172
aVuntreated 2012 P12F1 EEF1c
p173
asS'_formula_statement'
p174
g0
(cscisheets.core.helpers.formula_statement
FormulaStatement
p175
g2
Ntp176
Rp177
(dp178
S'_statement'
p179
NsS'_column'
p180
g114
sS'_isExpression'
p181
I00
sS'_isStatement'
p182
I00
sS'_formula'
p183
NsbsS'_data_class'
p184
g0
(cscisheets.core.helpers.api_util
DataClass
p185
c__builtin__
tuple
p186
(cnumpy
ndarray
p187
cscisheets.core.helpers.api_util
makeArray
p188
tp189
tp190
Rp191
sS'_name'
p192
S'SmplName'
p193
sbag0
(g112
g2
Ntp194
Rp195
(dp196
g116
I00
sg117
g4
sg118
(lp197
I1
aI1
aI1
aI2
aI2
aI2
aI3
aI3
aI3
aI1
aI1
aI1
aI1
aI1
aI1
aI1
aI1
aI1
aI1
aI1
aI1
aI2
aI2
aI2
aI3
aI3
aI3
aI1
aI1
aI1
aI1
aI1
aI1
aI1
aI1
aI1
aI1
aI1
aI1
aI2
aI2
aI2
aI3
aI3
aI3
aI1
aI1
aI1
aI1
aI1
aI1
aI1
aI1
aI1
asg174
g0
(g175
g2
Ntp198
Rp199
(dp200
g179
Nsg180
g195
sg181
I00
sg182
I00
sg183
Nsbsg184
g191
sg192
S'BRpl'
p201
sbag0
(g112
g2
Ntp202
Rp203
(dp204
g116
I00
sg117
g4
sg118
(lp205
F22.42
aF22.5
aF22.44
aF21.92
aF22.03
aF21.94
aF23.4
aF23.47
aF23.41
aF23.48
aF23.31
aF23.45
aF18.82
aF18.97
aF18.92
aF18.31
aF18.29
aF18.15
aF19.92
aF19.85
aF20.0
aF21.86
aF22.09
aF21.84
aF23.89
aF23.54
aF24.27
aF23.22
aF23.8
aF23.49
aF18.91
aF18.78
aF18.8
aF18.24
aF18.22
aF18.36
aF22.18
aF21.71
aF21.75
aF23.88
aF23.42
aF23.63
aF24.59
aF24.61
aF24.34
aF26.37
aF26.36
aF26.17
aF20.5
aF20.47
aF20.28
aF19.72
aF19.75
aF20.01
asg174
g0
(g175
g2
Ntp206
Rp207
(dp208
g179
Nsg180
g203
sg181
I00
sg182
I00
sg183
Nsbsg184
g191
sg192
S'Ct'
p209
sbag0
(g112
g2
Ntp210
Rp211
(dp212
g116
I00
sg117
g4
sg118
(lp213
F0.8453
aF0.8426
aF0.8524
aF0.8658
aF0.7809
aF0.8512
aF0.8442
aF0.8357
aF0.7658
aF0.8352
aF0.7886
aF0.8105
aF0.876
aF0.8597
aF0.8873
aF0.919
aF0.9106
aF0.9129
aF0.9179
aF0.9783
aF0.8971
aF0.8957
aF0.8287
aF0.8387
aF0.8746
aF0.8493
aF0.8349
aF0.7701
aF0.8746
aF0.8139
aF0.8715
aF0.8977
aF0.856
aF0.8266
aF0.8343
aF0.8496
aF0.7857
aF0.8427
aF0.8637
aF0.8281
aF0.8203
aF0.8288
aF0.8138
aF0.8242
aF0.804
aF0.7795
aF0.7676
aF0.7947
aF0.8179
aF0.8173
aF0.7894
aF0.8157
aF0.8543
aF0.8208
asg174
g0
(g175
g2
Ntp214
Rp215
(dp216
g179
Nsg180
g211
sg181
I00
sg182
I00
sg183
Nsbsg184
g191
sg192
S'Eff'
p217
sbag0
(g112
g2
Ntp218
Rp219
(dp220
g116
I00
sg117
g4
sg118
(lp221
VI
p222
ag222
ag222
ag222
ag222
ag222
ag222
ag222
ag222
ag222
ag222
ag222
ag222
ag222
ag222
ag222
ag222
ag222
aVR1
p223
aVR1
p224
aVR1
p225
aVR1
p226
aVR1
p227
aVR1
p228
aVR1
p229
aVR1
p230
aVR1
p231
aVR1
p232
aVR1
p233
aVR1
p234
aVR1
p235
aVR1
p236
aVR1
p237
aVR1
p238
aVR1
p239
aVR1
p240
aVR2
p241
aVR2
p242
aVR2
p243
aVR2
p244
aVR2
p245
aVR2
p246
aVR2
p247
aVR2
p248
aVR2
p249
aVR2
p250
aVR2
p251
aVR2
p252
aVR2
p253
aVR2
p254
aVR2
p255
aVR2
p256
aVR2
p257
aVR2
p258
asg174
g0
(g175
g2
Ntp259
Rp260
(dp261
g179
Nsg180
g219
sg181
I00
sg182
I00
sg183
Nsbsg184
g191
sg192
S'RunType'
p262
sbag0
(g112
g2
Ntp263
Rp264
(dp265
g116
I00
sg117
g4
sg118
(lp266
Va
p267
aVb
p268
aVc
p269
ag267
ag268
ag269
ag267
ag268
ag269
ag267
ag268
ag269
ag267
ag268
ag269
ag267
ag268
ag269
ag267
ag268
ag269
ag267
ag268
ag269
ag267
ag268
ag269
ag267
ag268
ag269
ag267
ag268
ag269
ag267
ag268
ag269
ag267
ag268
ag269
ag267
ag268
ag269
ag267
ag268
ag269
ag267
ag268
ag269
ag267
ag268
ag269
ag267
ag268
ag269
asg174
g0
(g175
g2
Ntp270
Rp271
(dp272
g179
Nsg180
g264
sg181
I00
sg182
I00
sg183
Nsbsg184
g191
sg192
S'TRpl'
p273
sbag0
(g112
g2
Ntp274
Rp275
(dp276
g116
I00
sg117
g4
sg118
(lp277
I1
aI1
aI1
aI1
aI1
aI1
aI1
aI1
aI1
aI2
aI2
aI2
aI3
aI3
aI3
aI0
aI0
aI0
aI1
aI1
aI1
aI1
aI1
aI1
aI1
aI1
aI1
aI2
aI2
aI2
aI3
aI3
aI3
aI0
aI0
aI0
aI1
aI1
aI1
aI1
aI1
aI1
aI1
aI1
aI1
aI2
aI2
aI2
aI3
aI3
aI3
aI0
aI0
aI0
asg174
g0
(g175
g2
Ntp278
Rp279
(dp280
g179
Nsg180
g275
sg181
I00
sg182
I00
sg183
Nsbsg184
g191
sg192
S'Treatment'
p281
sbag0
(g112
g2
Ntp282
Rp283
(dp284
g116
I00
sg117
g4
sg118
(lp285
(cnumpy.core.multiarray
scalar
p286
(cnumpy
dtype
p287
(S'i8'
p288
I0
I1
tp289
Rp290
(I3
S'<'
p291
NNNI-1
I-1
I0
tp292
bS'\x00\x00\x00\x00\x00\x00\x00\x00'
p293
tp294
Rp295
g222
g286
(g290
S'\x01\x00\x00\x00\x00\x00\x00\x00'
p296
tp297
Rp298
tp299
a(g286
(g290
S'\x00\x00\x00\x00\x00\x00\x00\x00'
p300
tp301
Rp302
VR1
p303
g286
(g290
S'\x01\x00\x00\x00\x00\x00\x00\x00'
p304
tp305
Rp306
tp307
a(g286
(g290
S'\x00\x00\x00\x00\x00\x00\x00\x00'
p308
tp309
Rp310
VR2
p311
g286
(g290
S'\x01\x00\x00\x00\x00\x00\x00\x00'
p312
tp313
Rp314
tp315
a(g286
(g290
S'\x01\x00\x00\x00\x00\x00\x00\x00'
p316
tp317
Rp318
g222
g286
(g290
S'\x01\x00\x00\x00\x00\x00\x00\x00'
p319
tp320
Rp321
tp322
a(g286
(g290
S'\x01\x00\x00\x00\x00\x00\x00\x00'
p323
tp324
Rp325
g222
g286
(g290
S'\x02\x00\x00\x00\x00\x00\x00\x00'
p326
tp327
Rp328
tp329
a(g286
(g290
S'\x01\x00\x00\x00\x00\x00\x00\x00'
p330
tp331
Rp332
g222
g286
(g290
S'\x03\x00\x00\x00\x00\x00\x00\x00'
p333
tp334
Rp335
tp336
a(g286
(g290
S'\x01\x00\x00\x00\x00\x00\x00\x00'
p337
tp338
Rp339
g303
g286
(g290
S'\x01\x00\x00\x00\x00\x00\x00\x00'
p340
tp341
Rp342
tp343
a(g286
(g290
S'\x01\x00\x00\x00\x00\x00\x00\x00'
p344
tp345
Rp346
g303
g286
(g290
S'\x02\x00\x00\x00\x00\x00\x00\x00'
p347
tp348
Rp349
tp350
a(g286
(g290
S'\x01\x00\x00\x00\x00\x00\x00\x00'
p351
tp352
Rp353
g303
g286
(g290
S'\x03\x00\x00\x00\x00\x00\x00\x00'
p354
tp355
Rp356
tp357
a(g286
(g290
S'\x01\x00\x00\x00\x00\x00\x00\x00'
p358
tp359
Rp360
g311
g286
(g290
S'\x01\x00\x00\x00\x00\x00\x00\x00'
p361
tp362
Rp363
tp364
a(g286
(g290
S'\x01\x00\x00\x00\x00\x00\x00\x00'
p365
tp366
Rp367
g311
g286
(g290
S'\x02\x00\x00\x00\x00\x00\x00\x00'
p368
tp369
Rp370
tp371
a(g286
(g290
S'\x01\x00\x00\x00\x00\x00\x00\x00'
p372
tp373
Rp374
g311
g286
(g290
S'\x03\x00\x00\x00\x00\x00\x00\x00'
p375
tp376
Rp377
tp378
a(g286
(g290
S'\x02\x00\x00\x00\x00\x00\x00\x00'
p379
tp380
Rp381
g222
g286
(g290
S'\x01\x00\x00\x00\x00\x00\x00\x00'
p382
tp383
Rp384
tp385
a(g286
(g290
S'\x02\x00\x00\x00\x00\x00\x00\x00'
p386
tp387
Rp388
g303
g286
(g290
S'\x01\x00\x00\x00\x00\x00\x00\x00'
p389
tp390
Rp391
tp392
a(g286
(g290
S'\x02\x00\x00\x00\x00\x00\x00\x00'
p393
tp394
Rp395
g311
g286
(g290
S'\x01\x00\x00\x00\x00\x00\x00\x00'
p396
tp397
Rp398
tp399
a(g286
(g290
S'\x03\x00\x00\x00\x00\x00\x00\x00'
p400
tp401
Rp402
g222
g286
(g290
S'\x01\x00\x00\x00\x00\x00\x00\x00'
p403
tp404
Rp405
tp406
a(g286
(g290
S'\x03\x00\x00\x00\x00\x00\x00\x00'
p407
tp408
Rp409
g303
g286
(g290
S'\x01\x00\x00\x00\x00\x00\x00\x00'
p410
tp411
Rp412
tp413
a(g286
(g290
S'\x03\x00\x00\x00\x00\x00\x00\x00'
p414
tp415
Rp416
g311
g286
(g290
S'\x01\x00\x00\x00\x00\x00\x00\x00'
p417
tp418
Rp419
tp420
aNaNaNaNaNaNaNaNaNaNaNaNaNaNaNaNaNaNaNaNaNaNaNaNaNaNaNaNaNaNaNaNaNaNaNaNasg174
g0
(g175
g2
Ntp421
Rp422
(dp423
g179
Vif run:\u000a  sel = Eff > min_eff\u000a  grouping_columns =   [\u000a      Treatment[sel],\u000a       RunType[sel], \u000a      BRpl[sel],      \u000a    ]\u000a  if True:\u000a    Groups, groupedCt = groupBy(\u000a      grouping_columns, Ct[sel])\u000a    Groups, groupedEff = groupBy(\u000a      grouping_columns, Eff[sel])\u000a    GroupedCt = roundValues(groupedCt,2)\u000a    GroupedEff = roundValues(groupedEff,2)
p424
sg192
VGroups
p425
sg181
I00
sg182
I00
sg183
Vif run:\u000a  sel = Eff > min_eff\u000a  grouping_columns =   [\u000a      Treatment[sel],\u000a       RunType[sel], \u000a      BRpl[sel],      \u000a    ]\u000a  if True:\u000a    Groups, groupedCt = groupBy(\u000a      grouping_columns, Ct[sel])\u000a    Groups, groupedEff = groupBy(\u000a      grouping_columns, Eff[sel])\u000a    GroupedCt = roundValues(groupedCt,2)\u000a    GroupedEff = roundValues(groupedEff,2)
p426
sbsg184
g0
(g185
g186
(g187
g188
tp427
tp428
Rp429
sg192
g425
sbag0
(g112
g2
Ntp430
Rp431
(dp432
g116
I00
sg117
g4
sg118
(lp433
(lp434
F0.92
aF0.91
aF0.91
aa(lp435
F0.83
aF0.83
aF0.85
aa(lp436
F0.82
aF0.85
aF0.82
aa(lp437
F0.85
aF0.84
aF0.85
aa(lp438
F0.87
aF0.78
aF0.85
aa(lp439
F0.84
aF0.84
aF0.77
aa(lp440
F0.92
aF0.98
aF0.9
aa(lp441
F0.9
aF0.83
aF0.84
aa(lp442
F0.87
aF0.85
aF0.83
aa(lp443
F0.79
aF0.84
aF0.86
aa(lp444
F0.83
aF0.82
aF0.83
aa(lp445
F0.81
aF0.82
aF0.8
aa(lp446
F0.84
aF0.79
aF0.81
aa(lp447
F0.77
aF0.87
aF0.81
aa(lp448
F0.78
aF0.77
aF0.79
aa(lp449
F0.88
aF0.86
aF0.89
aa(lp450
F0.87
aF0.9
aF0.86
aa(lp451
F0.82
aF0.82
aF0.79
aaNaNaNaNaNaNaNaNaNaNaNaNaNaNaNaNaNaNaNaNaNaNaNaNaNaNaNaNaNaNaNaNaNaNaNaNasg174
g0
(g175
g2
Ntp452
Rp453
(dp454
g179
Nsg180
g431
sg181
I00
sg182
I00
sg183
Nsbsg184
g0
(g185
g186
(g187
g188
tp455
tp456
Rp457
sg192
VGroupedEff
p458
sbag0
(g112
g2
Ntp459
Rp460
(dp461
g116
I00
sg117
g4
sg118
(lp462
(lp463
F18.31
aF18.29
aF18.15
aa(lp464
F18.24
aF18.22
aF18.36
aa(lp465
F19.72
aF19.75
aF20.01
aa(lp466
F22.42
aF22.5
aF22.44
aa(lp467
F21.92
aF22.03
aF21.94
aa(lp468
F23.4
aF23.47
aF23.41
aa(lp469
F19.92
aF19.85
aF20.0
aa(lp470
F21.86
aF22.09
aF21.84
aa(lp471
F23.89
aF23.54
aF24.27
aa(lp472
F22.18
aF21.71
aF21.75
aa(lp473
F23.88
aF23.42
aF23.63
aa(lp474
F24.59
aF24.61
aF24.34
aa(lp475
F23.48
aF23.31
aF23.45
aa(lp476
F23.22
aF23.8
aF23.49
aa(lp477
F26.37
aF26.36
aF26.17
aa(lp478
F18.82
aF18.97
aF18.92
aa(lp479
F18.91
aF18.78
aF18.8
aa(lp480
F20.5
aF20.47
aF20.28
aaNaNaNaNaNaNaNaNaNaNaNaNaNaNaNaNaNaNaNaNaNaNaNaNaNaNaNaNaNaNaNaNaNaNaNaNasg174
g0
(g175
g2
Ntp481
Rp482
(dp483
g179
Nsg180
g460
sg181
I00
sg182
I00
sg183
Nsbsg184
g0
(g185
g186
(g187
g188
tp484
tp485
Rp486
sg192
VGroupedCt
p487
sbag0
(g112
g2
Ntp488
Rp489
(dp490
g116
I00
sg117
g4
sg118
(lp491
(lp492
F18.3
aF18.3
aF18.1
aa(lp493
F18.2
aF18.2
aF18.4
aa(lp494
F19.7
aF19.8
aF20.0
aa(lp495
F22.4
aF22.5
aF22.4
aa(lp496
F21.9
aF22.0
aF21.9
aa(lp497
F23.4
aF23.5
aF23.4
aa(lp498
F19.9
aF19.9
aF20.0
aa(lp499
F21.9
aF22.1
aF21.8
aa(lp500
F23.9
aF23.5
aF24.3
aa(lp501
F22.2
aF21.7
aF21.8
aa(lp502
F23.9
aF23.4
aF23.6
aa(lp503
F24.6
aF24.6
aF24.3
aa(lp504
F23.5
aF23.3
aF23.4
aa(lp505
F23.2
aF23.8
aF23.5
aa(lp506
F26.4
aF26.4
aF26.2
aa(lp507
F18.8
aF19.0
aF18.9
aa(lp508
F18.9
aF18.8
aF18.8
aa(lp509
F20.5
aF20.5
aF20.3
aaNaNaNaNaNaNaNaNaNaNaNaNaNaNaNaNaNaNaNaNaNaNaNaNaNaNaNaNaNaNaNaNaNaNaNaNasg174
g0
(g175
g2
Ntp510
Rp511
(dp512
g179
Vif run:\u000a  length = len(Groups)\u000a  StdFilteredGroupedCt = roundValues([filterExtremes(g, max_std, 2) for g in pruneNulls(GroupedCt, required_length=length)])\u000a 
p513
sg192
VStdFilteredGroupedCt
p514
sg181
I00
sg182
I00
sg183
Vif run:\u000a  length = len(Groups)\u000a  StdFilteredGroupedCt = roundValues([filterExtremes(g, max_std, 2) for g in pruneNulls(GroupedCt, required_length=length)])\u000a 
p515
sbsg184
g0
(g185
g186
(g187
g188
tp516
tp517
Rp518
sg192
g514
sbag0
(g112
g2
Ntp519
Rp520
(dp521
g116
I00
sg117
g4
sg118
(lp522
F18.2
aF18.3
aF19.8
aF22.4
aF21.9
aF23.4
aF19.9
aF21.9
aF23.9
aF21.9
aF23.6
aF24.5
aF23.4
aF23.5
aF26.3
aF18.9
aF18.8
aF20.4
aFnan
aFnan
aFnan
aFnan
aFnan
aFnan
aFnan
aFnan
aFnan
aFnan
aFnan
aFnan
aFnan
aFnan
aFnan
aFnan
aFnan
aFnan
aFnan
aFnan
aFnan
aFnan
aFnan
aFnan
aFnan
aFnan
aFnan
aFnan
aFnan
aFnan
aFnan
aFnan
aFnan
aFnan
aFnan
aFnan
asg174
g0
(g175
g2
Ntp523
Rp524
(dp525
g179
Vif run:\u000a  MeanCt = [np.mean(g) for g in StdFilteredGroupedCt]\u000a  MeanCt = roundValues(MeanCt,1)\u000a  StdCt = [np.std(g, ddof=1) for g in StdFilteredGroupedCt]\u000a  StdCt = roundValues(StdCt,3)\u000as.setColumnVisibility(['Groups', 'GroupedEff', 'GroupedCt', 'StdFilteredGroupedCt', 'MeanCt', 'StdCt'], is_visible=show_block1)
p526
sg192
VMeanCt
p527
sg181
I00
sg182
I00
sg183
Vif run:\u000a  MeanCt = [np.mean(g) for g in StdFilteredGroupedCt]\u000a  MeanCt = roundValues(MeanCt,1)\u000a  StdCt = [np.std(g, ddof=1) for g in StdFilteredGroupedCt]\u000a  StdCt = roundValues(StdCt,3)\u000as.setColumnVisibility(['Groups', 'GroupedEff', 'GroupedCt', 'StdFilteredGroupedCt', 'MeanCt', 'StdCt'], is_visible=show_block1)
p528
sbsg184
g0
(g185
g186
(g187
g188
tp529
tp530
Rp531
sg192
g527
sbag0
(g112
g2
Ntp532
Rp533
(dp534
g116
I00
sg117
g4
sg118
(lp535
F0.115
aF0.115
aF0.153
aF0.058
aF0.058
aF0.058
aF0.058
aF0.153
aF0.4
aF0.265
aF0.252
aF0.173
aF0.1
aF0.3
aF0.115
aF0.1
aF0.058
aF0.115
aFnan
aFnan
aFnan
aFnan
aFnan
aFnan
aFnan
aFnan
aFnan
aFnan
aFnan
aFnan
aFnan
aFnan
aFnan
aFnan
aFnan
aFnan
aFnan
aFnan
aFnan
aFnan
aFnan
aFnan
aFnan
aFnan
aFnan
aFnan
aFnan
aFnan
aFnan
aFnan
aFnan
aFnan
aFnan
aFnan
asg174
g0
(g175
g2
Ntp536
Rp537
(dp538
g179
Nsg180
g533
sg181
I00
sg182
I00
sg183
Nsbsg184
g0
(g185
g186
(g187
g188
tp539
tp540
Rp541
sg192
VStdCt
p542
sbag0
(g112
g2
Ntp543
Rp544
(dp545
g116
I00
sg117
g4
sg118
(lp546
(lp547
g286
(g290
S'\x00\x00\x00\x00\x00\x00\x00\x00'
p548
tp549
Rp550
ag286
(g290
S'\x01\x00\x00\x00\x00\x00\x00\x00'
p551
tp552
Rp553
aa(lp554
g286
(g290
S'\x01\x00\x00\x00\x00\x00\x00\x00'
p555
tp556
Rp557
ag286
(g290
S'\x01\x00\x00\x00\x00\x00\x00\x00'
p558
tp559
Rp560
aa(lp561
g286
(g290
S'\x01\x00\x00\x00\x00\x00\x00\x00'
p562
tp563
Rp564
ag286
(g290
S'\x02\x00\x00\x00\x00\x00\x00\x00'
p565
tp566
Rp567
aa(lp568
g286
(g290
S'\x01\x00\x00\x00\x00\x00\x00\x00'
p569
tp570
Rp571
ag286
(g290
S'\x03\x00\x00\x00\x00\x00\x00\x00'
p572
tp573
Rp574
aa(lp575
g286
(g290
S'\x02\x00\x00\x00\x00\x00\x00\x00'
p576
tp577
Rp578
ag286
(g290
S'\x01\x00\x00\x00\x00\x00\x00\x00'
p579
tp580
Rp581
aa(lp582
g286
(g290
S'\x03\x00\x00\x00\x00\x00\x00\x00'
p583
tp584
Rp585
ag286
(g290
S'\x01\x00\x00\x00\x00\x00\x00\x00'
p586
tp587
Rp588
aaNaNaNaNaNaNaNaNaNaNaNaNaNaNaNaNaNaNaNaNaNaNaNaNaNaNaNaNaNaNaNaNaNaNaNaNaNaNaNaNaNaNaNaNaNaNaNaNasg174
g0
(g175
g2
Ntp589
Rp590
(dp591
g179
Vif run:\u000a      tabularize(s, 'Groups', 1, 'MeanCt', \u000a          new_category_colnm='BioRuns',\u000a          values_colnm_prefix='Gene_')
p592
sg192
VBioRuns
p593
sg181
I00
sg182
I00
sg183
Vif run:\u000a      tabularize(s, 'Groups', 1, 'MeanCt', \u000a          new_category_colnm='BioRuns',\u000a          values_colnm_prefix='Gene_')
p594
sbsg184
g0
(g185
g186
(g187
g188
tp595
tp596
Rp597
sg192
g593
sbag0
(g112
g2
Ntp598
Rp599
(dp600
g116
I00
sg117
g4
sg118
(lp601
F18.2
aF22.4
aF21.9
aF23.4
aF23.4
aF18.9
aFnan
aFnan
aFnan
aFnan
aFnan
aFnan
aFnan
aFnan
aFnan
aFnan
aFnan
aFnan
aFnan
aFnan
aFnan
aFnan
aFnan
aFnan
aFnan
aFnan
aFnan
aFnan
aFnan
aFnan
aFnan
aFnan
aFnan
aFnan
aFnan
aFnan
aFnan
aFnan
aFnan
aFnan
aFnan
aFnan
aFnan
aFnan
aFnan
aFnan
aFnan
aFnan
aFnan
aFnan
aFnan
aFnan
aFnan
aFnan
asg174
g0
(g175
g2
Ntp602
Rp603
(dp604
g179
Nsg180
g599
sg181
I00
sg182
I00
sg183
Nsbsg184
g0
(g185
g186
(g187
g188
tp605
tp606
Rp607
sg192
S'Gene_I'
p608
sbag0
(g112
g2
Ntp609
Rp610
(dp611
g116
I00
sg117
g4
sg118
(lp612
F18.3
aF19.9
aF21.9
aF23.9
aF23.5
aF18.8
aFnan
aFnan
aFnan
aFnan
aFnan
aFnan
aFnan
aFnan
aFnan
aFnan
aFnan
aFnan
aFnan
aFnan
aFnan
aFnan
aFnan
aFnan
aFnan
aFnan
aFnan
aFnan
aFnan
aFnan
aFnan
aFnan
aFnan
aFnan
aFnan
aFnan
aFnan
aFnan
aFnan
aFnan
aFnan
aFnan
aFnan
aFnan
aFnan
aFnan
aFnan
aFnan
aFnan
aFnan
aFnan
aFnan
aFnan
aFnan
asg174
g0
(g175
g2
Ntp613
Rp614
(dp615
g179
Nsg180
g610
sg181
I00
sg182
I00
sg183
Nsbsg184
g607
sg192
S'Gene_R1'
p616
sbag0
(g112
g2
Ntp617
Rp618
(dp619
g116
I00
sg117
g4
sg118
(lp620
F19.8
aF21.9
aF23.6
aF24.5
aF26.3
aF20.4
aFnan
aFnan
aFnan
aFnan
aFnan
aFnan
aFnan
aFnan
aFnan
aFnan
aFnan
aFnan
aFnan
aFnan
aFnan
aFnan
aFnan
aFnan
aFnan
aFnan
aFnan
aFnan
aFnan
aFnan
aFnan
aFnan
aFnan
aFnan
aFnan
aFnan
aFnan
aFnan
aFnan
aFnan
aFnan
aFnan
aFnan
aFnan
aFnan
aFnan
aFnan
aFnan
aFnan
aFnan
aFnan
aFnan
aFnan
aFnan
asg174
g0
(g175
g2
Ntp621
Rp622
(dp623
g179
Nsg180
g618
sg181
I00
sg182
I00
sg183
Nsbsg184
g607
sg192
S'Gene_R2'
p624
sbag0
(g112
g2
Ntp625
Rp626
(dp627
g116
I00
sg117
g4
sg118
(lp628
F1.07177
aF0.17678
aF1.0
aF1.41421
aF1.07177
aF0.93303
aFnan
aFnan
aFnan
aFnan
aFnan
aFnan
aFnan
aFnan
aFnan
aFnan
aFnan
aFnan
aFnan
aFnan
aFnan
aFnan
aFnan
aFnan
aFnan
aFnan
aFnan
aFnan
aFnan
aFnan
aFnan
aFnan
aFnan
aFnan
aFnan
aFnan
aFnan
aFnan
aFnan
aFnan
aFnan
aFnan
aFnan
aFnan
aFnan
aFnan
aFnan
aFnan
aFnan
aFnan
aFnan
aFnan
aFnan
aFnan
asg174
g0
(g175
g2
Ntp629
Rp630
(dp631
g179
VExprR1 = roundValues(2**(Gene_R1 - Gene_I),5)
p632
sg192
VExprR1
p633
sg181
I01
sg182
I00
sg183
VroundValues(2**(Gene_R1 - Gene_I),5)
p634
sbsg184
g0
(g185
g186
(g187
g188
tp635
tp636
Rp637
sg192
g633
sbag0
(g112
g2
Ntp638
Rp639
(dp640
g116
I00
sg117
g4
sg118
(lp641
F3.03143
aF0.70711
aF3.24901
aF2.14355
aF7.46426
aF2.82843
aFnan
aFnan
aFnan
aFnan
aFnan
aFnan
aFnan
aFnan
aFnan
aFnan
aFnan
aFnan
aFnan
aFnan
aFnan
aFnan
aFnan
aFnan
aFnan
aFnan
aFnan
aFnan
aFnan
aFnan
aFnan
aFnan
aFnan
aFnan
aFnan
aFnan
aFnan
aFnan
aFnan
aFnan
aFnan
aFnan
aFnan
aFnan
aFnan
aFnan
aFnan
aFnan
aFnan
aFnan
aFnan
aFnan
aFnan
aFnan
asg174
g0
(g175
g2
Ntp642
Rp643
(dp644
g179
VExprR2 = roundValues(2**(Gene_R2 - Gene_I),5)
p645
sg192
VExprR2
p646
sg181
I01
sg182
I00
sg183
VroundValues(2**(Gene_R2 - Gene_I),5)
p647
sbsg184
g0
(g185
g186
(g187
g188
tp648
tp649
Rp650
sg192
g646
sbag0
(g112
g2
Ntp651
Rp652
(dp653
g116
I00
sg117
g4
sg118
(lp654
F1.802
aF0.354
aF1.803
aF1.741
aF2.828
aF1.625
aFnan
aFnan
aFnan
aFnan
aFnan
aFnan
aFnan
aFnan
aFnan
aFnan
aFnan
aFnan
aFnan
aFnan
aFnan
aFnan
aFnan
aFnan
aFnan
aFnan
aFnan
aFnan
aFnan
aFnan
aFnan
aFnan
aFnan
aFnan
aFnan
aFnan
aFnan
aFnan
aFnan
aFnan
aFnan
aFnan
aFnan
aFnan
aFnan
aFnan
aFnan
aFnan
aFnan
aFnan
aFnan
aFnan
aFnan
aFnan
asg174
g0
(g175
g2
Ntp655
Rp656
(dp657
g179
Vif run:\u000a  GeoMean = roundValues(np.sqrt(ExprR1*ExprR2), 3)\u000as.setColumnVisibility(['BioRuns', 'Gene_I', 'Gene_R1', 'Gene_R2', 'ExprR1', 'ExprR2', 'GeoMean'], is_visible=show_block2)
p658
sg192
VGeoMean
p659
sg181
I00
sg182
I00
sg183
Vif run:\u000a  GeoMean = roundValues(np.sqrt(ExprR1*ExprR2), 3)\u000as.setColumnVisibility(['BioRuns', 'Gene_I', 'Gene_R1', 'Gene_R2', 'ExprR1', 'ExprR2', 'GeoMean'], is_visible=show_block2)
p660
sbsg184
g0
(g185
g186
(g187
g188
tp661
tp662
Rp663
sg192
g659
sbasS'_prologue'
p664
g0
(g175
g2
Ntp665
Rp666
(dp667
g179
Nsg192
VSingleGene
p668
sg181
I00
sg182
I00
sg183
S'# Prologue\nimport math as mt\nimport numpy as np\nfrom os import listdir\nfrom os.path import isfile, join\nimport pandas as pd\nimport scipy as sp\nfrom numpy import nan  # Must follow sympy import \n'
p669
sbsS'_epilogue'
p670
g0
(g175
g2
Ntp671
Rp672
(dp673
g179
Nsg192
g668
sg181
I00
sg182
I00
sg183
S'# Epilogue\n'
p674
sbsg192
g668
sS'_columns'
p675
(lp676
g0
(g112
g2
Ntp677
Rp678
(dp679
g116
I01
sg117
g4
sg118
(lp680
S'1'
p681
aS'2'
p682
aS'3'
p683
aS'4'
p684
aS'5'
p685
aS'6'
p686
aS'7'
p687
aS'8'
p688
aS'9'
p689
aS'10'
p690
aS'11'
p691
aS'12'
p692
aS'13'
p693
aS'14'
p694
aS'15'
p695
aS'16'
p696
aS'17'
p697
aS'18'
p698
aS'19'
p699
aS'20'
p700
aS'21'
p701
aS'22'
p702
aS'23'
p703
aS'24'
p704
aS'25'
p705
aS'26'
p706
aS'27'
p707
aS'28'
p708
aS'29'
p709
aS'30'
p710
aS'31'
p711
aS'32'
p712
aS'33'
p713
aS'34'
p714
aS'35'
p715
aS'36'
p716
aS'37'
p717
aS'38'
p718
aS'39'
p719
aS'40'
p720
aS'41'
p721
aS'42'
p722
aS'43'
p723
aS'44'
p724
aS'45'
p725
aS'46'
p726
aS'47'
p727
aS'48'
p728
aS'49'
p729
aS'50'
p730
aS'51'
p731
aS'52'
p732
aS'53'
p733
aS'54'
p734
asg174
g0
(g175
g2
Ntp735
Rp736
(dp737
g179
Nsg180
g678
sg181
I00
sg182
I00
sg183
Nsbsg184
g0
(g185
g186
(g187
g188
tp738
tp739
Rp740
sg192
S'row'
p741
sbag0
(g112
g2
Ntp742
Rp743
(dp744
g116
I00
sg117
g4
sg118
(lp745
Vgene
p746
aVrun
p747
aVshow_raw
p748
aVshow_block1
p749
aVshow_block2
p750
aVshow_block3
p751
aVmax_std
p752
aVmin_eff
p753
aVnan
p754
aVnan
p755
aVnan
p756
aVnan
p757
aVnan
p758
aVnan
p759
aVnan
p760
aVnan
p761
aVnan
p762
aVnan
p763
aVnan
p764
aVnan
p765
aVnan
p766
aVnan
p767
aVnan
p768
aVnan
p769
aVnan
p770
aVnan
p771
aVnan
p772
aVnan
p773
aVnan
p774
aVnan
p775
aVnan
p776
aVnan
p777
aVnan
p778
aVnan
p779
aVnan
p780
aVnan
p781
aVnan
p782
aVnan
p783
aVnan
p784
aVnan
p785
aVnan
p786
aVnan
p787
aVnan
p788
aVnan
p789
aVnan
p790
aVnan
p791
aVnan
p792
aVnan
p793
aVnan
p794
aVnan
p795
aVnan
p796
aVnan
p797
aVnan
p798
aVnan
p799
asg174
g0
(g175
g2
Ntp800
Rp801
(dp802
g179
Nsg180
g743
sg181
I00
sg182
I00
sg183
Nsbsg184
g0
(g185
g186
(g187
g188
tp803
tp804
Rp805
sg192
VParmNames
p806
sbag0
(g112
g2
Ntp807
Rp808
(dp809
g116
I00
sg117
g4
sg118
(lp810
VGene2
p811
aVTrue
p812
aVFalse
p813
aVFalse
p814
aVFalse
p815
aVTrue
p816
aV0.5
p817
aV0.7
p818
aV
p819
ag819
aVnan
p820
aVnan
p821
aVnan
p822
aVnan
p823
aVnan
p824
aVnan
p825
aVnan
p826
aVnan
p827
aVnan
p828
aVnan
p829
aVnan
p830
aVnan
p831
aVnan
p832
aVnan
p833
aVnan
p834
aVnan
p835
aVnan
p836
aVnan
p837
aVnan
p838
aVnan
p839
aVnan
p840
aVnan
p841
aVnan
p842
aVnan
p843
aVnan
p844
aVnan
p845
aVnan
p846
aVnan
p847
aVnan
p848
aVnan
p849
aVnan
p850
aVnan
p851
aVnan
p852
aVnan
p853
aVnan
p854
aVnan
p855
aVnan
p856
aVnan
p857
aVnan
p858
aVnan
p859
aVnan
p860
aVnan
p861
aVnan
p862
aVnan
p863
asg174
g0
(g175
g2
Ntp864
Rp865
(dp866
g179
Vxlsx_path = '/mnt/hgfs/josephhellerstein/home/Technical/SciSheets/CaseStudies/Kristen/workbooks/data.xlsx'\u000as.setColumnVisibility()\u000agene = ParmValues[0]\u000arun = ParmValues[1] == 'True'\u000ashow_raw = ParmValues[2] == 'True'\u000ashow_block1 = ParmValues[3] == 'True'\u000ashow_block2 = ParmValues[4] == 'True'\u000ashow_block3 = ParmValues[5] == 'True'\u000amax_std  = float(ParmValues[6])\u000amin_eff = float(ParmValues[7])\u000aworksheet = gene + "-I"\u000aif False:\u000a  Groups = []\u000a  GroupedCt = []\u000a  GroupedEff = []\u000a  MeanCt = []\u000a  Imp = []\u000a  s.deleteColumn('Ct')\u000a  s.deleteColumn('RunType')\u000a  s.deleteColumn('BRpl')\u000a  s.deleteColumn('TRpl')\u000a  s.deleteColumn('Treatment')\u000a  s.deleteColumn('SmplName')\u000a  s.deleteColumn('Eff')\u000aif run:\u000a  importExcelToTable(s, xlsx_path, worksheet=worksheet)\u000as.setColumnVisibility(['SmplName'], False)\u000as.setColumnVisibility(['BRpl', 'Ct', 'Eff', 'RunType', 'TRpl', 'Treatment'], is_visible=show_raw)
p867
sg192
VParmValues
p868
sg181
I00
sg182
I00
sg183
Vxlsx_path = '/mnt/hgfs/josephhellerstein/home/Technical/SciSheets/CaseStudies/Kristen/workbooks/data.xlsx'\u000as.setColumnVisibility()\u000agene = ParmValues[0]\u000arun = ParmValues[1] == 'True'\u000ashow_raw = ParmValues[2] == 'True'\u000ashow_block1 = ParmValues[3] == 'True'\u000ashow_block2 = ParmValues[4] == 'True'\u000ashow_block3 = ParmValues[5] == 'True'\u000amax_std  = float(ParmValues[6])\u000amin_eff = float(ParmValues[7])\u000aworksheet = gene + "-I"\u000aif False:\u000a  Groups = []\u000a  GroupedCt = []\u000a  GroupedEff = []\u000a  MeanCt = []\u000a  Imp = []\u000a  s.deleteColumn('Ct')\u000a  s.deleteColumn('RunType')\u000a  s.deleteColumn('BRpl')\u000a  s.deleteColumn('TRpl')\u000a  s.deleteColumn('Treatment')\u000a  s.deleteColumn('SmplName')\u000a  s.deleteColumn('Eff')\u000aif run:\u000a  importExcelToTable(s, xlsx_path, worksheet=worksheet)\u000as.setColumnVisibility(['SmplName'], False)\u000as.setColumnVisibility(['BRpl', 'Ct', 'Eff', 'RunType', 'TRpl', 'Treatment'], is_visible=show_raw)
p869
sbsg184
g0
(g185
g186
(g187
g188
tp870
tp871
Rp872
sg192
g868
sbag283
ag431
ag460
ag489
ag520
ag533
ag544
ag599
ag610
ag618
ag626
ag639
ag652
ag0
(g112
g2
Ntp873
Rp874
(dp875
g116
I00
sg117
g4
sg118
(lp876
F0.0
aF1.0
aF2.0
aF3.0
aFnan
aFnan
aFnan
aFnan
aFnan
aFnan
aFnan
aFnan
aFnan
aFnan
aFnan
aFnan
aFnan
aFnan
aFnan
aFnan
aFnan
aFnan
aFnan
aFnan
aFnan
aFnan
aFnan
aFnan
aFnan
aFnan
aFnan
aFnan
aFnan
aFnan
aFnan
aFnan
aFnan
aFnan
aFnan
aFnan
aFnan
aFnan
aFnan
aFnan
aFnan
aFnan
aFnan
aFnan
aFnan
aFnan
aFnan
aFnan
aFnan
aFnan
asg174
g0
(g175
g2
Ntp877
Rp878
(dp879
g179
Vif run:\u000a  cat_vals = [br[0] for br in pruneNulls(BioRuns)]\u000a  clean_geo = [x for x in GeoMean if x is not None]\u000a  GeoGroups, groupedGeoMeans = groupBy(cat_vals, clean_geo)\u000a  GroupedGeoMeans = roundValues(groupedGeoMeans, 3)
p880
sg192
VGeoGroups
p881
sg181
I00
sg182
I00
sg183
Vif run:\u000a  cat_vals = [br[0] for br in pruneNulls(BioRuns)]\u000a  clean_geo = [x for x in GeoMean if x is not None]\u000a  GeoGroups, groupedGeoMeans = groupBy(cat_vals, clean_geo)\u000a  GroupedGeoMeans = roundValues(groupedGeoMeans, 3)
p882
sbsg184
g0
(g185
g186
(g187
g188
tp883
tp884
Rp885
sg192
g881
sbag0
(g112
g2
Ntp886
Rp887
(dp888
g116
I00
sg117
g4
sg118
(lp889
cnumpy.core.multiarray
_reconstruct
p890
(g187
(I0
tp891
S'b'
p892
tp893
Rp894
(I1
(I1
tp895
g287
(S'f8'
p896
I0
I1
tp897
Rp898
(I3
S'<'
p899
NNNI-1
I-1
I0
tp900
bI00
S'\xa2E\xb6\xf3\xfd\xd4\xfc?'
p901
tp902
bag890
(g187
(I0
tp903
g892
tp904
Rp905
(I1
(I3
tp906
g898
I00
S'\x0e-\xb2\x9d\xef\xa7\xd6?\x0c\x02+\x87\x16\xd9\xfc?B`\xe5\xd0"\xdb\xfb?'
p907
tp908
bag890
(g187
(I0
tp909
g892
tp910
Rp911
(I1
(I1
tp912
g898
I00
S'9\xb4\xc8v\xbe\x9f\x06@'
p913
tp914
bag890
(g187
(I0
tp915
g892
tp916
Rp917
(I1
(I1
tp918
g898
I00
S'\x00\x00\x00\x00\x00\x00\xfa?'
p919
tp920
baNaNaNaNaNaNaNaNaNaNaNaNaNaNaNaNaNaNaNaNaNaNaNaNaNaNaNaNaNaNaNaNaNaNaNaNaNaNaNaNaNaNaNaNaNaNaNaNaNaNasg174
g0
(g175
g2
Ntp921
Rp922
(dp923
g179
Nsg180
g887
sg181
I00
sg182
I00
sg183
Nsbsg184
g0
(g185
g186
(g187
g188
tp924
tp925
Rp926
sg192
VGroupedGeoMeans
p927
sbag0
(g112
g2
Ntp928
Rp929
(dp930
g116
I00
sg117
g4
sg118
(lp931
g890
(g187
(I0
tp932
g892
tp933
Rp934
(I1
(I1
tp935
g898
I00
S'\x00\x00\x00\x00\x00\x00\xf0?'
p936
tp937
bag890
(g187
(I0
tp938
g892
tp939
Rp940
(I1
(I3
tp941
g898
I00
S'J\x0c\x02+\x87\x16\xc9?j\xbct\x93\x18\x04\xf0?\xb6\xf3\xfd\xd4x\xe9\xee?'
p942
tp943
bag890
(g187
(I0
tp944
g892
tp945
Rp946
(I1
(I1
tp947
g898
I00
S'\xb4\xc8v\xbe\x9f\x1a\xf9?'
p948
tp949
bag890
(g187
(I0
tp950
g892
tp951
Rp952
(I1
(I1
tp953
g898
I00
S'w\xbe\x9f\x1a/\xdd\xec?'
p954
tp955
baNaNaNaNaNaNaNaNaNaNaNaNaNaNaNaNaNaNaNaNaNaNaNaNaNaNaNaNaNaNaNaNaNaNaNaNaNaNaNaNaNaNaNaNaNaNaNaNaNaNasg174
g0
(g175
g2
Ntp956
Rp957
(dp958
g179
Vif run:\u000a  ref = np.mean(GroupedGeoMeans[0])\u000a  NrmlGeoGroupedMeans = [ [x/ref for x in g] for g in GroupedGeoMeans if g is not None]  \u000a  NrmlGeoGroupedMeans = roundValues(NrmlGeoGroupedMeans, 3)
p959
sg192
VNrmlGeoGroupedMeans
p960
sg181
I00
sg182
I00
sg183
Vif run:\u000a  ref = np.mean(GroupedGeoMeans[0])\u000a  NrmlGeoGroupedMeans = [ [x/ref for x in g] for g in GroupedGeoMeans if g is not None]  \u000a  NrmlGeoGroupedMeans = roundValues(NrmlGeoGroupedMeans, 3)
p961
sbsg184
g0
(g185
g186
(g187
g188
tp962
tp963
Rp964
sg192
g960
sbag0
(g112
g2
Ntp965
Rp966
(dp967
g116
I00
sg117
g4
sg118
(lp968
F1.0
aF0.721
aF1.569
aF0.902
aFnan
aFnan
aFnan
aFnan
aFnan
aFnan
aFnan
aFnan
aFnan
aFnan
aFnan
aFnan
aFnan
aFnan
aFnan
aFnan
aFnan
aFnan
aFnan
aFnan
aFnan
aFnan
aFnan
aFnan
aFnan
aFnan
aFnan
aFnan
aFnan
aFnan
aFnan
aFnan
aFnan
aFnan
aFnan
aFnan
aFnan
aFnan
aFnan
aFnan
aFnan
aFnan
aFnan
aFnan
aFnan
aFnan
aFnan
aFnan
aFnan
aFnan
asg174
g0
(g175
g2
Ntp969
Rp970
(dp971
g179
Vif run:\u000a  MeanNrmlGeoGroups = [round(np.mean(g), 3) for g in NrmlGeoGroupedMeans]
p972
sg192
VMeanNrmlGeoGroups
p973
sg181
I00
sg182
I00
sg183
Vif run:\u000a  MeanNrmlGeoGroups = [round(np.mean(g), 3) for g in NrmlGeoGroupedMeans]
p974
sbsg184
g0
(g185
g186
(g187
g188
tp975
tp976
Rp977
sg192
g973
sbag0
(g112
g2
Ntp978
Rp979
(dp980
g116
I00
sg117
g4
sg118
(lp981
Fnan
aF0.455
aFnan
aFnan
aFnan
aFnan
aFnan
aFnan
aFnan
aFnan
aFnan
aFnan
aFnan
aFnan
aFnan
aFnan
aFnan
aFnan
aFnan
aFnan
aFnan
aFnan
aFnan
aFnan
aFnan
aFnan
aFnan
aFnan
aFnan
aFnan
aFnan
aFnan
aFnan
aFnan
aFnan
aFnan
aFnan
aFnan
aFnan
aFnan
aFnan
aFnan
aFnan
aFnan
aFnan
aFnan
aFnan
aFnan
aFnan
aFnan
aFnan
aFnan
aFnan
aFnan
asg174
g0
(g175
g2
Ntp982
Rp983
(dp984
g179
Vif run:\u000a  StdNrmlGeoGroups = [round(np.std(g, ddof=1), 3) for g in NrmlGeoGroupedMeans]\u000as.setColumnVisibility(['GeoGroups', 'GroupedGeoMeans', 'NrmlGeoGroupedMeans', 'MeanNrmlGeoGroups', 'StdNrmlGeoGroups'], is_visible=show_block3)\u000a#s.setColumnVisibility()
p985
sg192
VStdNrmlGeoGroups
p986
sg181
I00
sg182
I00
sg183
Vif run:\u000a  StdNrmlGeoGroups = [round(np.std(g, ddof=1), 3) for g in NrmlGeoGroupedMeans]\u000as.setColumnVisibility(['GeoGroups', 'GroupedGeoMeans', 'NrmlGeoGroupedMeans', 'MeanNrmlGeoGroups', 'StdNrmlGeoGroups'], is_visible=show_block3)\u000a#s.setColumnVisibility()
p987
sbsg184
g0
(g185
g186
(g187
g188
tp988
tp989
Rp990
sg192
g986
sbag195
ag203
ag211
ag219
ag114
ag264
ag275
asg105
V/home/ubuntu/SciSheets/mysite/user/guest/tables/kristen_single_gene.pcl
p991
sb.