ccopy_reg
_reconstructor
p0
(cscisheets.ui.dt_table
DTTable
p1
c__builtin__
object
p2
Ntp3
Rp4
(dp5
S'_versioned_file'
p6
g0
(cmysite.helpers.versioned_file
VersionedFile
p7
g2
Ntp8
Rp9
(dp10
S'_redo_stack'
p11
g0
(cmysite.helpers.file_stack
FileStack
p12
g2
Ntp13
Rp14
(dp15
S'_dirpath'
p16
S'/home/ubuntu/SciSheets/mysite/user/guest/tables/backup'
p17
sS'_max_depth'
p18
I5
sS'_filename_pfx'
p19
Vkristen_single_gene.r
p20
sbsS'_max_versions'
p21
I5
sS'_undo_stack'
p22
g0
(g12
g2
Ntp23
Rp24
(dp25
g16
g17
sg18
I5
sg19
Vkristen_single_gene.u
p26
sbsS'_checkpoint_history'
p27
(lp28
VCell/Update
p29
aVCell/Update
p30
aVCell/Update
p31
aVCell/Update
p32
aVCell/Update
p33
aVCell/Update
p34
aVCell/Update
p35
aVCell/Update
p36
aVCell/Update
p37
aVCell/Update
p38
aVCell/Update
p39
aVCell/Update
p40
aVColumn/Formula
p41
aVColumn/Formula
p42
aVColumn/Append
p43
aVColumn/Formula
p44
aVColumn/Delete
p45
aVCell/Update
p46
aVColumn/Formula
p47
aVCell/Update
p48
aVCell/Update
p49
aVColumn/Formula
p50
aVColumn/Formula
p51
aVCell/Update
p52
aVColumn/Formula
p53
aVColumn/Formula
p54
aVCell/Update
p55
aVCell/Update
p56
aVCell/Update
p57
aVCell/Update
p58
aVColumn/Formula
p59
aVCell/Update
p60
aVCell/Update
p61
aVCell/Update
p62
aVColumn/Formula
p63
aVCell/Update
p64
aVColumn/Formula
p65
aVColumn/Formula
p66
aVCell/Update
p67
aVCell/Update
p68
aVCell/Update
p69
aVCell/Update
p70
aVCell/Update
p71
aVCell/Update
p72
aVCell/Update
p73
aVCell/Update
p74
aVCell/Update
p75
aVColumn/Formula
p76
aVCell/Update
p77
aVCell/Update
p78
aVCell/Update
p79
aVCell/Update
p80
aVCell/Update
p81
aVCell/Update
p82
aVCell/Update
p83
aVCell/Update
p84
aVCell/Update
p85
aVCell/Update
p86
aVCell/Update
p87
aVCell/Update
p88
aVColumn/Formula
p89
aVColumn/Formula
p90
aVColumn/Formula
p91
aVCell/Update
p92
aVCell/Update
p93
aVCell/Update
p94
aVCell/Update
p95
aVCell/Update
p96
aVColumn/Formula
p97
aVCell/Update
p98
aVCell/Update
p99
aVCell/Update
p100
aVCell/Update
p101
aVCell/Update
p102
aVCell/Update
p103
aVCell/Update
p104
aVColumn/Formula
p105
aVColumn/Formula
p106
aVColumn/Formula
p107
aVCell/Update
p108
aVCell/Update
p109
aVColumn/Formula
p110
aVCell/Update
p111
aVCell/Update
p112
aVCell/Update
p113
aVCell/Update
p114
aVCell/Update
p115
aVCell/Update
p116
aVCell/Update
p117
aVCell/Update
p118
aVColumn/Formula
p119
aVCell/Update
p120
aVColumn/Formula
p121
aVColumn/Formula
p122
aVColumn/Formula
p123
aVCell/Update
p124
aVCell/Update
p125
aVColumn/Formula
p126
aVColumn/Formula
p127
aVColumn/Formula
p128
aVColumn/Formula
p129
aVCell/Update
p130
aVColumn/Formula
p131
aVColumn/Formula
p132
aVColumn/Formula
p133
aVCell/Update
p134
aVCell/Update
p135
aVCell/Update
p136
aVCell/Update
p137
aVCell/Update
p138
aVCell/Update
p139
aVCell/Update
p140
aVCell/Update
p141
aVCell/Update
p142
aVCell/Update
p143
aVColumn/Formula
p144
aVColumn/Formula
p145
aVColumn/Formula
p146
aVColumn/Formula
p147
aVCell/Update
p148
aVCell/Update
p149
aVColumn/Formula
p150
aVCell/Update
p151
aVCell/Update
p152
aVCell/Update
p153
aVCell/Update
p154
aVCell/Update
p155
aVCell/Update
p156
aVCell/Update
p157
aVCell/Update
p158
aVCell/Update
p159
aVCell/Update
p160
aVCell/Update
p161
aVCell/Update
p162
aVCell/Update
p163
asS'_filepath'
p164
V/home/ubuntu/SciSheets/mysite/user/guest/tables/kristen_single_gene.pcl
p165
sS'_backup_dir'
p166
g17
sbsS'_namespace'
p167
(dp168
sS'_hidden_columns'
p169
(lp170
g0
(cscisheets.core.column
Column
p171
g2
Ntp172
Rp173
(dp174
S'_asis'
p175
I00
sS'_owning_table'
p176
g4
sS'_cells'
p177
(lp178
(lp179
cnumpy.core.multiarray
scalar
p180
(cnumpy
dtype
p181
(S'i8'
p182
I0
I1
tp183
Rp184
(I3
S'<'
p185
NNNI-1
I-1
I0
tp186
bS'\x00\x00\x00\x00\x00\x00\x00\x00'
p187
tp188
Rp189
ag180
(g184
S'\x01\x00\x00\x00\x00\x00\x00\x00'
p190
tp191
Rp192
aa(lp193
g180
(g184
S'\x01\x00\x00\x00\x00\x00\x00\x00'
p194
tp195
Rp196
ag180
(g184
S'\x01\x00\x00\x00\x00\x00\x00\x00'
p197
tp198
Rp199
aa(lp200
g180
(g184
S'\x01\x00\x00\x00\x00\x00\x00\x00'
p201
tp202
Rp203
ag180
(g184
S'\x02\x00\x00\x00\x00\x00\x00\x00'
p204
tp205
Rp206
aa(lp207
g180
(g184
S'\x01\x00\x00\x00\x00\x00\x00\x00'
p208
tp209
Rp210
ag180
(g184
S'\x03\x00\x00\x00\x00\x00\x00\x00'
p211
tp212
Rp213
aa(lp214
g180
(g184
S'\x02\x00\x00\x00\x00\x00\x00\x00'
p215
tp216
Rp217
ag180
(g184
S'\x01\x00\x00\x00\x00\x00\x00\x00'
p218
tp219
Rp220
aa(lp221
g180
(g184
S'\x03\x00\x00\x00\x00\x00\x00\x00'
p222
tp223
Rp224
ag180
(g184
S'\x01\x00\x00\x00\x00\x00\x00\x00'
p225
tp226
Rp227
aaNaNaNaNaNaNaNaNaNaNaNaNaNaNaNaNaNaNaNaNaNaNaNaNaNaNaNaNaNaNaNaNaNaNaNaNaNaNaNaNaNaNaNaNaNaNaNaNasS'_formula_statement'
p228
g0
(cscisheets.core.helpers.formula_statement
FormulaStatement
p229
g2
Ntp230
Rp231
(dp232
S'_statement'
p233
Vdummy = tabularize(s, 'Groups', 1, 'MeanCt', \u000a          new_category_colnm='BioRuns',\u000a          values_colnm_prefix='Gene_')
p234
sS'_name'
p235
VBioRuns
p236
sS'_isExpression'
p237
I00
sS'_isStatement'
p238
I00
sS'_formula'
p239
Vdummy = tabularize(s, 'Groups', 1, 'MeanCt', \u000a          new_category_colnm='BioRuns',\u000a          values_colnm_prefix='Gene_')
p240
sbsS'_data_class'
p241
g0
(cscisheets.core.helpers.api_util
DataClass
p242
c__builtin__
tuple
p243
(cnumpy
ndarray
p244
cscisheets.core.helpers.api_util
makeArray
p245
tp246
tp247
Rp248
sg235
g236
sbag0
(g171
g2
Ntp249
Rp250
(dp251
g175
I00
sg176
g4
sg177
(lp252
F22.9
aF27.0
aF26.6
aF29.8
aF30.1
aF24.8
aFnan
aFnan
aFnan
aFnan
aFnan
aFnan
aFnan
aFnan
aFnan
aFnan
aFnan
aFnan
aFnan
aFnan
aFnan
aFnan
aFnan
aFnan
aFnan
aFnan
aFnan
aFnan
aFnan
aFnan
aFnan
aFnan
aFnan
aFnan
aFnan
aFnan
aFnan
aFnan
aFnan
aFnan
aFnan
aFnan
aFnan
aFnan
aFnan
aFnan
aFnan
aFnan
aFnan
aFnan
aFnan
aFnan
aFnan
aFnan
asg228
g0
(g229
g2
Ntp253
Rp254
(dp255
g233
NsS'_column'
p256
g250
sg237
I00
sg238
I00
sg239
Nsbsg241
g0
(g242
g243
(g244
g245
tp257
tp258
Rp259
sg235
S'Gene_I'
p260
sbag0
(g171
g2
Ntp261
Rp262
(dp263
g175
I00
sg176
g4
sg177
(lp264
F18.3
aF19.9
aF21.9
aF23.9
aF23.5
aF18.8
aFnan
aFnan
aFnan
aFnan
aFnan
aFnan
aFnan
aFnan
aFnan
aFnan
aFnan
aFnan
aFnan
aFnan
aFnan
aFnan
aFnan
aFnan
aFnan
aFnan
aFnan
aFnan
aFnan
aFnan
aFnan
aFnan
aFnan
aFnan
aFnan
aFnan
aFnan
aFnan
aFnan
aFnan
aFnan
aFnan
aFnan
aFnan
aFnan
aFnan
aFnan
aFnan
aFnan
aFnan
aFnan
aFnan
aFnan
aFnan
asg228
g0
(g229
g2
Ntp265
Rp266
(dp267
g233
Nsg256
g262
sg237
I00
sg238
I00
sg239
Nsbsg241
g259
sg235
S'Gene_R1'
p268
sbag0
(g171
g2
Ntp269
Rp270
(dp271
g175
I00
sg176
g4
sg177
(lp272
F19.8
aF21.9
aF23.6
aF24.5
aF26.3
aF20.4
aFnan
aFnan
aFnan
aFnan
aFnan
aFnan
aFnan
aFnan
aFnan
aFnan
aFnan
aFnan
aFnan
aFnan
aFnan
aFnan
aFnan
aFnan
aFnan
aFnan
aFnan
aFnan
aFnan
aFnan
aFnan
aFnan
aFnan
aFnan
aFnan
aFnan
aFnan
aFnan
aFnan
aFnan
aFnan
aFnan
aFnan
aFnan
aFnan
aFnan
aFnan
aFnan
aFnan
aFnan
aFnan
aFnan
aFnan
aFnan
asg228
g0
(g229
g2
Ntp273
Rp274
(dp275
g233
Nsg256
g270
sg237
I00
sg238
I00
sg239
Nsbsg241
g259
sg235
S'Gene_R2'
p276
sbag0
(g171
g2
Ntp277
Rp278
(dp279
g175
I00
sg176
g4
sg177
(lp280
F0.04123
aF0.00729
aF0.03847
aF0.01675
aF0.01031
aF0.01563
aFnan
aFnan
aFnan
aFnan
aFnan
aFnan
aFnan
aFnan
aFnan
aFnan
aFnan
aFnan
aFnan
aFnan
aFnan
aFnan
aFnan
aFnan
aFnan
aFnan
aFnan
aFnan
aFnan
aFnan
aFnan
aFnan
aFnan
aFnan
aFnan
aFnan
aFnan
aFnan
aFnan
aFnan
aFnan
aFnan
aFnan
aFnan
aFnan
aFnan
aFnan
aFnan
aFnan
aFnan
aFnan
aFnan
aFnan
aFnan
asg228
g0
(g229
g2
Ntp281
Rp282
(dp283
g233
VExprR1 = roundValues(2**(Gene_R1 - Gene_I),5)
p284
sg235
VExprR1
p285
sg237
I01
sg238
I00
sg239
VroundValues(2**(Gene_R1 - Gene_I),5)
p286
sbsg241
g0
(g242
g243
(g244
g245
tp287
tp288
Rp289
sg235
g285
sbag0
(g171
g2
Ntp290
Rp291
(dp292
g175
I00
sg176
g4
sg177
(lp293
F0.11663
aF0.02916
aF0.125
aF0.02538
aF0.07179
aF0.04737
aFnan
aFnan
aFnan
aFnan
aFnan
aFnan
aFnan
aFnan
aFnan
aFnan
aFnan
aFnan
aFnan
aFnan
aFnan
aFnan
aFnan
aFnan
aFnan
aFnan
aFnan
aFnan
aFnan
aFnan
aFnan
aFnan
aFnan
aFnan
aFnan
aFnan
aFnan
aFnan
aFnan
aFnan
aFnan
aFnan
aFnan
aFnan
aFnan
aFnan
aFnan
aFnan
aFnan
aFnan
aFnan
aFnan
aFnan
aFnan
asg228
g0
(g229
g2
Ntp294
Rp295
(dp296
g233
VExprR2 = roundValues(2**(Gene_R2 - Gene_I),5)
p297
sg235
VExprR2
p298
sg237
I01
sg238
I00
sg239
VroundValues(2**(Gene_R2 - Gene_I),5)
p299
sbsg241
g0
(g242
g243
(g244
g245
tp300
tp301
Rp302
sg235
g298
sbag0
(g171
g2
Ntp303
Rp304
(dp305
g175
I00
sg176
g4
sg177
(lp306
F0.069
aF0.015
aF0.069
aF0.021
aF0.027
aF0.027
aFnan
aFnan
aFnan
aFnan
aFnan
aFnan
aFnan
aFnan
aFnan
aFnan
aFnan
aFnan
aFnan
aFnan
aFnan
aFnan
aFnan
aFnan
aFnan
aFnan
aFnan
aFnan
aFnan
aFnan
aFnan
aFnan
aFnan
aFnan
aFnan
aFnan
aFnan
aFnan
aFnan
aFnan
aFnan
aFnan
aFnan
aFnan
aFnan
aFnan
aFnan
aFnan
aFnan
aFnan
aFnan
aFnan
aFnan
aFnan
asg228
g0
(g229
g2
Ntp307
Rp308
(dp309
g233
VGeoMean = roundValues(np.sqrt(ExprR1*ExprR2), 3)
p310
sg235
VGeoMean
p311
sg237
I01
sg238
I00
sg239
VroundValues(np.sqrt(ExprR1*ExprR2), 3)
p312
sbsg241
g0
(g242
g243
(g244
g245
tp313
tp314
Rp315
sg235
g311
sbag0
(g171
g2
Ntp316
Rp317
(dp318
g175
I00
sg176
g4
sg177
(lp319
F0.0
aF1.0
aF2.0
aF3.0
aFnan
aFnan
aFnan
aFnan
aFnan
aFnan
aFnan
aFnan
aFnan
aFnan
aFnan
aFnan
aFnan
aFnan
aFnan
aFnan
aFnan
aFnan
aFnan
aFnan
aFnan
aFnan
aFnan
aFnan
aFnan
aFnan
aFnan
aFnan
aFnan
aFnan
aFnan
aFnan
aFnan
aFnan
aFnan
aFnan
aFnan
aFnan
aFnan
aFnan
aFnan
aFnan
aFnan
aFnan
aFnan
aFnan
aFnan
aFnan
aFnan
aFnan
asg228
g0
(g229
g2
Ntp320
Rp321
(dp322
g233
Vcat_vals = [br[0] for br in pruneNulls(BioRuns)]\u000aclean_geo = [x for x in GeoMean if x is not None]\u000aGeoGroups, groupedGeoMeans = groupBy(cat_vals, clean_geo)\u000aGroupedGeoMeans = roundValues(groupedGeoMeans, 3)
p323
sg235
VGeoGroups
p324
sg237
I00
sg238
I00
sg239
Vcat_vals = [br[0] for br in pruneNulls(BioRuns)]\u000aclean_geo = [x for x in GeoMean if x is not None]\u000aGeoGroups, groupedGeoMeans = groupBy(cat_vals, clean_geo)\u000aGroupedGeoMeans = roundValues(groupedGeoMeans, 3)
p325
sbsg241
g0
(g242
g243
(g244
g245
tp326
tp327
Rp328
sg235
g324
sbag0
(g171
g2
Ntp329
Rp330
(dp331
g175
I00
sg176
g4
sg177
(lp332
cnumpy.core.multiarray
_reconstruct
p333
(g244
(I0
tp334
S'b'
p335
tp336
Rp337
(I1
(I1
tp338
g181
(S'f8'
p339
I0
I1
tp340
Rp341
(I3
S'<'
p342
NNNI-1
I-1
I0
tp343
bI00
S'D\x8bl\xe7\xfb\xa9\xb1?'
p344
tp345
bag333
(g244
(I0
tp346
g335
tp347
Rp348
(I1
(I3
tp349
g341
I00
S'\xb8\x1e\x85\xebQ\xb8\x8e?D\x8bl\xe7\xfb\xa9\xb1?\x1b/\xdd$\x06\x81\x95?'
p350
tp351
bag333
(g244
(I0
tp352
g335
tp353
Rp354
(I1
(I1
tp355
g341
I00
S'\xd9\xce\xf7S\xe3\xa5\x9b?'
p356
tp357
bag333
(g244
(I0
tp358
g335
tp359
Rp360
(I1
(I1
tp361
g341
I00
S'\xd9\xce\xf7S\xe3\xa5\x9b?'
p362
tp363
baNaNaNaNaNaNaNaNaNaNaNaNaNaNaNaNaNaNaNaNaNaNaNaNaNaNaNaNaNaNaNaNaNaNaNaNaNaNaNaNaNaNaNaNaNaNaNaNaNaNasg228
g0
(g229
g2
Ntp364
Rp365
(dp366
g233
Nsg256
g330
sg237
I00
sg238
I00
sg239
Nsbsg241
g0
(g242
g243
(g244
g245
tp367
tp368
Rp369
sg235
VGroupedGeoMeans
p370
sbag0
(g171
g2
Ntp371
Rp372
(dp373
g175
I00
sg176
g4
sg177
(lp374
g333
(g244
(I0
tp375
g335
tp376
Rp377
(I1
(I1
tp378
g341
I00
S'\x00\x00\x00\x00\x00\x00\xf0?'
p379
tp380
bag333
(g244
(I0
tp381
g335
tp382
Rp383
(I1
(I3
tp384
g341
I00
S'-\xb2\x9d\xef\xa7\xc6\xcb?\x00\x00\x00\x00\x00\x00\xf0?\xdb\xf9~j\xbct\xd3?'
p385
tp386
bag333
(g244
(I0
tp387
g335
tp388
Rp389
(I1
(I1
tp390
g341
I00
S'\xa0\x1a/\xdd$\x06\xd9?'
p391
tp392
bag333
(g244
(I0
tp393
g335
tp394
Rp395
(I1
(I1
tp396
g341
I00
S'\xa0\x1a/\xdd$\x06\xd9?'
p397
tp398
baNaNaNaNaNaNaNaNaNaNaNaNaNaNaNaNaNaNaNaNaNaNaNaNaNaNaNaNaNaNaNaNaNaNaNaNaNaNaNaNaNaNaNaNaNaNaNaNaNaNasg228
g0
(g229
g2
Ntp399
Rp400
(dp401
g233
Vref = np.mean(GroupedGeoMeans[0])\u000aNrmlGeoGroupedMeans = [ [x/ref for x in g] for g in GroupedGeoMeans if g is not None]  \u000aNrmlGeoGroupedMeans = roundValues(NrmlGeoGroupedMeans, 3)
p402
sg235
VNrmlGeoGroupedMeans
p403
sg237
I00
sg238
I00
sg239
Vref = np.mean(GroupedGeoMeans[0])\u000aNrmlGeoGroupedMeans = [ [x/ref for x in g] for g in GroupedGeoMeans if g is not None]  \u000aNrmlGeoGroupedMeans = roundValues(NrmlGeoGroupedMeans, 3)
p404
sbsg241
g0
(g242
g243
(g244
g245
tp405
tp406
Rp407
sg235
g403
sbag0
(g171
g2
Ntp408
Rp409
(dp410
g175
I00
sg176
g4
sg177
(lp411
F1.0
aF0.507
aF0.391
aF0.391
aFnan
aFnan
aFnan
aFnan
aFnan
aFnan
aFnan
aFnan
aFnan
aFnan
aFnan
aFnan
aFnan
aFnan
aFnan
aFnan
aFnan
aFnan
aFnan
aFnan
aFnan
aFnan
aFnan
aFnan
aFnan
aFnan
aFnan
aFnan
aFnan
aFnan
aFnan
aFnan
aFnan
aFnan
aFnan
aFnan
aFnan
aFnan
aFnan
aFnan
aFnan
aFnan
aFnan
aFnan
aFnan
aFnan
aFnan
aFnan
aFnan
aFnan
asg228
g0
(g229
g2
Ntp412
Rp413
(dp414
g233
VMeanNrmlGeoGroups = [round(np.mean(g), 3) for g in NrmlGeoGroupedMeans]
p415
sg235
VMeanNrmlGeoGroups
p416
sg237
I01
sg238
I00
sg239
V[round(np.mean(g), 3) for g in NrmlGeoGroupedMeans]
p417
sbsg241
g0
(g242
g243
(g244
g245
tp418
tp419
Rp420
sg235
g416
sbag0
(g171
g2
Ntp421
Rp422
(dp423
g175
I00
sg176
g4
sg177
(lp424
Fnan
aF0.248
aFnan
aFnan
aFnan
aFnan
aFnan
aFnan
aFnan
aFnan
aFnan
aFnan
aFnan
aFnan
aFnan
aFnan
aFnan
aFnan
aFnan
aFnan
aFnan
aFnan
aFnan
aFnan
aFnan
aFnan
aFnan
aFnan
aFnan
aFnan
aFnan
aFnan
aFnan
aFnan
aFnan
aFnan
aFnan
aFnan
aFnan
aFnan
aFnan
aFnan
aFnan
aFnan
aFnan
aFnan
aFnan
aFnan
aFnan
aFnan
aFnan
aFnan
aFnan
aFnan
asg228
g0
(g229
g2
Ntp425
Rp426
(dp427
g233
VStdNrmlGeoGroups = [round(np.std(g, ddof=1)/np.sqrt(len(g)), 3) for g in NrmlGeoGroupedMeans]\u000a
p428
sg235
VStdNrmlGeoGroups
p429
sg237
I01
sg238
I00
sg239
V[round(np.std(g, ddof=1)/np.sqrt(len(g)), 3) for g in NrmlGeoGroupedMeans]\u000a
p430
sbsg241
g0
(g242
g243
(g244
g245
tp431
tp432
Rp433
sg235
g429
sbag0
(g171
g2
Ntp434
Rp435
(dp436
g175
I00
sg176
g4
sg177
(lp437
VSEP1 2012 P17F4 a
p438
aVSEP1 2012 P17F4 b
p439
aVSEP1 2012 P17F4 c
p440
aVSEP1 2012 P17F5 a
p441
aVSEP1 2012 P17F5 b
p442
aVSEP1 2012 P17F5 c
p443
aVSEP1 2012 P1F3 SEP1a
p444
aVSEP1 2012 P1F3 SEP1b
p445
aVSEP1 2012 P1F3 SEP1c
p446
aVSEP1-2 2012 P11aF2 a
p447
aVSEP1-2 2012 P11aF2 b
p448
aVSEP1-2 2012 P11aF2 c
p449
aVSEP1-3 2012 P15F2 a
p450
aVSEP1-3 2012 P15F2 b
p451
aVSEP1-3 2012 P15F2 c
p452
aVuntreated 2012 P12F1 SEP1 1:2a
p453
aVuntreated 2012 P12F1 SEP1 1:2b
p454
aVuntreated 2012 P12F1 SEP1 1:2c
p455
aVSEP1 2012 P17F4 ACTa
p456
aVSEP1 2012 P17F4 ACTb
p457
aVSEP1 2012 P17F4 ACTc
p458
aVSEP1 2012 P17F5 ACTa
p459
aVSEP1 2012 P17F5 ACTb
p460
aVSEP1 2012 P17F5 ACTc
p461
aVSEP1 2012 P1F3 ACTa
p462
aVSEP1 2012 P1F3 ACTb
p463
aVSEP1 2012 P1F3 ACTc
p464
aVSEP1-2 2012 P11aF2 ACTa
p465
aVSEP1-2 2012 P11aF2 ACTb
p466
aVSEP1-2 2012 P11aF2 ACTc
p467
aVSEP1-3 2012 P15F2 ACTa
p468
aVSEP1-3 2012 P15F2 ACTb
p469
aVSEP1-3 2012 P15F2 ACTc
p470
aVuntreated 2012 P12F1 ACTa
p471
aVuntreated 2012 P12F1 ACTb
p472
aVuntreated 2012 P12F1 ACTc
p473
aVSEP1 2012 P17F4 EEF1a
p474
aVSEP1 2012 P17F4 EEF1b
p475
aVSEP1 2012 P17F4 EEF1c
p476
aVSEP1 2012 P17F5 EEF1a
p477
aVSEP1 2012 P17F5 EEF1b
p478
aVSEP1 2012 P17F5 EEF1c
p479
aVSEP1 2012 P1F3 EEF1a
p480
aVSEP1 2012 P1F3 EEF1b
p481
aVSEP1 2012 P1F3 EEF1c
p482
aVSEP1-2 2012 P11aF2 EEF1a
p483
aVSEP1-2 2012 P11aF2 EEF1b
p484
aVSEP1-2 2012 P11aF2 EEF1c
p485
aVSEP1-3 2012 P15F2 EEF1a
p486
aVSEP1-3 2012 P15F2 EEF1b
p487
aVSEP1-3 2012 P15F2 EEF1c
p488
aVuntreated 2012 P12F1 EEF1a
p489
aVuntreated 2012 P12F1 EEF1b
p490
aVuntreated 2012 P12F1 EEF1c
p491
asg228
g0
(g229
g2
Ntp492
Rp493
(dp494
g233
Nsg256
g435
sg237
I00
sg238
I00
sg239
Nsbsg241
g0
(g242
g243
(g244
g245
tp495
tp496
Rp497
sg235
S'SmplName'
p498
sbag0
(g171
g2
Ntp499
Rp500
(dp501
g175
I00
sg176
g4
sg177
(lp502
I1
aI1
aI1
aI2
aI2
aI2
aI3
aI3
aI3
aI1
aI1
aI1
aI1
aI1
aI1
aI1
aI1
aI1
aI1
aI1
aI1
aI2
aI2
aI2
aI3
aI3
aI3
aI1
aI1
aI1
aI1
aI1
aI1
aI1
aI1
aI1
aI1
aI1
aI1
aI2
aI2
aI2
aI3
aI3
aI3
aI1
aI1
aI1
aI1
aI1
aI1
aI1
aI1
aI1
asg228
g0
(g229
g2
Ntp503
Rp504
(dp505
g233
Nsg256
g500
sg237
I00
sg238
I00
sg239
Nsbsg241
g497
sg235
S'BRpl'
p506
sbag0
(g171
g2
Ntp507
Rp508
(dp509
g175
I00
sg176
g4
sg177
(lp510
F26.68
aF27.13
aF27.21
aF26.76
aF26.71
aF26.19
aF29.98
aF30.12
aF29.41
aF29.95
aF30.45
aF29.88
aF24.8
aF24.97
aF24.63
aF23.0
aF22.86
aF22.8
aF19.92
aF19.85
aF20.0
aF21.86
aF22.09
aF21.84
aF23.89
aF23.54
aF24.27
aF23.22
aF23.8
aF23.49
aF18.91
aF18.78
aF18.8
aF18.24
aF18.22
aF18.36
aF22.18
aF21.71
aF21.75
aF23.88
aF23.42
aF23.63
aF24.59
aF24.61
aF24.34
aF26.37
aF26.36
aF26.17
aF20.5
aF20.47
aF20.28
aF19.72
aF19.75
aF20.01
asg228
g0
(g229
g2
Ntp511
Rp512
(dp513
g233
Nsg256
g508
sg237
I00
sg238
I00
sg239
Nsbsg241
g497
sg235
S'Ct'
p514
sbag0
(g171
g2
Ntp515
Rp516
(dp517
g175
I00
sg176
g4
sg177
(lp518
F0.9399
aF0.8296
aF0.8361
aF0.8039
aF0.8399
aF0.7935
aF0.8264
aF0.7974
aF0.8252
aF0.8418
aF0.7959
aF0.8071
aF0.8513
aF0.8485
aF0.8401
aF0.8371
aF0.891
aF0.8956
aF0.9179
aF0.9783
aF0.8971
aF0.8957
aF0.8287
aF0.8387
aF0.8746
aF0.8493
aF0.8349
aF0.7701
aF0.8746
aF0.8139
aF0.8715
aF0.8977
aF0.856
aF0.8266
aF0.8343
aF0.8496
aF0.7857
aF0.8427
aF0.8637
aF0.8281
aF0.8203
aF0.8288
aF0.8138
aF0.8242
aF0.804
aF0.7795
aF0.7676
aF0.7947
aF0.8179
aF0.8173
aF0.7894
aF0.8157
aF0.8543
aF0.8208
asg228
g0
(g229
g2
Ntp519
Rp520
(dp521
g233
Nsg256
g516
sg237
I00
sg238
I00
sg239
Nsbsg241
g497
sg235
S'Eff'
p522
sbag0
(g171
g2
Ntp523
Rp524
(dp525
g175
I00
sg176
g4
sg177
(lp526
VI
p527
ag527
ag527
ag527
ag527
ag527
ag527
ag527
ag527
ag527
ag527
ag527
ag527
ag527
ag527
ag527
ag527
ag527
aVR1
p528
aVR1
p529
aVR1
p530
aVR1
p531
aVR1
p532
aVR1
p533
aVR1
p534
aVR1
p535
aVR1
p536
aVR1
p537
aVR1
p538
aVR1
p539
aVR1
p540
aVR1
p541
aVR1
p542
aVR1
p543
aVR1
p544
aVR1
p545
aVR2
p546
aVR2
p547
aVR2
p548
aVR2
p549
aVR2
p550
aVR2
p551
aVR2
p552
aVR2
p553
aVR2
p554
aVR2
p555
aVR2
p556
aVR2
p557
aVR2
p558
aVR2
p559
aVR2
p560
aVR2
p561
aVR2
p562
aVR2
p563
asg228
g0
(g229
g2
Ntp564
Rp565
(dp566
g233
Nsg256
g524
sg237
I00
sg238
I00
sg239
Nsbsg241
g497
sg235
S'RunType'
p567
sbag0
(g171
g2
Ntp568
Rp569
(dp570
g175
I00
sg176
g4
sg177
(lp571
Va
p572
aVb
p573
aVc
p574
ag572
ag573
ag574
ag572
ag573
ag574
ag572
ag573
ag574
ag572
ag573
ag574
ag572
ag573
ag574
ag572
ag573
ag574
ag572
ag573
ag574
ag572
ag573
ag574
ag572
ag573
ag574
ag572
ag573
ag574
ag572
ag573
ag574
ag572
ag573
ag574
ag572
ag573
ag574
ag572
ag573
ag574
ag572
ag573
ag574
ag572
ag573
ag574
ag572
ag573
ag574
asg228
g0
(g229
g2
Ntp575
Rp576
(dp577
g233
Nsg256
g569
sg237
I00
sg238
I00
sg239
Nsbsg241
g497
sg235
S'TRpl'
p578
sbag0
(g171
g2
Ntp579
Rp580
(dp581
g175
I00
sg176
g4
sg177
(lp582
I1
aI1
aI1
aI1
aI1
aI1
aI1
aI1
aI1
aI2
aI2
aI2
aI3
aI3
aI3
aI0
aI0
aI0
aI1
aI1
aI1
aI1
aI1
aI1
aI1
aI1
aI1
aI2
aI2
aI2
aI3
aI3
aI3
aI0
aI0
aI0
aI1
aI1
aI1
aI1
aI1
aI1
aI1
aI1
aI1
aI2
aI2
aI2
aI3
aI3
aI3
aI0
aI0
aI0
asg228
g0
(g229
g2
Ntp583
Rp584
(dp585
g233
Nsg256
g580
sg237
I00
sg238
I00
sg239
Nsbsg241
g497
sg235
S'Treatment'
p586
sbasS'_is_evaluate_formulas'
p587
I01
sS'_prologue'
p588
g0
(g229
g2
Ntp589
Rp590
(dp591
g233
V# Prologue\u000aimport math as mt\u000aimport numpy as np\u000afrom os import listdir\u000afrom os.path import isfile, join\u000aimport pandas as pd\u000aimport scipy as sp\u000afrom numpy import nan  # Must follow sympy import \u000a\u000axlsx_path = '/mnt/hgfs/josephhellerstein/home/Technical/SciSheets/CaseStudies/Kristen/workbooks/data.xlsx'\u000agene = ParmValues[0]\u000arun = ParmValues[1] == 'True'\u000ashow_raw = ParmValues[2] == 'True'\u000ashow_block1 = ParmValues[3] == 'True'\u000ashow_block2 = ParmValues[4] == 'True'\u000ashow_block3 = ParmValues[5] == 'True'\u000amax_std  = float(ParmValues[6])\u000amin_eff = float(ParmValues[7])\u000aworksheet = gene + "-I"\u000as.getTable().setIsEvaluateFormulas(run)\u000as.setColumnVisibility()\u000as.setColumnVisibility(['Groups', 'GroupedEff', 'GroupedCt', 'StdFilteredGroupedCt', 'MeanCt', 'StdCt'], is_visible=show_block1)\u000as.setColumnVisibility(['BioRuns', 'Gene_I', 'Gene_R1', 'Gene_R2', 'ExprR1', 'ExprR2', 'GeoMean'], is_visible=show_block2)\u000as.setColumnVisibility(['GeoGroups', 'GroupedGeoMeans', 'NrmlGeoGroupedMeans', 'MeanNrmlGeoGroups', 'StdNrmlGeoGroups'], is_visible=show_block3)\u000aif False:\u000a  Groups = []\u000a  GroupedCt = []\u000a  GroupedEff = []\u000a  MeanCt = []\u000a  Imp = []\u000a  s.deleteColumn('Ct')\u000a  s.deleteColumn('RunType')\u000a  s.deleteColumn('BRpl')\u000a  s.deleteColumn('TRpl')\u000a  s.deleteColumn('Treatment')\u000a  s.deleteColumn('SmplName')\u000a  s.deleteColumn('Eff')\u000aif run:\u000a  importExcelToTable(s, xlsx_path, worksheet=worksheet,\u000a      column_position='ParmValues')\u000as.setColumnVisibility(['SmplName'], False)\u000as.setColumnVisibility(['BRpl', 'Ct', 'Eff', 'RunType', 'TRpl', 'Treatment'], is_visible=show_raw)\u000a
p592
sg235
VSingleGene
p593
sg237
I00
sg238
I00
sg239
V# Prologue\u000aimport math as mt\u000aimport numpy as np\u000afrom os import listdir\u000afrom os.path import isfile, join\u000aimport pandas as pd\u000aimport scipy as sp\u000afrom numpy import nan  # Must follow sympy import \u000a\u000axlsx_path = '/mnt/hgfs/josephhellerstein/home/Technical/SciSheets/CaseStudies/Kristen/workbooks/data.xlsx'\u000agene = ParmValues[0]\u000arun = ParmValues[1] == 'True'\u000ashow_raw = ParmValues[2] == 'True'\u000ashow_block1 = ParmValues[3] == 'True'\u000ashow_block2 = ParmValues[4] == 'True'\u000ashow_block3 = ParmValues[5] == 'True'\u000amax_std  = float(ParmValues[6])\u000amin_eff = float(ParmValues[7])\u000aworksheet = gene + "-I"\u000as.getTable().setIsEvaluateFormulas(run)\u000as.setColumnVisibility()\u000as.setColumnVisibility(['Groups', 'GroupedEff', 'GroupedCt', 'StdFilteredGroupedCt', 'MeanCt', 'StdCt'], is_visible=show_block1)\u000as.setColumnVisibility(['BioRuns', 'Gene_I', 'Gene_R1', 'Gene_R2', 'ExprR1', 'ExprR2', 'GeoMean'], is_visible=show_block2)\u000as.setColumnVisibility(['GeoGroups', 'GroupedGeoMeans', 'NrmlGeoGroupedMeans', 'MeanNrmlGeoGroups', 'StdNrmlGeoGroups'], is_visible=show_block3)\u000aif False:\u000a  Groups = []\u000a  GroupedCt = []\u000a  GroupedEff = []\u000a  MeanCt = []\u000a  Imp = []\u000a  s.deleteColumn('Ct')\u000a  s.deleteColumn('RunType')\u000a  s.deleteColumn('BRpl')\u000a  s.deleteColumn('TRpl')\u000a  s.deleteColumn('Treatment')\u000a  s.deleteColumn('SmplName')\u000a  s.deleteColumn('Eff')\u000aif run:\u000a  importExcelToTable(s, xlsx_path, worksheet=worksheet,\u000a      column_position='ParmValues')\u000as.setColumnVisibility(['SmplName'], False)\u000as.setColumnVisibility(['BRpl', 'Ct', 'Eff', 'RunType', 'TRpl', 'Treatment'], is_visible=show_raw)\u000a
p594
sbsS'_epilogue'
p595
g0
(g229
g2
Ntp596
Rp597
(dp598
g233
V# Epilogue\u000aif run:\u000a  worksheet = "%s-O" % gene\u000a  exportTableToExcel(s, xlsx_path, worksheet=worksheet, columns=['GeoGroups', 'MeanNrmlGeoGroups', 'StdNrmlGeoGroups'])\u000a
p599
sg235
g593
sg237
I00
sg238
I00
sg239
V# Epilogue\u000aif run:\u000a  worksheet = "%s-O" % gene\u000a  exportTableToExcel(s, xlsx_path, worksheet=worksheet, columns=['GeoGroups', 'MeanNrmlGeoGroups', 'StdNrmlGeoGroups'])\u000a
p600
sbsg235
g593
sS'_columns'
p601
(lp602
g0
(g171
g2
Ntp603
Rp604
(dp605
g175
I01
sg176
g4
sg177
(lp606
S'1'
p607
aS'2'
p608
aS'3'
p609
aS'4'
p610
aS'5'
p611
aS'6'
p612
aS'7'
p613
aS'8'
p614
aS'9'
p615
aS'10'
p616
aS'11'
p617
aS'12'
p618
aS'13'
p619
aS'14'
p620
aS'15'
p621
aS'16'
p622
aS'17'
p623
aS'18'
p624
aS'19'
p625
aS'20'
p626
aS'21'
p627
aS'22'
p628
aS'23'
p629
aS'24'
p630
aS'25'
p631
aS'26'
p632
aS'27'
p633
aS'28'
p634
aS'29'
p635
aS'30'
p636
aS'31'
p637
aS'32'
p638
aS'33'
p639
aS'34'
p640
aS'35'
p641
aS'36'
p642
aS'37'
p643
aS'38'
p644
aS'39'
p645
aS'40'
p646
aS'41'
p647
aS'42'
p648
aS'43'
p649
aS'44'
p650
aS'45'
p651
aS'46'
p652
aS'47'
p653
aS'48'
p654
aS'49'
p655
aS'50'
p656
aS'51'
p657
aS'52'
p658
aS'53'
p659
aS'54'
p660
asg228
g0
(g229
g2
Ntp661
Rp662
(dp663
g233
Nsg256
g604
sg237
I00
sg238
I00
sg239
Nsbsg241
g0
(g242
g243
(g244
g245
tp664
tp665
Rp666
sg235
S'row'
p667
sbag0
(g171
g2
Ntp668
Rp669
(dp670
g175
I00
sg176
g4
sg177
(lp671
Vgene
p672
aVrun
p673
aVshow_raw
p674
aVshow_block1
p675
aVshow_block2
p676
aVshow_block3
p677
aVmax_std
p678
aVmin_eff
p679
aVnan
p680
aVnan
p681
aVnan
p682
aVnan
p683
aVnan
p684
aVnan
p685
aVnan
p686
aVnan
p687
aVnan
p688
aVnan
p689
aVnan
p690
aVnan
p691
aVnan
p692
aVnan
p693
aVnan
p694
aVnan
p695
aVnan
p696
aVnan
p697
aVnan
p698
aVnan
p699
aVnan
p700
aVnan
p701
aVnan
p702
aVnan
p703
aVnan
p704
aVnan
p705
aVnan
p706
aVnan
p707
aVnan
p708
aVnan
p709
aVnan
p710
aVnan
p711
aVnan
p712
aVnan
p713
aVnan
p714
aVnan
p715
aVnan
p716
aVnan
p717
aVnan
p718
aVnan
p719
aVnan
p720
aVnan
p721
aVnan
p722
aVnan
p723
aVnan
p724
aVnan
p725
asg228
g0
(g229
g2
Ntp726
Rp727
(dp728
g233
Nsg256
g669
sg237
I00
sg238
I00
sg239
Nsbsg241
g0
(g242
g243
(g244
g245
tp729
tp730
Rp731
sg235
VParmNames
p732
sbag0
(g171
g2
Ntp733
Rp734
(dp735
g175
I00
sg176
g4
sg177
(lp736
VGene1
p737
aVTrue
p738
aVFalse
p739
aVTrue
p740
aVFalse
p741
aVFalse
p742
aV0.5
p743
aV0.7
p744
aV
p745
ag745
aVnan
p746
aVnan
p747
aVnan
p748
aVnan
p749
aVnan
p750
aVnan
p751
aVnan
p752
aVnan
p753
aVnan
p754
aVnan
p755
aVnan
p756
aVnan
p757
aVnan
p758
aVnan
p759
aVnan
p760
aVnan
p761
aVnan
p762
aVnan
p763
aVnan
p764
aVnan
p765
aVnan
p766
aVnan
p767
aVnan
p768
aVnan
p769
aVnan
p770
aVnan
p771
aVnan
p772
aVnan
p773
aVnan
p774
aVnan
p775
aVnan
p776
aVnan
p777
aVnan
p778
aVnan
p779
aVnan
p780
aVnan
p781
aVnan
p782
aVnan
p783
aVnan
p784
aVnan
p785
aVnan
p786
aVnan
p787
aVnan
p788
aVnan
p789
asg228
g0
(g229
g2
Ntp790
Rp791
(dp792
g233
Nsg235
VParmValues
p793
sg237
I00
sg238
I00
sg239
Nsbsg241
g0
(g242
g243
(g244
g245
tp794
tp795
Rp796
sg235
g793
sbag0
(g171
g2
Ntp797
Rp798
(dp799
g175
I00
sg176
g4
sg177
(lp800
(g180
(g184
S'\x00\x00\x00\x00\x00\x00\x00\x00'
p801
tp802
Rp803
g527
g180
(g184
S'\x01\x00\x00\x00\x00\x00\x00\x00'
p804
tp805
Rp806
tp807
a(g180
(g184
S'\x00\x00\x00\x00\x00\x00\x00\x00'
p808
tp809
Rp810
VR1
p811
g180
(g184
S'\x01\x00\x00\x00\x00\x00\x00\x00'
p812
tp813
Rp814
tp815
a(g180
(g184
S'\x00\x00\x00\x00\x00\x00\x00\x00'
p816
tp817
Rp818
VR2
p819
g180
(g184
S'\x01\x00\x00\x00\x00\x00\x00\x00'
p820
tp821
Rp822
tp823
a(g180
(g184
S'\x01\x00\x00\x00\x00\x00\x00\x00'
p824
tp825
Rp826
g527
g180
(g184
S'\x01\x00\x00\x00\x00\x00\x00\x00'
p827
tp828
Rp829
tp830
a(g180
(g184
S'\x01\x00\x00\x00\x00\x00\x00\x00'
p831
tp832
Rp833
g527
g180
(g184
S'\x02\x00\x00\x00\x00\x00\x00\x00'
p834
tp835
Rp836
tp837
a(g180
(g184
S'\x01\x00\x00\x00\x00\x00\x00\x00'
p838
tp839
Rp840
g527
g180
(g184
S'\x03\x00\x00\x00\x00\x00\x00\x00'
p841
tp842
Rp843
tp844
a(g180
(g184
S'\x01\x00\x00\x00\x00\x00\x00\x00'
p845
tp846
Rp847
g811
g180
(g184
S'\x01\x00\x00\x00\x00\x00\x00\x00'
p848
tp849
Rp850
tp851
a(g180
(g184
S'\x01\x00\x00\x00\x00\x00\x00\x00'
p852
tp853
Rp854
g811
g180
(g184
S'\x02\x00\x00\x00\x00\x00\x00\x00'
p855
tp856
Rp857
tp858
a(g180
(g184
S'\x01\x00\x00\x00\x00\x00\x00\x00'
p859
tp860
Rp861
g811
g180
(g184
S'\x03\x00\x00\x00\x00\x00\x00\x00'
p862
tp863
Rp864
tp865
a(g180
(g184
S'\x01\x00\x00\x00\x00\x00\x00\x00'
p866
tp867
Rp868
g819
g180
(g184
S'\x01\x00\x00\x00\x00\x00\x00\x00'
p869
tp870
Rp871
tp872
a(g180
(g184
S'\x01\x00\x00\x00\x00\x00\x00\x00'
p873
tp874
Rp875
g819
g180
(g184
S'\x02\x00\x00\x00\x00\x00\x00\x00'
p876
tp877
Rp878
tp879
a(g180
(g184
S'\x01\x00\x00\x00\x00\x00\x00\x00'
p880
tp881
Rp882
g819
g180
(g184
S'\x03\x00\x00\x00\x00\x00\x00\x00'
p883
tp884
Rp885
tp886
a(g180
(g184
S'\x02\x00\x00\x00\x00\x00\x00\x00'
p887
tp888
Rp889
g527
g180
(g184
S'\x01\x00\x00\x00\x00\x00\x00\x00'
p890
tp891
Rp892
tp893
a(g180
(g184
S'\x02\x00\x00\x00\x00\x00\x00\x00'
p894
tp895
Rp896
g811
g180
(g184
S'\x01\x00\x00\x00\x00\x00\x00\x00'
p897
tp898
Rp899
tp900
a(g180
(g184
S'\x02\x00\x00\x00\x00\x00\x00\x00'
p901
tp902
Rp903
g819
g180
(g184
S'\x01\x00\x00\x00\x00\x00\x00\x00'
p904
tp905
Rp906
tp907
a(g180
(g184
S'\x03\x00\x00\x00\x00\x00\x00\x00'
p908
tp909
Rp910
g527
g180
(g184
S'\x01\x00\x00\x00\x00\x00\x00\x00'
p911
tp912
Rp913
tp914
a(g180
(g184
S'\x03\x00\x00\x00\x00\x00\x00\x00'
p915
tp916
Rp917
g811
g180
(g184
S'\x01\x00\x00\x00\x00\x00\x00\x00'
p918
tp919
Rp920
tp921
a(g180
(g184
S'\x03\x00\x00\x00\x00\x00\x00\x00'
p922
tp923
Rp924
g819
g180
(g184
S'\x01\x00\x00\x00\x00\x00\x00\x00'
p925
tp926
Rp927
tp928
aNaNaNaNaNaNaNaNaNaNaNaNaNaNaNaNaNaNaNaNaNaNaNaNaNaNaNaNaNaNaNaNaNaNaNaNasg228
g0
(g229
g2
Ntp929
Rp930
(dp931
g233
Vsel = Eff > min_eff\u000agrouping_columns =   [\u000a    Treatment[sel],\u000a     RunType[sel], \u000a    BRpl[sel],      \u000a  ]\u000aGroups, groupedCt = groupBy(\u000a     grouping_columns, Ct[sel])\u000aGroups, groupedEff = groupBy(\u000a     grouping_columns, Eff[sel])\u000aGroupedCt = roundValues(groupedCt,2)\u000aGroupedEff = roundValues(groupedEff,2)
p932
sg235
VGroups
p933
sg237
I00
sg238
I00
sg239
Vsel = Eff > min_eff\u000agrouping_columns =   [\u000a    Treatment[sel],\u000a     RunType[sel], \u000a    BRpl[sel],      \u000a  ]\u000aGroups, groupedCt = groupBy(\u000a     grouping_columns, Ct[sel])\u000aGroups, groupedEff = groupBy(\u000a     grouping_columns, Eff[sel])\u000aGroupedCt = roundValues(groupedCt,2)\u000aGroupedEff = roundValues(groupedEff,2)
p934
sbsg241
g0
(g242
g243
(g244
g245
tp935
tp936
Rp937
sg235
g933
sbag0
(g171
g2
Ntp938
Rp939
(dp940
g175
I00
sg176
g4
sg177
(lp941
(lp942
F0.84
aF0.89
aF0.9
aa(lp943
F0.83
aF0.83
aF0.85
aa(lp944
F0.82
aF0.85
aF0.82
aa(lp945
F0.94
aF0.83
aF0.84
aa(lp946
F0.8
aF0.84
aF0.79
aa(lp947
F0.83
aF0.8
aF0.83
aa(lp948
F0.92
aF0.98
aF0.9
aa(lp949
F0.9
aF0.83
aF0.84
aa(lp950
F0.87
aF0.85
aF0.83
aa(lp951
F0.79
aF0.84
aF0.86
aa(lp952
F0.83
aF0.82
aF0.83
aa(lp953
F0.81
aF0.82
aF0.8
aa(lp954
F0.84
aF0.8
aF0.81
aa(lp955
F0.77
aF0.87
aF0.81
aa(lp956
F0.78
aF0.77
aF0.79
aa(lp957
F0.85
aF0.85
aF0.84
aa(lp958
F0.87
aF0.9
aF0.86
aa(lp959
F0.82
aF0.82
aF0.79
aaNaNaNaNaNaNaNaNaNaNaNaNaNaNaNaNaNaNaNaNaNaNaNaNaNaNaNaNaNaNaNaNaNaNaNaNasg228
g0
(g229
g2
Ntp960
Rp961
(dp962
g233
Nsg256
g939
sg237
I00
sg238
I00
sg239
Nsbsg241
g0
(g242
g243
(g244
g245
tp963
tp964
Rp965
sg235
VGroupedEff
p966
sbag0
(g171
g2
Ntp967
Rp968
(dp969
g175
I00
sg176
g4
sg177
(lp970
(lp971
F23.0
aF22.86
aF22.8
aa(lp972
F18.24
aF18.22
aF18.36
aa(lp973
F19.72
aF19.75
aF20.01
aa(lp974
F26.68
aF27.13
aF27.21
aa(lp975
F26.76
aF26.71
aF26.19
aa(lp976
F29.98
aF30.12
aF29.41
aa(lp977
F19.92
aF19.85
aF20.0
aa(lp978
F21.86
aF22.09
aF21.84
aa(lp979
F23.89
aF23.54
aF24.27
aa(lp980
F22.18
aF21.71
aF21.75
aa(lp981
F23.88
aF23.42
aF23.63
aa(lp982
F24.59
aF24.61
aF24.34
aa(lp983
F29.95
aF30.45
aF29.88
aa(lp984
F23.22
aF23.8
aF23.49
aa(lp985
F26.37
aF26.36
aF26.17
aa(lp986
F24.8
aF24.97
aF24.63
aa(lp987
F18.91
aF18.78
aF18.8
aa(lp988
F20.5
aF20.47
aF20.28
aaNaNaNaNaNaNaNaNaNaNaNaNaNaNaNaNaNaNaNaNaNaNaNaNaNaNaNaNaNaNaNaNaNaNaNaNasg228
g0
(g229
g2
Ntp989
Rp990
(dp991
g233
Nsg256
g968
sg237
I00
sg238
I00
sg239
Nsbsg241
g0
(g242
g243
(g244
g245
tp992
tp993
Rp994
sg235
VGroupedCt
p995
sbag0
(g171
g2
Ntp996
Rp997
(dp998
g175
I00
sg176
g4
sg177
(lp999
(lp1000
F23.0
aF22.9
aF22.8
aa(lp1001
F18.2
aF18.2
aF18.4
aa(lp1002
F19.7
aF19.8
aF20.0
aa(lp1003
F26.7
aF27.1
aF27.2
aa(lp1004
F26.8
aF26.7
aF26.2
aa(lp1005
F30.0
aF30.1
aF29.4
aa(lp1006
F19.9
aF19.9
aF20.0
aa(lp1007
F21.9
aF22.1
aF21.8
aa(lp1008
F23.9
aF23.5
aF24.3
aa(lp1009
F22.2
aF21.7
aF21.8
aa(lp1010
F23.9
aF23.4
aF23.6
aa(lp1011
F24.6
aF24.6
aF24.3
aa(lp1012
F29.9
aF30.4
aF29.9
aa(lp1013
F23.2
aF23.8
aF23.5
aa(lp1014
F26.4
aF26.4
aF26.2
aa(lp1015
F24.8
aF25.0
aF24.6
aa(lp1016
F18.9
aF18.8
aF18.8
aa(lp1017
F20.5
aF20.5
aF20.3
aaNaNaNaNaNaNaNaNaNaNaNaNaNaNaNaNaNaNaNaNaNaNaNaNaNaNaNaNaNaNaNaNaNaNaNaNasg228
g0
(g229
g2
Ntp1018
Rp1019
(dp1020
g233
Vlength = len(Groups)\u000aStdFilteredGroupedCt = roundValues([filterExtremes(g, max_std, 2) for g in pruneNulls(GroupedCt,    required_length=length)])\u000a 
p1021
sg235
VStdFilteredGroupedCt
p1022
sg237
I00
sg238
I00
sg239
Vlength = len(Groups)\u000aStdFilteredGroupedCt = roundValues([filterExtremes(g, max_std, 2) for g in pruneNulls(GroupedCt,    required_length=length)])\u000a 
p1023
sbsg241
g0
(g242
g243
(g244
g245
tp1024
tp1025
Rp1026
sg235
g1022
sbag0
(g171
g2
Ntp1027
Rp1028
(dp1029
g175
I00
sg176
g4
sg177
(lp1030
F22.9
aF18.3
aF19.8
aF27.0
aF26.6
aF29.8
aF19.9
aF21.9
aF23.9
aF21.9
aF23.6
aF24.5
aF30.1
aF23.5
aF26.3
aF24.8
aF18.8
aF20.4
aFnan
aFnan
aFnan
aFnan
aFnan
aFnan
aFnan
aFnan
aFnan
aFnan
aFnan
aFnan
aFnan
aFnan
aFnan
aFnan
aFnan
aFnan
aFnan
aFnan
aFnan
aFnan
aFnan
aFnan
aFnan
aFnan
aFnan
aFnan
aFnan
aFnan
aFnan
aFnan
aFnan
aFnan
aFnan
aFnan
asg228
g0
(g229
g2
Ntp1031
Rp1032
(dp1033
g233
VMeanCt = [np.mean(g) for g in StdFilteredGroupedCt]\u000aMeanCt = roundValues(MeanCt,1)\u000aStdCt = [np.std(g, ddof=1) for g in StdFilteredGroupedCt]\u000aStdCt = roundValues(StdCt,3)
p1034
sg235
VMeanCt
p1035
sg237
I00
sg238
I00
sg239
VMeanCt = [np.mean(g) for g in StdFilteredGroupedCt]\u000aMeanCt = roundValues(MeanCt,1)\u000aStdCt = [np.std(g, ddof=1) for g in StdFilteredGroupedCt]\u000aStdCt = roundValues(StdCt,3)
p1036
sbsg241
g0
(g242
g243
(g244
g245
tp1037
tp1038
Rp1039
sg235
g1035
sbag0
(g171
g2
Ntp1040
Rp1041
(dp1042
g175
I00
sg176
g4
sg177
(lp1043
F0.1
aF0.115
aF0.153
aF0.265
aF0.321
aF0.379
aF0.058
aF0.153
aF0.4
aF0.265
aF0.252
aF0.173
aF0.289
aF0.3
aF0.115
aF0.2
aF0.058
aF0.115
aFnan
aFnan
aFnan
aFnan
aFnan
aFnan
aFnan
aFnan
aFnan
aFnan
aFnan
aFnan
aFnan
aFnan
aFnan
aFnan
aFnan
aFnan
aFnan
aFnan
aFnan
aFnan
aFnan
aFnan
aFnan
aFnan
aFnan
aFnan
aFnan
aFnan
aFnan
aFnan
aFnan
aFnan
aFnan
aFnan
asg228
g0
(g229
g2
Ntp1044
Rp1045
(dp1046
g233
Nsg256
g1041
sg237
I00
sg238
I00
sg239
Nsbsg241
g0
(g242
g243
(g244
g245
tp1047
tp1048
Rp1049
sg235
VStdCt
p1050
sbag173
ag250
ag262
ag270
ag278
ag291
ag304
ag317
ag330
ag372
ag409
ag422
ag500
ag508
ag516
ag524
ag435
ag569
ag580
asg164
V/home/ubuntu/SciSheets/mysite/user/guest/tables/kristen_single_gene.pcl
p1051
sb.