ccopy_reg
_reconstructor
p0
(cscisheets.ui.dt_table
DTTable
p1
c__builtin__
object
p2
Ntp3
Rp4
(dp5
S'_versioned_file'
p6
g0
(cmysite.helpers.versioned_file
VersionedFile
p7
g2
Ntp8
Rp9
(dp10
S'_redo_stack'
p11
g0
(cmysite.helpers.file_stack
FileStack
p12
g2
Ntp13
Rp14
(dp15
S'_dirpath'
p16
S'/home/ubuntu/SciSheets/mysite/user/guest/tables/backup'
p17
sS'_max_depth'
p18
I5
sS'_filename_pfx'
p19
Vkristen_single_gene.r
p20
sbsS'_max_versions'
p21
I5
sS'_undo_stack'
p22
g0
(g12
g2
Ntp23
Rp24
(dp25
g16
g17
sg18
I5
sg19
Vkristen_single_gene.u
p26
sbsS'_checkpoint_history'
p27
(lp28
VCell/Update
p29
aVCell/Update
p30
aVCell/Update
p31
aVCell/Update
p32
aVCell/Update
p33
aVCell/Update
p34
aVCell/Update
p35
aVCell/Update
p36
aVCell/Update
p37
aVCell/Update
p38
aVCell/Update
p39
aVCell/Update
p40
aVColumn/Formula
p41
aVColumn/Formula
p42
aVColumn/Append
p43
aVColumn/Formula
p44
aVColumn/Delete
p45
aVCell/Update
p46
aVColumn/Formula
p47
aVCell/Update
p48
aVCell/Update
p49
aVColumn/Formula
p50
aVColumn/Formula
p51
aVCell/Update
p52
aVColumn/Formula
p53
aVColumn/Formula
p54
aVCell/Update
p55
aVCell/Update
p56
aVCell/Update
p57
aVCell/Update
p58
aVColumn/Formula
p59
aVCell/Update
p60
aVCell/Update
p61
aVCell/Update
p62
aVColumn/Formula
p63
aVCell/Update
p64
aVColumn/Formula
p65
aVColumn/Formula
p66
aVCell/Update
p67
aVCell/Update
p68
aVCell/Update
p69
aVCell/Update
p70
aVCell/Update
p71
aVCell/Update
p72
aVCell/Update
p73
aVCell/Update
p74
aVCell/Update
p75
aVColumn/Formula
p76
aVCell/Update
p77
aVCell/Update
p78
aVCell/Update
p79
aVCell/Update
p80
aVCell/Update
p81
aVCell/Update
p82
aVCell/Update
p83
aVCell/Update
p84
aVCell/Update
p85
aVCell/Update
p86
aVCell/Update
p87
aVCell/Update
p88
aVColumn/Formula
p89
aVColumn/Formula
p90
aVColumn/Formula
p91
aVCell/Update
p92
aVCell/Update
p93
aVCell/Update
p94
aVCell/Update
p95
aVCell/Update
p96
aVColumn/Formula
p97
aVCell/Update
p98
aVCell/Update
p99
aVCell/Update
p100
aVCell/Update
p101
aVCell/Update
p102
aVCell/Update
p103
aVCell/Update
p104
aVColumn/Formula
p105
aVColumn/Formula
p106
aVColumn/Formula
p107
aVCell/Update
p108
aVCell/Update
p109
aVColumn/Formula
p110
aVCell/Update
p111
aVCell/Update
p112
aVCell/Update
p113
aVCell/Update
p114
aVCell/Update
p115
aVCell/Update
p116
aVCell/Update
p117
aVCell/Update
p118
aVColumn/Formula
p119
aVCell/Update
p120
aVColumn/Formula
p121
aVColumn/Formula
p122
aVColumn/Formula
p123
aVCell/Update
p124
aVCell/Update
p125
aVColumn/Formula
p126
aVColumn/Formula
p127
aVColumn/Formula
p128
aVColumn/Formula
p129
aVCell/Update
p130
aVColumn/Formula
p131
aVColumn/Formula
p132
aVColumn/Formula
p133
aVCell/Update
p134
aVCell/Update
p135
aVCell/Update
p136
aVCell/Update
p137
aVCell/Update
p138
aVCell/Update
p139
aVCell/Update
p140
aVCell/Update
p141
aVCell/Update
p142
aVCell/Update
p143
aVColumn/Formula
p144
aVColumn/Formula
p145
aVColumn/Formula
p146
aVColumn/Formula
p147
aVCell/Update
p148
aVCell/Update
p149
aVColumn/Formula
p150
aVCell/Update
p151
aVCell/Update
p152
aVCell/Update
p153
aVCell/Update
p154
aVCell/Update
p155
aVCell/Update
p156
aVCell/Update
p157
aVCell/Update
p158
aVCell/Update
p159
aVCell/Update
p160
aVCell/Update
p161
aVCell/Update
p162
aVCell/Update
p163
aVColumn/Formula
p164
aVColumn/Formula
p165
aVCell/Update
p166
aVCell/Update
p167
aVCell/Update
p168
aVColumn/Formula
p169
aVCell/Update
p170
aVCell/Update
p171
aVCell/Update
p172
aVCell/Update
p173
aVColumn/Formula
p174
aVColumn/Formula
p175
aVColumn/Formula
p176
aVColumn/Formula
p177
aVCell/Update
p178
aVColumn/Formula
p179
aVCell/Update
p180
aVCell/Update
p181
aVCell/Update
p182
aVCell/Update
p183
aVCell/Update
p184
aVCell/Update
p185
aVCell/Update
p186
aVCell/Update
p187
aVCell/Update
p188
aVColumn/Formula
p189
aVCell/Update
p190
aVCell/Update
p191
aVCell/Update
p192
aVCell/Update
p193
aVCell/Update
p194
aVCell/Update
p195
aVCell/Update
p196
aVCell/Update
p197
aVCell/Update
p198
aVCell/Update
p199
aVCell/Update
p200
aVCell/Update
p201
aVCell/Update
p202
aVCell/Update
p203
aVCell/Update
p204
aVCell/Update
p205
aVCell/Update
p206
aVCell/Update
p207
aVCell/Update
p208
aVCell/Update
p209
aVCell/Update
p210
aVCell/Update
p211
aVCell/Update
p212
aVCell/Update
p213
aVCell/Update
p214
aVCell/Update
p215
aVCell/Update
p216
aVCell/Update
p217
aVCell/Update
p218
aVCell/Update
p219
aVCell/Update
p220
aVCell/Update
p221
aVCell/Update
p222
aVCell/Update
p223
aVCell/Update
p224
aVCell/Update
p225
aVCell/Update
p226
aVCell/Update
p227
aVCell/Update
p228
aVCell/Update
p229
aVCell/Update
p230
aVCell/Update
p231
aVCell/Update
p232
aVCell/Update
p233
aVCell/Update
p234
aVCell/Update
p235
aVCell/Update
p236
aVCell/Update
p237
aVCell/Update
p238
aVCell/Update
p239
aVCell/Update
p240
aVCell/Update
p241
aVCell/Update
p242
aVCell/Update
p243
aVCell/Update
p244
aVCell/Update
p245
aVCell/Update
p246
aVCell/Update
p247
aVCell/Update
p248
aVCell/Update
p249
aVCell/Update
p250
aVCell/Update
p251
aVCell/Update
p252
aVCell/Update
p253
aVCell/Update
p254
aVCell/Update
p255
aVCell/Update
p256
aVCell/Update
p257
aVCell/Update
p258
aVCell/Update
p259
aVCell/Update
p260
aVCell/Update
p261
aVCell/Update
p262
aVCell/Update
p263
aVCell/Update
p264
aVCell/Update
p265
aVCell/Update
p266
aVCell/Update
p267
aVCell/Update
p268
aVCell/Update
p269
aVCell/Update
p270
aVCell/Update
p271
aVColumn/Formula
p272
aVColumn/Formula
p273
aVCell/Update
p274
aVCell/Update
p275
aVCell/Update
p276
aVCell/Update
p277
aVColumn/Formula
p278
aVColumn/Formula
p279
aVColumn/Formula
p280
aVCell/Update
p281
aVCell/Update
p282
aVCell/Update
p283
aVCell/Update
p284
aVColumn/Formula
p285
aVColumn/Formula
p286
aVColumn/Formula
p287
asS'_filepath'
p288
V/home/ubuntu/SciSheets/mysite/user/guest/tables/kristen_single_gene.pcl
p289
sS'_backup_dir'
p290
g17
sbsS'_namespace'
p291
(dp292
sS'_hidden_columns'
p293
(lp294
g0
(cscisheets.core.column
Column
p295
g2
Ntp296
Rp297
(dp298
S'_asis'
p299
I00
sS'_owning_table'
p300
g4
sS'_cells'
p301
(lp302
(lp303
cnumpy.core.multiarray
scalar
p304
(cnumpy
dtype
p305
(S'i8'
p306
I0
I1
tp307
Rp308
(I3
S'<'
p309
NNNI-1
I-1
I0
tp310
bS'\x00\x00\x00\x00\x00\x00\x00\x00'
p311
tp312
Rp313
aVI
p314
ag304
(g308
S'\x01\x00\x00\x00\x00\x00\x00\x00'
p315
tp316
Rp317
aa(lp318
g304
(g308
S'\x00\x00\x00\x00\x00\x00\x00\x00'
p319
tp320
Rp321
aVR1
p322
ag304
(g308
S'\x01\x00\x00\x00\x00\x00\x00\x00'
p323
tp324
Rp325
aa(lp326
g304
(g308
S'\x00\x00\x00\x00\x00\x00\x00\x00'
p327
tp328
Rp329
aVR2
p330
ag304
(g308
S'\x01\x00\x00\x00\x00\x00\x00\x00'
p331
tp332
Rp333
aa(lp334
g304
(g308
S'\x01\x00\x00\x00\x00\x00\x00\x00'
p335
tp336
Rp337
ag314
ag304
(g308
S'\x01\x00\x00\x00\x00\x00\x00\x00'
p338
tp339
Rp340
aa(lp341
g304
(g308
S'\x01\x00\x00\x00\x00\x00\x00\x00'
p342
tp343
Rp344
ag314
ag304
(g308
S'\x02\x00\x00\x00\x00\x00\x00\x00'
p345
tp346
Rp347
aa(lp348
g304
(g308
S'\x01\x00\x00\x00\x00\x00\x00\x00'
p349
tp350
Rp351
ag314
ag304
(g308
S'\x03\x00\x00\x00\x00\x00\x00\x00'
p352
tp353
Rp354
aa(lp355
g304
(g308
S'\x01\x00\x00\x00\x00\x00\x00\x00'
p356
tp357
Rp358
ag322
ag304
(g308
S'\x01\x00\x00\x00\x00\x00\x00\x00'
p359
tp360
Rp361
aa(lp362
g304
(g308
S'\x01\x00\x00\x00\x00\x00\x00\x00'
p363
tp364
Rp365
ag322
ag304
(g308
S'\x02\x00\x00\x00\x00\x00\x00\x00'
p366
tp367
Rp368
aa(lp369
g304
(g308
S'\x01\x00\x00\x00\x00\x00\x00\x00'
p370
tp371
Rp372
ag322
ag304
(g308
S'\x03\x00\x00\x00\x00\x00\x00\x00'
p373
tp374
Rp375
aa(lp376
g304
(g308
S'\x01\x00\x00\x00\x00\x00\x00\x00'
p377
tp378
Rp379
ag330
ag304
(g308
S'\x01\x00\x00\x00\x00\x00\x00\x00'
p380
tp381
Rp382
aa(lp383
g304
(g308
S'\x01\x00\x00\x00\x00\x00\x00\x00'
p384
tp385
Rp386
ag330
ag304
(g308
S'\x02\x00\x00\x00\x00\x00\x00\x00'
p387
tp388
Rp389
aa(lp390
g304
(g308
S'\x01\x00\x00\x00\x00\x00\x00\x00'
p391
tp392
Rp393
ag330
ag304
(g308
S'\x03\x00\x00\x00\x00\x00\x00\x00'
p394
tp395
Rp396
aa(lp397
g304
(g308
S'\x02\x00\x00\x00\x00\x00\x00\x00'
p398
tp399
Rp400
ag314
ag304
(g308
S'\x01\x00\x00\x00\x00\x00\x00\x00'
p401
tp402
Rp403
aa(lp404
g304
(g308
S'\x02\x00\x00\x00\x00\x00\x00\x00'
p405
tp406
Rp407
ag322
ag304
(g308
S'\x01\x00\x00\x00\x00\x00\x00\x00'
p408
tp409
Rp410
aa(lp411
g304
(g308
S'\x02\x00\x00\x00\x00\x00\x00\x00'
p412
tp413
Rp414
ag330
ag304
(g308
S'\x01\x00\x00\x00\x00\x00\x00\x00'
p415
tp416
Rp417
aa(lp418
g304
(g308
S'\x03\x00\x00\x00\x00\x00\x00\x00'
p419
tp420
Rp421
ag314
ag304
(g308
S'\x01\x00\x00\x00\x00\x00\x00\x00'
p422
tp423
Rp424
aa(lp425
g304
(g308
S'\x03\x00\x00\x00\x00\x00\x00\x00'
p426
tp427
Rp428
ag322
ag304
(g308
S'\x01\x00\x00\x00\x00\x00\x00\x00'
p429
tp430
Rp431
aa(lp432
g304
(g308
S'\x03\x00\x00\x00\x00\x00\x00\x00'
p433
tp434
Rp435
ag330
ag304
(g308
S'\x01\x00\x00\x00\x00\x00\x00\x00'
p436
tp437
Rp438
aa(lp439
g304
(g308
S'\x04\x00\x00\x00\x00\x00\x00\x00'
p440
tp441
Rp442
ag314
ag304
(g308
S'\x01\x00\x00\x00\x00\x00\x00\x00'
p443
tp444
Rp445
aa(lp446
g304
(g308
S'\x04\x00\x00\x00\x00\x00\x00\x00'
p447
tp448
Rp449
ag322
ag304
(g308
S'\x01\x00\x00\x00\x00\x00\x00\x00'
p450
tp451
Rp452
aa(lp453
g304
(g308
S'\x04\x00\x00\x00\x00\x00\x00\x00'
p454
tp455
Rp456
ag330
ag304
(g308
S'\x01\x00\x00\x00\x00\x00\x00\x00'
p457
tp458
Rp459
aaNaNaNaNaNaNaNaNaNaNaNaNaNaNaNaNaNaNaNaNaNaNaNaNaNaNaNaNaNaNaNaNaNaNaNaNaNaNaNaNaNaNaNasS'_formula_statement'
p460
g0
(cscisheets.core.helpers.formula_statement
FormulaStatement
p461
g2
Ntp462
Rp463
(dp464
S'_statement'
p465
Vsel = Eff > min_eff\u000agrouping_columns =   [\u000a    Treatment[sel],\u000a     RunType[sel], \u000a    BRpl[sel],      \u000a  ]\u000aGroups, groupedCt = groupBy(\u000a     grouping_columns, Ct[sel])\u000aGroups, groupedEff = groupBy(\u000a     grouping_columns, Eff[sel])\u000aGroups = [[g[0], g[1], g[2]] for g in Groups]\u000aGroupedCt = roundValues(groupedCt,2)\u000aGroupedEff = roundValues(groupedEff,2)
p466
sS'_name'
p467
VGroups
p468
sS'_isExpression'
p469
I00
sS'_isStatement'
p470
I00
sS'_formula'
p471
Vsel = Eff > min_eff\u000agrouping_columns =   [\u000a    Treatment[sel],\u000a     RunType[sel], \u000a    BRpl[sel],      \u000a  ]\u000aGroups, groupedCt = groupBy(\u000a     grouping_columns, Ct[sel])\u000aGroups, groupedEff = groupBy(\u000a     grouping_columns, Eff[sel])\u000aGroups = [[g[0], g[1], g[2]] for g in Groups]\u000aGroupedCt = roundValues(groupedCt,2)\u000aGroupedEff = roundValues(groupedEff,2)
p472
sbsS'_data_class'
p473
g0
(cscisheets.core.helpers.api_util
DataClass
p474
c__builtin__
tuple
p475
(cnumpy
ndarray
p476
cscisheets.core.helpers.api_util
makeArray
p477
tp478
tp479
Rp480
sg467
g468
sbag0
(g295
g2
Ntp481
Rp482
(dp483
g299
I00
sg300
g4
sg301
(lp484
cnumpy.core.multiarray
_reconstruct
p485
(g476
(I0
tp486
S'b'
p487
tp488
Rp489
(I1
(I4
tp490
g305
(S'f8'
p491
I0
I1
tp492
Rp493
(I3
S'<'
p494
NNNI-1
I-1
I0
tp495
bI00
S'\xe1z\x14\xaeG\xe1\xea?{\x14\xaeG\xe1z\xec?\xcd\xcc\xcc\xcc\xcc\xcc\xec?\xd7\xa3p=\n\xd7\xeb?'
p496
tp497
bag485
(g476
(I0
tp498
g487
tp499
Rp500
(I1
(I3
tp501
g493
I00
S'\x8f\xc2\xf5(\\\x8f\xea?\x8f\xc2\xf5(\\\x8f\xea?333333\xeb?'
p502
tp503
bag485
(g476
(I0
tp504
g487
tp505
Rp506
(I1
(I3
tp507
g493
I00
S'=\n\xd7\xa3p=\xea?333333\xeb?=\n\xd7\xa3p=\xea?'
p508
tp509
bag485
(g476
(I0
tp510
g487
tp511
Rp512
(I1
(I3
tp513
g493
I00
S'\x14\xaeG\xe1z\x14\xee?\x8f\xc2\xf5(\\\x8f\xea?\xe1z\x14\xaeG\xe1\xea?'
p514
tp515
bag485
(g476
(I0
tp516
g487
tp517
Rp518
(I1
(I3
tp519
g493
I00
S'\x9a\x99\x99\x99\x99\x99\xe9?\xe1z\x14\xaeG\xe1\xea?H\xe1z\x14\xaeG\xe9?'
p520
tp521
bag485
(g476
(I0
tp522
g487
tp523
Rp524
(I1
(I3
tp525
g493
I00
S'\x8f\xc2\xf5(\\\x8f\xea?\x9a\x99\x99\x99\x99\x99\xe9?\x8f\xc2\xf5(\\\x8f\xea?'
p526
tp527
bag485
(g476
(I0
tp528
g487
tp529
Rp530
(I1
(I3
tp531
g493
I00
S'q=\n\xd7\xa3p\xed?\\\x8f\xc2\xf5(\\\xef?\xcd\xcc\xcc\xcc\xcc\xcc\xec?'
p532
tp533
bag485
(g476
(I0
tp534
g487
tp535
Rp536
(I1
(I3
tp537
g493
I00
S'\xcd\xcc\xcc\xcc\xcc\xcc\xec?\x8f\xc2\xf5(\\\x8f\xea?\xe1z\x14\xaeG\xe1\xea?'
p538
tp539
bag485
(g476
(I0
tp540
g487
tp541
Rp542
(I1
(I3
tp543
g493
I00
S'\xd7\xa3p=\n\xd7\xeb?333333\xeb?\x8f\xc2\xf5(\\\x8f\xea?'
p544
tp545
bag485
(g476
(I0
tp546
g487
tp547
Rp548
(I1
(I3
tp549
g493
I00
S'H\xe1z\x14\xaeG\xe9?\xe1z\x14\xaeG\xe1\xea?\x85\xebQ\xb8\x1e\x85\xeb?'
p550
tp551
bag485
(g476
(I0
tp552
g487
tp553
Rp554
(I1
(I3
tp555
g493
I00
S'\x8f\xc2\xf5(\\\x8f\xea?=\n\xd7\xa3p=\xea?\x8f\xc2\xf5(\\\x8f\xea?'
p556
tp557
bag485
(g476
(I0
tp558
g487
tp559
Rp560
(I1
(I3
tp561
g493
I00
S'\xecQ\xb8\x1e\x85\xeb\xe9?=\n\xd7\xa3p=\xea?\x9a\x99\x99\x99\x99\x99\xe9?'
p562
tp563
bag485
(g476
(I0
tp564
g487
tp565
Rp566
(I1
(I3
tp567
g493
I00
S'\xe1z\x14\xaeG\xe1\xea?\x9a\x99\x99\x99\x99\x99\xe9?\xecQ\xb8\x1e\x85\xeb\xe9?'
p568
tp569
bag485
(g476
(I0
tp570
g487
tp571
Rp572
(I1
(I3
tp573
g493
I00
S'\xa4p=\n\xd7\xa3\xe8?\xd7\xa3p=\n\xd7\xeb?\xecQ\xb8\x1e\x85\xeb\xe9?'
p574
tp575
bag485
(g476
(I0
tp576
g487
tp577
Rp578
(I1
(I3
tp579
g493
I00
S'\xf6(\\\x8f\xc2\xf5\xe8?\xa4p=\n\xd7\xa3\xe8?H\xe1z\x14\xaeG\xe9?'
p580
tp581
bag485
(g476
(I0
tp582
g487
tp583
Rp584
(I1
(I3
tp585
g493
I00
S'333333\xeb?333333\xeb?\xe1z\x14\xaeG\xe1\xea?'
p586
tp587
bag485
(g476
(I0
tp588
g487
tp589
Rp590
(I1
(I3
tp591
g493
I00
S'\xd7\xa3p=\n\xd7\xeb?\xcd\xcc\xcc\xcc\xcc\xcc\xec?\x85\xebQ\xb8\x1e\x85\xeb?'
p592
tp593
bag485
(g476
(I0
tp594
g487
tp595
Rp596
(I1
(I3
tp597
g493
I00
S'=\n\xd7\xa3p=\xea?=\n\xd7\xa3p=\xea?H\xe1z\x14\xaeG\xe9?'
p598
tp599
bag485
(g476
(I0
tp600
g487
tp601
Rp602
(I1
(I3
tp603
g493
I00
S'333333\xeb?333333\xeb?\xe1z\x14\xaeG\xe1\xea?'
p604
tp605
bag485
(g476
(I0
tp606
g487
tp607
Rp608
(I1
(I3
tp609
g493
I00
S'\xd7\xa3p=\n\xd7\xeb?\xcd\xcc\xcc\xcc\xcc\xcc\xec?\x85\xebQ\xb8\x1e\x85\xeb?'
p610
tp611
bag485
(g476
(I0
tp612
g487
tp613
Rp614
(I1
(I3
tp615
g493
I00
S'=\n\xd7\xa3p=\xea?=\n\xd7\xa3p=\xea?H\xe1z\x14\xaeG\xe9?'
p616
tp617
baNaNaNaNaNaNaNaNaNaNaNaNaNaNaNaNaNaNaNaNaNaNaNaNaNaNaNaNaNaNaNaNaNaNaNaNaNaNaNaNaNaNaNasg460
g0
(g461
g2
Ntp618
Rp619
(dp620
g465
NsS'_column'
p621
g482
sg469
I00
sg470
I00
sg471
Nsbsg473
g0
(g474
g475
(g476
g477
tp622
tp623
Rp624
sg467
VGroupedEff
p625
sbag0
(g295
g2
Ntp626
Rp627
(dp628
g299
I00
sg300
g4
sg301
(lp629
g485
(g476
(I0
tp630
g487
tp631
Rp632
(I1
(I4
tp633
g493
I00
S'\x00\x00\x00\x00\x00\x007@\\\x8f\xc2\xf5(\xdc6@\xcd\xcc\xcc\xcc\xcc\xcc6@\x00\x00\x00\x00\x00\x007@'
p634
tp635
bag485
(g476
(I0
tp636
g487
tp637
Rp638
(I1
(I3
tp639
g493
I00
S'=\n\xd7\xa3p=2@\xb8\x1e\x85\xebQ82@\\\x8f\xc2\xf5(\\2@'
p640
tp641
bag485
(g476
(I0
tp642
g487
tp643
Rp644
(I1
(I3
tp645
g493
I00
S'\xb8\x1e\x85\xebQ\xb83@\x00\x00\x00\x00\x00\xc03@\xc3\xf5(\\\x8f\x024@'
p646
tp647
bag485
(g476
(I0
tp648
g487
tp649
Rp650
(I1
(I3
tp651
g493
I00
S'\xaeG\xe1z\x14\xae:@\xe1z\x14\xaeG!;@\xf6(\\\x8f\xc25;@'
p652
tp653
bag485
(g476
(I0
tp654
g487
tp655
Rp656
(I1
(I3
tp657
g493
I00
S'\xc3\xf5(\\\x8f\xc2:@\xf6(\\\x8f\xc2\xb5:@q=\n\xd7\xa30:@'
p658
tp659
bag485
(g476
(I0
tp660
g487
tp661
Rp662
(I1
(I3
tp663
g493
I00
S'{\x14\xaeG\xe1\xfa=@\x1f\x85\xebQ\xb8\x1e>@)\\\x8f\xc2\xf5h=@'
p664
tp665
bag485
(g476
(I0
tp666
g487
tp667
Rp668
(I1
(I3
tp669
g493
I00
S'\xecQ\xb8\x1e\x85\xeb3@\x9a\x99\x99\x99\x99\xd93@\x00\x00\x00\x00\x00\x004@'
p670
tp671
bag485
(g476
(I0
tp672
g487
tp673
Rp674
(I1
(I3
tp675
g493
I00
S'\\\x8f\xc2\xf5(\xdc5@\xd7\xa3p=\n\x176@\xd7\xa3p=\n\xd75@'
p676
tp677
bag485
(g476
(I0
tp678
g487
tp679
Rp680
(I1
(I3
tp681
g493
I00
S'\xa4p=\n\xd7\xe37@\n\xd7\xa3p=\x8a7@\x85\xebQ\xb8\x1eE8@'
p682
tp683
bag485
(g476
(I0
tp684
g487
tp685
Rp686
(I1
(I3
tp687
g493
I00
S'\xaeG\xe1z\x14.6@\xf6(\\\x8f\xc2\xb55@\x00\x00\x00\x00\x00\xc05@'
p688
tp689
bag485
(g476
(I0
tp690
g487
tp691
Rp692
(I1
(I3
tp693
g493
I00
S'\xe1z\x14\xaeG\xe17@\xecQ\xb8\x1e\x85k7@\xe1z\x14\xaeG\xa17@'
p694
tp695
bag485
(g476
(I0
tp696
g487
tp697
Rp698
(I1
(I3
tp699
g493
I00
S'\xd7\xa3p=\n\x978@\\\x8f\xc2\xf5(\x9c8@\xd7\xa3p=\nW8@'
p700
tp701
bag485
(g476
(I0
tp702
g487
tp703
Rp704
(I1
(I3
tp705
g493
I00
S'33333\xf3=@33333s>@\xe1z\x14\xaeG\xe1=@'
p706
tp707
bag485
(g476
(I0
tp708
g487
tp709
Rp710
(I1
(I3
tp711
g493
I00
S'\xb8\x1e\x85\xebQ87@\xcd\xcc\xcc\xcc\xcc\xcc7@=\n\xd7\xa3p}7@'
p712
tp713
bag485
(g476
(I0
tp714
g487
tp715
Rp716
(I1
(I3
tp717
g493
I00
S'\x1f\x85\xebQ\xb8^:@\\\x8f\xc2\xf5(\\:@\xecQ\xb8\x1e\x85+:@'
p718
tp719
bag485
(g476
(I0
tp720
g487
tp721
Rp722
(I1
(I3
tp723
g493
I00
S'\xcd\xcc\xcc\xcc\xcc\xcc8@\xb8\x1e\x85\xebQ\xf88@\xe1z\x14\xaeG\xa18@'
p724
tp725
bag485
(g476
(I0
tp726
g487
tp727
Rp728
(I1
(I3
tp729
g493
I00
S')\\\x8f\xc2\xf5\xe82@H\xe1z\x14\xae\xc72@\xcd\xcc\xcc\xcc\xcc\xcc2@'
p730
tp731
bag485
(g476
(I0
tp732
g487
tp733
Rp734
(I1
(I3
tp735
g493
I00
S'\x00\x00\x00\x00\x00\x804@\xb8\x1e\x85\xebQx4@H\xe1z\x14\xaeG4@'
p736
tp737
bag485
(g476
(I0
tp738
g487
tp739
Rp740
(I1
(I3
tp741
g493
I00
S'\xcd\xcc\xcc\xcc\xcc\xcc8@\xb8\x1e\x85\xebQ\xf88@\xe1z\x14\xaeG\xa18@'
p742
tp743
bag485
(g476
(I0
tp744
g487
tp745
Rp746
(I1
(I3
tp747
g493
I00
S')\\\x8f\xc2\xf5\xe82@H\xe1z\x14\xae\xc72@\xcd\xcc\xcc\xcc\xcc\xcc2@'
p748
tp749
bag485
(g476
(I0
tp750
g487
tp751
Rp752
(I1
(I3
tp753
g493
I00
S'\x00\x00\x00\x00\x00\x804@\xb8\x1e\x85\xebQx4@H\xe1z\x14\xaeG4@'
p754
tp755
baNaNaNaNaNaNaNaNaNaNaNaNaNaNaNaNaNaNaNaNaNaNaNaNaNaNaNaNaNaNaNaNaNaNaNaNaNaNaNaNaNaNaNasg460
g0
(g461
g2
Ntp756
Rp757
(dp758
g465
Nsg621
g627
sg469
I00
sg470
I00
sg471
Nsbsg473
g0
(g474
g475
(g476
g477
tp759
tp760
Rp761
sg467
VGroupedCt
p762
sbag0
(g295
g2
Ntp763
Rp764
(dp765
g299
I00
sg300
g4
sg301
(lp766
g485
(g476
(I0
tp767
g487
tp768
Rp769
(I1
(I4
tp770
g493
I00
S'\x00\x00\x00\x00\x00\x007@fffff\xe66@\xcd\xcc\xcc\xcc\xcc\xcc6@\x00\x00\x00\x00\x00\x007@'
p771
tp772
bag485
(g476
(I0
tp773
g487
tp774
Rp775
(I1
(I3
tp776
g493
I00
S'3333332@3333332@ffffff2@'
p777
tp778
bag485
(g476
(I0
tp779
g487
tp780
Rp781
(I1
(I3
tp782
g493
I00
S'33333\xb33@\xcd\xcc\xcc\xcc\xcc\xcc3@\x00\x00\x00\x00\x00\x004@'
p783
tp784
bag485
(g476
(I0
tp785
g487
tp786
Rp787
(I1
(I3
tp788
g493
I00
S'33333\xb3:@\x9a\x99\x99\x99\x99\x19;@333333;@'
p789
tp790
bag485
(g476
(I0
tp791
g487
tp792
Rp793
(I1
(I3
tp794
g493
I00
S'\xcd\xcc\xcc\xcc\xcc\xcc:@33333\xb3:@333333:@'
p795
tp796
bag485
(g476
(I0
tp797
g487
tp798
Rp799
(I1
(I3
tp800
g493
I00
S'\x00\x00\x00\x00\x00\x00>@\x9a\x99\x99\x99\x99\x19>@ffffff=@'
p801
tp802
bag485
(g476
(I0
tp803
g487
tp804
Rp805
(I1
(I3
tp806
g493
I00
S'fffff\xe63@fffff\xe63@\x00\x00\x00\x00\x00\x004@'
p807
tp808
bag485
(g476
(I0
tp809
g487
tp810
Rp811
(I1
(I3
tp812
g493
I00
S'fffff\xe65@\x9a\x99\x99\x99\x99\x196@\xcd\xcc\xcc\xcc\xcc\xcc5@'
p813
tp814
bag485
(g476
(I0
tp815
g487
tp816
Rp817
(I1
(I3
tp818
g493
I00
S'fffff\xe67@\x00\x00\x00\x00\x00\x807@\xcd\xcc\xcc\xcc\xccL8@'
p819
tp820
bag485
(g476
(I0
tp821
g487
tp822
Rp823
(I1
(I3
tp824
g493
I00
S'3333336@33333\xb35@\xcd\xcc\xcc\xcc\xcc\xcc5@'
p825
tp826
bag485
(g476
(I0
tp827
g487
tp828
Rp829
(I1
(I3
tp830
g493
I00
S'fffff\xe67@ffffff7@\x9a\x99\x99\x99\x99\x997@'
p831
tp832
bag485
(g476
(I0
tp833
g487
tp834
Rp835
(I1
(I3
tp836
g493
I00
S'\x9a\x99\x99\x99\x99\x998@\x9a\x99\x99\x99\x99\x998@\xcd\xcc\xcc\xcc\xccL8@'
p837
tp838
bag485
(g476
(I0
tp839
g487
tp840
Rp841
(I1
(I3
tp842
g493
I00
S'fffff\xe6=@ffffff>@fffff\xe6=@'
p843
tp844
bag485
(g476
(I0
tp845
g487
tp846
Rp847
(I1
(I3
tp848
g493
I00
S'3333337@\xcd\xcc\xcc\xcc\xcc\xcc7@\x00\x00\x00\x00\x00\x807@'
p849
tp850
bag485
(g476
(I0
tp851
g487
tp852
Rp853
(I1
(I3
tp854
g493
I00
S'ffffff:@ffffff:@333333:@'
p855
tp856
bag485
(g476
(I0
tp857
g487
tp858
Rp859
(I1
(I3
tp860
g493
I00
S'\xcd\xcc\xcc\xcc\xcc\xcc8@\x00\x00\x00\x00\x00\x009@\x9a\x99\x99\x99\x99\x998@'
p861
tp862
bag485
(g476
(I0
tp863
g487
tp864
Rp865
(I1
(I3
tp866
g493
I00
S'fffff\xe62@\xcd\xcc\xcc\xcc\xcc\xcc2@\xcd\xcc\xcc\xcc\xcc\xcc2@'
p867
tp868
bag485
(g476
(I0
tp869
g487
tp870
Rp871
(I1
(I3
tp872
g493
I00
S'\x00\x00\x00\x00\x00\x804@\x00\x00\x00\x00\x00\x804@\xcd\xcc\xcc\xcc\xccL4@'
p873
tp874
bag485
(g476
(I0
tp875
g487
tp876
Rp877
(I1
(I3
tp878
g493
I00
S'\xcd\xcc\xcc\xcc\xcc\xcc8@\x00\x00\x00\x00\x00\x009@\x9a\x99\x99\x99\x99\x998@'
p879
tp880
bag485
(g476
(I0
tp881
g487
tp882
Rp883
(I1
(I3
tp884
g493
I00
S'fffff\xe62@\xcd\xcc\xcc\xcc\xcc\xcc2@\xcd\xcc\xcc\xcc\xcc\xcc2@'
p885
tp886
bag485
(g476
(I0
tp887
g487
tp888
Rp889
(I1
(I3
tp890
g493
I00
S'\x00\x00\x00\x00\x00\x804@\x00\x00\x00\x00\x00\x804@\xcd\xcc\xcc\xcc\xccL4@'
p891
tp892
baNaNaNaNaNaNaNaNaNaNaNaNaNaNaNaNaNaNaNaNaNaNaNaNaNaNaNaNaNaNaNaNaNaNaNaNaNaNaNaNaNaNaNasg460
g0
(g461
g2
Ntp893
Rp894
(dp895
g465
Vlength = len(Groups)\u000aStdFilteredGroupedCt = roundValues([filterExtremes(g, max_std, 2) for g in pruneNulls(GroupedCt,    required_length=length)])\u000a 
p896
sg467
VStdFilteredGroupedCt
p897
sg469
I00
sg470
I00
sg471
Vlength = len(Groups)\u000aStdFilteredGroupedCt = roundValues([filterExtremes(g, max_std, 2) for g in pruneNulls(GroupedCt,    required_length=length)])\u000a 
p898
sbsg473
g0
(g474
g475
(g476
g477
tp899
tp900
Rp901
sg467
g897
sbag0
(g295
g2
Ntp902
Rp903
(dp904
g299
I00
sg300
g4
sg301
(lp905
F22.9
aF18.3
aF19.8
aF27.0
aF26.6
aF29.8
aF19.9
aF21.9
aF23.9
aF21.9
aF23.6
aF24.5
aF30.1
aF23.5
aF26.3
aF24.8
aF18.8
aF20.4
aF24.8
aF18.8
aF20.4
aFnan
aFnan
aFnan
aFnan
aFnan
aFnan
aFnan
aFnan
aFnan
aFnan
aFnan
aFnan
aFnan
aFnan
aFnan
aFnan
aFnan
aFnan
aFnan
aFnan
aFnan
aFnan
aFnan
aFnan
aFnan
aFnan
aFnan
aFnan
aFnan
aFnan
aFnan
aFnan
aFnan
aFnan
aFnan
aFnan
aFnan
aFnan
aFnan
aFnan
aFnan
aFnan
aFnan
asg460
g0
(g461
g2
Ntp906
Rp907
(dp908
g465
VMeanCt = [np.mean(g) for g in StdFilteredGroupedCt]\u000aMeanCt = roundValues(MeanCt,1)\u000aStdCt = [np.std(g, ddof=1) for g in StdFilteredGroupedCt]\u000aStdCt = roundValues(StdCt,3)
p909
sg467
VMeanCt
p910
sg469
I00
sg470
I00
sg471
VMeanCt = [np.mean(g) for g in StdFilteredGroupedCt]\u000aMeanCt = roundValues(MeanCt,1)\u000aStdCt = [np.std(g, ddof=1) for g in StdFilteredGroupedCt]\u000aStdCt = roundValues(StdCt,3)
p911
sbsg473
g0
(g474
g475
(g476
g477
tp912
tp913
Rp914
sg467
g910
sbag0
(g295
g2
Ntp915
Rp916
(dp917
g299
I00
sg300
g4
sg301
(lp918
F0.096
aF0.115
aF0.153
aF0.265
aF0.321
aF0.379
aF0.058
aF0.153
aF0.4
aF0.265
aF0.252
aF0.173
aF0.289
aF0.3
aF0.115
aF0.2
aF0.058
aF0.115
aF0.2
aF0.058
aF0.115
aFnan
aFnan
aFnan
aFnan
aFnan
aFnan
aFnan
aFnan
aFnan
aFnan
aFnan
aFnan
aFnan
aFnan
aFnan
aFnan
aFnan
aFnan
aFnan
aFnan
aFnan
aFnan
aFnan
aFnan
aFnan
aFnan
aFnan
aFnan
aFnan
aFnan
aFnan
aFnan
aFnan
aFnan
aFnan
aFnan
aFnan
aFnan
aFnan
aFnan
aFnan
aFnan
aFnan
asg460
g0
(g461
g2
Ntp919
Rp920
(dp921
g465
Nsg621
g916
sg469
I00
sg470
I00
sg471
Nsbsg473
g0
(g474
g475
(g476
g477
tp922
tp923
Rp924
sg467
VStdCt
p925
sbag0
(g295
g2
Ntp926
Rp927
(dp928
g299
I00
sg300
g4
sg301
(lp929
(lp930
g304
(g308
S'\x00\x00\x00\x00\x00\x00\x00\x00'
p931
tp932
Rp933
ag304
(g308
S'\x01\x00\x00\x00\x00\x00\x00\x00'
p934
tp935
Rp936
aa(lp937
g304
(g308
S'\x01\x00\x00\x00\x00\x00\x00\x00'
p938
tp939
Rp940
ag304
(g308
S'\x01\x00\x00\x00\x00\x00\x00\x00'
p941
tp942
Rp943
aa(lp944
g304
(g308
S'\x01\x00\x00\x00\x00\x00\x00\x00'
p945
tp946
Rp947
ag304
(g308
S'\x02\x00\x00\x00\x00\x00\x00\x00'
p948
tp949
Rp950
aa(lp951
g304
(g308
S'\x01\x00\x00\x00\x00\x00\x00\x00'
p952
tp953
Rp954
ag304
(g308
S'\x03\x00\x00\x00\x00\x00\x00\x00'
p955
tp956
Rp957
aa(lp958
g304
(g308
S'\x02\x00\x00\x00\x00\x00\x00\x00'
p959
tp960
Rp961
ag304
(g308
S'\x01\x00\x00\x00\x00\x00\x00\x00'
p962
tp963
Rp964
aa(lp965
g304
(g308
S'\x03\x00\x00\x00\x00\x00\x00\x00'
p966
tp967
Rp968
ag304
(g308
S'\x01\x00\x00\x00\x00\x00\x00\x00'
p969
tp970
Rp971
aa(lp972
g304
(g308
S'\x04\x00\x00\x00\x00\x00\x00\x00'
p973
tp974
Rp975
ag304
(g308
S'\x01\x00\x00\x00\x00\x00\x00\x00'
p976
tp977
Rp978
aaNaNaNaNaNaNaNaNaNaNaNaNaNaNaNaNaNaNaNaNaNaNaNaNaNaNaNaNaNaNaNaNaNaNaNaNaNaNaNaNaNaNaNaNaNaNaNaNaNaNaNaNaNaNaNaNaNasg460
g0
(g461
g2
Ntp979
Rp980
(dp981
g465
Vdummy = tabularize(s, 'Groups', 1, 'MeanCt', \u000a          new_category_colnm='BioRuns',\u000a          values_colnm_prefix='Gene_')
p982
sg467
VBioRuns
p983
sg469
I00
sg470
I00
sg471
Vdummy = tabularize(s, 'Groups', 1, 'MeanCt', \u000a          new_category_colnm='BioRuns',\u000a          values_colnm_prefix='Gene_')
p984
sbsg473
g0
(g474
g475
(g476
g477
tp985
tp986
Rp987
sg467
g983
sbag0
(g295
g2
Ntp988
Rp989
(dp990
g299
I00
sg300
g4
sg301
(lp991
F22.9
aF27.0
aF26.6
aF29.8
aF30.1
aF24.8
aF24.8
aFnan
aFnan
aFnan
aFnan
aFnan
aFnan
aFnan
aFnan
aFnan
aFnan
aFnan
aFnan
aFnan
aFnan
aFnan
aFnan
aFnan
aFnan
aFnan
aFnan
aFnan
aFnan
aFnan
aFnan
aFnan
aFnan
aFnan
aFnan
aFnan
aFnan
aFnan
aFnan
aFnan
aFnan
aFnan
aFnan
aFnan
aFnan
aFnan
aFnan
aFnan
aFnan
aFnan
aFnan
aFnan
aFnan
aFnan
aFnan
aFnan
aFnan
aFnan
aFnan
aFnan
aFnan
aFnan
aFnan
aFnan
asg460
g0
(g461
g2
Ntp992
Rp993
(dp994
g465
Nsg621
g989
sg469
I00
sg470
I00
sg471
Nsbsg473
g0
(g474
g475
(g476
g477
tp995
tp996
Rp997
sg467
S'Gene_I'
p998
sbag0
(g295
g2
Ntp999
Rp1000
(dp1001
g299
I00
sg300
g4
sg301
(lp1002
F18.3
aF19.9
aF21.9
aF23.9
aF23.5
aF18.8
aF18.8
aFnan
aFnan
aFnan
aFnan
aFnan
aFnan
aFnan
aFnan
aFnan
aFnan
aFnan
aFnan
aFnan
aFnan
aFnan
aFnan
aFnan
aFnan
aFnan
aFnan
aFnan
aFnan
aFnan
aFnan
aFnan
aFnan
aFnan
aFnan
aFnan
aFnan
aFnan
aFnan
aFnan
aFnan
aFnan
aFnan
aFnan
aFnan
aFnan
aFnan
aFnan
aFnan
aFnan
aFnan
aFnan
aFnan
aFnan
aFnan
aFnan
aFnan
aFnan
aFnan
aFnan
aFnan
aFnan
aFnan
aFnan
asg460
g0
(g461
g2
Ntp1003
Rp1004
(dp1005
g465
Nsg621
g1000
sg469
I00
sg470
I00
sg471
Nsbsg473
g997
sg467
S'Gene_R1'
p1006
sbag0
(g295
g2
Ntp1007
Rp1008
(dp1009
g299
I00
sg300
g4
sg301
(lp1010
F19.8
aF21.9
aF23.6
aF24.5
aF26.3
aF20.4
aF20.4
aFnan
aFnan
aFnan
aFnan
aFnan
aFnan
aFnan
aFnan
aFnan
aFnan
aFnan
aFnan
aFnan
aFnan
aFnan
aFnan
aFnan
aFnan
aFnan
aFnan
aFnan
aFnan
aFnan
aFnan
aFnan
aFnan
aFnan
aFnan
aFnan
aFnan
aFnan
aFnan
aFnan
aFnan
aFnan
aFnan
aFnan
aFnan
aFnan
aFnan
aFnan
aFnan
aFnan
aFnan
aFnan
aFnan
aFnan
aFnan
aFnan
aFnan
aFnan
aFnan
aFnan
aFnan
aFnan
aFnan
aFnan
asg460
g0
(g461
g2
Ntp1011
Rp1012
(dp1013
g465
Nsg621
g1008
sg469
I00
sg470
I00
sg471
Nsbsg473
g997
sg467
S'Gene_R2'
p1014
sbag0
(g295
g2
Ntp1015
Rp1016
(dp1017
g299
I00
sg300
g4
sg301
(lp1018
F0.04123
aF0.00729
aF0.03847
aF0.01675
aF0.01031
aF0.01563
aF0.01563
aFnan
aFnan
aFnan
aFnan
aFnan
aFnan
aFnan
aFnan
aFnan
aFnan
aFnan
aFnan
aFnan
aFnan
aFnan
aFnan
aFnan
aFnan
aFnan
aFnan
aFnan
aFnan
aFnan
aFnan
aFnan
aFnan
aFnan
aFnan
aFnan
aFnan
aFnan
aFnan
aFnan
aFnan
aFnan
aFnan
aFnan
aFnan
aFnan
aFnan
aFnan
aFnan
aFnan
aFnan
aFnan
aFnan
aFnan
aFnan
aFnan
aFnan
aFnan
aFnan
aFnan
aFnan
aFnan
aFnan
aFnan
asg460
g0
(g461
g2
Ntp1019
Rp1020
(dp1021
g465
VExprR1 = roundValues(2**(Gene_R1 - Gene_I),5)
p1022
sg467
VExprR1
p1023
sg469
I01
sg470
I00
sg471
VroundValues(2**(Gene_R1 - Gene_I),5)
p1024
sbsg473
g0
(g474
g475
(g476
g477
tp1025
tp1026
Rp1027
sg467
g1023
sbag0
(g295
g2
Ntp1028
Rp1029
(dp1030
g299
I00
sg300
g4
sg301
(lp1031
F0.11663
aF0.02916
aF0.125
aF0.02538
aF0.07179
aF0.04737
aF0.04737
aFnan
aFnan
aFnan
aFnan
aFnan
aFnan
aFnan
aFnan
aFnan
aFnan
aFnan
aFnan
aFnan
aFnan
aFnan
aFnan
aFnan
aFnan
aFnan
aFnan
aFnan
aFnan
aFnan
aFnan
aFnan
aFnan
aFnan
aFnan
aFnan
aFnan
aFnan
aFnan
aFnan
aFnan
aFnan
aFnan
aFnan
aFnan
aFnan
aFnan
aFnan
aFnan
aFnan
aFnan
aFnan
aFnan
aFnan
aFnan
aFnan
aFnan
aFnan
aFnan
aFnan
aFnan
aFnan
aFnan
aFnan
asg460
g0
(g461
g2
Ntp1032
Rp1033
(dp1034
g465
VExprR2 = roundValues(2**(Gene_R2 - Gene_I),5)
p1035
sg467
VExprR2
p1036
sg469
I01
sg470
I00
sg471
VroundValues(2**(Gene_R2 - Gene_I),5)
p1037
sbsg473
g0
(g474
g475
(g476
g477
tp1038
tp1039
Rp1040
sg467
g1036
sbag0
(g295
g2
Ntp1041
Rp1042
(dp1043
g299
I00
sg300
g4
sg301
(lp1044
F0.069
aF0.015
aF0.069
aF0.021
aF0.027
aF0.027
aF0.027
aFnan
aFnan
aFnan
aFnan
aFnan
aFnan
aFnan
aFnan
aFnan
aFnan
aFnan
aFnan
aFnan
aFnan
aFnan
aFnan
aFnan
aFnan
aFnan
aFnan
aFnan
aFnan
aFnan
aFnan
aFnan
aFnan
aFnan
aFnan
aFnan
aFnan
aFnan
aFnan
aFnan
aFnan
aFnan
aFnan
aFnan
aFnan
aFnan
aFnan
aFnan
aFnan
aFnan
aFnan
aFnan
aFnan
aFnan
aFnan
aFnan
aFnan
aFnan
aFnan
aFnan
aFnan
aFnan
aFnan
aFnan
asg460
g0
(g461
g2
Ntp1045
Rp1046
(dp1047
g465
VGeoMean = roundValues(np.sqrt(ExprR1*ExprR2), 3)
p1048
sg467
VGeoMean
p1049
sg469
I01
sg470
I00
sg471
VroundValues(np.sqrt(ExprR1*ExprR2), 3)
p1050
sbsg473
g0
(g474
g475
(g476
g477
tp1051
tp1052
Rp1053
sg467
g1049
sbag0
(g295
g2
Ntp1054
Rp1055
(dp1056
g299
I00
sg300
g4
sg301
(lp1057
I1
aI1
aI1
aI1
aI1
aI1
aI1
aI1
aI1
aI1
aI1
aI1
aI1
aI2
aI2
aI2
aI3
aI3
aI3
aI1
aI1
aI1
aI2
aI2
aI2
aI3
aI3
aI3
aI1
aI1
aI1
aI2
aI2
aI2
aI3
aI3
aI3
aI1
aI1
aI1
aI1
aI1
aI1
aI1
aI1
aI1
aI1
aI1
aI1
aI1
aI1
aI1
aI1
aI1
aI1
aI1
aI1
aI1
aI1
aI1
aI1
aI1
aI1
aI1
asg460
g0
(g461
g2
Ntp1058
Rp1059
(dp1060
g465
Nsg467
S'BRpl'
p1061
sg469
I00
sg470
I00
sg471
Nsbsg473
g0
(g474
g475
(g476
g477
tp1062
tp1063
Rp1064
sg467
g1061
sbag0
(g295
g2
Ntp1065
Rp1066
(dp1067
g299
I00
sg300
g4
sg301
(lp1068
F23.0
aF22.86
aF22.8
aF23.0
aF18.24
aF18.22
aF18.36
aF19.72
aF19.75
aF20.01
aF26.68
aF27.13
aF27.21
aF26.76
aF26.71
aF26.19
aF29.98
aF30.12
aF29.41
aF19.92
aF19.85
aF20.0
aF21.86
aF22.09
aF21.84
aF23.89
aF23.54
aF24.27
aF22.18
aF21.71
aF21.75
aF23.88
aF23.42
aF23.63
aF24.59
aF24.61
aF24.34
aF29.95
aF30.45
aF29.88
aF23.22
aF23.8
aF23.49
aF26.37
aF26.36
aF26.17
aF24.8
aF24.97
aF24.63
aF18.91
aF18.78
aF18.8
aF20.5
aF20.47
aF20.28
aF24.8
aF24.97
aF24.63
aF18.91
aF18.78
aF18.8
aF20.5
aF20.47
aF20.28
asg460
g0
(g461
g2
Ntp1069
Rp1070
(dp1071
g465
Nsg467
S'Ct'
p1072
sg469
I00
sg470
I00
sg471
Nsbsg473
g1064
sg467
g1072
sbag0
(g295
g2
Ntp1073
Rp1074
(dp1075
g299
I00
sg300
g4
sg301
(lp1076
F0.8371
aF0.891
aF0.8956
aF0.8671
aF0.8266
aF0.8343
aF0.8496
aF0.8157
aF0.8543
aF0.8208
aF0.9399
aF0.8296
aF0.8361
aF0.8039
aF0.8399
aF0.7935
aF0.8264
aF0.7974
aF0.8252
aF0.9179
aF0.9783
aF0.8971
aF0.8957
aF0.8287
aF0.8387
aF0.8746
aF0.8493
aF0.8349
aF0.7857
aF0.8427
aF0.8637
aF0.8281
aF0.8203
aF0.8288
aF0.8138
aF0.8242
aF0.804
aF0.8418
aF0.7959
aF0.8071
aF0.7701
aF0.8746
aF0.8139
aF0.7795
aF0.7676
aF0.7947
aF0.8513
aF0.8485
aF0.8401
aF0.8715
aF0.8977
aF0.856
aF0.8179
aF0.8173
aF0.7894
aF0.8513
aF0.8485
aF0.8401
aF0.8715
aF0.8977
aF0.856
aF0.8179
aF0.8173
aF0.7894
asg460
g0
(g461
g2
Ntp1077
Rp1078
(dp1079
g465
Nsg467
S'Eff'
p1080
sg469
I00
sg470
I00
sg471
Nsbsg473
g1064
sg467
g1080
sbag0
(g295
g2
Ntp1081
Rp1082
(dp1083
g299
I00
sg300
g4
sg301
(lp1084
g314
ag314
ag314
ag314
aVR1
p1085
aVR1
p1086
aVR1
p1087
aVR2
p1088
aVR2
p1089
aVR2
p1090
ag314
ag314
ag314
ag314
ag314
ag314
ag314
ag314
ag314
aVR1
p1091
aVR1
p1092
aVR1
p1093
aVR1
p1094
aVR1
p1095
aVR1
p1096
aVR1
p1097
aVR1
p1098
aVR1
p1099
aVR2
p1100
aVR2
p1101
aVR2
p1102
aVR2
p1103
aVR2
p1104
aVR2
p1105
aVR2
p1106
aVR2
p1107
aVR2
p1108
ag314
ag314
ag314
aVR1
p1109
aVR1
p1110
aVR1
p1111
aVR2
p1112
aVR2
p1113
aVR2
p1114
ag314
ag314
ag314
aVR1
p1115
aVR1
p1116
aVR1
p1117
aVR2
p1118
aVR2
p1119
aVR2
p1120
ag314
ag314
ag314
aVR1
p1121
aVR1
p1122
aVR1
p1123
aVR2
p1124
aVR2
p1125
aVR2
p1126
asg460
g0
(g461
g2
Ntp1127
Rp1128
(dp1129
g465
Nsg467
S'RunType'
p1130
sg469
I00
sg470
I00
sg471
Nsbsg473
g1064
sg467
g1130
sbag0
(g295
g2
Ntp1131
Rp1132
(dp1133
g299
I00
sg300
g4
sg301
(lp1134
Va
p1135
aVb
p1136
aVc
p1137
aVd
p1138
ag1135
ag1136
ag1137
ag1135
ag1136
ag1137
ag1135
ag1136
ag1137
ag1135
ag1136
ag1137
ag1135
ag1136
ag1137
ag1135
ag1136
ag1137
ag1135
ag1136
ag1137
ag1135
ag1136
ag1137
ag1135
ag1136
ag1137
ag1135
ag1136
ag1137
ag1135
ag1136
ag1137
ag1135
ag1136
ag1137
ag1135
ag1136
ag1137
ag1135
ag1136
ag1137
ag1135
ag1136
ag1137
ag1135
ag1136
ag1137
ag1135
ag1136
ag1137
ag1135
ag1136
ag1137
ag1135
ag1136
ag1137
ag1135
ag1136
ag1137
asg460
g0
(g461
g2
Ntp1139
Rp1140
(dp1141
g465
Nsg467
S'TRpl'
p1142
sg469
I00
sg470
I00
sg471
Nsbsg473
g1064
sg467
g1142
sbag0
(g295
g2
Ntp1143
Rp1144
(dp1145
g299
I00
sg300
g4
sg301
(lp1146
I0
aI0
aI0
aI0
aI0
aI0
aI0
aI0
aI0
aI0
aI1
aI1
aI1
aI1
aI1
aI1
aI1
aI1
aI1
aI1
aI1
aI1
aI1
aI1
aI1
aI1
aI1
aI1
aI1
aI1
aI1
aI1
aI1
aI1
aI1
aI1
aI1
aI2
aI2
aI2
aI2
aI2
aI2
aI2
aI2
aI2
aI3
aI3
aI3
aI3
aI3
aI3
aI3
aI3
aI3
aI4
aI4
aI4
aI4
aI4
aI4
aI4
aI4
aI4
asg460
g0
(g461
g2
Ntp1147
Rp1148
(dp1149
g465
Nsg467
S'Treatment'
p1150
sg469
I00
sg470
I00
sg471
Nsbsg473
g1064
sg467
g1150
sbasS'_is_evaluate_formulas'
p1151
I01
sS'_prologue'
p1152
g0
(g461
g2
Ntp1153
Rp1154
(dp1155
g465
V# Prologue\u000aimport math as mt\u000aimport numpy as np\u000afrom os import listdir\u000afrom os.path import isfile, join\u000aimport pandas as pd\u000aimport scipy as sp\u000afrom numpy import nan  # Must follow sympy import \u000a\u000axlsx_path =   '/mnt/hgfs/josephhellerstein/home/Technical/SciSheets/CaseStudies/Kristen/workbooks/data.xlsx'\u000agene = ParmValues[0]\u000arun = ParmValues[1] == 'True'\u000ashow_raw = ParmValues[2] == 'True'\u000ashow_block1 = ParmValues[3] == 'True'\u000ashow_block2 = ParmValues[4] == 'True'\u000ashow_block3 = ParmValues[5] == 'True'\u000ashow_params = ParmValues[8] == 'True'\u000a#show_params = True\u000amax_std  = float(ParmValues[6])\u000amin_eff = float(ParmValues[7])\u000aworksheet = gene + "-I"\u000as.getTable().setIsEvaluateFormulas(run)\u000as.setColumnVisibility()\u000as.setColumnVisibility(['Groups', 'GroupedEff', 'GroupedCt', 'StdFilteredGroupedCt', 'MeanCt',\u000a    'StdCt'], is_visible=show_block1)\u000as.setColumnVisibility(['BioRuns', 'Gene_I', 'Gene_R1', 'Gene_R2', 'ExprR1', 'ExprR2', \u000a    'GeoMean'], is_visible=show_block2)\u000as.setColumnVisibility(['GeoGroups', 'GroupedGeoMeans', 'NrmlGeoGroupedMeans', \u000a    'MeanNrmlGeoGroups', 'StdNrmlGeoGroups'], is_visible=show_block3)\u000aif False:\u000a  Groups = []\u000a  GroupedCt = []\u000a  GroupedEff = []\u000a  MeanCt = []\u000a  Imp = []\u000a  s.deleteColumn('Ct')\u000a  s.deleteColumn('RunType')\u000a  s.deleteColumn('BRpl')\u000a  s.deleteColumn('TRpl')\u000a  s.deleteColumn('Treatment')\u000a  s.deleteColumn('Eff')\u000aif run:\u000a  importExcelToTable(s, xlsx_path, worksheet=worksheet,\u000a      column_position='ParmValues',\u000a      names=['Treatment', 'RunType', 'BRpl', 'TRpl', 'Eff', 'Ct'])\u000as.setColumnVisibility(['BRpl', 'Ct', 'Eff', 'RunType', 'TRpl', 'Treatment'], is_visible=show_raw)\u000as.setColumnVisibility(['ParmNames', 'ParmValues'], show_params)
p1156
sg467
VSingleGene
p1157
sg469
I00
sg470
I00
sg471
V# Prologue\u000aimport math as mt\u000aimport numpy as np\u000afrom os import listdir\u000afrom os.path import isfile, join\u000aimport pandas as pd\u000aimport scipy as sp\u000afrom numpy import nan  # Must follow sympy import \u000a\u000axlsx_path =   '/mnt/hgfs/josephhellerstein/home/Technical/SciSheets/CaseStudies/Kristen/workbooks/data.xlsx'\u000agene = ParmValues[0]\u000arun = ParmValues[1] == 'True'\u000ashow_raw = ParmValues[2] == 'True'\u000ashow_block1 = ParmValues[3] == 'True'\u000ashow_block2 = ParmValues[4] == 'True'\u000ashow_block3 = ParmValues[5] == 'True'\u000ashow_params = ParmValues[8] == 'True'\u000a#show_params = True\u000amax_std  = float(ParmValues[6])\u000amin_eff = float(ParmValues[7])\u000aworksheet = gene + "-I"\u000as.getTable().setIsEvaluateFormulas(run)\u000as.setColumnVisibility()\u000as.setColumnVisibility(['Groups', 'GroupedEff', 'GroupedCt', 'StdFilteredGroupedCt', 'MeanCt',\u000a    'StdCt'], is_visible=show_block1)\u000as.setColumnVisibility(['BioRuns', 'Gene_I', 'Gene_R1', 'Gene_R2', 'ExprR1', 'ExprR2', \u000a    'GeoMean'], is_visible=show_block2)\u000as.setColumnVisibility(['GeoGroups', 'GroupedGeoMeans', 'NrmlGeoGroupedMeans', \u000a    'MeanNrmlGeoGroups', 'StdNrmlGeoGroups'], is_visible=show_block3)\u000aif False:\u000a  Groups = []\u000a  GroupedCt = []\u000a  GroupedEff = []\u000a  MeanCt = []\u000a  Imp = []\u000a  s.deleteColumn('Ct')\u000a  s.deleteColumn('RunType')\u000a  s.deleteColumn('BRpl')\u000a  s.deleteColumn('TRpl')\u000a  s.deleteColumn('Treatment')\u000a  s.deleteColumn('Eff')\u000aif run:\u000a  importExcelToTable(s, xlsx_path, worksheet=worksheet,\u000a      column_position='ParmValues',\u000a      names=['Treatment', 'RunType', 'BRpl', 'TRpl', 'Eff', 'Ct'])\u000as.setColumnVisibility(['BRpl', 'Ct', 'Eff', 'RunType', 'TRpl', 'Treatment'], is_visible=show_raw)\u000as.setColumnVisibility(['ParmNames', 'ParmValues'], show_params)
p1158
sbsS'_epilogue'
p1159
g0
(g461
g2
Ntp1160
Rp1161
(dp1162
g465
V# Epilogue\u000aif run:\u000a  worksheet = "%s-O" % gene\u000a  exportTableToExcel(s, xlsx_path, worksheet=worksheet, columns=['GeoGroups', 'MeanNrmlGeoGroups', 'StdNrmlGeoGroups'])\u000a
p1163
sg467
g1157
sg469
I00
sg470
I00
sg471
V# Epilogue\u000aif run:\u000a  worksheet = "%s-O" % gene\u000a  exportTableToExcel(s, xlsx_path, worksheet=worksheet, columns=['GeoGroups', 'MeanNrmlGeoGroups', 'StdNrmlGeoGroups'])\u000a
p1164
sbsg467
g1157
sS'_columns'
p1165
(lp1166
g0
(g295
g2
Ntp1167
Rp1168
(dp1169
g299
I01
sg300
g4
sg301
(lp1170
S'1'
p1171
aS'2'
p1172
aS'3'
p1173
aS'4'
p1174
aS'5'
p1175
aS'6'
p1176
aS'7'
p1177
aS'8'
p1178
aS'9'
p1179
aS'10'
p1180
aS'11'
p1181
aS'12'
p1182
aS'13'
p1183
aS'14'
p1184
aS'15'
p1185
aS'16'
p1186
aS'17'
p1187
aS'18'
p1188
aS'19'
p1189
aS'20'
p1190
aS'21'
p1191
aS'22'
p1192
aS'23'
p1193
aS'24'
p1194
aS'25'
p1195
aS'26'
p1196
aS'27'
p1197
aS'28'
p1198
aS'29'
p1199
aS'30'
p1200
aS'31'
p1201
aS'32'
p1202
aS'33'
p1203
aS'34'
p1204
aS'35'
p1205
aS'36'
p1206
aS'37'
p1207
aS'38'
p1208
aS'39'
p1209
aS'40'
p1210
aS'41'
p1211
aS'42'
p1212
aS'43'
p1213
aS'44'
p1214
aS'45'
p1215
aS'46'
p1216
aS'47'
p1217
aS'48'
p1218
aS'49'
p1219
aS'50'
p1220
aS'51'
p1221
aS'52'
p1222
aS'53'
p1223
aS'54'
p1224
aS'55'
p1225
aS'56'
p1226
aS'57'
p1227
aS'58'
p1228
aS'59'
p1229
aS'60'
p1230
aS'61'
p1231
aS'62'
p1232
aS'63'
p1233
aS'64'
p1234
asg460
g0
(g461
g2
Ntp1235
Rp1236
(dp1237
g465
Nsg621
g1168
sg469
I00
sg470
I00
sg471
Nsbsg473
g0
(g474
g475
(g476
g477
tp1238
tp1239
Rp1240
sg467
S'row'
p1241
sbag0
(g295
g2
Ntp1242
Rp1243
(dp1244
g299
I00
sg300
g4
sg301
(lp1245
Vgene
p1246
aVrun
p1247
aVshow_raw
p1248
aVshow_block1
p1249
aVshow_block2
p1250
aVshow_block3
p1251
aVmax_std
p1252
aVmin_eff
p1253
aVshow_params
p1254
aVnan
p1255
aVnan
p1256
aVnan
p1257
aVnan
p1258
aVnan
p1259
aVnan
p1260
aVnan
p1261
aVnan
p1262
aVnan
p1263
aVnan
p1264
aVnan
p1265
aVnan
p1266
aVnan
p1267
aVnan
p1268
aVnan
p1269
aVnan
p1270
aVnan
p1271
aVnan
p1272
aVnan
p1273
aVnan
p1274
aVnan
p1275
aVnan
p1276
aVnan
p1277
aVnan
p1278
aVnan
p1279
aVnan
p1280
aVnan
p1281
aVnan
p1282
aVnan
p1283
aVnan
p1284
aVnan
p1285
aVnan
p1286
aVnan
p1287
aVnan
p1288
aVnan
p1289
aVnan
p1290
aVnan
p1291
aVnan
p1292
aVnan
p1293
aVnan
p1294
aVnan
p1295
aVnan
p1296
aVnan
p1297
aVnan
p1298
aVnan
p1299
aNaNaNaNaNaNaNaNaNaNasg460
g0
(g461
g2
Ntp1300
Rp1301
(dp1302
g465
Nsg621
g1243
sg469
I00
sg470
I00
sg471
Nsbsg473
g0
(g474
g475
(g476
g477
tp1303
tp1304
Rp1305
sg467
VParmNames
p1306
sbag0
(g295
g2
Ntp1307
Rp1308
(dp1309
g299
I00
sg300
g4
sg301
(lp1310
VGene1
p1311
aVTrue
p1312
aVFalse
p1313
aVFalse
p1314
aVFalse
p1315
aVTrue
p1316
aF0.5
aV0.7
p1317
aVTrue
p1318
aV
p1319
aVnan
p1320
aVnan
p1321
aVnan
p1322
aVnan
p1323
aVnan
p1324
aVnan
p1325
aVnan
p1326
aVnan
p1327
aVnan
p1328
aVnan
p1329
aVnan
p1330
aVnan
p1331
aVnan
p1332
aVnan
p1333
aVnan
p1334
aVnan
p1335
aVnan
p1336
aVnan
p1337
aVnan
p1338
aVnan
p1339
aVnan
p1340
aVnan
p1341
aVnan
p1342
aVnan
p1343
aVnan
p1344
aVnan
p1345
aVnan
p1346
aVnan
p1347
aVnan
p1348
aVnan
p1349
aVnan
p1350
aVnan
p1351
aVnan
p1352
aVnan
p1353
aVnan
p1354
aVnan
p1355
aVnan
p1356
aVnan
p1357
aVnan
p1358
aVnan
p1359
aVnan
p1360
aVnan
p1361
aVnan
p1362
aVnan
p1363
aNaNaNaNaNaNaNaNaNaNasg460
g0
(g461
g2
Ntp1364
Rp1365
(dp1366
g465
Nsg467
VParmValues
p1367
sg469
I00
sg470
I00
sg471
Nsbsg473
g0
(g474
g475
(g476
g477
tp1368
tp1369
Rp1370
sg467
g1367
sbag1144
ag1082
ag1055
ag1132
ag1074
ag1066
ag297
ag482
ag627
ag764
ag903
ag916
ag927
ag989
ag1000
ag1008
ag1016
ag1029
ag1042
ag0
(g295
g2
Ntp1371
Rp1372
(dp1373
g299
I00
sg300
g4
sg301
(lp1374
(lp1375
g304
(g308
S'\x00\x00\x00\x00\x00\x00\x00\x00'
p1376
tp1377
Rp1378
aa(lp1379
g304
(g308
S'\x01\x00\x00\x00\x00\x00\x00\x00'
p1380
tp1381
Rp1382
aa(lp1383
g304
(g308
S'\x02\x00\x00\x00\x00\x00\x00\x00'
p1384
tp1385
Rp1386
aa(lp1387
g304
(g308
S'\x03\x00\x00\x00\x00\x00\x00\x00'
p1388
tp1389
Rp1390
aa(lp1391
g304
(g308
S'\x04\x00\x00\x00\x00\x00\x00\x00'
p1392
tp1393
Rp1394
aaNaNaNaNaNaNaNaNaNaNaNaNaNaNaNaNaNaNaNaNaNaNaNaNaNaNaNaNaNaNaNaNaNaNaNaNaNaNaNaNaNaNaNaNaNaNaNaNaNaNaNaNaNaNaNaNaNaNaNasg460
g0
(g461
g2
Ntp1395
Rp1396
(dp1397
g465
Vcat_vals = [br[0] for br in pruneNulls(BioRuns)]\u000aclean_geo = [x for x in GeoMean if x is not None]\u000aGeoGroups, groupedGeoMeans = groupBy(cat_vals, clean_geo)\u000aGroupedGeoMeans = roundValues(groupedGeoMeans, 3)\u000aGeoGroups = [[x] for x in GeoGroups]
p1398
sg467
VGeoGroups
p1399
sg469
I00
sg470
I00
sg471
Vcat_vals = [br[0] for br in pruneNulls(BioRuns)]\u000aclean_geo = [x for x in GeoMean if x is not None]\u000aGeoGroups, groupedGeoMeans = groupBy(cat_vals, clean_geo)\u000aGroupedGeoMeans = roundValues(groupedGeoMeans, 3)\u000aGeoGroups = [[x] for x in GeoGroups]
p1400
sbsg473
g0
(g474
g475
(g476
g477
tp1401
tp1402
Rp1403
sg467
g1399
sbag0
(g295
g2
Ntp1404
Rp1405
(dp1406
g299
I00
sg300
g4
sg301
(lp1407
g485
(g476
(I0
tp1408
g487
tp1409
Rp1410
(I1
(I1
tp1411
g493
I00
S'D\x8bl\xe7\xfb\xa9\xb1?'
p1412
tp1413
bag485
(g476
(I0
tp1414
g487
tp1415
Rp1416
(I1
(I3
tp1417
g493
I00
S'\xb8\x1e\x85\xebQ\xb8\x8e?D\x8bl\xe7\xfb\xa9\xb1?\x1b/\xdd$\x06\x81\x95?'
p1418
tp1419
bag485
(g476
(I0
tp1420
g487
tp1421
Rp1422
(I1
(I1
tp1423
g493
I00
S'\xd9\xce\xf7S\xe3\xa5\x9b?'
p1424
tp1425
bag485
(g476
(I0
tp1426
g487
tp1427
Rp1428
(I1
(I1
tp1429
g493
I00
S'\xd9\xce\xf7S\xe3\xa5\x9b?'
p1430
tp1431
bag485
(g476
(I0
tp1432
g487
tp1433
Rp1434
(I1
(I1
tp1435
g493
I00
S'\xd9\xce\xf7S\xe3\xa5\x9b?'
p1436
tp1437
baNaNaNaNaNaNaNaNaNaNaNaNaNaNaNaNaNaNaNaNaNaNaNaNaNaNaNaNaNaNaNaNaNaNaNaNaNaNaNaNaNaNaNaNaNaNaNaNaNaNaNaNaNaNaNaNaNaNaNasg460
g0
(g461
g2
Ntp1438
Rp1439
(dp1440
g465
Nsg621
g1405
sg469
I00
sg470
I00
sg471
Nsbsg473
g0
(g474
g475
(g476
g477
tp1441
tp1442
Rp1443
sg467
VGroupedGeoMeans
p1444
sbag0
(g295
g2
Ntp1445
Rp1446
(dp1447
g299
I00
sg300
g4
sg301
(lp1448
g485
(g476
(I0
tp1449
g487
tp1450
Rp1451
(I1
(I1
tp1452
g493
I00
S'\x00\x00\x00\x00\x00\x00\xf0?'
p1453
tp1454
bag485
(g476
(I0
tp1455
g487
tp1456
Rp1457
(I1
(I3
tp1458
g493
I00
S'-\xb2\x9d\xef\xa7\xc6\xcb?\x00\x00\x00\x00\x00\x00\xf0?\xdb\xf9~j\xbct\xd3?'
p1459
tp1460
bag485
(g476
(I0
tp1461
g487
tp1462
Rp1463
(I1
(I1
tp1464
g493
I00
S'\xa0\x1a/\xdd$\x06\xd9?'
p1465
tp1466
bag485
(g476
(I0
tp1467
g487
tp1468
Rp1469
(I1
(I1
tp1470
g493
I00
S'\xa0\x1a/\xdd$\x06\xd9?'
p1471
tp1472
bag485
(g476
(I0
tp1473
g487
tp1474
Rp1475
(I1
(I1
tp1476
g493
I00
S'\xa0\x1a/\xdd$\x06\xd9?'
p1477
tp1478
baNaNaNaNaNaNaNaNaNaNaNaNaNaNaNaNaNaNaNaNaNaNaNaNaNaNaNaNaNaNaNaNaNaNaNaNaNaNaNaNaNaNaNaNaNaNaNaNaNaNaNaNaNaNaNaNaNaNaNasg460
g0
(g461
g2
Ntp1479
Rp1480
(dp1481
g465
Vref = np.mean(GroupedGeoMeans[0])\u000aNrmlGeoGroupedMeans = [ [x/ref for x in g] for g in GroupedGeoMeans if g is not None]  \u000aNrmlGeoGroupedMeans = roundValues(NrmlGeoGroupedMeans, 3)
p1482
sg467
VNrmlGeoGroupedMeans
p1483
sg469
I00
sg470
I00
sg471
Vref = np.mean(GroupedGeoMeans[0])\u000aNrmlGeoGroupedMeans = [ [x/ref for x in g] for g in GroupedGeoMeans if g is not None]  \u000aNrmlGeoGroupedMeans = roundValues(NrmlGeoGroupedMeans, 3)
p1484
sbsg473
g0
(g474
g475
(g476
g477
tp1485
tp1486
Rp1487
sg467
g1483
sbag0
(g295
g2
Ntp1488
Rp1489
(dp1490
g299
I00
sg300
g4
sg301
(lp1491
F1.0
aF0.507
aF0.391
aF0.391
aF0.391
aFnan
aFnan
aFnan
aFnan
aFnan
aFnan
aFnan
aFnan
aFnan
aFnan
aFnan
aFnan
aFnan
aFnan
aFnan
aFnan
aFnan
aFnan
aFnan
aFnan
aFnan
aFnan
aFnan
aFnan
aFnan
aFnan
aFnan
aFnan
aFnan
aFnan
aFnan
aFnan
aFnan
aFnan
aFnan
aFnan
aFnan
aFnan
aFnan
aFnan
aFnan
aFnan
aFnan
aFnan
aFnan
aFnan
aFnan
aFnan
aFnan
aFnan
aFnan
aFnan
aFnan
aFnan
aFnan
aFnan
aFnan
aFnan
aFnan
asg460
g0
(g461
g2
Ntp1492
Rp1493
(dp1494
g465
VMeanNrmlGeoGroups = [round(np.mean(g), 3) for g in NrmlGeoGroupedMeans]
p1495
sg467
VMeanNrmlGeoGroups
p1496
sg469
I01
sg470
I00
sg471
V[round(np.mean(g), 3) for g in NrmlGeoGroupedMeans]
p1497
sbsg473
g0
(g474
g475
(g476
g477
tp1498
tp1499
Rp1500
sg467
g1496
sbag0
(g295
g2
Ntp1501
Rp1502
(dp1503
g299
I00
sg300
g4
sg301
(lp1504
Fnan
aF0.248
aFnan
aFnan
aFnan
aFnan
aFnan
aFnan
aFnan
aFnan
aFnan
aFnan
aFnan
aFnan
aFnan
aFnan
aFnan
aFnan
aFnan
aFnan
aFnan
aFnan
aFnan
aFnan
aFnan
aFnan
aFnan
aFnan
aFnan
aFnan
aFnan
aFnan
aFnan
aFnan
aFnan
aFnan
aFnan
aFnan
aFnan
aFnan
aFnan
aFnan
aFnan
aFnan
aFnan
aFnan
aFnan
aFnan
aFnan
aFnan
aFnan
aFnan
aFnan
aFnan
aFnan
aFnan
aFnan
aFnan
aFnan
aFnan
aFnan
aFnan
aFnan
aFnan
asg460
g0
(g461
g2
Ntp1505
Rp1506
(dp1507
g465
VStdNrmlGeoGroups = [round(np.std(g, ddof=1)/np.sqrt(len(g)), 3) for g in NrmlGeoGroupedMeans]\u000a
p1508
sg467
VStdNrmlGeoGroups
p1509
sg469
I01
sg470
I00
sg471
V[round(np.std(g, ddof=1)/np.sqrt(len(g)), 3) for g in NrmlGeoGroupedMeans]\u000a
p1510
sbsg473
g0
(g474
g475
(g476
g477
tp1511
tp1512
Rp1513
sg467
g1509
sbasg288
V/home/ubuntu/SciSheets/mysite/user/guest/tables/kristen_single_gene.pcl
p1514
sb.