ccopy_reg
_reconstructor
p0
(cscisheets.ui.dt_table
DTTable
p1
c__builtin__
object
p2
Ntp3
Rp4
(dp5
S'_versioned_file'
p6
g0
(cmysite.helpers.versioned_file
VersionedFile
p7
g2
Ntp8
Rp9
(dp10
S'_redo_stack'
p11
g0
(cmysite.helpers.file_stack
FileStack
p12
g2
Ntp13
Rp14
(dp15
S'_dirpath'
p16
S'/home/ubuntu/SciSheets/mysite/user/guest/tables/backup'
p17
sS'_max_depth'
p18
I5
sS'_filename_pfx'
p19
Vkristen_single_gene.r
p20
sbsS'_max_versions'
p21
I5
sS'_undo_stack'
p22
g0
(g12
g2
Ntp23
Rp24
(dp25
g16
g17
sg18
I5
sg19
Vkristen_single_gene.u
p26
sbsS'_checkpoint_history'
p27
(lp28
VCell/Update
p29
aVCell/Update
p30
aVCell/Update
p31
aVCell/Update
p32
aVCell/Update
p33
aVCell/Update
p34
aVCell/Update
p35
aVCell/Update
p36
aVCell/Update
p37
aVCell/Update
p38
aVCell/Update
p39
aVCell/Update
p40
aVColumn/Formula
p41
aVColumn/Formula
p42
aVColumn/Append
p43
aVColumn/Formula
p44
aVColumn/Delete
p45
aVCell/Update
p46
aVColumn/Formula
p47
aVCell/Update
p48
aVCell/Update
p49
aVColumn/Formula
p50
aVColumn/Formula
p51
aVCell/Update
p52
aVColumn/Formula
p53
aVColumn/Formula
p54
aVCell/Update
p55
aVCell/Update
p56
aVCell/Update
p57
aVCell/Update
p58
aVColumn/Formula
p59
aVCell/Update
p60
aVCell/Update
p61
aVCell/Update
p62
aVColumn/Formula
p63
aVCell/Update
p64
aVColumn/Formula
p65
aVColumn/Formula
p66
aVCell/Update
p67
aVCell/Update
p68
aVCell/Update
p69
aVCell/Update
p70
aVCell/Update
p71
aVCell/Update
p72
aVCell/Update
p73
aVCell/Update
p74
aVCell/Update
p75
aVColumn/Formula
p76
aVCell/Update
p77
aVCell/Update
p78
aVCell/Update
p79
aVCell/Update
p80
aVCell/Update
p81
aVCell/Update
p82
aVCell/Update
p83
aVCell/Update
p84
aVCell/Update
p85
aVCell/Update
p86
aVCell/Update
p87
aVCell/Update
p88
aVColumn/Formula
p89
aVColumn/Formula
p90
aVColumn/Formula
p91
aVCell/Update
p92
aVCell/Update
p93
aVCell/Update
p94
aVCell/Update
p95
aVCell/Update
p96
aVColumn/Formula
p97
aVCell/Update
p98
aVCell/Update
p99
aVCell/Update
p100
aVCell/Update
p101
aVCell/Update
p102
aVCell/Update
p103
aVCell/Update
p104
aVColumn/Formula
p105
aVColumn/Formula
p106
aVColumn/Formula
p107
aVCell/Update
p108
aVCell/Update
p109
aVColumn/Formula
p110
aVCell/Update
p111
aVCell/Update
p112
aVCell/Update
p113
aVCell/Update
p114
aVCell/Update
p115
aVCell/Update
p116
aVCell/Update
p117
aVCell/Update
p118
aVColumn/Formula
p119
aVCell/Update
p120
aVColumn/Formula
p121
aVColumn/Formula
p122
aVColumn/Formula
p123
aVCell/Update
p124
aVCell/Update
p125
aVColumn/Formula
p126
aVColumn/Formula
p127
aVColumn/Formula
p128
aVColumn/Formula
p129
aVCell/Update
p130
aVColumn/Formula
p131
aVColumn/Formula
p132
aVColumn/Formula
p133
aVCell/Update
p134
aVCell/Update
p135
aVCell/Update
p136
aVCell/Update
p137
aVCell/Update
p138
aVCell/Update
p139
aVCell/Update
p140
aVCell/Update
p141
aVCell/Update
p142
aVCell/Update
p143
aVColumn/Formula
p144
aVColumn/Formula
p145
aVColumn/Formula
p146
aVColumn/Formula
p147
aVCell/Update
p148
aVCell/Update
p149
aVColumn/Formula
p150
aVCell/Update
p151
aVCell/Update
p152
aVCell/Update
p153
aVCell/Update
p154
aVCell/Update
p155
aVCell/Update
p156
aVCell/Update
p157
aVCell/Update
p158
aVCell/Update
p159
aVCell/Update
p160
aVCell/Update
p161
aVCell/Update
p162
aVCell/Update
p163
aVColumn/Formula
p164
aVColumn/Formula
p165
aVCell/Update
p166
aVCell/Update
p167
aVCell/Update
p168
aVColumn/Formula
p169
aVCell/Update
p170
aVCell/Update
p171
aVCell/Update
p172
aVCell/Update
p173
aVColumn/Formula
p174
aVColumn/Formula
p175
aVColumn/Formula
p176
aVColumn/Formula
p177
aVCell/Update
p178
aVColumn/Formula
p179
aVCell/Update
p180
aVCell/Update
p181
aVCell/Update
p182
aVCell/Update
p183
aVCell/Update
p184
aVCell/Update
p185
aVCell/Update
p186
aVCell/Update
p187
aVCell/Update
p188
aVColumn/Formula
p189
aVCell/Update
p190
aVCell/Update
p191
aVCell/Update
p192
aVCell/Update
p193
aVCell/Update
p194
aVCell/Update
p195
aVCell/Update
p196
aVCell/Update
p197
aVCell/Update
p198
aVCell/Update
p199
aVCell/Update
p200
aVCell/Update
p201
aVCell/Update
p202
aVCell/Update
p203
aVCell/Update
p204
aVCell/Update
p205
aVCell/Update
p206
aVCell/Update
p207
aVCell/Update
p208
aVCell/Update
p209
aVCell/Update
p210
aVCell/Update
p211
aVCell/Update
p212
aVCell/Update
p213
aVCell/Update
p214
aVCell/Update
p215
aVCell/Update
p216
aVCell/Update
p217
aVCell/Update
p218
aVCell/Update
p219
aVCell/Update
p220
aVCell/Update
p221
aVCell/Update
p222
aVCell/Update
p223
aVCell/Update
p224
aVCell/Update
p225
aVCell/Update
p226
aVCell/Update
p227
aVCell/Update
p228
aVCell/Update
p229
aVCell/Update
p230
aVCell/Update
p231
aVCell/Update
p232
aVCell/Update
p233
aVCell/Update
p234
aVCell/Update
p235
aVCell/Update
p236
aVCell/Update
p237
aVCell/Update
p238
aVCell/Update
p239
aVCell/Update
p240
aVCell/Update
p241
aVCell/Update
p242
aVCell/Update
p243
aVCell/Update
p244
aVCell/Update
p245
aVCell/Update
p246
aVCell/Update
p247
aVCell/Update
p248
aVCell/Update
p249
aVCell/Update
p250
aVCell/Update
p251
aVCell/Update
p252
aVCell/Update
p253
aVCell/Update
p254
aVCell/Update
p255
aVCell/Update
p256
aVCell/Update
p257
aVCell/Update
p258
aVCell/Update
p259
aVCell/Update
p260
aVCell/Update
p261
aVCell/Update
p262
aVCell/Update
p263
aVCell/Update
p264
aVCell/Update
p265
aVCell/Update
p266
aVCell/Update
p267
aVCell/Update
p268
aVCell/Update
p269
aVCell/Update
p270
aVCell/Update
p271
aVColumn/Formula
p272
aVColumn/Formula
p273
aVCell/Update
p274
aVCell/Update
p275
aVCell/Update
p276
aVCell/Update
p277
aVColumn/Formula
p278
aVColumn/Formula
p279
aVColumn/Formula
p280
aVCell/Update
p281
aVCell/Update
p282
asS'_filepath'
p283
V/home/ubuntu/SciSheets/mysite/user/guest/tables/kristen_single_gene.pcl
p284
sS'_backup_dir'
p285
g17
sbsS'_namespace'
p286
(dp287
sS'_hidden_columns'
p288
(lp289
g0
(cscisheets.core.column
Column
p290
g2
Ntp291
Rp292
(dp293
S'_asis'
p294
I00
sS'_owning_table'
p295
g4
sS'_cells'
p296
(lp297
(lp298
cnumpy.core.multiarray
scalar
p299
(cnumpy
dtype
p300
(S'i8'
p301
I0
I1
tp302
Rp303
(I3
S'<'
p304
NNNI-1
I-1
I0
tp305
bS'\x00\x00\x00\x00\x00\x00\x00\x00'
p306
tp307
Rp308
aVI
p309
ag299
(g303
S'\x01\x00\x00\x00\x00\x00\x00\x00'
p310
tp311
Rp312
aa(lp313
g299
(g303
S'\x00\x00\x00\x00\x00\x00\x00\x00'
p314
tp315
Rp316
aVR1
p317
ag299
(g303
S'\x01\x00\x00\x00\x00\x00\x00\x00'
p318
tp319
Rp320
aa(lp321
g299
(g303
S'\x00\x00\x00\x00\x00\x00\x00\x00'
p322
tp323
Rp324
aVR2
p325
ag299
(g303
S'\x01\x00\x00\x00\x00\x00\x00\x00'
p326
tp327
Rp328
aa(lp329
g299
(g303
S'\x01\x00\x00\x00\x00\x00\x00\x00'
p330
tp331
Rp332
ag309
ag299
(g303
S'\x01\x00\x00\x00\x00\x00\x00\x00'
p333
tp334
Rp335
aa(lp336
g299
(g303
S'\x01\x00\x00\x00\x00\x00\x00\x00'
p337
tp338
Rp339
ag309
ag299
(g303
S'\x02\x00\x00\x00\x00\x00\x00\x00'
p340
tp341
Rp342
aa(lp343
g299
(g303
S'\x01\x00\x00\x00\x00\x00\x00\x00'
p344
tp345
Rp346
ag309
ag299
(g303
S'\x03\x00\x00\x00\x00\x00\x00\x00'
p347
tp348
Rp349
aa(lp350
g299
(g303
S'\x01\x00\x00\x00\x00\x00\x00\x00'
p351
tp352
Rp353
ag317
ag299
(g303
S'\x01\x00\x00\x00\x00\x00\x00\x00'
p354
tp355
Rp356
aa(lp357
g299
(g303
S'\x01\x00\x00\x00\x00\x00\x00\x00'
p358
tp359
Rp360
ag317
ag299
(g303
S'\x02\x00\x00\x00\x00\x00\x00\x00'
p361
tp362
Rp363
aa(lp364
g299
(g303
S'\x01\x00\x00\x00\x00\x00\x00\x00'
p365
tp366
Rp367
ag317
ag299
(g303
S'\x03\x00\x00\x00\x00\x00\x00\x00'
p368
tp369
Rp370
aa(lp371
g299
(g303
S'\x01\x00\x00\x00\x00\x00\x00\x00'
p372
tp373
Rp374
ag325
ag299
(g303
S'\x01\x00\x00\x00\x00\x00\x00\x00'
p375
tp376
Rp377
aa(lp378
g299
(g303
S'\x01\x00\x00\x00\x00\x00\x00\x00'
p379
tp380
Rp381
ag325
ag299
(g303
S'\x02\x00\x00\x00\x00\x00\x00\x00'
p382
tp383
Rp384
aa(lp385
g299
(g303
S'\x01\x00\x00\x00\x00\x00\x00\x00'
p386
tp387
Rp388
ag325
ag299
(g303
S'\x03\x00\x00\x00\x00\x00\x00\x00'
p389
tp390
Rp391
aa(lp392
g299
(g303
S'\x02\x00\x00\x00\x00\x00\x00\x00'
p393
tp394
Rp395
ag309
ag299
(g303
S'\x01\x00\x00\x00\x00\x00\x00\x00'
p396
tp397
Rp398
aa(lp399
g299
(g303
S'\x02\x00\x00\x00\x00\x00\x00\x00'
p400
tp401
Rp402
ag317
ag299
(g303
S'\x01\x00\x00\x00\x00\x00\x00\x00'
p403
tp404
Rp405
aa(lp406
g299
(g303
S'\x02\x00\x00\x00\x00\x00\x00\x00'
p407
tp408
Rp409
ag325
ag299
(g303
S'\x01\x00\x00\x00\x00\x00\x00\x00'
p410
tp411
Rp412
aa(lp413
g299
(g303
S'\x03\x00\x00\x00\x00\x00\x00\x00'
p414
tp415
Rp416
ag309
ag299
(g303
S'\x01\x00\x00\x00\x00\x00\x00\x00'
p417
tp418
Rp419
aa(lp420
g299
(g303
S'\x03\x00\x00\x00\x00\x00\x00\x00'
p421
tp422
Rp423
ag317
ag299
(g303
S'\x01\x00\x00\x00\x00\x00\x00\x00'
p424
tp425
Rp426
aa(lp427
g299
(g303
S'\x03\x00\x00\x00\x00\x00\x00\x00'
p428
tp429
Rp430
ag325
ag299
(g303
S'\x01\x00\x00\x00\x00\x00\x00\x00'
p431
tp432
Rp433
aaNaNaNaNaNaNaNaNaNaNaNaNaNaNaNaNaNaNaNaNaNaNaNaNaNaNaNaNaNaNaNaNaNaNaNaNaNaNaNaNaNaNaNaNaNaNasS'_formula_statement'
p434
g0
(cscisheets.core.helpers.formula_statement
FormulaStatement
p435
g2
Ntp436
Rp437
(dp438
S'_statement'
p439
Vsel = Eff > min_eff\u000agrouping_columns =   [\u000a    Treatment[sel],\u000a     RunType[sel], \u000a    BRpl[sel],      \u000a  ]\u000aGroups, groupedCt = groupBy(\u000a     grouping_columns, Ct[sel])\u000aGroups, groupedEff = groupBy(\u000a     grouping_columns, Eff[sel])\u000aGroups = [[g[0], g[1], g[2]] for g in Groups]\u000aGroupedCt = roundValues(groupedCt,2)\u000aGroupedEff = roundValues(groupedEff,2)
p440
sS'_name'
p441
VGroups
p442
sS'_isExpression'
p443
I00
sS'_isStatement'
p444
I00
sS'_formula'
p445
Vsel = Eff > min_eff\u000agrouping_columns =   [\u000a    Treatment[sel],\u000a     RunType[sel], \u000a    BRpl[sel],      \u000a  ]\u000aGroups, groupedCt = groupBy(\u000a     grouping_columns, Ct[sel])\u000aGroups, groupedEff = groupBy(\u000a     grouping_columns, Eff[sel])\u000aGroups = [[g[0], g[1], g[2]] for g in Groups]\u000aGroupedCt = roundValues(groupedCt,2)\u000aGroupedEff = roundValues(groupedEff,2)
p446
sbsS'_data_class'
p447
g0
(cscisheets.core.helpers.api_util
DataClass
p448
c__builtin__
tuple
p449
(cnumpy
ndarray
p450
cscisheets.core.helpers.api_util
makeArray
p451
tp452
tp453
Rp454
sg441
g442
sbag0
(g290
g2
Ntp455
Rp456
(dp457
g294
I00
sg295
g4
sg296
(lp458
(lp459
F0.92
aF0.91
aF0.91
aa(lp460
F0.83
aF0.83
aF0.85
aa(lp461
F0.82
aF0.85
aF0.82
aa(lp462
F0.85
aF0.84
aF0.85
aa(lp463
F0.87
aF0.78
aF0.85
aa(lp464
F0.84
aF0.84
aF0.77
aa(lp465
F0.92
aF0.98
aF0.9
aa(lp466
F0.9
aF0.83
aF0.84
aa(lp467
F0.87
aF0.85
aF0.83
aa(lp468
F0.79
aF0.84
aF0.86
aa(lp469
F0.83
aF0.82
aF0.83
aa(lp470
F0.81
aF0.82
aF0.8
aa(lp471
F0.84
aF0.79
aF0.81
aa(lp472
F0.77
aF0.87
aF0.81
aa(lp473
F0.78
aF0.77
aF0.79
aa(lp474
F0.88
aF0.86
aF0.89
aa(lp475
F0.87
aF0.9
aF0.86
aa(lp476
F0.82
aF0.82
aF0.79
aaNaNaNaNaNaNaNaNaNaNaNaNaNaNaNaNaNaNaNaNaNaNaNaNaNaNaNaNaNaNaNaNaNaNaNaNaNaNaNaNaNaNaNaNaNaNasg434
g0
(g435
g2
Ntp477
Rp478
(dp479
g439
NsS'_column'
p480
g456
sg443
I00
sg444
I00
sg445
Nsbsg447
g0
(g448
g449
(g450
g451
tp481
tp482
Rp483
sg441
VGroupedEff
p484
sbag0
(g290
g2
Ntp485
Rp486
(dp487
g294
I00
sg295
g4
sg296
(lp488
(lp489
F18.31
aF18.29
aF18.15
aa(lp490
F18.24
aF18.22
aF18.36
aa(lp491
F19.72
aF19.75
aF20.01
aa(lp492
F22.42
aF22.5
aF22.44
aa(lp493
F21.92
aF22.03
aF21.94
aa(lp494
F23.4
aF23.47
aF23.41
aa(lp495
F19.92
aF19.85
aF20.0
aa(lp496
F21.86
aF22.09
aF21.84
aa(lp497
F23.89
aF23.54
aF24.27
aa(lp498
F22.18
aF21.71
aF21.75
aa(lp499
F23.88
aF23.42
aF23.63
aa(lp500
F24.59
aF24.61
aF24.34
aa(lp501
F23.48
aF23.31
aF23.45
aa(lp502
F23.22
aF23.8
aF23.49
aa(lp503
F26.37
aF26.36
aF26.17
aa(lp504
F18.82
aF18.97
aF18.92
aa(lp505
F18.91
aF18.78
aF18.8
aa(lp506
F20.5
aF20.47
aF20.28
aaNaNaNaNaNaNaNaNaNaNaNaNaNaNaNaNaNaNaNaNaNaNaNaNaNaNaNaNaNaNaNaNaNaNaNaNaNaNaNaNaNaNaNaNaNaNasg434
g0
(g435
g2
Ntp507
Rp508
(dp509
g439
Nsg480
g486
sg443
I00
sg444
I00
sg445
Nsbsg447
g0
(g448
g449
(g450
g451
tp510
tp511
Rp512
sg441
VGroupedCt
p513
sbag0
(g290
g2
Ntp514
Rp515
(dp516
g294
I00
sg295
g4
sg296
(lp517
(lp518
F18.3
aF18.3
aF18.1
aa(lp519
F18.2
aF18.2
aF18.4
aa(lp520
F19.7
aF19.8
aF20.0
aa(lp521
F22.4
aF22.5
aF22.4
aa(lp522
F21.9
aF22.0
aF21.9
aa(lp523
F23.4
aF23.5
aF23.4
aa(lp524
F19.9
aF19.9
aF20.0
aa(lp525
F21.9
aF22.1
aF21.8
aa(lp526
F23.9
aF23.5
aF24.3
aa(lp527
F22.2
aF21.7
aF21.8
aa(lp528
F23.9
aF23.4
aF23.6
aa(lp529
F24.6
aF24.6
aF24.3
aa(lp530
F23.5
aF23.3
aF23.4
aa(lp531
F23.2
aF23.8
aF23.5
aa(lp532
F26.4
aF26.4
aF26.2
aa(lp533
F18.8
aF19.0
aF18.9
aa(lp534
F18.9
aF18.8
aF18.8
aa(lp535
F20.5
aF20.5
aF20.3
aaNaNaNaNaNaNaNaNaNaNaNaNaNaNaNaNaNaNaNaNaNaNaNaNaNaNaNaNaNaNaNaNaNaNaNaNaNaNaNaNaNaNaNaNaNaNasg434
g0
(g435
g2
Ntp536
Rp537
(dp538
g439
Vlength = len(Groups)\u000aStdFilteredGroupedCt = roundValues([filterExtremes(g, max_std, 2) for g in pruneNulls(GroupedCt,    required_length=length)])\u000a 
p539
sg441
VStdFilteredGroupedCt
p540
sg443
I00
sg444
I00
sg445
Vlength = len(Groups)\u000aStdFilteredGroupedCt = roundValues([filterExtremes(g, max_std, 2) for g in pruneNulls(GroupedCt,    required_length=length)])\u000a 
p541
sbsg447
g0
(g448
g449
(g450
g451
tp542
tp543
Rp544
sg441
g540
sbag0
(g290
g2
Ntp545
Rp546
(dp547
g294
I00
sg295
g4
sg296
(lp548
F18.2
aF18.3
aF19.8
aF22.4
aF21.9
aF23.4
aF19.9
aF21.9
aF23.9
aF21.9
aF23.6
aF24.5
aF23.4
aF23.5
aF26.3
aF18.9
aF18.8
aF20.4
aFnan
aFnan
aFnan
aFnan
aFnan
aFnan
aFnan
aFnan
aFnan
aFnan
aFnan
aFnan
aFnan
aFnan
aFnan
aFnan
aFnan
aFnan
aFnan
aFnan
aFnan
aFnan
aFnan
aFnan
aFnan
aFnan
aFnan
aFnan
aFnan
aFnan
aFnan
aFnan
aFnan
aFnan
aFnan
aFnan
aFnan
aFnan
aFnan
aFnan
aFnan
aFnan
aFnan
aFnan
aFnan
aFnan
asg434
g0
(g435
g2
Ntp549
Rp550
(dp551
g439
VMeanCt = [np.mean(g) for g in StdFilteredGroupedCt]\u000aMeanCt = roundValues(MeanCt,1)\u000aStdCt = [np.std(g, ddof=1) for g in StdFilteredGroupedCt]\u000aStdCt = roundValues(StdCt,3)
p552
sg441
VMeanCt
p553
sg443
I00
sg444
I00
sg445
VMeanCt = [np.mean(g) for g in StdFilteredGroupedCt]\u000aMeanCt = roundValues(MeanCt,1)\u000aStdCt = [np.std(g, ddof=1) for g in StdFilteredGroupedCt]\u000aStdCt = roundValues(StdCt,3)
p554
sbsg447
g0
(g448
g449
(g450
g451
tp555
tp556
Rp557
sg441
g553
sbag0
(g290
g2
Ntp558
Rp559
(dp560
g294
I00
sg295
g4
sg296
(lp561
F0.115
aF0.115
aF0.153
aF0.058
aF0.058
aF0.058
aF0.058
aF0.153
aF0.4
aF0.265
aF0.252
aF0.173
aF0.1
aF0.3
aF0.115
aF0.1
aF0.058
aF0.115
aFnan
aFnan
aFnan
aFnan
aFnan
aFnan
aFnan
aFnan
aFnan
aFnan
aFnan
aFnan
aFnan
aFnan
aFnan
aFnan
aFnan
aFnan
aFnan
aFnan
aFnan
aFnan
aFnan
aFnan
aFnan
aFnan
aFnan
aFnan
aFnan
aFnan
aFnan
aFnan
aFnan
aFnan
aFnan
aFnan
aFnan
aFnan
aFnan
aFnan
aFnan
aFnan
aFnan
aFnan
aFnan
aFnan
asg434
g0
(g435
g2
Ntp562
Rp563
(dp564
g439
Nsg480
g559
sg443
I00
sg444
I00
sg445
Nsbsg447
g0
(g448
g449
(g450
g451
tp565
tp566
Rp567
sg441
VStdCt
p568
sbag0
(g290
g2
Ntp569
Rp570
(dp571
g294
I00
sg295
g4
sg296
(lp572
(lp573
g299
(g303
S'\x00\x00\x00\x00\x00\x00\x00\x00'
p574
tp575
Rp576
ag299
(g303
S'\x01\x00\x00\x00\x00\x00\x00\x00'
p577
tp578
Rp579
aa(lp580
g299
(g303
S'\x01\x00\x00\x00\x00\x00\x00\x00'
p581
tp582
Rp583
ag299
(g303
S'\x01\x00\x00\x00\x00\x00\x00\x00'
p584
tp585
Rp586
aa(lp587
g299
(g303
S'\x01\x00\x00\x00\x00\x00\x00\x00'
p588
tp589
Rp590
ag299
(g303
S'\x02\x00\x00\x00\x00\x00\x00\x00'
p591
tp592
Rp593
aa(lp594
g299
(g303
S'\x01\x00\x00\x00\x00\x00\x00\x00'
p595
tp596
Rp597
ag299
(g303
S'\x03\x00\x00\x00\x00\x00\x00\x00'
p598
tp599
Rp600
aa(lp601
g299
(g303
S'\x02\x00\x00\x00\x00\x00\x00\x00'
p602
tp603
Rp604
ag299
(g303
S'\x01\x00\x00\x00\x00\x00\x00\x00'
p605
tp606
Rp607
aa(lp608
g299
(g303
S'\x03\x00\x00\x00\x00\x00\x00\x00'
p609
tp610
Rp611
ag299
(g303
S'\x01\x00\x00\x00\x00\x00\x00\x00'
p612
tp613
Rp614
aaNaNaNaNaNaNaNaNaNaNaNaNaNaNaNaNaNaNaNaNaNaNaNaNaNaNaNaNaNaNaNaNaNaNaNaNaNaNaNaNaNaNaNaNaNaNaNaNaNaNaNaNaNaNaNaNaNaNasg434
g0
(g435
g2
Ntp615
Rp616
(dp617
g439
Vdummy = tabularize(s, 'Groups', 1, 'MeanCt', \u000a          new_category_colnm='BioRuns',\u000a          values_colnm_prefix='Gene_')
p618
sg441
VBioRuns
p619
sg443
I00
sg444
I00
sg445
Vdummy = tabularize(s, 'Groups', 1, 'MeanCt', \u000a          new_category_colnm='BioRuns',\u000a          values_colnm_prefix='Gene_')
p620
sbsg447
g0
(g448
g449
(g450
g451
tp621
tp622
Rp623
sg441
g619
sbag0
(g290
g2
Ntp624
Rp625
(dp626
g294
I00
sg295
g4
sg296
(lp627
F18.2
aF22.4
aF21.9
aF23.4
aF23.4
aF18.9
aFnan
aFnan
aFnan
aFnan
aFnan
aFnan
aFnan
aFnan
aFnan
aFnan
aFnan
aFnan
aFnan
aFnan
aFnan
aFnan
aFnan
aFnan
aFnan
aFnan
aFnan
aFnan
aFnan
aFnan
aFnan
aFnan
aFnan
aFnan
aFnan
aFnan
aFnan
aFnan
aFnan
aFnan
aFnan
aFnan
aFnan
aFnan
aFnan
aFnan
aFnan
aFnan
aFnan
aFnan
aFnan
aFnan
aFnan
aFnan
aFnan
aFnan
aFnan
aFnan
aFnan
aFnan
aFnan
aFnan
aFnan
aFnan
asg434
g0
(g435
g2
Ntp628
Rp629
(dp630
g439
Nsg480
g625
sg443
I00
sg444
I00
sg445
Nsbsg447
g0
(g448
g449
(g450
g451
tp631
tp632
Rp633
sg441
S'Gene_I'
p634
sbag0
(g290
g2
Ntp635
Rp636
(dp637
g294
I00
sg295
g4
sg296
(lp638
F18.3
aF19.9
aF21.9
aF23.9
aF23.5
aF18.8
aFnan
aFnan
aFnan
aFnan
aFnan
aFnan
aFnan
aFnan
aFnan
aFnan
aFnan
aFnan
aFnan
aFnan
aFnan
aFnan
aFnan
aFnan
aFnan
aFnan
aFnan
aFnan
aFnan
aFnan
aFnan
aFnan
aFnan
aFnan
aFnan
aFnan
aFnan
aFnan
aFnan
aFnan
aFnan
aFnan
aFnan
aFnan
aFnan
aFnan
aFnan
aFnan
aFnan
aFnan
aFnan
aFnan
aFnan
aFnan
aFnan
aFnan
aFnan
aFnan
aFnan
aFnan
aFnan
aFnan
aFnan
aFnan
asg434
g0
(g435
g2
Ntp639
Rp640
(dp641
g439
Nsg480
g636
sg443
I00
sg444
I00
sg445
Nsbsg447
g633
sg441
S'Gene_R1'
p642
sbag0
(g290
g2
Ntp643
Rp644
(dp645
g294
I00
sg295
g4
sg296
(lp646
F19.8
aF21.9
aF23.6
aF24.5
aF26.3
aF20.4
aFnan
aFnan
aFnan
aFnan
aFnan
aFnan
aFnan
aFnan
aFnan
aFnan
aFnan
aFnan
aFnan
aFnan
aFnan
aFnan
aFnan
aFnan
aFnan
aFnan
aFnan
aFnan
aFnan
aFnan
aFnan
aFnan
aFnan
aFnan
aFnan
aFnan
aFnan
aFnan
aFnan
aFnan
aFnan
aFnan
aFnan
aFnan
aFnan
aFnan
aFnan
aFnan
aFnan
aFnan
aFnan
aFnan
aFnan
aFnan
aFnan
aFnan
aFnan
aFnan
aFnan
aFnan
aFnan
aFnan
aFnan
aFnan
asg434
g0
(g435
g2
Ntp647
Rp648
(dp649
g439
Nsg480
g644
sg443
I00
sg444
I00
sg445
Nsbsg447
g633
sg441
S'Gene_R2'
p650
sbag0
(g290
g2
Ntp651
Rp652
(dp653
g294
I00
sg295
g4
sg296
(lp654
F1.07177
aF0.17678
aF1.0
aF1.41421
aF1.07177
aF0.93303
aFnan
aFnan
aFnan
aFnan
aFnan
aFnan
aFnan
aFnan
aFnan
aFnan
aFnan
aFnan
aFnan
aFnan
aFnan
aFnan
aFnan
aFnan
aFnan
aFnan
aFnan
aFnan
aFnan
aFnan
aFnan
aFnan
aFnan
aFnan
aFnan
aFnan
aFnan
aFnan
aFnan
aFnan
aFnan
aFnan
aFnan
aFnan
aFnan
aFnan
aFnan
aFnan
aFnan
aFnan
aFnan
aFnan
aFnan
aFnan
aFnan
aFnan
aFnan
aFnan
aFnan
aFnan
aFnan
aFnan
aFnan
aFnan
asg434
g0
(g435
g2
Ntp655
Rp656
(dp657
g439
VExprR1 = roundValues(2**(Gene_R1 - Gene_I),5)
p658
sg441
VExprR1
p659
sg443
I01
sg444
I00
sg445
VroundValues(2**(Gene_R1 - Gene_I),5)
p660
sbsg447
g0
(g448
g449
(g450
g451
tp661
tp662
Rp663
sg441
g659
sbag0
(g290
g2
Ntp664
Rp665
(dp666
g294
I00
sg295
g4
sg296
(lp667
F3.03143
aF0.70711
aF3.24901
aF2.14355
aF7.46426
aF2.82843
aFnan
aFnan
aFnan
aFnan
aFnan
aFnan
aFnan
aFnan
aFnan
aFnan
aFnan
aFnan
aFnan
aFnan
aFnan
aFnan
aFnan
aFnan
aFnan
aFnan
aFnan
aFnan
aFnan
aFnan
aFnan
aFnan
aFnan
aFnan
aFnan
aFnan
aFnan
aFnan
aFnan
aFnan
aFnan
aFnan
aFnan
aFnan
aFnan
aFnan
aFnan
aFnan
aFnan
aFnan
aFnan
aFnan
aFnan
aFnan
aFnan
aFnan
aFnan
aFnan
aFnan
aFnan
aFnan
aFnan
aFnan
aFnan
asg434
g0
(g435
g2
Ntp668
Rp669
(dp670
g439
VExprR2 = roundValues(2**(Gene_R2 - Gene_I),5)
p671
sg441
VExprR2
p672
sg443
I01
sg444
I00
sg445
VroundValues(2**(Gene_R2 - Gene_I),5)
p673
sbsg447
g0
(g448
g449
(g450
g451
tp674
tp675
Rp676
sg441
g672
sbag0
(g290
g2
Ntp677
Rp678
(dp679
g294
I00
sg295
g4
sg296
(lp680
F1.802
aF0.354
aF1.803
aF1.741
aF2.828
aF1.625
aFnan
aFnan
aFnan
aFnan
aFnan
aFnan
aFnan
aFnan
aFnan
aFnan
aFnan
aFnan
aFnan
aFnan
aFnan
aFnan
aFnan
aFnan
aFnan
aFnan
aFnan
aFnan
aFnan
aFnan
aFnan
aFnan
aFnan
aFnan
aFnan
aFnan
aFnan
aFnan
aFnan
aFnan
aFnan
aFnan
aFnan
aFnan
aFnan
aFnan
aFnan
aFnan
aFnan
aFnan
aFnan
aFnan
aFnan
aFnan
aFnan
aFnan
aFnan
aFnan
aFnan
aFnan
aFnan
aFnan
aFnan
aFnan
asg434
g0
(g435
g2
Ntp681
Rp682
(dp683
g439
VGeoMean = roundValues(np.sqrt(ExprR1*ExprR2), 3)
p684
sg441
VGeoMean
p685
sg443
I01
sg444
I00
sg445
VroundValues(np.sqrt(ExprR1*ExprR2), 3)
p686
sbsg447
g0
(g448
g449
(g450
g451
tp687
tp688
Rp689
sg441
g685
sbag0
(g290
g2
Ntp690
Rp691
(dp692
g294
I00
sg295
g4
sg296
(lp693
F1.0
aF1.0
aF1.0
aF1.0
aF1.0
aF1.0
aF1.0
aF1.0
aF1.0
aF1.0
aF1.0
aF1.0
aF2.0
aF2.0
aF2.0
aF3.0
aF3.0
aF3.0
aF1.0
aF1.0
aF1.0
aF2.0
aF2.0
aF2.0
aF3.0
aF3.0
aF3.0
aF1.0
aF1.0
aF1.0
aF2.0
aF2.0
aF2.0
aF3.0
aF3.0
aF3.0
aF1.0
aF1.0
aF1.0
aF1.0
aF1.0
aF1.0
aF1.0
aF1.0
aF1.0
aF1.0
aF1.0
aF1.0
aF1.0
aF1.0
aF1.0
aF1.0
aF1.0
aF1.0
aFnan
aFnan
aFnan
aFnan
aFnan
aFnan
aFnan
aFnan
aFnan
aFnan
asg434
g0
(g435
g2
Ntp694
Rp695
(dp696
g439
Nsg441
S'BRpl'
p697
sg443
I00
sg444
I00
sg445
Nsbsg447
g0
(g448
g449
(g450
g451
tp698
tp699
Rp700
sg441
g697
sbag0
(g290
g2
Ntp701
Rp702
(dp703
g294
I00
sg295
g4
sg296
(lp704
F18.31
aF18.29
aF18.15
aF18.24
aF18.22
aF18.36
aF19.72
aF19.75
aF20.01
aF22.42
aF22.5
aF22.44
aF21.92
aF22.03
aF21.94
aF23.4
aF23.47
aF23.41
aF19.92
aF19.85
aF20.0
aF21.86
aF22.09
aF21.84
aF23.89
aF23.54
aF24.27
aF22.18
aF21.71
aF21.75
aF23.88
aF23.42
aF23.63
aF24.59
aF24.61
aF24.34
aF23.48
aF23.31
aF23.45
aF23.22
aF23.8
aF23.49
aF26.37
aF26.36
aF26.17
aF18.82
aF18.97
aF18.92
aF18.91
aF18.78
aF18.8
aF20.5
aF20.47
aF20.28
aFnan
aFnan
aFnan
aFnan
aFnan
aFnan
aFnan
aFnan
aFnan
aFnan
asg434
g0
(g435
g2
Ntp705
Rp706
(dp707
g439
Nsg441
S'Ct'
p708
sg443
I00
sg444
I00
sg445
Nsbsg447
g700
sg441
g708
sbag0
(g290
g2
Ntp709
Rp710
(dp711
g294
I00
sg295
g4
sg296
(lp712
F0.919
aF0.9106
aF0.9129
aF0.8266
aF0.8343
aF0.8496
aF0.8157
aF0.8543
aF0.8208
aF0.8453
aF0.8426
aF0.8524
aF0.8658
aF0.7809
aF0.8512
aF0.8442
aF0.8357
aF0.7658
aF0.9179
aF0.9783
aF0.8971
aF0.8957
aF0.8287
aF0.8387
aF0.8746
aF0.8493
aF0.8349
aF0.7857
aF0.8427
aF0.8637
aF0.8281
aF0.8203
aF0.8288
aF0.8138
aF0.8242
aF0.804
aF0.8352
aF0.7886
aF0.8105
aF0.7701
aF0.8746
aF0.8139
aF0.7795
aF0.7676
aF0.7947
aF0.876
aF0.8597
aF0.8873
aF0.8715
aF0.8977
aF0.856
aF0.8179
aF0.8173
aF0.7894
aFnan
aFnan
aFnan
aFnan
aFnan
aFnan
aFnan
aFnan
aFnan
aFnan
asg434
g0
(g435
g2
Ntp713
Rp714
(dp715
g439
Nsg441
S'Eff'
p716
sg443
I00
sg444
I00
sg445
Nsbsg447
g700
sg441
g716
sbag0
(g290
g2
Ntp717
Rp718
(dp719
g294
I00
sg295
g4
sg296
(lp720
g309
ag309
ag309
aVR1
p721
aVR1
p722
aVR1
p723
aVR2
p724
aVR2
p725
aVR2
p726
ag309
ag309
ag309
ag309
ag309
ag309
ag309
ag309
ag309
aVR1
p727
aVR1
p728
aVR1
p729
aVR1
p730
aVR1
p731
aVR1
p732
aVR1
p733
aVR1
p734
aVR1
p735
aVR2
p736
aVR2
p737
aVR2
p738
aVR2
p739
aVR2
p740
aVR2
p741
aVR2
p742
aVR2
p743
aVR2
p744
ag309
ag309
ag309
aVR1
p745
aVR1
p746
aVR1
p747
aVR2
p748
aVR2
p749
aVR2
p750
ag309
ag309
ag309
aVR1
p751
aVR1
p752
aVR1
p753
aVR2
p754
aVR2
p755
aVR2
p756
aNaNaNaNaNaNaNaNaNaNasg434
g0
(g435
g2
Ntp757
Rp758
(dp759
g439
Nsg441
S'RunType'
p760
sg443
I00
sg444
I00
sg445
Nsbsg447
g700
sg441
g760
sbag0
(g290
g2
Ntp761
Rp762
(dp763
g294
I00
sg295
g4
sg296
(lp764
Va
p765
aVb
p766
aVc
p767
ag765
ag766
ag767
ag765
ag766
ag767
ag765
ag766
ag767
ag765
ag766
ag767
ag765
ag766
ag767
ag765
ag766
ag767
ag765
ag766
ag767
ag765
ag766
ag767
ag765
ag766
ag767
ag765
ag766
ag767
ag765
ag766
ag767
ag765
ag766
ag767
ag765
ag766
ag767
ag765
ag766
ag767
ag765
ag766
ag767
ag765
ag766
ag767
ag765
ag766
ag767
aNaNaNaNaNaNaNaNaNaNasg434
g0
(g435
g2
Ntp768
Rp769
(dp770
g439
Nsg441
S'TRpl'
p771
sg443
I00
sg444
I00
sg445
Nsbsg447
g700
sg441
g771
sbag0
(g290
g2
Ntp772
Rp773
(dp774
g294
I00
sg295
g4
sg296
(lp775
F0.0
aF0.0
aF0.0
aF0.0
aF0.0
aF0.0
aF0.0
aF0.0
aF0.0
aF1.0
aF1.0
aF1.0
aF1.0
aF1.0
aF1.0
aF1.0
aF1.0
aF1.0
aF1.0
aF1.0
aF1.0
aF1.0
aF1.0
aF1.0
aF1.0
aF1.0
aF1.0
aF1.0
aF1.0
aF1.0
aF1.0
aF1.0
aF1.0
aF1.0
aF1.0
aF1.0
aF2.0
aF2.0
aF2.0
aF2.0
aF2.0
aF2.0
aF2.0
aF2.0
aF2.0
aF3.0
aF3.0
aF3.0
aF3.0
aF3.0
aF3.0
aF3.0
aF3.0
aF3.0
aFnan
aFnan
aFnan
aFnan
aFnan
aFnan
aFnan
aFnan
aFnan
aFnan
asg434
g0
(g435
g2
Ntp776
Rp777
(dp778
g439
Nsg441
S'Treatment'
p779
sg443
I00
sg444
I00
sg445
Nsbsg447
g700
sg441
g779
sbasS'_is_evaluate_formulas'
p780
I01
sS'_prologue'
p781
g0
(g435
g2
Ntp782
Rp783
(dp784
g439
V# Prologue\u000aimport math as mt\u000aimport numpy as np\u000afrom os import listdir\u000afrom os.path import isfile, join\u000aimport pandas as pd\u000aimport scipy as sp\u000afrom numpy import nan  # Must follow sympy import \u000a\u000axlsx_path = '/mnt/hgfs/josephhellerstein/home/Technical/SciSheets/CaseStudies/Kristen/workbooks/data.xlsx'\u000agene = ParmValues[0]\u000arun = ParmValues[1] == 'True'\u000ashow_raw = ParmValues[2] == 'True'\u000ashow_block1 = ParmValues[3] == 'True'\u000ashow_block2 = ParmValues[4] == 'True'\u000ashow_block3 = ParmValues[5] == 'True'\u000ashow_params = ParmValues[8] == 'True'\u000a#show_params = True\u000amax_std  = float(ParmValues[6])\u000amin_eff = float(ParmValues[7])\u000aworksheet = gene + "-I"\u000as.getTable().setIsEvaluateFormulas(run)\u000as.setColumnVisibility()\u000as.setColumnVisibility(['Groups', 'GroupedEff', 'GroupedCt', 'StdFilteredGroupedCt', 'MeanCt', 'StdCt'], is_visible=show_block1)\u000as.setColumnVisibility(['BioRuns', 'Gene_I', 'Gene_R1', 'Gene_R2', 'ExprR1', 'ExprR2', 'GeoMean'], is_visible=show_block2)\u000as.setColumnVisibility(['GeoGroups', 'GroupedGeoMeans', 'NrmlGeoGroupedMeans', 'MeanNrmlGeoGroups', 'StdNrmlGeoGroups'], is_visible=show_block3)\u000aif False:\u000a  Groups = []\u000a  GroupedCt = []\u000a  GroupedEff = []\u000a  MeanCt = []\u000a  Imp = []\u000a  s.deleteColumn('Ct')\u000a  s.deleteColumn('RunType')\u000a  s.deleteColumn('BRpl')\u000a  s.deleteColumn('TRpl')\u000a  s.deleteColumn('Treatment')\u000a  s.deleteColumn('Eff')\u000aif run:\u000a  importExcelToTable(s, xlsx_path, worksheet=worksheet,\u000a      column_position='ParmValues',\u000a      names=['Treatment', 'RunType', 'BRpl', 'TRpl', 'Eff', 'Ct'])\u000as.setColumnVisibility(['BRpl', 'Ct', 'Eff', 'RunType', 'TRpl', 'Treatment'], is_visible=show_raw)\u000as.setColumnVisibility(['ParmNames', 'ParmValues'], show_params)
p785
sg441
VSingleGene
p786
sg443
I00
sg444
I00
sg445
V# Prologue\u000aimport math as mt\u000aimport numpy as np\u000afrom os import listdir\u000afrom os.path import isfile, join\u000aimport pandas as pd\u000aimport scipy as sp\u000afrom numpy import nan  # Must follow sympy import \u000a\u000axlsx_path = '/mnt/hgfs/josephhellerstein/home/Technical/SciSheets/CaseStudies/Kristen/workbooks/data.xlsx'\u000agene = ParmValues[0]\u000arun = ParmValues[1] == 'True'\u000ashow_raw = ParmValues[2] == 'True'\u000ashow_block1 = ParmValues[3] == 'True'\u000ashow_block2 = ParmValues[4] == 'True'\u000ashow_block3 = ParmValues[5] == 'True'\u000ashow_params = ParmValues[8] == 'True'\u000a#show_params = True\u000amax_std  = float(ParmValues[6])\u000amin_eff = float(ParmValues[7])\u000aworksheet = gene + "-I"\u000as.getTable().setIsEvaluateFormulas(run)\u000as.setColumnVisibility()\u000as.setColumnVisibility(['Groups', 'GroupedEff', 'GroupedCt', 'StdFilteredGroupedCt', 'MeanCt', 'StdCt'], is_visible=show_block1)\u000as.setColumnVisibility(['BioRuns', 'Gene_I', 'Gene_R1', 'Gene_R2', 'ExprR1', 'ExprR2', 'GeoMean'], is_visible=show_block2)\u000as.setColumnVisibility(['GeoGroups', 'GroupedGeoMeans', 'NrmlGeoGroupedMeans', 'MeanNrmlGeoGroups', 'StdNrmlGeoGroups'], is_visible=show_block3)\u000aif False:\u000a  Groups = []\u000a  GroupedCt = []\u000a  GroupedEff = []\u000a  MeanCt = []\u000a  Imp = []\u000a  s.deleteColumn('Ct')\u000a  s.deleteColumn('RunType')\u000a  s.deleteColumn('BRpl')\u000a  s.deleteColumn('TRpl')\u000a  s.deleteColumn('Treatment')\u000a  s.deleteColumn('Eff')\u000aif run:\u000a  importExcelToTable(s, xlsx_path, worksheet=worksheet,\u000a      column_position='ParmValues',\u000a      names=['Treatment', 'RunType', 'BRpl', 'TRpl', 'Eff', 'Ct'])\u000as.setColumnVisibility(['BRpl', 'Ct', 'Eff', 'RunType', 'TRpl', 'Treatment'], is_visible=show_raw)\u000as.setColumnVisibility(['ParmNames', 'ParmValues'], show_params)
p787
sbsS'_epilogue'
p788
g0
(g435
g2
Ntp789
Rp790
(dp791
g439
V# Epilogue\u000aif run:\u000a  worksheet = "%s-O" % gene\u000a  exportTableToExcel(s, xlsx_path, worksheet=worksheet, columns=['GeoGroups', 'MeanNrmlGeoGroups', 'StdNrmlGeoGroups'])\u000a
p792
sg441
g786
sg443
I00
sg444
I00
sg445
V# Epilogue\u000aif run:\u000a  worksheet = "%s-O" % gene\u000a  exportTableToExcel(s, xlsx_path, worksheet=worksheet, columns=['GeoGroups', 'MeanNrmlGeoGroups', 'StdNrmlGeoGroups'])\u000a
p793
sbsg441
g786
sS'_columns'
p794
(lp795
g0
(g290
g2
Ntp796
Rp797
(dp798
g294
I01
sg295
g4
sg296
(lp799
S'1'
p800
aS'2'
p801
aS'3'
p802
aS'4'
p803
aS'5'
p804
aS'6'
p805
aS'7'
p806
aS'8'
p807
aS'9'
p808
aS'10'
p809
aS'11'
p810
aS'12'
p811
aS'13'
p812
aS'14'
p813
aS'15'
p814
aS'16'
p815
aS'17'
p816
aS'18'
p817
aS'19'
p818
aS'20'
p819
aS'21'
p820
aS'22'
p821
aS'23'
p822
aS'24'
p823
aS'25'
p824
aS'26'
p825
aS'27'
p826
aS'28'
p827
aS'29'
p828
aS'30'
p829
aS'31'
p830
aS'32'
p831
aS'33'
p832
aS'34'
p833
aS'35'
p834
aS'36'
p835
aS'37'
p836
aS'38'
p837
aS'39'
p838
aS'40'
p839
aS'41'
p840
aS'42'
p841
aS'43'
p842
aS'44'
p843
aS'45'
p844
aS'46'
p845
aS'47'
p846
aS'48'
p847
aS'49'
p848
aS'50'
p849
aS'51'
p850
aS'52'
p851
aS'53'
p852
aS'54'
p853
aS'55'
p854
aS'56'
p855
aS'57'
p856
aS'58'
p857
aS'59'
p858
aS'60'
p859
aS'61'
p860
aS'62'
p861
aS'63'
p862
aS'64'
p863
asg434
g0
(g435
g2
Ntp864
Rp865
(dp866
g439
Nsg480
g797
sg443
I00
sg444
I00
sg445
Nsbsg447
g0
(g448
g449
(g450
g451
tp867
tp868
Rp869
sg441
S'row'
p870
sbag0
(g290
g2
Ntp871
Rp872
(dp873
g294
I00
sg295
g4
sg296
(lp874
Vgene
p875
aVrun
p876
aVshow_raw
p877
aVshow_block1
p878
aVshow_block2
p879
aVshow_block3
p880
aVmax_std
p881
aVmin_eff
p882
aVshow_params
p883
aVnan
p884
aVnan
p885
aVnan
p886
aVnan
p887
aVnan
p888
aVnan
p889
aVnan
p890
aVnan
p891
aVnan
p892
aVnan
p893
aVnan
p894
aVnan
p895
aVnan
p896
aVnan
p897
aVnan
p898
aVnan
p899
aVnan
p900
aVnan
p901
aVnan
p902
aVnan
p903
aVnan
p904
aVnan
p905
aVnan
p906
aVnan
p907
aVnan
p908
aVnan
p909
aVnan
p910
aVnan
p911
aVnan
p912
aVnan
p913
aVnan
p914
aVnan
p915
aVnan
p916
aVnan
p917
aVnan
p918
aVnan
p919
aVnan
p920
aVnan
p921
aVnan
p922
aVnan
p923
aVnan
p924
aVnan
p925
aVnan
p926
aVnan
p927
aVnan
p928
aNaNaNaNaNaNaNaNaNaNasg434
g0
(g435
g2
Ntp929
Rp930
(dp931
g439
Nsg480
g872
sg443
I00
sg444
I00
sg445
Nsbsg447
g0
(g448
g449
(g450
g451
tp932
tp933
Rp934
sg441
VParmNames
p935
sbag0
(g290
g2
Ntp936
Rp937
(dp938
g294
I00
sg295
g4
sg296
(lp939
VGene2
p940
aVTrue
p941
aVFalse
p942
aVFalse
p943
aVFalse
p944
aVTrue
p945
aF0.5
aV0.7
p946
aVTrue
p947
aV
p948
aVnan
p949
aVnan
p950
aVnan
p951
aVnan
p952
aVnan
p953
aVnan
p954
aVnan
p955
aVnan
p956
aVnan
p957
aVnan
p958
aVnan
p959
aVnan
p960
aVnan
p961
aVnan
p962
aVnan
p963
aVnan
p964
aVnan
p965
aVnan
p966
aVnan
p967
aVnan
p968
aVnan
p969
aVnan
p970
aVnan
p971
aVnan
p972
aVnan
p973
aVnan
p974
aVnan
p975
aVnan
p976
aVnan
p977
aVnan
p978
aVnan
p979
aVnan
p980
aVnan
p981
aVnan
p982
aVnan
p983
aVnan
p984
aVnan
p985
aVnan
p986
aVnan
p987
aVnan
p988
aVnan
p989
aVnan
p990
aVnan
p991
aVnan
p992
aNaNaNaNaNaNaNaNaNaNasg434
g0
(g435
g2
Ntp993
Rp994
(dp995
g439
Nsg441
VParmValues
p996
sg443
I00
sg444
I00
sg445
Nsbsg447
g0
(g448
g449
(g450
g451
tp997
tp998
Rp999
sg441
g996
sbag773
ag718
ag691
ag762
ag710
ag702
ag292
ag456
ag486
ag515
ag546
ag559
ag570
ag625
ag636
ag644
ag652
ag665
ag678
ag0
(g290
g2
Ntp1000
Rp1001
(dp1002
g294
I00
sg295
g4
sg296
(lp1003
(lp1004
g299
(g303
S'\x00\x00\x00\x00\x00\x00\x00\x00'
p1005
tp1006
Rp1007
aa(lp1008
g299
(g303
S'\x01\x00\x00\x00\x00\x00\x00\x00'
p1009
tp1010
Rp1011
aa(lp1012
g299
(g303
S'\x02\x00\x00\x00\x00\x00\x00\x00'
p1013
tp1014
Rp1015
aa(lp1016
g299
(g303
S'\x03\x00\x00\x00\x00\x00\x00\x00'
p1017
tp1018
Rp1019
aaNaNaNaNaNaNaNaNaNaNaNaNaNaNaNaNaNaNaNaNaNaNaNaNaNaNaNaNaNaNaNaNaNaNaNaNaNaNaNaNaNaNaNaNaNaNaNaNaNaNaNaNaNaNaNaNaNaNaNaNasg434
g0
(g435
g2
Ntp1020
Rp1021
(dp1022
g439
Vcat_vals = [br[0] for br in pruneNulls(BioRuns)]\u000aclean_geo = [x for x in GeoMean if x is not None]\u000aGeoGroups, groupedGeoMeans = groupBy(cat_vals, clean_geo)\u000aGroupedGeoMeans = roundValues(groupedGeoMeans, 3)\u000aGeoGroups = [[x] for x in GeoGroups]
p1023
sg441
VGeoGroups
p1024
sg443
I00
sg444
I00
sg445
Vcat_vals = [br[0] for br in pruneNulls(BioRuns)]\u000aclean_geo = [x for x in GeoMean if x is not None]\u000aGeoGroups, groupedGeoMeans = groupBy(cat_vals, clean_geo)\u000aGroupedGeoMeans = roundValues(groupedGeoMeans, 3)\u000aGeoGroups = [[x] for x in GeoGroups]
p1025
sbsg447
g0
(g448
g449
(g450
g451
tp1026
tp1027
Rp1028
sg441
g1024
sbag0
(g290
g2
Ntp1029
Rp1030
(dp1031
g294
I00
sg295
g4
sg296
(lp1032
cnumpy.core.multiarray
_reconstruct
p1033
(g450
(I0
tp1034
S'b'
p1035
tp1036
Rp1037
(I1
(I1
tp1038
g300
(S'f8'
p1039
I0
I1
tp1040
Rp1041
(I3
S'<'
p1042
NNNI-1
I-1
I0
tp1043
bI00
S'\xa2E\xb6\xf3\xfd\xd4\xfc?'
p1044
tp1045
bag1033
(g450
(I0
tp1046
g1035
tp1047
Rp1048
(I1
(I3
tp1049
g1041
I00
S'\x0e-\xb2\x9d\xef\xa7\xd6?\x0c\x02+\x87\x16\xd9\xfc?B`\xe5\xd0"\xdb\xfb?'
p1050
tp1051
bag1033
(g450
(I0
tp1052
g1035
tp1053
Rp1054
(I1
(I1
tp1055
g1041
I00
S'9\xb4\xc8v\xbe\x9f\x06@'
p1056
tp1057
bag1033
(g450
(I0
tp1058
g1035
tp1059
Rp1060
(I1
(I1
tp1061
g1041
I00
S'\x00\x00\x00\x00\x00\x00\xfa?'
p1062
tp1063
baNaNaNaNaNaNaNaNaNaNaNaNaNaNaNaNaNaNaNaNaNaNaNaNaNaNaNaNaNaNaNaNaNaNaNaNaNaNaNaNaNaNaNaNaNaNaNaNaNaNaNaNaNaNaNaNaNaNaNaNasg434
g0
(g435
g2
Ntp1064
Rp1065
(dp1066
g439
Nsg480
g1030
sg443
I00
sg444
I00
sg445
Nsbsg447
g0
(g448
g449
(g450
g451
tp1067
tp1068
Rp1069
sg441
VGroupedGeoMeans
p1070
sbag0
(g290
g2
Ntp1071
Rp1072
(dp1073
g294
I00
sg295
g4
sg296
(lp1074
g1033
(g450
(I0
tp1075
g1035
tp1076
Rp1077
(I1
(I1
tp1078
g1041
I00
S'\x00\x00\x00\x00\x00\x00\xf0?'
p1079
tp1080
bag1033
(g450
(I0
tp1081
g1035
tp1082
Rp1083
(I1
(I3
tp1084
g1041
I00
S'J\x0c\x02+\x87\x16\xc9?j\xbct\x93\x18\x04\xf0?\xb6\xf3\xfd\xd4x\xe9\xee?'
p1085
tp1086
bag1033
(g450
(I0
tp1087
g1035
tp1088
Rp1089
(I1
(I1
tp1090
g1041
I00
S'\xb4\xc8v\xbe\x9f\x1a\xf9?'
p1091
tp1092
bag1033
(g450
(I0
tp1093
g1035
tp1094
Rp1095
(I1
(I1
tp1096
g1041
I00
S'w\xbe\x9f\x1a/\xdd\xec?'
p1097
tp1098
baNaNaNaNaNaNaNaNaNaNaNaNaNaNaNaNaNaNaNaNaNaNaNaNaNaNaNaNaNaNaNaNaNaNaNaNaNaNaNaNaNaNaNaNaNaNaNaNaNaNaNaNaNaNaNaNaNaNaNaNasg434
g0
(g435
g2
Ntp1099
Rp1100
(dp1101
g439
Vref = np.mean(GroupedGeoMeans[0])\u000aNrmlGeoGroupedMeans = [ [x/ref for x in g] for g in GroupedGeoMeans if g is not None]  \u000aNrmlGeoGroupedMeans = roundValues(NrmlGeoGroupedMeans, 3)
p1102
sg441
VNrmlGeoGroupedMeans
p1103
sg443
I00
sg444
I00
sg445
Vref = np.mean(GroupedGeoMeans[0])\u000aNrmlGeoGroupedMeans = [ [x/ref for x in g] for g in GroupedGeoMeans if g is not None]  \u000aNrmlGeoGroupedMeans = roundValues(NrmlGeoGroupedMeans, 3)
p1104
sbsg447
g0
(g448
g449
(g450
g451
tp1105
tp1106
Rp1107
sg441
g1103
sbag0
(g290
g2
Ntp1108
Rp1109
(dp1110
g294
I00
sg295
g4
sg296
(lp1111
F1.0
aF0.721
aF1.569
aF0.902
aFnan
aFnan
aFnan
aFnan
aFnan
aFnan
aFnan
aFnan
aFnan
aFnan
aFnan
aFnan
aFnan
aFnan
aFnan
aFnan
aFnan
aFnan
aFnan
aFnan
aFnan
aFnan
aFnan
aFnan
aFnan
aFnan
aFnan
aFnan
aFnan
aFnan
aFnan
aFnan
aFnan
aFnan
aFnan
aFnan
aFnan
aFnan
aFnan
aFnan
aFnan
aFnan
aFnan
aFnan
aFnan
aFnan
aFnan
aFnan
aFnan
aFnan
aFnan
aFnan
aFnan
aFnan
aFnan
aFnan
aFnan
aFnan
aFnan
aFnan
asg434
g0
(g435
g2
Ntp1112
Rp1113
(dp1114
g439
VMeanNrmlGeoGroups = [round(np.mean(g), 3) for g in NrmlGeoGroupedMeans]
p1115
sg441
VMeanNrmlGeoGroups
p1116
sg443
I01
sg444
I00
sg445
V[round(np.mean(g), 3) for g in NrmlGeoGroupedMeans]
p1117
sbsg447
g0
(g448
g449
(g450
g451
tp1118
tp1119
Rp1120
sg441
g1116
sbag0
(g290
g2
Ntp1121
Rp1122
(dp1123
g294
I00
sg295
g4
sg296
(lp1124
Fnan
aF0.263
aFnan
aFnan
aFnan
aFnan
aFnan
aFnan
aFnan
aFnan
aFnan
aFnan
aFnan
aFnan
aFnan
aFnan
aFnan
aFnan
aFnan
aFnan
aFnan
aFnan
aFnan
aFnan
aFnan
aFnan
aFnan
aFnan
aFnan
aFnan
aFnan
aFnan
aFnan
aFnan
aFnan
aFnan
aFnan
aFnan
aFnan
aFnan
aFnan
aFnan
aFnan
aFnan
aFnan
aFnan
aFnan
aFnan
aFnan
aFnan
aFnan
aFnan
aFnan
aFnan
aFnan
aFnan
aFnan
aFnan
aFnan
aFnan
aFnan
aFnan
aFnan
aFnan
asg434
g0
(g435
g2
Ntp1125
Rp1126
(dp1127
g439
VStdNrmlGeoGroups = [round(np.std(g, ddof=1)/np.sqrt(len(g)), 3) for g in NrmlGeoGroupedMeans]\u000a
p1128
sg441
VStdNrmlGeoGroups
p1129
sg443
I01
sg444
I00
sg445
V[round(np.std(g, ddof=1)/np.sqrt(len(g)), 3) for g in NrmlGeoGroupedMeans]\u000a
p1130
sbsg447
g0
(g448
g449
(g450
g451
tp1131
tp1132
Rp1133
sg441
g1129
sbasg283
V/home/ubuntu/SciSheets/mysite/user/guest/tables/kristen_single_gene.pcl
p1134
sb.