ccopy_reg
_reconstructor
p0
(cscisheets.ui.dt_table
DTTable
p1
c__builtin__
object
p2
Ntp3
Rp4
(dp5
S'_hidden_columns'
p6
(lp7
g0
(cscisheets.core.column
Column
p8
g2
Ntp9
Rp10
(dp11
S'_asis'
p12
I00
sS'_owning_table'
p13
g4
sS'_cells'
p14
(lp15
I1
aI1
aI1
aI2
aI2
aI2
aI3
aI3
aI3
aI1
aI1
aI1
aI1
aI1
aI1
aI1
aI1
aI1
aI1
aI1
aI1
aI2
aI2
aI2
aI3
aI3
aI3
aI1
aI1
aI1
aI1
aI1
aI1
aI1
aI1
aI1
aI1
aI1
aI1
aI2
aI2
aI2
aI3
aI3
aI3
aI1
aI1
aI1
aI1
aI1
aI1
aI1
aI1
aI1
asS'_formula_statement'
p16
g0
(cscisheets.core.column
FormulaStatement
p17
g2
Ntp18
Rp19
(dp20
S'_statement'
p21
NsS'_column'
p22
g10
sS'_isExpression'
p23
I00
sS'_isStatement'
p24
I00
sS'_formula'
p25
NsbsS'_data_class'
p26
g0
(cscisheets.core.helpers.api_util
DataClass
p27
c__builtin__
tuple
p28
(cnumpy
ndarray
p29
cscisheets.core.helpers.api_util
makeArray
p30
tp31
tp32
Rp33
sS'_name'
p34
S'BRpl'
p35
sbag0
(g8
g2
Ntp36
Rp37
(dp38
g12
I00
sg13
g4
sg14
(lp39
F22.42
aF22.5
aF22.44
aF21.92
aF22.03
aF21.94
aF23.4
aF23.47
aF23.41
aF23.48
aF23.31
aF23.45
aF18.82
aF18.97
aF18.92
aF18.31
aF18.29
aF18.15
aF19.92
aF19.85
aF20.0
aF21.86
aF22.09
aF21.84
aF23.89
aF23.54
aF24.27
aF23.22
aF23.8
aF23.49
aF18.91
aF18.78
aF18.8
aF18.24
aF18.22
aF18.36
aF22.18
aF21.71
aF21.75
aF23.88
aF23.42
aF23.63
aF24.59
aF24.61
aF24.34
aF26.37
aF26.36
aF26.17
aF20.5
aF20.47
aF20.28
aF19.72
aF19.75
aF20.01
asg16
g0
(g17
g2
Ntp40
Rp41
(dp42
g21
Nsg22
g37
sg23
I00
sg24
I00
sg25
Nsbsg26
g33
sg34
S'Ct'
p43
sbag0
(g8
g2
Ntp44
Rp45
(dp46
g12
I00
sg13
g4
sg14
(lp47
F0.8453
aF0.8426
aF0.8524
aF0.8658
aF0.7809
aF0.8512
aF0.8442
aF0.8357
aF0.7658
aF0.8352
aF0.7886
aF0.8105
aF0.876
aF0.8597
aF0.8873
aF0.919
aF0.9106
aF0.9129
aF0.9179
aF0.9783
aF0.8971
aF0.8957
aF0.8287
aF0.8387
aF0.8746
aF0.8493
aF0.8349
aF0.7701
aF0.8746
aF0.8139
aF0.8715
aF0.8977
aF0.856
aF0.8266
aF0.8343
aF0.8496
aF0.7857
aF0.8427
aF0.8637
aF0.8281
aF0.8203
aF0.8288
aF0.8138
aF0.8242
aF0.804
aF0.7795
aF0.7676
aF0.7947
aF0.8179
aF0.8173
aF0.7894
aF0.8157
aF0.8543
aF0.8208
asg16
g0
(g17
g2
Ntp48
Rp49
(dp50
g21
Nsg22
g45
sg23
I00
sg24
I00
sg25
Nsbsg26
g33
sg34
S'Eff'
p51
sbag0
(g8
g2
Ntp52
Rp53
(dp54
g12
I00
sg13
g4
sg14
(lp55
VI
p56
ag56
ag56
ag56
ag56
ag56
ag56
ag56
ag56
ag56
ag56
ag56
ag56
ag56
ag56
ag56
ag56
ag56
aVR1
p57
aVR1
p58
aVR1
p59
aVR1
p60
aVR1
p61
aVR1
p62
aVR1
p63
aVR1
p64
aVR1
p65
aVR1
p66
aVR1
p67
aVR1
p68
aVR1
p69
aVR1
p70
aVR1
p71
aVR1
p72
aVR1
p73
aVR1
p74
aVR2
p75
aVR2
p76
aVR2
p77
aVR2
p78
aVR2
p79
aVR2
p80
aVR2
p81
aVR2
p82
aVR2
p83
aVR2
p84
aVR2
p85
aVR2
p86
aVR2
p87
aVR2
p88
aVR2
p89
aVR2
p90
aVR2
p91
aVR2
p92
asg16
g0
(g17
g2
Ntp93
Rp94
(dp95
g21
Nsg22
g53
sg23
I00
sg24
I00
sg25
Nsbsg26
g33
sg34
S'RunType'
p96
sbag0
(g8
g2
Ntp97
Rp98
(dp99
g12
I00
sg13
g4
sg14
(lp100
VSEP1 2012 P17F4 3a
p101
aVSEP1 2012 P17F4 b
p102
aVSEP1 2012 P17F4 c
p103
aVSEP1 2012 P17F5 a
p104
aVSEP1 2012 P17F5 b
p105
aVSEP1 2012 P17F5 c
p106
aVSEP1 2012 P1F3 SEP1a
p107
aVSEP1 2012 P1F3 SEP1b
p108
aVSEP1 2012 P1F3 SEP1c
p109
aVSEP1-2 2012 P11aF2 a
p110
aVSEP1-2 2012 P11aF2 b
p111
aVSEP1-2 2012 P11aF2 c
p112
aVSEP1-3 2012 P15F2 a
p113
aVSEP1-3 2012 P15F2 b
p114
aVSEP1-3 2012 P15F2 c
p115
aVuntreated 2012 P12F1 SEP3-3 1:2a
p116
aVuntreated 2012 P12F1 SEP3-3 1:2b
p117
aVuntreated 2012 P12F1 SEP3-3 1:2c
p118
aVSEP1 2012 P17F4 ACTa
p119
aVSEP1 2012 P17F4 ACTb
p120
aVSEP1 2012 P17F4 ACTc
p121
aVSEP1 2012 P17F5 ACTa
p122
aVSEP1 2012 P17F5 ACTb
p123
aVSEP1 2012 P17F5 ACTc
p124
aVSEP1 2012 P1F3 ACTa
p125
aVSEP1 2012 P1F3 ACTb
p126
aVSEP1 2012 P1F3 ACTc
p127
aVSEP1-2 2012 P11aF2 ACTa
p128
aVSEP1-2 2012 P11aF2 ACTb
p129
aVSEP1-2 2012 P11aF2 ACTc
p130
aVSEP1-3 2012 P15F2 ACTa
p131
aVSEP1-3 2012 P15F2 ACTb
p132
aVSEP1-3 2012 P15F2 ACTc
p133
aVuntreated 2012 P12F1 ACTa
p134
aVuntreated 2012 P12F1 ACTb
p135
aVuntreated 2012 P12F1 ACTc
p136
aVSEP1 2012 P17F4 EEF1a
p137
aVSEP1 2012 P17F4 EEF1b
p138
aVSEP1 2012 P17F4 EEF1c
p139
aVSEP1 2012 P17F5 EEF1a
p140
aVSEP1 2012 P17F5 EEF1b
p141
aVSEP1 2012 P17F5 EEF1c
p142
aVSEP1 2012 P1F3 EEF1a
p143
aVSEP1 2012 P1F3 EEF1b
p144
aVSEP1 2012 P1F3 EEF1c
p145
aVSEP1-2 2012 P11aF2 EEF1a
p146
aVSEP1-2 2012 P11aF2 EEF1b
p147
aVSEP1-2 2012 P11aF2 EEF1c
p148
aVSEP1-3 2012 P15F2 EEF1a
p149
aVSEP1-3 2012 P15F2 EEF1b
p150
aVSEP1-3 2012 P15F2 EEF1c
p151
aVuntreated 2012 P12F1 EEF1a
p152
aVuntreated 2012 P12F1 EEF1b
p153
aVuntreated 2012 P12F1 EEF1c
p154
asg16
g0
(g17
g2
Ntp155
Rp156
(dp157
g21
Nsg22
g98
sg23
I00
sg24
I00
sg25
Nsbsg26
g33
sg34
S'SmplName'
p158
sbag0
(g8
g2
Ntp159
Rp160
(dp161
g12
I00
sg13
g4
sg14
(lp162
Va
p163
aVb
p164
aVc
p165
ag163
ag164
ag165
ag163
ag164
ag165
ag163
ag164
ag165
ag163
ag164
ag165
ag163
ag164
ag165
ag163
ag164
ag165
ag163
ag164
ag165
ag163
ag164
ag165
ag163
ag164
ag165
ag163
ag164
ag165
ag163
ag164
ag165
ag163
ag164
ag165
ag163
ag164
ag165
ag163
ag164
ag165
ag163
ag164
ag165
ag163
ag164
ag165
ag163
ag164
ag165
asg16
g0
(g17
g2
Ntp166
Rp167
(dp168
g21
Nsg22
g160
sg23
I00
sg24
I00
sg25
Nsbsg26
g33
sg34
S'TRpl'
p169
sbag0
(g8
g2
Ntp170
Rp171
(dp172
g12
I00
sg13
g4
sg14
(lp173
I1
aI1
aI1
aI1
aI1
aI1
aI1
aI1
aI1
aI2
aI2
aI2
aI3
aI3
aI3
aI0
aI0
aI0
aI1
aI1
aI1
aI1
aI1
aI1
aI1
aI1
aI1
aI2
aI2
aI2
aI3
aI3
aI3
aI0
aI0
aI0
aI1
aI1
aI1
aI1
aI1
aI1
aI1
aI1
aI1
aI2
aI2
aI2
aI3
aI3
aI3
aI0
aI0
aI0
asg16
g0
(g17
g2
Ntp174
Rp175
(dp176
g21
Nsg22
g171
sg23
I00
sg24
I00
sg25
Nsbsg26
g33
sg34
S'Treatment'
p177
sbasS'_columns'
p178
(lp179
g0
(g8
g2
Ntp180
Rp181
(dp182
g12
I01
sg13
g4
sg14
(lp183
S'1'
p184
aS'2'
p185
aS'3'
p186
aS'4'
p187
aS'5'
p188
aS'6'
p189
aS'7'
p190
aS'8'
p191
aS'9'
p192
aS'10'
p193
aS'11'
p194
aS'12'
p195
aS'13'
p196
aS'14'
p197
aS'15'
p198
aS'16'
p199
aS'17'
p200
aS'18'
p201
aS'19'
p202
aS'20'
p203
aS'21'
p204
aS'22'
p205
aS'23'
p206
aS'24'
p207
aS'25'
p208
aS'26'
p209
aS'27'
p210
aS'28'
p211
aS'29'
p212
aS'30'
p213
aS'31'
p214
aS'32'
p215
aS'33'
p216
aS'34'
p217
aS'35'
p218
aS'36'
p219
aS'37'
p220
aS'38'
p221
aS'39'
p222
aS'40'
p223
aS'41'
p224
aS'42'
p225
aS'43'
p226
aS'44'
p227
aS'45'
p228
aS'46'
p229
aS'47'
p230
aS'48'
p231
aS'49'
p232
aS'50'
p233
aS'51'
p234
aS'52'
p235
aS'53'
p236
aS'54'
p237
asg16
g0
(g17
g2
Ntp238
Rp239
(dp240
g21
Nsg22
g181
sg23
I00
sg24
I00
sg25
Nsbsg26
g0
(g27
g28
(g29
g30
tp241
tp242
Rp243
sg34
S'row'
p244
sbag0
(g8
g2
Ntp245
Rp246
(dp247
g12
I00
sg13
g4
sg14
(lp248
Vgene
p249
aVrun
p250
aVshow_raw
p251
aVshow_groups
p252
aVnan
p253
aVnan
p254
aVnan
p255
aVnan
p256
aVnan
p257
aVnan
p258
aVnan
p259
aVnan
p260
aVnan
p261
aVnan
p262
aVnan
p263
aVnan
p264
aVnan
p265
aVnan
p266
aVnan
p267
aVnan
p268
aVnan
p269
aVnan
p270
aVnan
p271
aVnan
p272
aVnan
p273
aVnan
p274
aVnan
p275
aVnan
p276
aVnan
p277
aVnan
p278
aVnan
p279
aVnan
p280
aVnan
p281
aVnan
p282
aVnan
p283
aVnan
p284
aVnan
p285
aVnan
p286
aVnan
p287
aVnan
p288
aVnan
p289
aVnan
p290
aVnan
p291
aVnan
p292
aVnan
p293
aVnan
p294
aVnan
p295
aVnan
p296
aVnan
p297
aVnan
p298
aVnan
p299
aVnan
p300
aVnan
p301
aVnan
p302
asg16
g0
(g17
g2
Ntp303
Rp304
(dp305
g21
Nsg22
g246
sg23
I00
sg24
I00
sg25
Nsbsg26
g0
(g27
g28
(g29
g30
tp306
tp307
Rp308
sg34
VParmNames
p309
sbag0
(g8
g2
Ntp310
Rp311
(dp312
g12
I00
sg13
g4
sg14
(lp313
VGene2
p314
aVTrue
p315
aVFalse
p316
aVTrue
p317
aV
p318
aVnan
p319
aVnan
p320
aVnan
p321
aVnan
p322
aVnan
p323
aVnan
p324
aVnan
p325
aVnan
p326
aVnan
p327
aVnan
p328
aVnan
p329
aVnan
p330
aVnan
p331
aVnan
p332
aVnan
p333
aVnan
p334
aVnan
p335
aVnan
p336
aVnan
p337
aVnan
p338
aVnan
p339
aVnan
p340
aVnan
p341
aVnan
p342
aVnan
p343
aVnan
p344
aVnan
p345
aVnan
p346
aVnan
p347
aVnan
p348
aVnan
p349
aVnan
p350
aVnan
p351
aVnan
p352
aVnan
p353
aVnan
p354
aVnan
p355
aVnan
p356
aVnan
p357
aVnan
p358
aVnan
p359
aVnan
p360
aVnan
p361
aVnan
p362
aVnan
p363
aVnan
p364
aVnan
p365
aVnan
p366
aVnan
p367
asg16
g0
(g17
g2
Ntp368
Rp369
(dp370
g21
Vxlsx_path = '/mnt/hgfs/josephhellerstein/home/Technical/SciSheets/CaseStudies/Kristen/workbooks/data.xlsx'\u000as.setColumnVisibility()\u000agene = ParmValues[0]\u000arun = ParmValues[1] == 'True'\u000ashow_raw = ParmValues[2] == 'True'\u000ashow_groups = ParmValues[3] == 'True'\u000aworksheet = gene + "-I"\u000aif False:\u000a  Groups = []\u000a  GroupedCt = []\u000a  GroupedEff = []\u000a  MeanCt = []\u000a  Imp = []\u000a  s.deleteColumn('Ct')\u000a  s.deleteColumn('RunType')\u000a  s.deleteColumn('BRpl')\u000a  s.deleteColumn('TRpl')\u000a  s.deleteColumn('Treatment')\u000a  s.deleteColumn('SmplName')\u000a  s.deleteColumn('Eff')\u000aif run:\u000a  importExcelToTable(s, xlsx_path, worksheet=worksheet)\u000a  BRpl = s.getColumnValues('BRpl')\u000a  Ct = s.getColumnValues('Ct')\u000a  Eff = s.getColumnValues('Eff')\u000a  RunType = s.getColumnValues('RunType')\u000a  TRpl = s.getColumnValues('TRpl')\u000a  Treatment = s.getColumnValues('Treatment')\u000a  s.setColumnVisibility(['BRpl', 'Ct', 'Eff', 'RunType', 'SmplName', 'TRpl', 'Treatment'], is_visible=show_raw)
p371
sg22
g311
sg23
I00
sg24
I00
sg25
Vxlsx_path = '/mnt/hgfs/josephhellerstein/home/Technical/SciSheets/CaseStudies/Kristen/workbooks/data.xlsx'\u000as.setColumnVisibility()\u000agene = ParmValues[0]\u000arun = ParmValues[1] == 'True'\u000ashow_raw = ParmValues[2] == 'True'\u000ashow_groups = ParmValues[3] == 'True'\u000aworksheet = gene + "-I"\u000aif False:\u000a  Groups = []\u000a  GroupedCt = []\u000a  GroupedEff = []\u000a  MeanCt = []\u000a  Imp = []\u000a  s.deleteColumn('Ct')\u000a  s.deleteColumn('RunType')\u000a  s.deleteColumn('BRpl')\u000a  s.deleteColumn('TRpl')\u000a  s.deleteColumn('Treatment')\u000a  s.deleteColumn('SmplName')\u000a  s.deleteColumn('Eff')\u000aif run:\u000a  importExcelToTable(s, xlsx_path, worksheet=worksheet)\u000a  BRpl = s.getColumnValues('BRpl')\u000a  Ct = s.getColumnValues('Ct')\u000a  Eff = s.getColumnValues('Eff')\u000a  RunType = s.getColumnValues('RunType')\u000a  TRpl = s.getColumnValues('TRpl')\u000a  Treatment = s.getColumnValues('Treatment')\u000a  s.setColumnVisibility(['BRpl', 'Ct', 'Eff', 'RunType', 'SmplName', 'TRpl', 'Treatment'], is_visible=show_raw)
p372
sbsg26
g0
(g27
g28
(g29
g30
tp373
tp374
Rp375
sg34
VParmValues
p376
sbag0
(g8
g2
Ntp377
Rp378
(dp379
g12
I00
sg13
g4
sg14
(lp380
(lp381
g184
aS'I'
p382
aS'0'
p383
aa(lp384
g184
aS'I'
p385
ag184
aa(lp386
g184
aS'I'
p387
ag185
aa(lp388
g184
aS'I'
p389
ag186
aa(lp390
g184
aS'R1'
p391
ag383
aa(lp392
g184
aS'R1'
p393
ag184
aa(lp394
g184
aS'R1'
p395
ag185
aa(lp396
g184
aS'R1'
p397
ag186
aa(lp398
g184
aS'R2'
p399
ag383
aa(lp400
g184
aS'R2'
p401
ag184
aa(lp402
g184
aS'R2'
p403
ag185
aa(lp404
g184
aS'R2'
p405
ag186
aa(lp406
g185
aS'I'
p407
ag184
aa(lp408
g185
aS'R1'
p409
ag184
aa(lp410
g185
aS'R2'
p411
ag184
aa(lp412
g186
aS'I'
p413
ag184
aa(lp414
g186
aS'R1'
p415
ag184
aa(lp416
g186
aS'R2'
p417
ag184
aaNaNaNaNaNaNaNaNaNaNaNaNaNaNaNaNaNaNaNaNaNaNaNaNaNaNaNaNaNaNaNaNaNaNaNaNasg16
g0
(g17
g2
Ntp418
Rp419
(dp420
g21
Vif run:\u000a  selector = Eff > 0.7\u000a  GroupingColumns =   [\u000a      BRpl[selector],\u000a      RunType[selector], \u000a      Treatment[selector]\u000a    ]\u000a  Groups, groupedCt = groupBy(\u000a    GroupingColumns, Ct[selector])\u000a  Groups, groupedEff = groupBy(\u000a    GroupingColumns, Eff[selector])\u000a  GroupedCt = roundValues(groupedCt)\u000a  GroupedEff = roundValues(groupedEff)
p421
sg22
g378
sg23
I00
sg24
I00
sg25
Vif run:\u000a  selector = Eff > 0.7\u000a  GroupingColumns =   [\u000a      BRpl[selector],\u000a      RunType[selector], \u000a      Treatment[selector]\u000a    ]\u000a  Groups, groupedCt = groupBy(\u000a    GroupingColumns, Ct[selector])\u000a  Groups, groupedEff = groupBy(\u000a    GroupingColumns, Eff[selector])\u000a  GroupedCt = roundValues(groupedCt)\u000a  GroupedEff = roundValues(groupedEff)
p422
sbsg26
g0
(g27
g28
(g29
g30
tp423
tp424
Rp425
sg34
VGroups
p426
sbag0
(g8
g2
Ntp427
Rp428
(dp429
g12
I00
sg13
g4
sg14
(lp430
(lp431
F0.9
aF0.9
aF0.9
aa(lp432
F0.8
aF0.8
aF0.9
aa(lp433
F0.8
aF0.8
aF0.8
aa(lp434
F0.9
aF0.9
aF0.9
aa(lp435
F0.8
aF0.8
aF0.8
aa(lp436
F0.9
aF1.0
aF0.9
aa(lp437
F0.8
aF0.9
aF0.8
aa(lp438
F0.9
aF0.9
aF0.9
aa(lp439
F0.8
aF0.9
aF0.8
aa(lp440
F0.8
aF0.8
aF0.9
aa(lp441
F0.8
aF0.8
aF0.8
aa(lp442
F0.8
aF0.8
aF0.8
aa(lp443
F0.9
aF0.8
aF0.9
aa(lp444
F0.9
aF0.8
aF0.8
aa(lp445
F0.8
aF0.8
aF0.8
aa(lp446
F0.8
aF0.8
aF0.8
aa(lp447
F0.9
aF0.8
aF0.8
aa(lp448
F0.8
aF0.8
aF0.8
aaNaNaNaNaNaNaNaNaNaNaNaNaNaNaNaNaNaNaNaNaNaNaNaNaNaNaNaNaNaNaNaNaNaNaNaNasg16
g0
(g17
g2
Ntp449
Rp450
(dp451
g21
Nsg22
g428
sg23
I00
sg24
I00
sg25
Nsbsg26
g0
(g27
g28
(g29
g30
tp452
tp453
Rp454
sg34
VGroupedEff
p455
sbag0
(g8
g2
Ntp456
Rp457
(dp458
g12
I00
sg13
g4
sg14
(lp459
(lp460
F18.3
aF18.3
aF18.1
aa(lp461
F22.4
aF22.5
aF22.4
aa(lp462
F23.5
aF23.3
aF23.4
aa(lp463
F18.8
aF19.0
aF18.9
aa(lp464
F18.2
aF18.2
aF18.4
aa(lp465
F19.9
aF19.9
aF20.0
aa(lp466
F23.2
aF23.8
aF23.5
aa(lp467
F18.9
aF18.8
aF18.8
aa(lp468
F19.7
aF19.8
aF20.0
aa(lp469
F22.2
aF21.7
aF21.8
aa(lp470
F26.4
aF26.4
aF26.2
aa(lp471
F20.5
aF20.5
aF20.3
aa(lp472
F21.9
aF22.0
aF21.9
aa(lp473
F21.9
aF22.1
aF21.8
aa(lp474
F23.9
aF23.4
aF23.6
aa(lp475
F23.4
aF23.5
aF23.4
aa(lp476
F23.9
aF23.5
aF24.3
aa(lp477
F24.6
aF24.6
aF24.3
aaNaNaNaNaNaNaNaNaNaNaNaNaNaNaNaNaNaNaNaNaNaNaNaNaNaNaNaNaNaNaNaNaNaNaNaNasg16
g0
(g17
g2
Ntp478
Rp479
(dp480
g21
Nsg22
g457
sg23
I00
sg24
I00
sg25
Nsbsg26
g0
(g27
g28
(g29
g30
tp481
tp482
Rp483
sg34
VGroupedCt
p484
sbag0
(g8
g2
Ntp485
Rp486
(dp487
g12
I00
sg13
g4
sg14
(lp488
F18.2
aF22.4
aF23.4
aF18.9
aF18.3
aF19.9
aF23.5
aF18.8
aF19.8
aF21.9
aF26.3
aF20.4
aF21.9
aF21.9
aF23.6
aF23.4
aF23.9
aF24.5
aFnan
aFnan
aFnan
aFnan
aFnan
aFnan
aFnan
aFnan
aFnan
aFnan
aFnan
aFnan
aFnan
aFnan
aFnan
aFnan
aFnan
aFnan
aFnan
aFnan
aFnan
aFnan
aFnan
aFnan
aFnan
aFnan
aFnan
aFnan
aFnan
aFnan
aFnan
aFnan
aFnan
aFnan
aFnan
aFnan
asg16
g0
(g17
g2
Ntp489
Rp490
(dp491
g21
VMeanCt = roundValues([np.mean(g) for g in GroupedCt],1)
p492
sg22
g486
sg23
I01
sg24
I00
sg25
VroundValues([np.mean(g) for g in GroupedCt],1)
p493
sbsg26
g0
(g27
g28
(g29
g30
tp494
tp495
Rp496
sg34
VMeanCt
p497
sbag0
(g8
g2
Ntp498
Rp499
(dp500
g12
I00
sg13
g4
sg14
(lp501
(lp502
S'1'
p503
aS'0'
p504
aa(lp505
g503
ag503
aa(lp506
g503
aS'2'
p507
aa(lp508
g503
aS'3'
p509
aa(lp510
g507
ag503
aa(lp511
g509
ag503
aaNaNaNaNaNaNaNaNaNaNaNaNaNaNaNaNaNaNaNaNaNaNaNaNaNaNaNaNaNaNaNaNaNaNaNaNaNaNaNaNaNaNaNaNaNaNaNaNasg16
g0
(g17
g2
Ntp512
Rp513
(dp514
g21
Vif run:\u000a  tabularize(s, 'Groups', 1, 'MeanCt', \u000a      new_category_colnm='BioRuns',\u000a      values_colnm_prefix='Gene_')\u000a  BioRuns = s.getColumnValues('BioRuns')
p515
sg22
g499
sg23
I00
sg24
I00
sg25
Vif run:\u000a  tabularize(s, 'Groups', 1, 'MeanCt', \u000a      new_category_colnm='BioRuns',\u000a      values_colnm_prefix='Gene_')\u000a  BioRuns = s.getColumnValues('BioRuns')
p516
sbsg26
g0
(g27
g28
(g29
g30
tp517
tp518
Rp519
sg34
VBioRuns
p520
sbag0
(g8
g2
Ntp521
Rp522
(dp523
g12
I00
sg13
g4
sg14
(lp524
F22.9
aF27.0
aF26.6
aF29.8
aF30.1
aF24.8
aFnan
aFnan
aFnan
aFnan
aFnan
aFnan
aFnan
aFnan
aFnan
aFnan
aFnan
aFnan
aFnan
aFnan
aFnan
aFnan
aFnan
aFnan
aFnan
aFnan
aFnan
aFnan
aFnan
aFnan
aFnan
aFnan
aFnan
aFnan
aFnan
aFnan
aFnan
aFnan
aFnan
aFnan
aFnan
aFnan
aFnan
aFnan
aFnan
aFnan
aFnan
aFnan
aFnan
aFnan
aFnan
aFnan
aFnan
aFnan
asg16
g0
(g17
g2
Ntp525
Rp526
(dp527
g21
Nsg22
g522
sg23
I00
sg24
I00
sg25
Nsbsg26
g0
(g27
g28
(g29
g30
tp528
tp529
Rp530
sg34
S'Gene_I'
p531
sbag0
(g8
g2
Ntp532
Rp533
(dp534
g12
I00
sg13
g4
sg14
(lp535
F18.3
aF19.9
aF21.9
aF23.9
aF23.5
aF18.8
aFnan
aFnan
aFnan
aFnan
aFnan
aFnan
aFnan
aFnan
aFnan
aFnan
aFnan
aFnan
aFnan
aFnan
aFnan
aFnan
aFnan
aFnan
aFnan
aFnan
aFnan
aFnan
aFnan
aFnan
aFnan
aFnan
aFnan
aFnan
aFnan
aFnan
aFnan
aFnan
aFnan
aFnan
aFnan
aFnan
aFnan
aFnan
aFnan
aFnan
aFnan
aFnan
aFnan
aFnan
aFnan
aFnan
aFnan
aFnan
asg16
g0
(g17
g2
Ntp536
Rp537
(dp538
g21
Nsg22
g533
sg23
I00
sg24
I00
sg25
Nsbsg26
g530
sg34
S'Gene_R1'
p539
sbag0
(g8
g2
Ntp540
Rp541
(dp542
g12
I00
sg13
g4
sg14
(lp543
F19.8
aF21.9
aF23.6
aF24.5
aF26.3
aF20.4
aFnan
aFnan
aFnan
aFnan
aFnan
aFnan
aFnan
aFnan
aFnan
aFnan
aFnan
aFnan
aFnan
aFnan
aFnan
aFnan
aFnan
aFnan
aFnan
aFnan
aFnan
aFnan
aFnan
aFnan
aFnan
aFnan
aFnan
aFnan
aFnan
aFnan
aFnan
aFnan
aFnan
aFnan
aFnan
aFnan
aFnan
aFnan
aFnan
aFnan
aFnan
aFnan
aFnan
aFnan
aFnan
aFnan
aFnan
aFnan
asg16
g0
(g17
g2
Ntp544
Rp545
(dp546
g21
Nsg22
g541
sg23
I00
sg24
I00
sg25
Nsbsg26
g530
sg34
S'Gene_R2'
p547
sbag10
ag37
ag45
ag53
ag98
ag160
ag171
asS'_filepath'
p548
V/home/ubuntu/SciSheets/mysite/user/guest/tables/kristen_single_gene.pcl
p549
sg34
VSingleGene
p550
sb.