ccopy_reg
_reconstructor
p0
(cscisheets.ui.dt_table
DTTable
p1
c__builtin__
object
p2
Ntp3
Rp4
(dp5
S'_versioned_file'
p6
g0
(cmysite.helpers.versioned_file
VersionedFile
p7
g2
Ntp8
Rp9
(dp10
S'_max_versions'
p11
I5
sS'_undo_stack'
p12
g0
(cmysite.helpers.file_stack
FileStack
p13
g2
Ntp14
Rp15
(dp16
S'_dirpath'
p17
S'/home/ubuntu/SciSheets/mysite/user/guest/tables/backup'
p18
sS'_max_depth'
p19
I5
sS'_filename_pfx'
p20
Vkristen_single_gene.u
p21
sbsS'_filepath'
p22
V/home/ubuntu/SciSheets/mysite/user/guest/tables/kristen_single_gene.pcl
p23
sS'_backup_dir'
p24
g18
sS'_redo_stack'
p25
g0
(g13
g2
Ntp26
Rp27
(dp28
g17
g18
sg19
I5
sg20
Vkristen_single_gene.r
p29
sbsbsS'_hidden_columns'
p30
(lp31
g0
(cscisheets.core.column
Column
p32
g2
Ntp33
Rp34
(dp35
S'_asis'
p36
I00
sS'_owning_table'
p37
g4
sS'_cells'
p38
(lp39
VSEP1 2012 P17F4 3a
p40
aVSEP1 2012 P17F4 b
p41
aVSEP1 2012 P17F4 c
p42
aVSEP1 2012 P17F5 a
p43
aVSEP1 2012 P17F5 b
p44
aVSEP1 2012 P17F5 c
p45
aVSEP1 2012 P1F3 SEP1a
p46
aVSEP1 2012 P1F3 SEP1b
p47
aVSEP1 2012 P1F3 SEP1c
p48
aVSEP1-2 2012 P11aF2 a
p49
aVSEP1-2 2012 P11aF2 b
p50
aVSEP1-2 2012 P11aF2 c
p51
aVSEP1-3 2012 P15F2 a
p52
aVSEP1-3 2012 P15F2 b
p53
aVSEP1-3 2012 P15F2 c
p54
aVuntreated 2012 P12F1 SEP3-3 1:2a
p55
aVuntreated 2012 P12F1 SEP3-3 1:2b
p56
aVuntreated 2012 P12F1 SEP3-3 1:2c
p57
aVSEP1 2012 P17F4 ACTa
p58
aVSEP1 2012 P17F4 ACTb
p59
aVSEP1 2012 P17F4 ACTc
p60
aVSEP1 2012 P17F5 ACTa
p61
aVSEP1 2012 P17F5 ACTb
p62
aVSEP1 2012 P17F5 ACTc
p63
aVSEP1 2012 P1F3 ACTa
p64
aVSEP1 2012 P1F3 ACTb
p65
aVSEP1 2012 P1F3 ACTc
p66
aVSEP1-2 2012 P11aF2 ACTa
p67
aVSEP1-2 2012 P11aF2 ACTb
p68
aVSEP1-2 2012 P11aF2 ACTc
p69
aVSEP1-3 2012 P15F2 ACTa
p70
aVSEP1-3 2012 P15F2 ACTb
p71
aVSEP1-3 2012 P15F2 ACTc
p72
aVuntreated 2012 P12F1 ACTa
p73
aVuntreated 2012 P12F1 ACTb
p74
aVuntreated 2012 P12F1 ACTc
p75
aVSEP1 2012 P17F4 EEF1a
p76
aVSEP1 2012 P17F4 EEF1b
p77
aVSEP1 2012 P17F4 EEF1c
p78
aVSEP1 2012 P17F5 EEF1a
p79
aVSEP1 2012 P17F5 EEF1b
p80
aVSEP1 2012 P17F5 EEF1c
p81
aVSEP1 2012 P1F3 EEF1a
p82
aVSEP1 2012 P1F3 EEF1b
p83
aVSEP1 2012 P1F3 EEF1c
p84
aVSEP1-2 2012 P11aF2 EEF1a
p85
aVSEP1-2 2012 P11aF2 EEF1b
p86
aVSEP1-2 2012 P11aF2 EEF1c
p87
aVSEP1-3 2012 P15F2 EEF1a
p88
aVSEP1-3 2012 P15F2 EEF1b
p89
aVSEP1-3 2012 P15F2 EEF1c
p90
aVuntreated 2012 P12F1 EEF1a
p91
aVuntreated 2012 P12F1 EEF1b
p92
aVuntreated 2012 P12F1 EEF1c
p93
asS'_formula_statement'
p94
g0
(cscisheets.core.column
FormulaStatement
p95
g2
Ntp96
Rp97
(dp98
S'_statement'
p99
NsS'_column'
p100
g34
sS'_isExpression'
p101
I00
sS'_isStatement'
p102
I00
sS'_formula'
p103
NsbsS'_data_class'
p104
g0
(cscisheets.core.helpers.api_util
DataClass
p105
c__builtin__
tuple
p106
(cnumpy
ndarray
p107
cscisheets.core.helpers.api_util
makeArray
p108
tp109
tp110
Rp111
sS'_name'
p112
S'SmplName'
p113
sbag0
(g32
g2
Ntp114
Rp115
(dp116
g36
I00
sg37
g4
sg38
(lp117
I1
aI1
aI1
aI2
aI2
aI2
aI3
aI3
aI3
aI1
aI1
aI1
aI1
aI1
aI1
aI1
aI1
aI1
aI1
aI1
aI1
aI2
aI2
aI2
aI3
aI3
aI3
aI1
aI1
aI1
aI1
aI1
aI1
aI1
aI1
aI1
aI1
aI1
aI1
aI2
aI2
aI2
aI3
aI3
aI3
aI1
aI1
aI1
aI1
aI1
aI1
aI1
aI1
aI1
asg94
g0
(g95
g2
Ntp118
Rp119
(dp120
g99
Nsg100
g115
sg101
I00
sg102
I00
sg103
Nsbsg104
g111
sg112
S'BRpl'
p121
sbag0
(g32
g2
Ntp122
Rp123
(dp124
g36
I00
sg37
g4
sg38
(lp125
F22.42
aF22.5
aF22.44
aF21.92
aF22.03
aF21.94
aF23.4
aF23.47
aF23.41
aF23.48
aF23.31
aF23.45
aF18.82
aF18.97
aF18.92
aF18.31
aF18.29
aF18.15
aF19.92
aF19.85
aF20.0
aF21.86
aF22.09
aF21.84
aF23.89
aF23.54
aF24.27
aF23.22
aF23.8
aF23.49
aF18.91
aF18.78
aF18.8
aF18.24
aF18.22
aF18.36
aF22.18
aF21.71
aF21.75
aF23.88
aF23.42
aF23.63
aF24.59
aF24.61
aF24.34
aF26.37
aF26.36
aF26.17
aF20.5
aF20.47
aF20.28
aF19.72
aF19.75
aF20.01
asg94
g0
(g95
g2
Ntp126
Rp127
(dp128
g99
Nsg100
g123
sg101
I00
sg102
I00
sg103
Nsbsg104
g111
sg112
S'Ct'
p129
sbag0
(g32
g2
Ntp130
Rp131
(dp132
g36
I00
sg37
g4
sg38
(lp133
F0.8453
aF0.8426
aF0.8524
aF0.8658
aF0.7809
aF0.8512
aF0.8442
aF0.8357
aF0.7658
aF0.8352
aF0.7886
aF0.8105
aF0.876
aF0.8597
aF0.8873
aF0.919
aF0.9106
aF0.9129
aF0.9179
aF0.9783
aF0.8971
aF0.8957
aF0.8287
aF0.8387
aF0.8746
aF0.8493
aF0.8349
aF0.7701
aF0.8746
aF0.8139
aF0.8715
aF0.8977
aF0.856
aF0.8266
aF0.8343
aF0.8496
aF0.7857
aF0.8427
aF0.8637
aF0.8281
aF0.8203
aF0.8288
aF0.8138
aF0.8242
aF0.804
aF0.7795
aF0.7676
aF0.7947
aF0.8179
aF0.8173
aF0.7894
aF0.8157
aF0.8543
aF0.8208
asg94
g0
(g95
g2
Ntp134
Rp135
(dp136
g99
Nsg100
g131
sg101
I00
sg102
I00
sg103
Nsbsg104
g111
sg112
S'Eff'
p137
sbag0
(g32
g2
Ntp138
Rp139
(dp140
g36
I00
sg37
g4
sg38
(lp141
VI
p142
ag142
ag142
ag142
ag142
ag142
ag142
ag142
ag142
ag142
ag142
ag142
ag142
ag142
ag142
ag142
ag142
ag142
aVR1
p143
aVR1
p144
aVR1
p145
aVR1
p146
aVR1
p147
aVR1
p148
aVR1
p149
aVR1
p150
aVR1
p151
aVR1
p152
aVR1
p153
aVR1
p154
aVR1
p155
aVR1
p156
aVR1
p157
aVR1
p158
aVR1
p159
aVR1
p160
aVR2
p161
aVR2
p162
aVR2
p163
aVR2
p164
aVR2
p165
aVR2
p166
aVR2
p167
aVR2
p168
aVR2
p169
aVR2
p170
aVR2
p171
aVR2
p172
aVR2
p173
aVR2
p174
aVR2
p175
aVR2
p176
aVR2
p177
aVR2
p178
asg94
g0
(g95
g2
Ntp179
Rp180
(dp181
g99
Nsg100
g139
sg101
I00
sg102
I00
sg103
Nsbsg104
g111
sg112
S'RunType'
p182
sbag0
(g32
g2
Ntp183
Rp184
(dp185
g36
I00
sg37
g4
sg38
(lp186
Va
p187
aVb
p188
aVc
p189
ag187
ag188
ag189
ag187
ag188
ag189
ag187
ag188
ag189
ag187
ag188
ag189
ag187
ag188
ag189
ag187
ag188
ag189
ag187
ag188
ag189
ag187
ag188
ag189
ag187
ag188
ag189
ag187
ag188
ag189
ag187
ag188
ag189
ag187
ag188
ag189
ag187
ag188
ag189
ag187
ag188
ag189
ag187
ag188
ag189
ag187
ag188
ag189
ag187
ag188
ag189
asg94
g0
(g95
g2
Ntp190
Rp191
(dp192
g99
Nsg100
g184
sg101
I00
sg102
I00
sg103
Nsbsg104
g111
sg112
S'TRpl'
p193
sbag0
(g32
g2
Ntp194
Rp195
(dp196
g36
I00
sg37
g4
sg38
(lp197
I1
aI1
aI1
aI1
aI1
aI1
aI1
aI1
aI1
aI2
aI2
aI2
aI3
aI3
aI3
aI0
aI0
aI0
aI1
aI1
aI1
aI1
aI1
aI1
aI1
aI1
aI1
aI2
aI2
aI2
aI3
aI3
aI3
aI0
aI0
aI0
aI1
aI1
aI1
aI1
aI1
aI1
aI1
aI1
aI1
aI2
aI2
aI2
aI3
aI3
aI3
aI0
aI0
aI0
asg94
g0
(g95
g2
Ntp198
Rp199
(dp200
g99
Nsg100
g195
sg101
I00
sg102
I00
sg103
Nsbsg104
g111
sg112
S'Treatment'
p201
sbag0
(g32
g2
Ntp202
Rp203
(dp204
g36
I00
sg37
g4
sg38
(lp205
(cnumpy.core.multiarray
scalar
p206
(cnumpy
dtype
p207
(S'i8'
p208
I0
I1
tp209
Rp210
(I3
S'<'
p211
NNNI-1
I-1
I0
tp212
bS'\x00\x00\x00\x00\x00\x00\x00\x00'
p213
tp214
Rp215
g206
(g207
(S'U1'
p216
I0
I1
tp217
Rp218
(I3
S'<'
p219
NNNI4
I4
I8
tp220
bS'I\x00\x00\x00'
p221
tp222
Rp223
g206
(g210
S'\x01\x00\x00\x00\x00\x00\x00\x00'
p224
tp225
Rp226
tp227
a(g206
(g210
S'\x00\x00\x00\x00\x00\x00\x00\x00'
p228
tp229
Rp230
g206
(g207
(S'U2'
p231
I0
I1
tp232
Rp233
(I3
S'<'
p234
NNNI8
I4
I8
tp235
bS'R\x00\x00\x001\x00\x00\x00'
p236
tp237
Rp238
g206
(g210
S'\x01\x00\x00\x00\x00\x00\x00\x00'
p239
tp240
Rp241
tp242
a(g206
(g210
S'\x00\x00\x00\x00\x00\x00\x00\x00'
p243
tp244
Rp245
g206
(g207
(S'U2'
p246
I0
I1
tp247
Rp248
(I3
S'<'
p249
NNNI8
I4
I8
tp250
bS'R\x00\x00\x002\x00\x00\x00'
p251
tp252
Rp253
g206
(g210
S'\x01\x00\x00\x00\x00\x00\x00\x00'
p254
tp255
Rp256
tp257
a(g206
(g210
S'\x01\x00\x00\x00\x00\x00\x00\x00'
p258
tp259
Rp260
g223
g206
(g210
S'\x01\x00\x00\x00\x00\x00\x00\x00'
p261
tp262
Rp263
tp264
a(g206
(g210
S'\x01\x00\x00\x00\x00\x00\x00\x00'
p265
tp266
Rp267
g223
g206
(g210
S'\x02\x00\x00\x00\x00\x00\x00\x00'
p268
tp269
Rp270
tp271
a(g206
(g210
S'\x01\x00\x00\x00\x00\x00\x00\x00'
p272
tp273
Rp274
g223
g206
(g210
S'\x03\x00\x00\x00\x00\x00\x00\x00'
p275
tp276
Rp277
tp278
a(g206
(g210
S'\x01\x00\x00\x00\x00\x00\x00\x00'
p279
tp280
Rp281
g238
g206
(g210
S'\x01\x00\x00\x00\x00\x00\x00\x00'
p282
tp283
Rp284
tp285
a(g206
(g210
S'\x01\x00\x00\x00\x00\x00\x00\x00'
p286
tp287
Rp288
g238
g206
(g210
S'\x02\x00\x00\x00\x00\x00\x00\x00'
p289
tp290
Rp291
tp292
a(g206
(g210
S'\x01\x00\x00\x00\x00\x00\x00\x00'
p293
tp294
Rp295
g238
g206
(g210
S'\x03\x00\x00\x00\x00\x00\x00\x00'
p296
tp297
Rp298
tp299
a(g206
(g210
S'\x01\x00\x00\x00\x00\x00\x00\x00'
p300
tp301
Rp302
g253
g206
(g210
S'\x01\x00\x00\x00\x00\x00\x00\x00'
p303
tp304
Rp305
tp306
a(g206
(g210
S'\x01\x00\x00\x00\x00\x00\x00\x00'
p307
tp308
Rp309
g253
g206
(g210
S'\x02\x00\x00\x00\x00\x00\x00\x00'
p310
tp311
Rp312
tp313
a(g206
(g210
S'\x01\x00\x00\x00\x00\x00\x00\x00'
p314
tp315
Rp316
g253
g206
(g210
S'\x03\x00\x00\x00\x00\x00\x00\x00'
p317
tp318
Rp319
tp320
a(g206
(g210
S'\x02\x00\x00\x00\x00\x00\x00\x00'
p321
tp322
Rp323
g223
g206
(g210
S'\x01\x00\x00\x00\x00\x00\x00\x00'
p324
tp325
Rp326
tp327
a(g206
(g210
S'\x02\x00\x00\x00\x00\x00\x00\x00'
p328
tp329
Rp330
g238
g206
(g210
S'\x01\x00\x00\x00\x00\x00\x00\x00'
p331
tp332
Rp333
tp334
a(g206
(g210
S'\x02\x00\x00\x00\x00\x00\x00\x00'
p335
tp336
Rp337
g253
g206
(g210
S'\x01\x00\x00\x00\x00\x00\x00\x00'
p338
tp339
Rp340
tp341
a(g206
(g210
S'\x03\x00\x00\x00\x00\x00\x00\x00'
p342
tp343
Rp344
g223
g206
(g210
S'\x01\x00\x00\x00\x00\x00\x00\x00'
p345
tp346
Rp347
tp348
a(g206
(g210
S'\x03\x00\x00\x00\x00\x00\x00\x00'
p349
tp350
Rp351
g238
g206
(g210
S'\x01\x00\x00\x00\x00\x00\x00\x00'
p352
tp353
Rp354
tp355
a(g206
(g210
S'\x03\x00\x00\x00\x00\x00\x00\x00'
p356
tp357
Rp358
g253
g206
(g210
S'\x01\x00\x00\x00\x00\x00\x00\x00'
p359
tp360
Rp361
tp362
aNaNaNaNaNaNaNaNaNaNaNaNaNaNaNaNaNaNaNaNaNaNaNaNaNaNaNaNaNaNaNaNaNaNaNaNasg94
g0
(g95
g2
Ntp363
Rp364
(dp365
g99
Vif run:\u000a  sel = Eff > min_eff\u000a  unfiltrd_grouping_columns =   [\u000a      Treatment,\u000a       RunType, \u000a      BRpl,      \u000a    ]\u000a  grouping_columns =   [x[sel] for x in unfiltrd_grouping_columns]\u000a  Groups, UnfilteredEff = groupBy(\u000a    unfiltrd_grouping_columns, Eff)\u000a  UnfilteredEff = roundValues(UnfilteredEff, 2)\u000a  Groups, groupedCt = groupBy(\u000a    grouping_columns, Ct[sel])\u000a  Groups, groupedEff = groupBy(\u000a    grouping_columns, Eff[sel])\u000a  GroupedCt = roundValues(groupedCt,2)\u000a  GroupedEff = roundValues(groupedEff,2)
p366
sg100
g203
sg101
I00
sg102
I00
sg103
Vif run:\u000a  sel = Eff > min_eff\u000a  unfiltrd_grouping_columns =   [\u000a      Treatment,\u000a       RunType, \u000a      BRpl,      \u000a    ]\u000a  grouping_columns =   [x[sel] for x in unfiltrd_grouping_columns]\u000a  Groups, UnfilteredEff = groupBy(\u000a    unfiltrd_grouping_columns, Eff)\u000a  UnfilteredEff = roundValues(UnfilteredEff, 2)\u000a  Groups, groupedCt = groupBy(\u000a    grouping_columns, Ct[sel])\u000a  Groups, groupedEff = groupBy(\u000a    grouping_columns, Eff[sel])\u000a  GroupedCt = roundValues(groupedCt,2)\u000a  GroupedEff = roundValues(groupedEff,2)
p367
sbsg104
g0
(g105
g106
(g107
g108
tp368
tp369
Rp370
sg112
VGroups
p371
sbag0
(g32
g2
Ntp372
Rp373
(dp374
g36
I00
sg37
g4
sg38
(lp375
(lp376
F0.92
aF0.91
aF0.91
aa(lp377
F0.83
aF0.83
aF0.85
aa(lp378
F0.82
aF0.85
aF0.82
aa(lp379
F0.85
aF0.84
aF0.85
aa(lp380
F0.87
aF0.78
aF0.85
aa(lp381
F0.84
aF0.84
aF0.77
aa(lp382
F0.92
aF0.98
aF0.9
aa(lp383
F0.9
aF0.83
aF0.84
aa(lp384
F0.87
aF0.85
aF0.83
aa(lp385
F0.79
aF0.84
aF0.86
aa(lp386
F0.83
aF0.82
aF0.83
aa(lp387
F0.81
aF0.82
aF0.8
aa(lp388
F0.84
aF0.79
aF0.81
aa(lp389
F0.77
aF0.87
aF0.81
aa(lp390
F0.78
aF0.77
aF0.79
aa(lp391
F0.88
aF0.86
aF0.89
aa(lp392
F0.87
aF0.9
aF0.86
aa(lp393
F0.82
aF0.82
aF0.79
aaNaNaNaNaNaNaNaNaNaNaNaNaNaNaNaNaNaNaNaNaNaNaNaNaNaNaNaNaNaNaNaNaNaNaNaNasg94
g0
(g95
g2
Ntp394
Rp395
(dp396
g99
Nsg100
g373
sg101
I00
sg102
I00
sg103
Nsbsg104
g0
(g105
g106
(g107
g108
tp397
tp398
Rp399
sg112
VGroupedEff
p400
sbag0
(g32
g2
Ntp401
Rp402
(dp403
g36
I00
sg37
g4
sg38
(lp404
(lp405
F18.31
aF18.29
aF18.15
aa(lp406
F18.24
aF18.22
aF18.36
aa(lp407
F19.72
aF19.75
aF20.01
aa(lp408
F22.42
aF22.5
aF22.44
aa(lp409
F21.92
aF22.03
aF21.94
aa(lp410
F23.4
aF23.47
aF23.41
aa(lp411
F19.92
aF19.85
aF20.0
aa(lp412
F21.86
aF22.09
aF21.84
aa(lp413
F23.89
aF23.54
aF24.27
aa(lp414
F22.18
aF21.71
aF21.75
aa(lp415
F23.88
aF23.42
aF23.63
aa(lp416
F24.59
aF24.61
aF24.34
aa(lp417
F23.48
aF23.31
aF23.45
aa(lp418
F23.22
aF23.8
aF23.49
aa(lp419
F26.37
aF26.36
aF26.17
aa(lp420
F18.82
aF18.97
aF18.92
aa(lp421
F18.91
aF18.78
aF18.8
aa(lp422
F20.5
aF20.47
aF20.28
aaNaNaNaNaNaNaNaNaNaNaNaNaNaNaNaNaNaNaNaNaNaNaNaNaNaNaNaNaNaNaNaNaNaNaNaNasg94
g0
(g95
g2
Ntp423
Rp424
(dp425
g99
Nsg100
g402
sg101
I00
sg102
I00
sg103
Nsbsg104
g0
(g105
g106
(g107
g108
tp426
tp427
Rp428
sg112
VGroupedCt
p429
sbag0
(g32
g2
Ntp430
Rp431
(dp432
g36
I00
sg37
g4
sg38
(lp433
(lp434
F18.3
aF18.3
aF18.1
aa(lp435
F18.2
aF18.2
aF18.4
aa(lp436
F19.7
aF19.8
aF20.0
aa(lp437
F22.4
aF22.5
aF22.4
aa(lp438
F21.9
aF22.0
aF21.9
aa(lp439
F23.4
aF23.5
aF23.4
aa(lp440
F19.9
aF19.9
aF20.0
aa(lp441
F21.9
aF22.1
aF21.8
aa(lp442
F23.9
aF23.5
aF24.3
aa(lp443
F22.2
aF21.7
aF21.8
aa(lp444
F23.9
aF23.4
aF23.6
aa(lp445
F24.6
aF24.6
aF24.3
aa(lp446
F23.5
aF23.3
aF23.4
aa(lp447
F23.2
aF23.8
aF23.5
aa(lp448
F26.4
aF26.4
aF26.2
aa(lp449
F18.8
aF19.0
aF18.9
aa(lp450
F18.9
aF18.8
aF18.8
aa(lp451
F20.5
aF20.5
aF20.3
aaNaNaNaNaNaNaNaNaNaNaNaNaNaNaNaNaNaNaNaNaNaNaNaNaNaNaNaNaNaNaNaNaNaNaNaNasg94
g0
(g95
g2
Ntp452
Rp453
(dp454
g99
Vif run:\u000a  StdFilteredGroupedCt = roundValues([filterExtremes(g, max_std, 2) for g in pruneNulls(GroupedCt)])
p455
sg100
g431
sg101
I00
sg102
I00
sg103
Vif run:\u000a  StdFilteredGroupedCt = roundValues([filterExtremes(g, max_std, 2) for g in pruneNulls(GroupedCt)])
p456
sbsg104
g0
(g105
g106
(g107
g108
tp457
tp458
Rp459
sg112
VStdFilteredGroupedCt
p460
sbag0
(g32
g2
Ntp461
Rp462
(dp463
g36
I00
sg37
g4
sg38
(lp464
F18.2
aF18.3
aF19.8
aF22.4
aF21.9
aF23.4
aF19.9
aF21.9
aF23.9
aF21.9
aF23.6
aF24.5
aF23.4
aF23.5
aF26.3
aF18.9
aF18.8
aF20.4
aFnan
aFnan
aFnan
aFnan
aFnan
aFnan
aFnan
aFnan
aFnan
aFnan
aFnan
aFnan
aFnan
aFnan
aFnan
aFnan
aFnan
aFnan
aFnan
aFnan
aFnan
aFnan
aFnan
aFnan
aFnan
aFnan
aFnan
aFnan
aFnan
aFnan
aFnan
aFnan
aFnan
aFnan
aFnan
aFnan
asg94
g0
(g95
g2
Ntp465
Rp466
(dp467
g99
Vif run:\u000a  MeanCt = [np.mean(g) for g in StdFilteredGroupedCt]\u000a  MeanCt = roundValues(MeanCt,1)\u000a  StdCt = [np.std(g, ddof=1) for g in StdFilteredGroupedCt]\u000a  StdCt = roundValues(StdCt,3)\u000as.setColumnVisibility(['Groups', 'GroupedEff', 'GroupedCt', 'StdFilteredGroupedCt', 'MeanCt', 'StdCt', 'UnfilteredEff'], is_visible=show_block1)
p468
sg100
g462
sg101
I00
sg102
I00
sg103
Vif run:\u000a  MeanCt = [np.mean(g) for g in StdFilteredGroupedCt]\u000a  MeanCt = roundValues(MeanCt,1)\u000a  StdCt = [np.std(g, ddof=1) for g in StdFilteredGroupedCt]\u000a  StdCt = roundValues(StdCt,3)\u000as.setColumnVisibility(['Groups', 'GroupedEff', 'GroupedCt', 'StdFilteredGroupedCt', 'MeanCt', 'StdCt', 'UnfilteredEff'], is_visible=show_block1)
p469
sbsg104
g0
(g105
g106
(g107
g108
tp470
tp471
Rp472
sg112
VMeanCt
p473
sbag0
(g32
g2
Ntp474
Rp475
(dp476
g36
I00
sg37
g4
sg38
(lp477
F0.115
aF0.115
aF0.153
aF0.058
aF0.058
aF0.058
aF0.058
aF0.153
aF0.4
aF0.265
aF0.252
aF0.173
aF0.1
aF0.3
aF0.115
aF0.1
aF0.058
aF0.115
aFnan
aFnan
aFnan
aFnan
aFnan
aFnan
aFnan
aFnan
aFnan
aFnan
aFnan
aFnan
aFnan
aFnan
aFnan
aFnan
aFnan
aFnan
aFnan
aFnan
aFnan
aFnan
aFnan
aFnan
aFnan
aFnan
aFnan
aFnan
aFnan
aFnan
aFnan
aFnan
aFnan
aFnan
aFnan
aFnan
asg94
g0
(g95
g2
Ntp478
Rp479
(dp480
g99
Nsg100
g475
sg101
I00
sg102
I00
sg103
Nsbsg104
g0
(g105
g106
(g107
g108
tp481
tp482
Rp483
sg112
VStdCt
p484
sbag0
(g32
g2
Ntp485
Rp486
(dp487
g36
I00
sg37
g4
sg38
(lp488
(lp489
F0.92
aF0.91
aF0.91
aa(lp490
F0.83
aF0.83
aF0.85
aa(lp491
F0.82
aF0.85
aF0.82
aa(lp492
F0.85
aF0.84
aF0.85
aa(lp493
F0.87
aF0.78
aF0.85
aa(lp494
F0.84
aF0.84
aF0.77
aa(lp495
F0.92
aF0.98
aF0.9
aa(lp496
F0.9
aF0.83
aF0.84
aa(lp497
F0.87
aF0.85
aF0.83
aa(lp498
F0.79
aF0.84
aF0.86
aa(lp499
F0.83
aF0.82
aF0.83
aa(lp500
F0.81
aF0.82
aF0.8
aa(lp501
F0.84
aF0.79
aF0.81
aa(lp502
F0.77
aF0.87
aF0.81
aa(lp503
F0.78
aF0.77
aF0.79
aa(lp504
F0.88
aF0.86
aF0.89
aa(lp505
F0.87
aF0.9
aF0.86
aa(lp506
F0.82
aF0.82
aF0.79
aaNaNaNaNaNaNaNaNaNaNaNaNaNaNaNaNaNaNaNaNaNaNaNaNaNaNaNaNaNaNaNaNaNaNaNaNasg94
g0
(g95
g2
Ntp507
Rp508
(dp509
g99
Nsg100
g486
sg101
I00
sg102
I00
sg103
Nsbsg104
g0
(g105
g106
(g107
g108
tp510
tp511
Rp512
sg112
VUnfilteredEff
p513
sbag0
(g32
g2
Ntp514
Rp515
(dp516
g36
I00
sg37
g4
sg38
(lp517
(lp518
g215
ag226
aa(lp519
g260
ag263
aa(lp520
g267
ag270
aa(lp521
g274
ag277
aa(lp522
g323
ag326
aa(lp523
g344
ag347
aaNaNaNaNaNaNaNaNaNaNaNaNaNaNaNaNaNaNaNaNaNaNaNaNaNaNaNaNaNaNaNaNaNaNaNaNaNaNaNaNaNaNaNaNaNaNaNaNasg94
g0
(g95
g2
Ntp524
Rp525
(dp526
g99
Vif run:\u000a  s.setColumnValues('Groups', Groups)\u000a  s.setColumnValues('MeanCt', MeanCt)\u000a  tabularize(s, 'Groups', 1, 'MeanCt', \u000a      new_category_colnm='BioRuns',\u000a      values_colnm_prefix='Gene_')\u000a  BioRuns = s.getColumnValues('BioRuns')\u000a  Gene_I = s.getColumnValues('Gene_I')\u000a  Gene_R1 = s.getColumnValues('Gene_R1')\u000a  Gene_R2 = s.getColumnValues('Gene_R2')\u000a 
p527
sg100
g515
sg101
I00
sg102
I00
sg103
Vif run:\u000a  s.setColumnValues('Groups', Groups)\u000a  s.setColumnValues('MeanCt', MeanCt)\u000a  tabularize(s, 'Groups', 1, 'MeanCt', \u000a      new_category_colnm='BioRuns',\u000a      values_colnm_prefix='Gene_')\u000a  BioRuns = s.getColumnValues('BioRuns')\u000a  Gene_I = s.getColumnValues('Gene_I')\u000a  Gene_R1 = s.getColumnValues('Gene_R1')\u000a  Gene_R2 = s.getColumnValues('Gene_R2')\u000a 
p528
sbsg104
g0
(g105
g106
(g107
g108
tp529
tp530
Rp531
sg112
VBioRuns
p532
sbag0
(g32
g2
Ntp533
Rp534
(dp535
g36
I00
sg37
g4
sg38
(lp536
F18.2
aF22.4
aF21.9
aF23.4
aF23.4
aF18.9
aFnan
aFnan
aFnan
aFnan
aFnan
aFnan
aFnan
aFnan
aFnan
aFnan
aFnan
aFnan
aFnan
aFnan
aFnan
aFnan
aFnan
aFnan
aFnan
aFnan
aFnan
aFnan
aFnan
aFnan
aFnan
aFnan
aFnan
aFnan
aFnan
aFnan
aFnan
aFnan
aFnan
aFnan
aFnan
aFnan
aFnan
aFnan
aFnan
aFnan
aFnan
aFnan
aFnan
aFnan
aFnan
aFnan
aFnan
aFnan
asg94
g0
(g95
g2
Ntp537
Rp538
(dp539
g99
Nsg100
g534
sg101
I00
sg102
I00
sg103
Nsbsg104
g0
(g105
g106
(g107
g108
tp540
tp541
Rp542
sg112
S'Gene_I'
p543
sbag0
(g32
g2
Ntp544
Rp545
(dp546
g36
I00
sg37
g4
sg38
(lp547
F18.3
aF19.9
aF21.9
aF23.9
aF23.5
aF18.8
aFnan
aFnan
aFnan
aFnan
aFnan
aFnan
aFnan
aFnan
aFnan
aFnan
aFnan
aFnan
aFnan
aFnan
aFnan
aFnan
aFnan
aFnan
aFnan
aFnan
aFnan
aFnan
aFnan
aFnan
aFnan
aFnan
aFnan
aFnan
aFnan
aFnan
aFnan
aFnan
aFnan
aFnan
aFnan
aFnan
aFnan
aFnan
aFnan
aFnan
aFnan
aFnan
aFnan
aFnan
aFnan
aFnan
aFnan
aFnan
asg94
g0
(g95
g2
Ntp548
Rp549
(dp550
g99
Nsg100
g545
sg101
I00
sg102
I00
sg103
Nsbsg104
g542
sg112
S'Gene_R1'
p551
sbag0
(g32
g2
Ntp552
Rp553
(dp554
g36
I00
sg37
g4
sg38
(lp555
F19.8
aF21.9
aF23.6
aF24.5
aF26.3
aF20.4
aFnan
aFnan
aFnan
aFnan
aFnan
aFnan
aFnan
aFnan
aFnan
aFnan
aFnan
aFnan
aFnan
aFnan
aFnan
aFnan
aFnan
aFnan
aFnan
aFnan
aFnan
aFnan
aFnan
aFnan
aFnan
aFnan
aFnan
aFnan
aFnan
aFnan
aFnan
aFnan
aFnan
aFnan
aFnan
aFnan
aFnan
aFnan
aFnan
aFnan
aFnan
aFnan
aFnan
aFnan
aFnan
aFnan
aFnan
aFnan
asg94
g0
(g95
g2
Ntp556
Rp557
(dp558
g99
Nsg100
g553
sg101
I00
sg102
I00
sg103
Nsbsg104
g542
sg112
S'Gene_R2'
p559
sbag0
(g32
g2
Ntp560
Rp561
(dp562
g36
I00
sg37
g4
sg38
(lp563
F1.07177
aF0.17678
aF1.0
aF1.41421
aF1.07177
aF0.93303
aFnan
aFnan
aFnan
aFnan
aFnan
aFnan
aFnan
aFnan
aFnan
aFnan
aFnan
aFnan
aFnan
aFnan
aFnan
aFnan
aFnan
aFnan
aFnan
aFnan
aFnan
aFnan
aFnan
aFnan
aFnan
aFnan
aFnan
aFnan
aFnan
aFnan
aFnan
aFnan
aFnan
aFnan
aFnan
aFnan
aFnan
aFnan
aFnan
aFnan
aFnan
aFnan
aFnan
aFnan
aFnan
aFnan
aFnan
aFnan
asg94
g0
(g95
g2
Ntp564
Rp565
(dp566
g99
VExprR1 = roundValues(2**(Gene_R1 - Gene_I),5)
p567
sg100
g561
sg101
I01
sg102
I00
sg103
VroundValues(2**(Gene_R1 - Gene_I),5)
p568
sbsg104
g0
(g105
g106
(g107
g108
tp569
tp570
Rp571
sg112
VExprR1
p572
sbag0
(g32
g2
Ntp573
Rp574
(dp575
g36
I00
sg37
g4
sg38
(lp576
F3.03143
aF0.70711
aF3.24901
aF2.14355
aF7.46426
aF2.82843
aFnan
aFnan
aFnan
aFnan
aFnan
aFnan
aFnan
aFnan
aFnan
aFnan
aFnan
aFnan
aFnan
aFnan
aFnan
aFnan
aFnan
aFnan
aFnan
aFnan
aFnan
aFnan
aFnan
aFnan
aFnan
aFnan
aFnan
aFnan
aFnan
aFnan
aFnan
aFnan
aFnan
aFnan
aFnan
aFnan
aFnan
aFnan
aFnan
aFnan
aFnan
aFnan
aFnan
aFnan
aFnan
aFnan
aFnan
aFnan
asg94
g0
(g95
g2
Ntp577
Rp578
(dp579
g99
VExprR2 = roundValues(2**(Gene_R2 - Gene_I),5)
p580
sg100
g574
sg101
I01
sg102
I00
sg103
VroundValues(2**(Gene_R2 - Gene_I),5)
p581
sbsg104
g0
(g105
g106
(g107
g108
tp582
tp583
Rp584
sg112
VExprR2
p585
sbag0
(g32
g2
Ntp586
Rp587
(dp588
g36
I00
sg37
g4
sg38
(lp589
F1.802
aF0.354
aF1.803
aF1.741
aF2.828
aF1.625
aFnan
aFnan
aFnan
aFnan
aFnan
aFnan
aFnan
aFnan
aFnan
aFnan
aFnan
aFnan
aFnan
aFnan
aFnan
aFnan
aFnan
aFnan
aFnan
aFnan
aFnan
aFnan
aFnan
aFnan
aFnan
aFnan
aFnan
aFnan
aFnan
aFnan
aFnan
aFnan
aFnan
aFnan
aFnan
aFnan
aFnan
aFnan
aFnan
aFnan
aFnan
aFnan
aFnan
aFnan
aFnan
aFnan
aFnan
aFnan
asg94
g0
(g95
g2
Ntp590
Rp591
(dp592
g99
Vif run:\u000a  GeoMean = roundValues(np.sqrt(ExprR1*ExprR2), 3)\u000as.setColumnVisibility(['BioRuns', 'Gene_I', 'Gene_R1', 'Gene_R2', 'ExprR1', 'ExprR2', 'GeoMean'], is_visible=show_block2)
p593
sg100
g587
sg101
I00
sg102
I00
sg103
Vif run:\u000a  GeoMean = roundValues(np.sqrt(ExprR1*ExprR2), 3)\u000as.setColumnVisibility(['BioRuns', 'Gene_I', 'Gene_R1', 'Gene_R2', 'ExprR1', 'ExprR2', 'GeoMean'], is_visible=show_block2)
p594
sbsg104
g0
(g105
g106
(g107
g108
tp595
tp596
Rp597
sg112
VGeoMean
p598
sbasS'_columns'
p599
(lp600
g0
(g32
g2
Ntp601
Rp602
(dp603
g36
I01
sg37
g4
sg38
(lp604
S'1'
p605
aS'2'
p606
aS'3'
p607
aS'4'
p608
aS'5'
p609
aS'6'
p610
aS'7'
p611
aS'8'
p612
aS'9'
p613
aS'10'
p614
aS'11'
p615
aS'12'
p616
aS'13'
p617
aS'14'
p618
aS'15'
p619
aS'16'
p620
aS'17'
p621
aS'18'
p622
aS'19'
p623
aS'20'
p624
aS'21'
p625
aS'22'
p626
aS'23'
p627
aS'24'
p628
aS'25'
p629
aS'26'
p630
aS'27'
p631
aS'28'
p632
aS'29'
p633
aS'30'
p634
aS'31'
p635
aS'32'
p636
aS'33'
p637
aS'34'
p638
aS'35'
p639
aS'36'
p640
aS'37'
p641
aS'38'
p642
aS'39'
p643
aS'40'
p644
aS'41'
p645
aS'42'
p646
aS'43'
p647
aS'44'
p648
aS'45'
p649
aS'46'
p650
aS'47'
p651
aS'48'
p652
aS'49'
p653
aS'50'
p654
aS'51'
p655
aS'52'
p656
aS'53'
p657
aS'54'
p658
asg94
g0
(g95
g2
Ntp659
Rp660
(dp661
g99
Nsg100
g602
sg101
I00
sg102
I00
sg103
Nsbsg104
g0
(g105
g106
(g107
g108
tp662
tp663
Rp664
sg112
S'row'
p665
sbag0
(g32
g2
Ntp666
Rp667
(dp668
g36
I00
sg37
g4
sg38
(lp669
Vgene
p670
aVrun
p671
aVshow_raw
p672
aVshow_block1
p673
aVshow_block2
p674
aVshow_block3
p675
aVmax_std
p676
aVmin_eff
p677
aVnan
p678
aVnan
p679
aVnan
p680
aVnan
p681
aVnan
p682
aVnan
p683
aVnan
p684
aVnan
p685
aVnan
p686
aVnan
p687
aVnan
p688
aVnan
p689
aVnan
p690
aVnan
p691
aVnan
p692
aVnan
p693
aVnan
p694
aVnan
p695
aVnan
p696
aVnan
p697
aVnan
p698
aVnan
p699
aVnan
p700
aVnan
p701
aVnan
p702
aVnan
p703
aVnan
p704
aVnan
p705
aVnan
p706
aVnan
p707
aVnan
p708
aVnan
p709
aVnan
p710
aVnan
p711
aVnan
p712
aVnan
p713
aVnan
p714
aVnan
p715
aVnan
p716
aVnan
p717
aVnan
p718
aVnan
p719
aVnan
p720
aVnan
p721
aVnan
p722
aVnan
p723
asg94
g0
(g95
g2
Ntp724
Rp725
(dp726
g99
Nsg100
g667
sg101
I00
sg102
I00
sg103
Nsbsg104
g0
(g105
g106
(g107
g108
tp727
tp728
Rp729
sg112
VParmNames
p730
sbag0
(g32
g2
Ntp731
Rp732
(dp733
g36
I00
sg37
g4
sg38
(lp734
VGene2
p735
aVTrue
p736
aVFalse
p737
aVFalse
p738
aVFalse
p739
aVTrue
p740
aV0.5
p741
aV0.7
p742
aVnan
p743
aVnan
p744
aVnan
p745
aVnan
p746
aVnan
p747
aVnan
p748
aVnan
p749
aVnan
p750
aVnan
p751
aVnan
p752
aVnan
p753
aVnan
p754
aVnan
p755
aVnan
p756
aVnan
p757
aVnan
p758
aVnan
p759
aVnan
p760
aVnan
p761
aVnan
p762
aVnan
p763
aVnan
p764
aVnan
p765
aVnan
p766
aVnan
p767
aVnan
p768
aVnan
p769
aVnan
p770
aVnan
p771
aVnan
p772
aVnan
p773
aVnan
p774
aVnan
p775
aVnan
p776
aVnan
p777
aVnan
p778
aVnan
p779
aVnan
p780
aVnan
p781
aVnan
p782
aVnan
p783
aVnan
p784
aVnan
p785
aVnan
p786
aVnan
p787
aVnan
p788
asg94
g0
(g95
g2
Ntp789
Rp790
(dp791
g99
Vxlsx_path = '/mnt/hgfs/josephhellerstein/home/Technical/SciSheets/CaseStudies/Kristen/workbooks/data.xlsx'\u000as.setColumnVisibility()\u000agene = ParmValues[0]\u000arun = ParmValues[1] == 'True'\u000ashow_raw = ParmValues[2] == 'True'\u000ashow_block1 = ParmValues[3] == 'True'\u000ashow_block2 = ParmValues[4] == 'True'\u000ashow_block3 = ParmValues[5] == 'True'\u000amax_std  = float(ParmValues[6])\u000amin_eff = float(ParmValues[7])\u000aworksheet = gene + "-I"\u000aif False:\u000a  Groups = []\u000a  GroupedCt = []\u000a  GroupedEff = []\u000a  MeanCt = []\u000a  Imp = []\u000a  s.deleteColumn('Ct')\u000a  s.deleteColumn('RunType')\u000a  s.deleteColumn('BRpl')\u000a  s.deleteColumn('TRpl')\u000a  s.deleteColumn('Treatment')\u000a  s.deleteColumn('SmplName')\u000a  s.deleteColumn('Eff')\u000aif run:\u000a  importExcelToTable(s, xlsx_path, worksheet=worksheet)\u000a  BRpl = s.getColumnValues('BRpl')\u000a  Ct = s.getColumnValues('Ct')\u000a  Eff = s.getColumnValues('Eff')\u000a  RunType = s.getColumnValues('RunType')\u000a  TRpl = s.getColumnValues('TRpl')\u000a  Treatment = s.getColumnValues('Treatment')\u000as.setColumnVisibility(['SmplName'], False)\u000as.setColumnVisibility(['BRpl', 'Ct', 'Eff', 'RunType', 'TRpl', 'Treatment'], is_visible=show_raw)
p792
sg100
g732
sg101
I00
sg102
I00
sg103
Vxlsx_path = '/mnt/hgfs/josephhellerstein/home/Technical/SciSheets/CaseStudies/Kristen/workbooks/data.xlsx'\u000as.setColumnVisibility()\u000agene = ParmValues[0]\u000arun = ParmValues[1] == 'True'\u000ashow_raw = ParmValues[2] == 'True'\u000ashow_block1 = ParmValues[3] == 'True'\u000ashow_block2 = ParmValues[4] == 'True'\u000ashow_block3 = ParmValues[5] == 'True'\u000amax_std  = float(ParmValues[6])\u000amin_eff = float(ParmValues[7])\u000aworksheet = gene + "-I"\u000aif False:\u000a  Groups = []\u000a  GroupedCt = []\u000a  GroupedEff = []\u000a  MeanCt = []\u000a  Imp = []\u000a  s.deleteColumn('Ct')\u000a  s.deleteColumn('RunType')\u000a  s.deleteColumn('BRpl')\u000a  s.deleteColumn('TRpl')\u000a  s.deleteColumn('Treatment')\u000a  s.deleteColumn('SmplName')\u000a  s.deleteColumn('Eff')\u000aif run:\u000a  importExcelToTable(s, xlsx_path, worksheet=worksheet)\u000a  BRpl = s.getColumnValues('BRpl')\u000a  Ct = s.getColumnValues('Ct')\u000a  Eff = s.getColumnValues('Eff')\u000a  RunType = s.getColumnValues('RunType')\u000a  TRpl = s.getColumnValues('TRpl')\u000a  Treatment = s.getColumnValues('Treatment')\u000as.setColumnVisibility(['SmplName'], False)\u000as.setColumnVisibility(['BRpl', 'Ct', 'Eff', 'RunType', 'TRpl', 'Treatment'], is_visible=show_raw)
p793
sbsg104
g0
(g105
g106
(g107
g108
tp794
tp795
Rp796
sg112
VParmValues
p797
sbag203
ag486
ag373
ag402
ag431
ag462
ag475
ag515
ag534
ag545
ag553
ag561
ag574
ag587
ag0
(g32
g2
Ntp798
Rp799
(dp800
g36
I00
sg37
g4
sg38
(lp801
F0.0
aF1.0
aF2.0
aF3.0
aFnan
aFnan
aFnan
aFnan
aFnan
aFnan
aFnan
aFnan
aFnan
aFnan
aFnan
aFnan
aFnan
aFnan
aFnan
aFnan
aFnan
aFnan
aFnan
aFnan
aFnan
aFnan
aFnan
aFnan
aFnan
aFnan
aFnan
aFnan
aFnan
aFnan
aFnan
aFnan
aFnan
aFnan
aFnan
aFnan
aFnan
aFnan
aFnan
aFnan
aFnan
aFnan
aFnan
aFnan
aFnan
aFnan
aFnan
aFnan
aFnan
aFnan
asg94
g0
(g95
g2
Ntp802
Rp803
(dp804
g99
Vif run:\u000a  cat_vals = [br[0] for br in pruneNulls(BioRuns)]\u000a  clean_geo = pruneNulls(GeoMean)\u000a  GeoGroups, groupedGeoMeans = groupBy(cat_vals, clean_geo)\u000a  GroupedGeoMeans = roundValues(groupedGeoMeans, 3)
p805
sg100
g799
sg101
I00
sg102
I00
sg103
Vif run:\u000a  cat_vals = [br[0] for br in pruneNulls(BioRuns)]\u000a  clean_geo = pruneNulls(GeoMean)\u000a  GeoGroups, groupedGeoMeans = groupBy(cat_vals, clean_geo)\u000a  GroupedGeoMeans = roundValues(groupedGeoMeans, 3)
p806
sbsg104
g0
(g105
g106
(g107
g108
tp807
tp808
Rp809
sg112
VGeoGroups
p810
sbag0
(g32
g2
Ntp811
Rp812
(dp813
g36
I00
sg37
g4
sg38
(lp814
cnumpy.core.multiarray
_reconstruct
p815
(g107
(I0
tp816
S'b'
p817
tp818
Rp819
(I1
(I1
tp820
g207
(S'f8'
p821
I0
I1
tp822
Rp823
(I3
S'<'
p824
NNNI-1
I-1
I0
tp825
bI00
S'\xa2E\xb6\xf3\xfd\xd4\xfc?'
p826
tp827
bag815
(g107
(I0
tp828
g817
tp829
Rp830
(I1
(I3
tp831
g823
I00
S'\x0e-\xb2\x9d\xef\xa7\xd6?\x0c\x02+\x87\x16\xd9\xfc?B`\xe5\xd0"\xdb\xfb?'
p832
tp833
bag815
(g107
(I0
tp834
g817
tp835
Rp836
(I1
(I1
tp837
g823
I00
S'9\xb4\xc8v\xbe\x9f\x06@'
p838
tp839
bag815
(g107
(I0
tp840
g817
tp841
Rp842
(I1
(I1
tp843
g823
I00
S'\x00\x00\x00\x00\x00\x00\xfa?'
p844
tp845
baNaNaNaNaNaNaNaNaNaNaNaNaNaNaNaNaNaNaNaNaNaNaNaNaNaNaNaNaNaNaNaNaNaNaNaNaNaNaNaNaNaNaNaNaNaNaNaNaNaNasg94
g0
(g95
g2
Ntp846
Rp847
(dp848
g99
Nsg100
g812
sg101
I00
sg102
I00
sg103
Nsbsg104
g0
(g105
g106
(g107
g108
tp849
tp850
Rp851
sg112
VGroupedGeoMeans
p852
sbag0
(g32
g2
Ntp853
Rp854
(dp855
g36
I00
sg37
g4
sg38
(lp856
g815
(g107
(I0
tp857
g817
tp858
Rp859
(I1
(I1
tp860
g823
I00
S'\x00\x00\x00\x00\x00\x00\xf0?'
p861
tp862
bag815
(g107
(I0
tp863
g817
tp864
Rp865
(I1
(I3
tp866
g823
I00
S'J\x0c\x02+\x87\x16\xc9?j\xbct\x93\x18\x04\xf0?\xb6\xf3\xfd\xd4x\xe9\xee?'
p867
tp868
bag815
(g107
(I0
tp869
g817
tp870
Rp871
(I1
(I1
tp872
g823
I00
S'\xb4\xc8v\xbe\x9f\x1a\xf9?'
p873
tp874
bag815
(g107
(I0
tp875
g817
tp876
Rp877
(I1
(I1
tp878
g823
I00
S'w\xbe\x9f\x1a/\xdd\xec?'
p879
tp880
baNaNaNaNaNaNaNaNaNaNaNaNaNaNaNaNaNaNaNaNaNaNaNaNaNaNaNaNaNaNaNaNaNaNaNaNaNaNaNaNaNaNaNaNaNaNaNaNaNaNasg94
g0
(g95
g2
Ntp881
Rp882
(dp883
g99
Vif run:\u000a  ref = np.mean(GroupedGeoMeans[0])\u000a  NrmlGeoGroupedMeans = []\u000a  truncated_group = [g for g in GroupedGeoMeans if g is not None]\u000a  for g in truncated_group:\u000a    new_g = [x/ref for x in g]\u000a    NrmlGeoGroupedMeans.append(new_g)\u000a  NrmlGeoGroupedMeans = roundValues(NrmlGeoGroupedMeans, 3)
p884
sg100
g854
sg101
I00
sg102
I00
sg103
Vif run:\u000a  ref = np.mean(GroupedGeoMeans[0])\u000a  NrmlGeoGroupedMeans = []\u000a  truncated_group = [g for g in GroupedGeoMeans if g is not None]\u000a  for g in truncated_group:\u000a    new_g = [x/ref for x in g]\u000a    NrmlGeoGroupedMeans.append(new_g)\u000a  NrmlGeoGroupedMeans = roundValues(NrmlGeoGroupedMeans, 3)
p885
sbsg104
g0
(g105
g106
(g107
g108
tp886
tp887
Rp888
sg112
VNrmlGeoGroupedMeans
p889
sbag0
(g32
g2
Ntp890
Rp891
(dp892
g36
I00
sg37
g4
sg38
(lp893
F1.0
aF0.721
aF1.569
aF0.902
aFnan
aFnan
aFnan
aFnan
aFnan
aFnan
aFnan
aFnan
aFnan
aFnan
aFnan
aFnan
aFnan
aFnan
aFnan
aFnan
aFnan
aFnan
aFnan
aFnan
aFnan
aFnan
aFnan
aFnan
aFnan
aFnan
aFnan
aFnan
aFnan
aFnan
aFnan
aFnan
aFnan
aFnan
aFnan
aFnan
aFnan
aFnan
aFnan
aFnan
aFnan
aFnan
aFnan
aFnan
aFnan
aFnan
aFnan
aFnan
aFnan
aFnan
asg94
g0
(g95
g2
Ntp894
Rp895
(dp896
g99
Vif run:\u000a  MeanNrmlGeoGroups = [round(np.mean(g), 3) for g in NrmlGeoGroupedMeans]
p897
sg100
g891
sg101
I00
sg102
I00
sg103
Vif run:\u000a  MeanNrmlGeoGroups = [round(np.mean(g), 3) for g in NrmlGeoGroupedMeans]
p898
sbsg104
g0
(g105
g106
(g107
g108
tp899
tp900
Rp901
sg112
VMeanNrmlGeoGroups
p902
sbag0
(g32
g2
Ntp903
Rp904
(dp905
g36
I00
sg37
g4
sg38
(lp906
Fnan
aF0.455
aFnan
aFnan
aFnan
aFnan
aFnan
aFnan
aFnan
aFnan
aFnan
aFnan
aFnan
aFnan
aFnan
aFnan
aFnan
aFnan
aFnan
aFnan
aFnan
aFnan
aFnan
aFnan
aFnan
aFnan
aFnan
aFnan
aFnan
aFnan
aFnan
aFnan
aFnan
aFnan
aFnan
aFnan
aFnan
aFnan
aFnan
aFnan
aFnan
aFnan
aFnan
aFnan
aFnan
aFnan
aFnan
aFnan
aFnan
aFnan
aFnan
aFnan
aFnan
aFnan
asg94
g0
(g95
g2
Ntp907
Rp908
(dp909
g99
Vif run:\u000a  StdNrmlGeoGroups = [round(np.std(g, ddof=1), 3) for g in NrmlGeoGroupedMeans]\u000as.setColumnVisibility(['GeoGroups', 'GroupedGeoMeans', 'NrmlGeoGroupedMeans', 'MeanNrmlGeoGroups', 'StdNrmlGeoGroups'], is_visible=show_block3)\u000a#s.setColumnVisibility()
p910
sg100
g904
sg101
I00
sg102
I00
sg103
Vif run:\u000a  StdNrmlGeoGroups = [round(np.std(g, ddof=1), 3) for g in NrmlGeoGroupedMeans]\u000as.setColumnVisibility(['GeoGroups', 'GroupedGeoMeans', 'NrmlGeoGroupedMeans', 'MeanNrmlGeoGroups', 'StdNrmlGeoGroups'], is_visible=show_block3)\u000a#s.setColumnVisibility()
p911
sbsg104
g0
(g105
g106
(g107
g108
tp912
tp913
Rp914
sg112
VStdNrmlGeoGroups
p915
sbag115
ag123
ag131
ag139
ag34
ag184
ag195
asg22
V/home/ubuntu/SciSheets/mysite/user/guest/tables/kristen_single_gene.pcl
p916
sg112
VSingleGene
p917
sb.