ccopy_reg
_reconstructor
p0
(cscisheets.ui.dt_table
DTTable
p1
c__builtin__
object
p2
Ntp3
Rp4
(dp5
S'_versioned_file'
p6
g0
(cmysite.helpers.versioned_file
VersionedFile
p7
g2
Ntp8
Rp9
(dp10
S'_max_versions'
p11
I5
sS'_undo_stack'
p12
g0
(cmysite.helpers.file_stack
FileStack
p13
g2
Ntp14
Rp15
(dp16
S'_dirpath'
p17
S'/home/ubuntu/SciSheets/mysite/user/guest/tables/backup'
p18
sS'_max_depth'
p19
I5
sS'_filename_pfx'
p20
Vkristen_single_gene.u
p21
sbsS'_filepath'
p22
V/home/ubuntu/SciSheets/mysite/user/guest/tables/kristen_single_gene.pcl
p23
sS'_backup_dir'
p24
g18
sS'_redo_stack'
p25
g0
(g13
g2
Ntp26
Rp27
(dp28
g17
g18
sg19
I5
sg20
Vkristen_single_gene.r
p29
sbsbsS'_hidden_columns'
p30
(lp31
sS'_columns'
p32
(lp33
g0
(cscisheets.core.column
Column
p34
g2
Ntp35
Rp36
(dp37
S'_asis'
p38
I01
sS'_owning_table'
p39
g4
sS'_cells'
p40
(lp41
S'1'
p42
aS'2'
p43
aS'3'
p44
aS'4'
p45
aS'5'
p46
aS'6'
p47
aS'7'
p48
aS'8'
p49
aS'9'
p50
aS'10'
p51
aS'11'
p52
aS'12'
p53
aS'13'
p54
aS'14'
p55
aS'15'
p56
aS'16'
p57
aS'17'
p58
aS'18'
p59
aS'19'
p60
aS'20'
p61
aS'21'
p62
aS'22'
p63
aS'23'
p64
aS'24'
p65
aS'25'
p66
aS'26'
p67
aS'27'
p68
aS'28'
p69
aS'29'
p70
aS'30'
p71
aS'31'
p72
aS'32'
p73
aS'33'
p74
aS'34'
p75
aS'35'
p76
aS'36'
p77
aS'37'
p78
aS'38'
p79
aS'39'
p80
aS'40'
p81
aS'41'
p82
aS'42'
p83
aS'43'
p84
aS'44'
p85
aS'45'
p86
aS'46'
p87
aS'47'
p88
aS'48'
p89
aS'49'
p90
aS'50'
p91
aS'51'
p92
aS'52'
p93
aS'53'
p94
aS'54'
p95
asS'_formula_statement'
p96
g0
(cscisheets.core.column
FormulaStatement
p97
g2
Ntp98
Rp99
(dp100
S'_statement'
p101
NsS'_column'
p102
g36
sS'_isExpression'
p103
I00
sS'_isStatement'
p104
I00
sS'_formula'
p105
NsbsS'_data_class'
p106
g0
(cscisheets.core.helpers.api_util
DataClass
p107
c__builtin__
tuple
p108
(cnumpy
ndarray
p109
cscisheets.core.helpers.api_util
makeArray
p110
tp111
tp112
Rp113
sS'_name'
p114
S'row'
p115
sbag0
(g34
g2
Ntp116
Rp117
(dp118
g38
I00
sg39
g4
sg40
(lp119
Vgene
p120
aVrun
p121
aVshow_raw
p122
aVshow_block1
p123
aVshow_block2
p124
aVshow_block3
p125
aVmax_std
p126
aVmin_eff
p127
aVnan
p128
aVnan
p129
aVnan
p130
aVnan
p131
aVnan
p132
aVnan
p133
aVnan
p134
aVnan
p135
aVnan
p136
aVnan
p137
aVnan
p138
aVnan
p139
aVnan
p140
aVnan
p141
aVnan
p142
aVnan
p143
aVnan
p144
aVnan
p145
aVnan
p146
aVnan
p147
aVnan
p148
aVnan
p149
aVnan
p150
aVnan
p151
aVnan
p152
aVnan
p153
aVnan
p154
aVnan
p155
aVnan
p156
aVnan
p157
aVnan
p158
aVnan
p159
aVnan
p160
aVnan
p161
aVnan
p162
aVnan
p163
aVnan
p164
aVnan
p165
aVnan
p166
aVnan
p167
aVnan
p168
aVnan
p169
aVnan
p170
aVnan
p171
aVnan
p172
aVnan
p173
asg96
g0
(g97
g2
Ntp174
Rp175
(dp176
g101
Nsg102
g117
sg103
I00
sg104
I00
sg105
Nsbsg106
g0
(g107
g108
(g109
g110
tp177
tp178
Rp179
sg114
VParmNames
p180
sbag0
(g34
g2
Ntp181
Rp182
(dp183
g38
I00
sg39
g4
sg40
(lp184
VGene2
p185
aVTrue
p186
aVFalse
p187
aVTrue
p188
aVTrue
p189
aVTrue
p190
aV0.5
p191
aV0.9
p192
aV
p193
ag193
aVnan
p194
aVnan
p195
aVnan
p196
aVnan
p197
aVnan
p198
aVnan
p199
aVnan
p200
aVnan
p201
aVnan
p202
aVnan
p203
aVnan
p204
aVnan
p205
aVnan
p206
aVnan
p207
aVnan
p208
aVnan
p209
aVnan
p210
aVnan
p211
aVnan
p212
aVnan
p213
aVnan
p214
aVnan
p215
aVnan
p216
aVnan
p217
aVnan
p218
aVnan
p219
aVnan
p220
aVnan
p221
aVnan
p222
aVnan
p223
aVnan
p224
aVnan
p225
aVnan
p226
aVnan
p227
aVnan
p228
aVnan
p229
aVnan
p230
aVnan
p231
aVnan
p232
aVnan
p233
aVnan
p234
aVnan
p235
aVnan
p236
aVnan
p237
asg96
g0
(g97
g2
Ntp238
Rp239
(dp240
g101
Vxlsx_path = '/mnt/hgfs/josephhellerstein/home/Technical/SciSheets/CaseStudies/Kristen/workbooks/data.xlsx'\u000as.setColumnVisibility()\u000agene = ParmValues[0]\u000arun = ParmValues[1] == 'True'\u000ashow_raw = ParmValues[2] == 'True'\u000ashow_block1 = ParmValues[3] == 'True'\u000ashow_block2 = ParmValues[4] == 'True'\u000ashow_block3 = ParmValues[5] == 'True'\u000amax_std  = float(ParmValues[6])\u000amin_eff = float(ParmValues[7])\u000aworksheet = gene + "-I"\u000aif False:\u000a  Groups = []\u000a  GroupedCt = []\u000a  GroupedEff = []\u000a  MeanCt = []\u000a  Imp = []\u000a  s.deleteColumn('Ct')\u000a  s.deleteColumn('RunType')\u000a  s.deleteColumn('BRpl')\u000a  s.deleteColumn('TRpl')\u000a  s.deleteColumn('Treatment')\u000a  s.deleteColumn('SmplName')\u000a  s.deleteColumn('Eff')\u000aif run:\u000a  importExcelToTable(s, xlsx_path, worksheet=worksheet)\u000a  BRpl = s.getColumnValues('BRpl')\u000a  Ct = s.getColumnValues('Ct')\u000a  Eff = s.getColumnValues('Eff')\u000a  RunType = s.getColumnValues('RunType')\u000a  TRpl = s.getColumnValues('TRpl')\u000a  Treatment = s.getColumnValues('Treatment')\u000as.setColumnVisibility(['SmplName'], False)\u000as.setColumnVisibility(['BRpl', 'Ct', 'Eff', 'RunType', 'TRpl', 'Treatment'], is_visible=show_raw)
p241
sg102
g182
sg103
I00
sg104
I00
sg105
Vxlsx_path = '/mnt/hgfs/josephhellerstein/home/Technical/SciSheets/CaseStudies/Kristen/workbooks/data.xlsx'\u000as.setColumnVisibility()\u000agene = ParmValues[0]\u000arun = ParmValues[1] == 'True'\u000ashow_raw = ParmValues[2] == 'True'\u000ashow_block1 = ParmValues[3] == 'True'\u000ashow_block2 = ParmValues[4] == 'True'\u000ashow_block3 = ParmValues[5] == 'True'\u000amax_std  = float(ParmValues[6])\u000amin_eff = float(ParmValues[7])\u000aworksheet = gene + "-I"\u000aif False:\u000a  Groups = []\u000a  GroupedCt = []\u000a  GroupedEff = []\u000a  MeanCt = []\u000a  Imp = []\u000a  s.deleteColumn('Ct')\u000a  s.deleteColumn('RunType')\u000a  s.deleteColumn('BRpl')\u000a  s.deleteColumn('TRpl')\u000a  s.deleteColumn('Treatment')\u000a  s.deleteColumn('SmplName')\u000a  s.deleteColumn('Eff')\u000aif run:\u000a  importExcelToTable(s, xlsx_path, worksheet=worksheet)\u000a  BRpl = s.getColumnValues('BRpl')\u000a  Ct = s.getColumnValues('Ct')\u000a  Eff = s.getColumnValues('Eff')\u000a  RunType = s.getColumnValues('RunType')\u000a  TRpl = s.getColumnValues('TRpl')\u000a  Treatment = s.getColumnValues('Treatment')\u000as.setColumnVisibility(['SmplName'], False)\u000as.setColumnVisibility(['BRpl', 'Ct', 'Eff', 'RunType', 'TRpl', 'Treatment'], is_visible=show_raw)
p242
sbsg106
g0
(g107
g108
(g109
g110
tp243
tp244
Rp245
sg114
VParmValues
p246
sbag0
(g34
g2
Ntp247
Rp248
(dp249
g38
I00
sg39
g4
sg40
(lp250
(cnumpy.core.multiarray
scalar
p251
(cnumpy
dtype
p252
(S'i8'
p253
I0
I1
tp254
Rp255
(I3
S'<'
p256
NNNI-1
I-1
I0
tp257
bS'\x00\x00\x00\x00\x00\x00\x00\x00'
p258
tp259
Rp260
VI
p261
g251
(g255
S'\x01\x00\x00\x00\x00\x00\x00\x00'
p262
tp263
Rp264
tp265
a(g251
(g255
S'\x00\x00\x00\x00\x00\x00\x00\x00'
p266
tp267
Rp268
VR1
p269
g251
(g255
S'\x01\x00\x00\x00\x00\x00\x00\x00'
p270
tp271
Rp272
tp273
a(g251
(g255
S'\x00\x00\x00\x00\x00\x00\x00\x00'
p274
tp275
Rp276
VR2
p277
g251
(g255
S'\x01\x00\x00\x00\x00\x00\x00\x00'
p278
tp279
Rp280
tp281
a(g251
(g255
S'\x01\x00\x00\x00\x00\x00\x00\x00'
p282
tp283
Rp284
g261
g251
(g255
S'\x01\x00\x00\x00\x00\x00\x00\x00'
p285
tp286
Rp287
tp288
a(g251
(g255
S'\x01\x00\x00\x00\x00\x00\x00\x00'
p289
tp290
Rp291
g261
g251
(g255
S'\x02\x00\x00\x00\x00\x00\x00\x00'
p292
tp293
Rp294
tp295
a(g251
(g255
S'\x01\x00\x00\x00\x00\x00\x00\x00'
p296
tp297
Rp298
g261
g251
(g255
S'\x03\x00\x00\x00\x00\x00\x00\x00'
p299
tp300
Rp301
tp302
a(g251
(g255
S'\x01\x00\x00\x00\x00\x00\x00\x00'
p303
tp304
Rp305
g269
g251
(g255
S'\x01\x00\x00\x00\x00\x00\x00\x00'
p306
tp307
Rp308
tp309
a(g251
(g255
S'\x01\x00\x00\x00\x00\x00\x00\x00'
p310
tp311
Rp312
g269
g251
(g255
S'\x02\x00\x00\x00\x00\x00\x00\x00'
p313
tp314
Rp315
tp316
a(g251
(g255
S'\x01\x00\x00\x00\x00\x00\x00\x00'
p317
tp318
Rp319
g269
g251
(g255
S'\x03\x00\x00\x00\x00\x00\x00\x00'
p320
tp321
Rp322
tp323
a(g251
(g255
S'\x01\x00\x00\x00\x00\x00\x00\x00'
p324
tp325
Rp326
g277
g251
(g255
S'\x01\x00\x00\x00\x00\x00\x00\x00'
p327
tp328
Rp329
tp330
a(g251
(g255
S'\x01\x00\x00\x00\x00\x00\x00\x00'
p331
tp332
Rp333
g277
g251
(g255
S'\x02\x00\x00\x00\x00\x00\x00\x00'
p334
tp335
Rp336
tp337
a(g251
(g255
S'\x01\x00\x00\x00\x00\x00\x00\x00'
p338
tp339
Rp340
g277
g251
(g255
S'\x03\x00\x00\x00\x00\x00\x00\x00'
p341
tp342
Rp343
tp344
a(g251
(g255
S'\x02\x00\x00\x00\x00\x00\x00\x00'
p345
tp346
Rp347
g261
g251
(g255
S'\x01\x00\x00\x00\x00\x00\x00\x00'
p348
tp349
Rp350
tp351
a(g251
(g255
S'\x02\x00\x00\x00\x00\x00\x00\x00'
p352
tp353
Rp354
g269
g251
(g255
S'\x01\x00\x00\x00\x00\x00\x00\x00'
p355
tp356
Rp357
tp358
a(g251
(g255
S'\x02\x00\x00\x00\x00\x00\x00\x00'
p359
tp360
Rp361
g277
g251
(g255
S'\x01\x00\x00\x00\x00\x00\x00\x00'
p362
tp363
Rp364
tp365
a(g251
(g255
S'\x03\x00\x00\x00\x00\x00\x00\x00'
p366
tp367
Rp368
g261
g251
(g255
S'\x01\x00\x00\x00\x00\x00\x00\x00'
p369
tp370
Rp371
tp372
a(g251
(g255
S'\x03\x00\x00\x00\x00\x00\x00\x00'
p373
tp374
Rp375
g269
g251
(g255
S'\x01\x00\x00\x00\x00\x00\x00\x00'
p376
tp377
Rp378
tp379
a(g251
(g255
S'\x03\x00\x00\x00\x00\x00\x00\x00'
p380
tp381
Rp382
g277
g251
(g255
S'\x01\x00\x00\x00\x00\x00\x00\x00'
p383
tp384
Rp385
tp386
aNaNaNaNaNaNaNaNaNaNaNaNaNaNaNaNaNaNaNaNaNaNaNaNaNaNaNaNaNaNaNaNaNaNaNaNasg96
g0
(g97
g2
Ntp387
Rp388
(dp389
g101
Vif run:\u000a  sel = Eff > min_eff\u000a  grouping_columns =   [\u000a      Treatment[sel],\u000a       RunType[sel], \u000a      BRpl[sel],      \u000a    ]\u000a  if True:\u000a    Groups, groupedCt = groupBy(\u000a      grouping_columns, Ct[sel])\u000a    Groups, groupedEff = groupBy(\u000a      grouping_columns, Eff[sel])\u000a    GroupedCt = roundValues(groupedCt,2)\u000a    GroupedEff = roundValues(groupedEff,2)\u000a    s.setColumnValues('GroupedCt', GroupedCt)\u000a    s.setColumnValues('GroupedEff', GroupedEff)
p390
sg102
g248
sg103
I00
sg104
I00
sg105
Vif run:\u000a  sel = Eff > min_eff\u000a  grouping_columns =   [\u000a      Treatment[sel],\u000a       RunType[sel], \u000a      BRpl[sel],      \u000a    ]\u000a  if True:\u000a    Groups, groupedCt = groupBy(\u000a      grouping_columns, Ct[sel])\u000a    Groups, groupedEff = groupBy(\u000a      grouping_columns, Eff[sel])\u000a    GroupedCt = roundValues(groupedCt,2)\u000a    GroupedEff = roundValues(groupedEff,2)\u000a    s.setColumnValues('GroupedCt', GroupedCt)\u000a    s.setColumnValues('GroupedEff', GroupedEff)
p391
sbsg106
g0
(g107
g108
(g109
g110
tp392
tp393
Rp394
sg114
VGroups
p395
sbag0
(g34
g2
Ntp396
Rp397
(dp398
g38
I00
sg39
g4
sg40
(lp399
cnumpy.core.multiarray
_reconstruct
p400
(g109
(I0
tp401
S'b'
p402
tp403
Rp404
(I1
(I3
tp405
g252
(S'f8'
p406
I0
I1
tp407
Rp408
(I3
S'<'
p409
NNNI-1
I-1
I0
tp410
bI00
S'q=\n\xd7\xa3p\xed?\x1f\x85\xebQ\xb8\x1e\xed?\x1f\x85\xebQ\xb8\x1e\xed?'
p411
tp412
bag400
(g109
(I0
tp413
g402
tp414
Rp415
(I1
(I2
tp416
g408
I00
S'q=\n\xd7\xa3p\xed?\\\x8f\xc2\xf5(\\\xef?'
p417
tp418
baNaNaNaNaNaNaNaNaNaNaNaNaNaNaNaNaNaNaNaNaNaNaNaNaNaNaNaNaNaNaNaNaNaNaNaNaNaNaNaNaNaNaNaNaNaNaNaNaNaNaNaNasg96
g0
(g97
g2
Ntp419
Rp420
(dp421
g101
Nsg102
g397
sg103
I00
sg104
I00
sg105
Nsbsg106
g0
(g107
g108
(g109
g110
tp422
tp423
Rp424
sg114
VGroupedEff
p425
sbag0
(g34
g2
Ntp426
Rp427
(dp428
g38
I00
sg39
g4
sg40
(lp429
g400
(g109
(I0
tp430
g402
tp431
Rp432
(I1
(I3
tp433
g408
I00
S'\x8f\xc2\xf5(\\O2@\n\xd7\xa3p=J2@fffff&2@'
p434
tp435
bag400
(g109
(I0
tp436
g402
tp437
Rp438
(I1
(I2
tp439
g408
I00
S'\xecQ\xb8\x1e\x85\xeb3@\x9a\x99\x99\x99\x99\xd93@'
p440
tp441
baNaNaNaNaNaNaNaNaNaNaNaNaNaNaNaNaNaNaNaNaNaNaNaNaNaNaNaNaNaNaNaNaNaNaNaNaNaNaNaNaNaNaNaNaNaNaNaNaNaNaNaNasg96
g0
(g97
g2
Ntp442
Rp443
(dp444
g101
Nsg102
g427
sg103
I00
sg104
I00
sg105
Nsbsg106
g0
(g107
g108
(g109
g110
tp445
tp446
Rp447
sg114
VGroupedCt
p448
sbag0
(g34
g2
Ntp449
Rp450
(dp451
g38
I00
sg39
g4
sg40
(lp452
g400
(g109
(I0
tp453
g402
tp454
Rp455
(I1
(I3
tp456
g408
I00
S'\xcd\xcc\xcc\xcc\xccL2@\xcd\xcc\xcc\xcc\xccL2@\x9a\x99\x99\x99\x99\x192@'
p457
tp458
bag400
(g109
(I0
tp459
g402
tp460
Rp461
(I1
(I2
tp462
g408
I00
S'fffff\xe63@fffff\xe63@'
p463
tp464
baNaNaNaNaNaNaNaNaNaNaNaNaNaNaNaNaNaNaNaNaNaNaNaNaNaNaNaNaNaNaNaNaNaNaNaNaNaNaNaNaNaNaNaNaNaNaNaNaNaNaNaNasg96
g0
(g97
g2
Ntp465
Rp466
(dp467
g101
Vif run:\u000a  StdFilteredGroupedCt = roundValues([filterExtremes(g, max_std, 2) for g in pruneNulls(GroupedCt)])\u000a  s.setColumnValues('StdFilteredGroupedCt', StdFilteredGroupedCt)
p468
sg102
g450
sg103
I00
sg104
I00
sg105
Vif run:\u000a  StdFilteredGroupedCt = roundValues([filterExtremes(g, max_std, 2) for g in pruneNulls(GroupedCt)])\u000a  s.setColumnValues('StdFilteredGroupedCt', StdFilteredGroupedCt)
p469
sbsg106
g0
(g107
g108
(g109
g110
tp470
tp471
Rp472
sg114
VStdFilteredGroupedCt
p473
sbag0
(g34
g2
Ntp474
Rp475
(dp476
g38
I00
sg39
g4
sg40
(lp477
F18.2
aF19.9
aFnan
aFnan
aFnan
aFnan
aFnan
aFnan
aFnan
aFnan
aFnan
aFnan
aFnan
aFnan
aFnan
aFnan
aFnan
aFnan
aFnan
aFnan
aFnan
aFnan
aFnan
aFnan
aFnan
aFnan
aFnan
aFnan
aFnan
aFnan
aFnan
aFnan
aFnan
aFnan
aFnan
aFnan
aFnan
aFnan
aFnan
aFnan
aFnan
aFnan
aFnan
aFnan
aFnan
aFnan
aFnan
aFnan
aFnan
aFnan
aFnan
aFnan
aFnan
aFnan
asg96
g0
(g97
g2
Ntp478
Rp479
(dp480
g101
Vif run:\u000a  MeanCt = [np.mean(g) for g in StdFilteredGroupedCt]\u000a  MeanCt = roundValues(MeanCt,1)\u000a  s.setColumnValues('MeanCt', MeanCt)\u000a  StdCt = [np.std(g, ddof=1) for g in StdFilteredGroupedCt]\u000a  StdCt = roundValues(StdCt,3)\u000a  s.setColumnValues('StdCt', StdCt)\u000as.setColumnVisibility(['Groups', 'GroupedEff', 'GroupedCt', 'StdFilteredGroupedCt', 'MeanCt', 'StdCt'], is_visible=show_block1)
p481
sg102
g475
sg103
I00
sg104
I00
sg105
Vif run:\u000a  MeanCt = [np.mean(g) for g in StdFilteredGroupedCt]\u000a  MeanCt = roundValues(MeanCt,1)\u000a  s.setColumnValues('MeanCt', MeanCt)\u000a  StdCt = [np.std(g, ddof=1) for g in StdFilteredGroupedCt]\u000a  StdCt = roundValues(StdCt,3)\u000a  s.setColumnValues('StdCt', StdCt)\u000as.setColumnVisibility(['Groups', 'GroupedEff', 'GroupedCt', 'StdFilteredGroupedCt', 'MeanCt', 'StdCt'], is_visible=show_block1)
p482
sbsg106
g0
(g107
g108
(g109
g110
tp483
tp484
Rp485
sg114
VMeanCt
p486
sbag0
(g34
g2
Ntp487
Rp488
(dp489
g38
I00
sg39
g4
sg40
(lp490
F0.115
aF0.0
aFnan
aFnan
aFnan
aFnan
aFnan
aFnan
aFnan
aFnan
aFnan
aFnan
aFnan
aFnan
aFnan
aFnan
aFnan
aFnan
aFnan
aFnan
aFnan
aFnan
aFnan
aFnan
aFnan
aFnan
aFnan
aFnan
aFnan
aFnan
aFnan
aFnan
aFnan
aFnan
aFnan
aFnan
aFnan
aFnan
aFnan
aFnan
aFnan
aFnan
aFnan
aFnan
aFnan
aFnan
aFnan
aFnan
aFnan
aFnan
aFnan
aFnan
aFnan
aFnan
asg96
g0
(g97
g2
Ntp491
Rp492
(dp493
g101
Nsg102
g488
sg103
I00
sg104
I00
sg105
Nsbsg106
g0
(g107
g108
(g109
g110
tp494
tp495
Rp496
sg114
VStdCt
p497
sbag0
(g34
g2
Ntp498
Rp499
(dp500
g38
I00
sg39
g4
sg40
(lp501
(lp502
g251
(g255
S'\x00\x00\x00\x00\x00\x00\x00\x00'
p503
tp504
Rp505
ag251
(g255
S'\x01\x00\x00\x00\x00\x00\x00\x00'
p506
tp507
Rp508
aa(lp509
g251
(g255
S'\x01\x00\x00\x00\x00\x00\x00\x00'
p510
tp511
Rp512
ag251
(g255
S'\x01\x00\x00\x00\x00\x00\x00\x00'
p513
tp514
Rp515
aa(lp516
g251
(g255
S'\x01\x00\x00\x00\x00\x00\x00\x00'
p517
tp518
Rp519
ag251
(g255
S'\x02\x00\x00\x00\x00\x00\x00\x00'
p520
tp521
Rp522
aa(lp523
g251
(g255
S'\x01\x00\x00\x00\x00\x00\x00\x00'
p524
tp525
Rp526
ag251
(g255
S'\x03\x00\x00\x00\x00\x00\x00\x00'
p527
tp528
Rp529
aa(lp530
g251
(g255
S'\x02\x00\x00\x00\x00\x00\x00\x00'
p531
tp532
Rp533
ag251
(g255
S'\x01\x00\x00\x00\x00\x00\x00\x00'
p534
tp535
Rp536
aa(lp537
g251
(g255
S'\x03\x00\x00\x00\x00\x00\x00\x00'
p538
tp539
Rp540
ag251
(g255
S'\x01\x00\x00\x00\x00\x00\x00\x00'
p541
tp542
Rp543
aaNaNaNaNaNaNaNaNaNaNaNaNaNaNaNaNaNaNaNaNaNaNaNaNaNaNaNaNaNaNaNaNaNaNaNaNaNaNaNaNaNaNaNaNaNaNaNaNasg96
g0
(g97
g2
Ntp544
Rp545
(dp546
g101
Vif run:\u000a      tabularize(s, 'Groups', 1, 'MeanCt',\u000a          new_category_colnm='BioRuns',\u000a          values_colnm_prefix='Gene_')\u000a      BioRuns = s.getColumnValues('BioRuns')\u000a      Gene_I = s.getColumnValues('Gene_I')\u000a      Gene_R1 = s.getColumnValues('Gene_R1')\u000a      Gene_R2 = s.getColumnValues('Gene_R2')\u000a
p547
sg102
g499
sg103
I00
sg104
I00
sg105
Vif run:\u000a      tabularize(s, 'Groups', 1, 'MeanCt',\u000a          new_category_colnm='BioRuns',\u000a          values_colnm_prefix='Gene_')\u000a      BioRuns = s.getColumnValues('BioRuns')\u000a      Gene_I = s.getColumnValues('Gene_I')\u000a      Gene_R1 = s.getColumnValues('Gene_R1')\u000a      Gene_R2 = s.getColumnValues('Gene_R2')\u000a
p548
sbsg106
g0
(g107
g108
(g109
g110
tp549
tp550
Rp551
sg114
VBioRuns
p552
sbag0
(g34
g2
Ntp553
Rp554
(dp555
g38
I00
sg39
g4
sg40
(lp556
F18.2
aF22.4
aF21.9
aF23.4
aF23.4
aF18.9
aFnan
aFnan
aFnan
aFnan
aFnan
aFnan
aFnan
aFnan
aFnan
aFnan
aFnan
aFnan
aFnan
aFnan
aFnan
aFnan
aFnan
aFnan
aFnan
aFnan
aFnan
aFnan
aFnan
aFnan
aFnan
aFnan
aFnan
aFnan
aFnan
aFnan
aFnan
aFnan
aFnan
aFnan
aFnan
aFnan
aFnan
aFnan
aFnan
aFnan
aFnan
aFnan
aFnan
aFnan
aFnan
aFnan
aFnan
aFnan
asg96
g0
(g97
g2
Ntp557
Rp558
(dp559
g101
Nsg102
g554
sg103
I00
sg104
I00
sg105
Nsbsg106
g0
(g107
g108
(g109
g110
tp560
tp561
Rp562
sg114
S'Gene_I'
p563
sbag0
(g34
g2
Ntp564
Rp565
(dp566
g38
I00
sg39
g4
sg40
(lp567
F18.3
aF19.9
aF21.9
aF23.9
aF23.5
aF18.8
aFnan
aFnan
aFnan
aFnan
aFnan
aFnan
aFnan
aFnan
aFnan
aFnan
aFnan
aFnan
aFnan
aFnan
aFnan
aFnan
aFnan
aFnan
aFnan
aFnan
aFnan
aFnan
aFnan
aFnan
aFnan
aFnan
aFnan
aFnan
aFnan
aFnan
aFnan
aFnan
aFnan
aFnan
aFnan
aFnan
aFnan
aFnan
aFnan
aFnan
aFnan
aFnan
aFnan
aFnan
aFnan
aFnan
aFnan
aFnan
asg96
g0
(g97
g2
Ntp568
Rp569
(dp570
g101
Nsg102
g565
sg103
I00
sg104
I00
sg105
Nsbsg106
g562
sg114
S'Gene_R1'
p571
sbag0
(g34
g2
Ntp572
Rp573
(dp574
g38
I00
sg39
g4
sg40
(lp575
F19.8
aF21.9
aF23.6
aF24.5
aF26.3
aF20.4
aFnan
aFnan
aFnan
aFnan
aFnan
aFnan
aFnan
aFnan
aFnan
aFnan
aFnan
aFnan
aFnan
aFnan
aFnan
aFnan
aFnan
aFnan
aFnan
aFnan
aFnan
aFnan
aFnan
aFnan
aFnan
aFnan
aFnan
aFnan
aFnan
aFnan
aFnan
aFnan
aFnan
aFnan
aFnan
aFnan
aFnan
aFnan
aFnan
aFnan
aFnan
aFnan
aFnan
aFnan
aFnan
aFnan
aFnan
aFnan
asg96
g0
(g97
g2
Ntp576
Rp577
(dp578
g101
Nsg102
g573
sg103
I00
sg104
I00
sg105
Nsbsg106
g562
sg114
S'Gene_R2'
p579
sbag0
(g34
g2
Ntp580
Rp581
(dp582
g38
I00
sg39
g4
sg40
(lp583
F1.07177
aF0.17678
aF1.0
aF1.41421
aF1.07177
aF0.93303
aFnan
aFnan
aFnan
aFnan
aFnan
aFnan
aFnan
aFnan
aFnan
aFnan
aFnan
aFnan
aFnan
aFnan
aFnan
aFnan
aFnan
aFnan
aFnan
aFnan
aFnan
aFnan
aFnan
aFnan
aFnan
aFnan
aFnan
aFnan
aFnan
aFnan
aFnan
aFnan
aFnan
aFnan
aFnan
aFnan
aFnan
aFnan
aFnan
aFnan
aFnan
aFnan
aFnan
aFnan
aFnan
aFnan
aFnan
aFnan
asg96
g0
(g97
g2
Ntp584
Rp585
(dp586
g101
VExprR1 = roundValues(2**(Gene_R1 - Gene_I),5)
p587
sg102
g581
sg103
I01
sg104
I00
sg105
VroundValues(2**(Gene_R1 - Gene_I),5)
p588
sbsg106
g0
(g107
g108
(g109
g110
tp589
tp590
Rp591
sg114
VExprR1
p592
sbag0
(g34
g2
Ntp593
Rp594
(dp595
g38
I00
sg39
g4
sg40
(lp596
F3.03143
aF0.70711
aF3.24901
aF2.14355
aF7.46426
aF2.82843
aFnan
aFnan
aFnan
aFnan
aFnan
aFnan
aFnan
aFnan
aFnan
aFnan
aFnan
aFnan
aFnan
aFnan
aFnan
aFnan
aFnan
aFnan
aFnan
aFnan
aFnan
aFnan
aFnan
aFnan
aFnan
aFnan
aFnan
aFnan
aFnan
aFnan
aFnan
aFnan
aFnan
aFnan
aFnan
aFnan
aFnan
aFnan
aFnan
aFnan
aFnan
aFnan
aFnan
aFnan
aFnan
aFnan
aFnan
aFnan
asg96
g0
(g97
g2
Ntp597
Rp598
(dp599
g101
VExprR2 = roundValues(2**(Gene_R2 - Gene_I),5)
p600
sg102
g594
sg103
I01
sg104
I00
sg105
VroundValues(2**(Gene_R2 - Gene_I),5)
p601
sbsg106
g0
(g107
g108
(g109
g110
tp602
tp603
Rp604
sg114
VExprR2
p605
sbag0
(g34
g2
Ntp606
Rp607
(dp608
g38
I00
sg39
g4
sg40
(lp609
F1.802
aF0.354
aF1.803
aF1.741
aF2.828
aF1.625
aFnan
aFnan
aFnan
aFnan
aFnan
aFnan
aFnan
aFnan
aFnan
aFnan
aFnan
aFnan
aFnan
aFnan
aFnan
aFnan
aFnan
aFnan
aFnan
aFnan
aFnan
aFnan
aFnan
aFnan
aFnan
aFnan
aFnan
aFnan
aFnan
aFnan
aFnan
aFnan
aFnan
aFnan
aFnan
aFnan
aFnan
aFnan
aFnan
aFnan
aFnan
aFnan
aFnan
aFnan
aFnan
aFnan
aFnan
aFnan
asg96
g0
(g97
g2
Ntp610
Rp611
(dp612
g101
Vif run:\u000a  GeoMean = roundValues(np.sqrt(ExprR1*ExprR2), 3)\u000as.setColumnVisibility(['BioRuns', 'Gene_I', 'Gene_R1', 'Gene_R2', 'ExprR1', 'ExprR2', 'GeoMean'], is_visible=show_block2)
p613
sg102
g607
sg103
I00
sg104
I00
sg105
Vif run:\u000a  GeoMean = roundValues(np.sqrt(ExprR1*ExprR2), 3)\u000as.setColumnVisibility(['BioRuns', 'Gene_I', 'Gene_R1', 'Gene_R2', 'ExprR1', 'ExprR2', 'GeoMean'], is_visible=show_block2)
p614
sbsg106
g0
(g107
g108
(g109
g110
tp615
tp616
Rp617
sg114
VGeoMean
p618
sbag0
(g34
g2
Ntp619
Rp620
(dp621
g38
I00
sg39
g4
sg40
(lp622
F0.0
aF1.0
aF2.0
aF3.0
aFnan
aFnan
aFnan
aFnan
aFnan
aFnan
aFnan
aFnan
aFnan
aFnan
aFnan
aFnan
aFnan
aFnan
aFnan
aFnan
aFnan
aFnan
aFnan
aFnan
aFnan
aFnan
aFnan
aFnan
aFnan
aFnan
aFnan
aFnan
aFnan
aFnan
aFnan
aFnan
aFnan
aFnan
aFnan
aFnan
aFnan
aFnan
aFnan
aFnan
aFnan
aFnan
aFnan
aFnan
aFnan
aFnan
aFnan
aFnan
aFnan
aFnan
asg96
g0
(g97
g2
Ntp623
Rp624
(dp625
g101
Vif run:\u000a  cat_vals = [br[0] for br in pruneNulls(BioRuns)]\u000a  clean_geo = pruneNulls(GeoMean, required_length=len(cat_vals))\u000a  GeoGroups, groupedGeoMeans = groupBy(cat_vals, clean_geo)\u000a  GroupedGeoMeans = roundValues(groupedGeoMeans, 3)\u000a  s.setColumnValues('GeoGroups', GeoGroups)\u000a  s.setColumnValues('GroupedGeoMeans', GroupedGeoMeans)
p626
sg102
g620
sg103
I00
sg104
I00
sg105
Vif run:\u000a  cat_vals = [br[0] for br in pruneNulls(BioRuns)]\u000a  clean_geo = pruneNulls(GeoMean, required_length=len(cat_vals))\u000a  GeoGroups, groupedGeoMeans = groupBy(cat_vals, clean_geo)\u000a  GroupedGeoMeans = roundValues(groupedGeoMeans, 3)\u000a  s.setColumnValues('GeoGroups', GeoGroups)\u000a  s.setColumnValues('GroupedGeoMeans', GroupedGeoMeans)
p627
sbsg106
g0
(g107
g108
(g109
g110
tp628
tp629
Rp630
sg114
VGeoGroups
p631
sbag0
(g34
g2
Ntp632
Rp633
(dp634
g38
I00
sg39
g4
sg40
(lp635
g400
(g109
(I0
tp636
g402
tp637
Rp638
(I1
(I1
tp639
g408
I00
S'\xa2E\xb6\xf3\xfd\xd4\xfc?'
p640
tp641
bag400
(g109
(I0
tp642
g402
tp643
Rp644
(I1
(I3
tp645
g408
I00
S'\x0e-\xb2\x9d\xef\xa7\xd6?\x0c\x02+\x87\x16\xd9\xfc?B`\xe5\xd0"\xdb\xfb?'
p646
tp647
bag400
(g109
(I0
tp648
g402
tp649
Rp650
(I1
(I1
tp651
g408
I00
S'9\xb4\xc8v\xbe\x9f\x06@'
p652
tp653
bag400
(g109
(I0
tp654
g402
tp655
Rp656
(I1
(I1
tp657
g408
I00
S'\x00\x00\x00\x00\x00\x00\xfa?'
p658
tp659
baNaNaNaNaNaNaNaNaNaNaNaNaNaNaNaNaNaNaNaNaNaNaNaNaNaNaNaNaNaNaNaNaNaNaNaNaNaNaNaNaNaNaNaNaNaNaNaNaNaNasg96
g0
(g97
g2
Ntp660
Rp661
(dp662
g101
Nsg102
g633
sg103
I00
sg104
I00
sg105
Nsbsg106
g0
(g107
g108
(g109
g110
tp663
tp664
Rp665
sg114
VGroupedGeoMeans
p666
sbag0
(g34
g2
Ntp667
Rp668
(dp669
g38
I00
sg39
g4
sg40
(lp670
g400
(g109
(I0
tp671
g402
tp672
Rp673
(I1
(I1
tp674
g252
(S'f8'
p675
I0
I1
tp676
Rp677
(I3
S'<'
p678
NNNI-1
I-1
I0
tp679
bI00
S'\x00\x00\x00\x00\x00\x00\xf0?'
p680
tp681
bag400
(g109
(I0
tp682
g402
tp683
Rp684
(I1
(I3
tp685
g677
I00
S'J\x0c\x02+\x87\x16\xc9?j\xbct\x93\x18\x04\xf0?\xb6\xf3\xfd\xd4x\xe9\xee?'
p686
tp687
bag400
(g109
(I0
tp688
g402
tp689
Rp690
(I1
(I1
tp691
g677
I00
S'\xb4\xc8v\xbe\x9f\x1a\xf9?'
p692
tp693
bag400
(g109
(I0
tp694
g402
tp695
Rp696
(I1
(I1
tp697
g677
I00
S'w\xbe\x9f\x1a/\xdd\xec?'
p698
tp699
baNaNaNaNaNaNaNaNaNaNaNaNaNaNaNaNaNaNaNaNaNaNaNaNaNaNaNaNaNaNaNaNaNaNaNaNaNaNaNaNaNaNaNaNaNaNaNaNaNaNasg96
g0
(g97
g2
Ntp700
Rp701
(dp702
g101
Vif run:\u000a  ref = np.mean(GroupedGeoMeans[0])\u000a  NrmlGeoGroupedMeans = []\u000a  truncated_group = [g for g in GroupedGeoMeans if g is not None]\u000a  for g in truncated_group:\u000a    new_g = [x/ref for x in g]\u000a    NrmlGeoGroupedMeans.append(new_g)\u000a  NrmlGeoGroupedMeans = roundValues(NrmlGeoGroupedMeans, 3)
p703
sg102
g668
sg103
I00
sg104
I00
sg105
Vif run:\u000a  ref = np.mean(GroupedGeoMeans[0])\u000a  NrmlGeoGroupedMeans = []\u000a  truncated_group = [g for g in GroupedGeoMeans if g is not None]\u000a  for g in truncated_group:\u000a    new_g = [x/ref for x in g]\u000a    NrmlGeoGroupedMeans.append(new_g)\u000a  NrmlGeoGroupedMeans = roundValues(NrmlGeoGroupedMeans, 3)
p704
sbsg106
g0
(g107
g108
(g109
g110
tp705
tp706
Rp707
sg114
VNrmlGeoGroupedMeans
p708
sbag0
(g34
g2
Ntp709
Rp710
(dp711
g38
I00
sg39
g4
sg40
(lp712
F1.0
aF0.721
aF1.569
aF0.902
aFnan
aFnan
aFnan
aFnan
aFnan
aFnan
aFnan
aFnan
aFnan
aFnan
aFnan
aFnan
aFnan
aFnan
aFnan
aFnan
aFnan
aFnan
aFnan
aFnan
aFnan
aFnan
aFnan
aFnan
aFnan
aFnan
aFnan
aFnan
aFnan
aFnan
aFnan
aFnan
aFnan
aFnan
aFnan
aFnan
aFnan
aFnan
aFnan
aFnan
aFnan
aFnan
aFnan
aFnan
aFnan
aFnan
aFnan
aFnan
aFnan
aFnan
asg96
g0
(g97
g2
Ntp713
Rp714
(dp715
g101
Vif run:\u000a  MeanNrmlGeoGroups = [round(np.mean(g), 3) for g in NrmlGeoGroupedMeans]
p716
sg102
g710
sg103
I00
sg104
I00
sg105
Vif run:\u000a  MeanNrmlGeoGroups = [round(np.mean(g), 3) for g in NrmlGeoGroupedMeans]
p717
sbsg106
g0
(g107
g108
(g109
g110
tp718
tp719
Rp720
sg114
VMeanNrmlGeoGroups
p721
sbag0
(g34
g2
Ntp722
Rp723
(dp724
g38
I00
sg39
g4
sg40
(lp725
Fnan
aF0.455
aFnan
aFnan
aFnan
aFnan
aFnan
aFnan
aFnan
aFnan
aFnan
aFnan
aFnan
aFnan
aFnan
aFnan
aFnan
aFnan
aFnan
aFnan
aFnan
aFnan
aFnan
aFnan
aFnan
aFnan
aFnan
aFnan
aFnan
aFnan
aFnan
aFnan
aFnan
aFnan
aFnan
aFnan
aFnan
aFnan
aFnan
aFnan
aFnan
aFnan
aFnan
aFnan
aFnan
aFnan
aFnan
aFnan
aFnan
aFnan
aFnan
aFnan
aFnan
aFnan
asg96
g0
(g97
g2
Ntp726
Rp727
(dp728
g101
Vif run:\u000a  StdNrmlGeoGroups = [round(np.std(g, ddof=1), 3) for g in NrmlGeoGroupedMeans]\u000as.setColumnVisibility(['GeoGroups', 'GroupedGeoMeans', 'NrmlGeoGroupedMeans', 'MeanNrmlGeoGroups', 'StdNrmlGeoGroups'], is_visible=show_block3)\u000a#s.setColumnVisibility()
p729
sg102
g723
sg103
I00
sg104
I00
sg105
Vif run:\u000a  StdNrmlGeoGroups = [round(np.std(g, ddof=1), 3) for g in NrmlGeoGroupedMeans]\u000as.setColumnVisibility(['GeoGroups', 'GroupedGeoMeans', 'NrmlGeoGroupedMeans', 'MeanNrmlGeoGroups', 'StdNrmlGeoGroups'], is_visible=show_block3)\u000a#s.setColumnVisibility()
p730
sbsg106
g0
(g107
g108
(g109
g110
tp731
tp732
Rp733
sg114
VStdNrmlGeoGroups
p734
sbag0
(g34
g2
Ntp735
Rp736
(dp737
g38
I00
sg39
g4
sg40
(lp738
I1
aI1
aI1
aI2
aI2
aI2
aI3
aI3
aI3
aI1
aI1
aI1
aI1
aI1
aI1
aI1
aI1
aI1
aI1
aI1
aI1
aI2
aI2
aI2
aI3
aI3
aI3
aI1
aI1
aI1
aI1
aI1
aI1
aI1
aI1
aI1
aI1
aI1
aI1
aI2
aI2
aI2
aI3
aI3
aI3
aI1
aI1
aI1
aI1
aI1
aI1
aI1
aI1
aI1
asg96
g0
(g97
g2
Ntp739
Rp740
(dp741
g101
Nsg102
g736
sg103
I00
sg104
I00
sg105
Nsbsg106
g0
(g107
g108
(g109
g110
tp742
tp743
Rp744
sg114
S'BRpl'
p745
sbag0
(g34
g2
Ntp746
Rp747
(dp748
g38
I00
sg39
g4
sg40
(lp749
F22.42
aF22.5
aF22.44
aF21.92
aF22.03
aF21.94
aF23.4
aF23.47
aF23.41
aF23.48
aF23.31
aF23.45
aF18.82
aF18.97
aF18.92
aF18.31
aF18.29
aF18.15
aF19.92
aF19.85
aF20.0
aF21.86
aF22.09
aF21.84
aF23.89
aF23.54
aF24.27
aF23.22
aF23.8
aF23.49
aF18.91
aF18.78
aF18.8
aF18.24
aF18.22
aF18.36
aF22.18
aF21.71
aF21.75
aF23.88
aF23.42
aF23.63
aF24.59
aF24.61
aF24.34
aF26.37
aF26.36
aF26.17
aF20.5
aF20.47
aF20.28
aF19.72
aF19.75
aF20.01
asg96
g0
(g97
g2
Ntp750
Rp751
(dp752
g101
Nsg102
g747
sg103
I00
sg104
I00
sg105
Nsbsg106
g744
sg114
S'Ct'
p753
sbag0
(g34
g2
Ntp754
Rp755
(dp756
g38
I00
sg39
g4
sg40
(lp757
F0.8453
aF0.8426
aF0.8524
aF0.8658
aF0.7809
aF0.8512
aF0.8442
aF0.8357
aF0.7658
aF0.8352
aF0.7886
aF0.8105
aF0.876
aF0.8597
aF0.8873
aF0.919
aF0.9106
aF0.9129
aF0.9179
aF0.9783
aF0.8971
aF0.8957
aF0.8287
aF0.8387
aF0.8746
aF0.8493
aF0.8349
aF0.7701
aF0.8746
aF0.8139
aF0.8715
aF0.8977
aF0.856
aF0.8266
aF0.8343
aF0.8496
aF0.7857
aF0.8427
aF0.8637
aF0.8281
aF0.8203
aF0.8288
aF0.8138
aF0.8242
aF0.804
aF0.7795
aF0.7676
aF0.7947
aF0.8179
aF0.8173
aF0.7894
aF0.8157
aF0.8543
aF0.8208
asg96
g0
(g97
g2
Ntp758
Rp759
(dp760
g101
Nsg102
g755
sg103
I00
sg104
I00
sg105
Nsbsg106
g744
sg114
S'Eff'
p761
sbag0
(g34
g2
Ntp762
Rp763
(dp764
g38
I00
sg39
g4
sg40
(lp765
VI
p766
ag766
ag766
ag766
ag766
ag766
ag766
ag766
ag766
ag766
ag766
ag766
ag766
ag766
ag766
ag766
ag766
ag766
aVR1
p767
ag767
ag767
ag767
ag767
ag767
ag767
ag767
ag767
ag767
ag767
ag767
ag767
ag767
ag767
ag767
ag767
ag767
aVR2
p768
ag768
ag768
ag768
ag768
ag768
ag768
ag768
ag768
ag768
ag768
ag768
ag768
ag768
ag768
ag768
ag768
ag768
asg96
g0
(g97
g2
Ntp769
Rp770
(dp771
g101
Nsg102
g763
sg103
I00
sg104
I00
sg105
Nsbsg106
g744
sg114
S'RunType'
p772
sbag0
(g34
g2
Ntp773
Rp774
(dp775
g38
I00
sg39
g4
sg40
(lp776
VSEP1 2012 P17F4 3a
p777
aVSEP1 2012 P17F4 b
p778
aVSEP1 2012 P17F4 c
p779
aVSEP1 2012 P17F5 a
p780
aVSEP1 2012 P17F5 b
p781
aVSEP1 2012 P17F5 c
p782
aVSEP1 2012 P1F3 SEP1a
p783
aVSEP1 2012 P1F3 SEP1b
p784
aVSEP1 2012 P1F3 SEP1c
p785
aVSEP1-2 2012 P11aF2 a
p786
aVSEP1-2 2012 P11aF2 b
p787
aVSEP1-2 2012 P11aF2 c
p788
aVSEP1-3 2012 P15F2 a
p789
aVSEP1-3 2012 P15F2 b
p790
aVSEP1-3 2012 P15F2 c
p791
aVuntreated 2012 P12F1 SEP3-3 1:2a
p792
aVuntreated 2012 P12F1 SEP3-3 1:2b
p793
aVuntreated 2012 P12F1 SEP3-3 1:2c
p794
aVSEP1 2012 P17F4 ACTa
p795
aVSEP1 2012 P17F4 ACTb
p796
aVSEP1 2012 P17F4 ACTc
p797
aVSEP1 2012 P17F5 ACTa
p798
aVSEP1 2012 P17F5 ACTb
p799
aVSEP1 2012 P17F5 ACTc
p800
aVSEP1 2012 P1F3 ACTa
p801
aVSEP1 2012 P1F3 ACTb
p802
aVSEP1 2012 P1F3 ACTc
p803
aVSEP1-2 2012 P11aF2 ACTa
p804
aVSEP1-2 2012 P11aF2 ACTb
p805
aVSEP1-2 2012 P11aF2 ACTc
p806
aVSEP1-3 2012 P15F2 ACTa
p807
aVSEP1-3 2012 P15F2 ACTb
p808
aVSEP1-3 2012 P15F2 ACTc
p809
aVuntreated 2012 P12F1 ACTa
p810
aVuntreated 2012 P12F1 ACTb
p811
aVuntreated 2012 P12F1 ACTc
p812
aVSEP1 2012 P17F4 EEF1a
p813
aVSEP1 2012 P17F4 EEF1b
p814
aVSEP1 2012 P17F4 EEF1c
p815
aVSEP1 2012 P17F5 EEF1a
p816
aVSEP1 2012 P17F5 EEF1b
p817
aVSEP1 2012 P17F5 EEF1c
p818
aVSEP1 2012 P1F3 EEF1a
p819
aVSEP1 2012 P1F3 EEF1b
p820
aVSEP1 2012 P1F3 EEF1c
p821
aVSEP1-2 2012 P11aF2 EEF1a
p822
aVSEP1-2 2012 P11aF2 EEF1b
p823
aVSEP1-2 2012 P11aF2 EEF1c
p824
aVSEP1-3 2012 P15F2 EEF1a
p825
aVSEP1-3 2012 P15F2 EEF1b
p826
aVSEP1-3 2012 P15F2 EEF1c
p827
aVuntreated 2012 P12F1 EEF1a
p828
aVuntreated 2012 P12F1 EEF1b
p829
aVuntreated 2012 P12F1 EEF1c
p830
asg96
g0
(g97
g2
Ntp831
Rp832
(dp833
g101
Nsg102
g774
sg103
I00
sg104
I00
sg105
Nsbsg106
g744
sg114
S'SmplName'
p834
sbag0
(g34
g2
Ntp835
Rp836
(dp837
g38
I00
sg39
g4
sg40
(lp838
Va
p839
aVb
p840
aVc
p841
ag839
ag840
ag841
ag839
ag840
ag841
ag839
ag840
ag841
ag839
ag840
ag841
ag839
ag840
ag841
ag839
ag840
ag841
ag839
ag840
ag841
ag839
ag840
ag841
ag839
ag840
ag841
ag839
ag840
ag841
ag839
ag840
ag841
ag839
ag840
ag841
ag839
ag840
ag841
ag839
ag840
ag841
ag839
ag840
ag841
ag839
ag840
ag841
ag839
ag840
ag841
asg96
g0
(g97
g2
Ntp842
Rp843
(dp844
g101
Nsg102
g836
sg103
I00
sg104
I00
sg105
Nsbsg106
g744
sg114
S'TRpl'
p845
sbag0
(g34
g2
Ntp846
Rp847
(dp848
g38
I00
sg39
g4
sg40
(lp849
I1
aI1
aI1
aI1
aI1
aI1
aI1
aI1
aI1
aI2
aI2
aI2
aI3
aI3
aI3
aI0
aI0
aI0
aI1
aI1
aI1
aI1
aI1
aI1
aI1
aI1
aI1
aI2
aI2
aI2
aI3
aI3
aI3
aI0
aI0
aI0
aI1
aI1
aI1
aI1
aI1
aI1
aI1
aI1
aI1
aI2
aI2
aI2
aI3
aI3
aI3
aI0
aI0
aI0
asg96
g0
(g97
g2
Ntp850
Rp851
(dp852
g101
Nsg102
g847
sg103
I00
sg104
I00
sg105
Nsbsg106
g744
sg114
S'Treatment'
p853
sbasg22
V/home/ubuntu/SciSheets/mysite/user/guest/tables/kristen_single_gene.pcl
p854
sg114
VSingleGene
p855
sb.