ccopy_reg
_reconstructor
p0
(cscisheets.ui.dt_table
DTTable
p1
c__builtin__
object
p2
Ntp3
Rp4
(dp5
S'_versioned_file'
p6
g0
(cmysite.helpers.versioned_file
VersionedFile
p7
g2
Ntp8
Rp9
(dp10
S'_redo_stack'
p11
g0
(cmysite.helpers.file_stack
FileStack
p12
g2
Ntp13
Rp14
(dp15
S'_dirpath'
p16
S'/home/ubuntu/SciSheets/mysite/user/guest/tables/backup'
p17
sS'_max_depth'
p18
I5
sS'_filename_pfx'
p19
Vkristen_single_gene.r
p20
sbsS'_max_versions'
p21
I5
sS'_undo_stack'
p22
g0
(g12
g2
Ntp23
Rp24
(dp25
g16
g17
sg18
I5
sg19
Vkristen_single_gene.u
p26
sbsS'_checkpoint_history'
p27
(lp28
VCell/Update
p29
aVCell/Update
p30
aVCell/Update
p31
aVCell/Update
p32
aVCell/Update
p33
aVCell/Update
p34
aVCell/Update
p35
aVCell/Update
p36
aVCell/Update
p37
aVCell/Update
p38
aVCell/Update
p39
aVCell/Update
p40
aVColumn/Formula
p41
aVColumn/Formula
p42
aVColumn/Append
p43
aVColumn/Formula
p44
aVColumn/Delete
p45
aVCell/Update
p46
aVColumn/Formula
p47
aVCell/Update
p48
aVCell/Update
p49
aVColumn/Formula
p50
aVColumn/Formula
p51
aVCell/Update
p52
aVColumn/Formula
p53
aVColumn/Formula
p54
aVCell/Update
p55
aVCell/Update
p56
aVCell/Update
p57
aVCell/Update
p58
aVColumn/Formula
p59
aVCell/Update
p60
aVCell/Update
p61
aVCell/Update
p62
aVColumn/Formula
p63
aVCell/Update
p64
aVColumn/Formula
p65
aVColumn/Formula
p66
aVCell/Update
p67
aVCell/Update
p68
aVCell/Update
p69
aVCell/Update
p70
aVCell/Update
p71
aVCell/Update
p72
aVCell/Update
p73
aVCell/Update
p74
aVCell/Update
p75
aVColumn/Formula
p76
aVCell/Update
p77
aVCell/Update
p78
aVCell/Update
p79
aVCell/Update
p80
aVCell/Update
p81
aVCell/Update
p82
aVCell/Update
p83
aVCell/Update
p84
aVCell/Update
p85
aVCell/Update
p86
aVCell/Update
p87
aVCell/Update
p88
aVColumn/Formula
p89
aVColumn/Formula
p90
aVColumn/Formula
p91
aVCell/Update
p92
aVCell/Update
p93
aVCell/Update
p94
aVCell/Update
p95
aVCell/Update
p96
aVColumn/Formula
p97
aVCell/Update
p98
aVCell/Update
p99
aVCell/Update
p100
aVCell/Update
p101
aVCell/Update
p102
aVCell/Update
p103
aVCell/Update
p104
aVColumn/Formula
p105
aVColumn/Formula
p106
aVColumn/Formula
p107
aVCell/Update
p108
aVCell/Update
p109
aVColumn/Formula
p110
aVCell/Update
p111
aVCell/Update
p112
aVCell/Update
p113
aVCell/Update
p114
aVCell/Update
p115
aVCell/Update
p116
aVCell/Update
p117
aVCell/Update
p118
aVColumn/Formula
p119
aVCell/Update
p120
aVColumn/Formula
p121
aVColumn/Formula
p122
aVColumn/Formula
p123
aVCell/Update
p124
aVCell/Update
p125
aVColumn/Formula
p126
aVColumn/Formula
p127
aVColumn/Formula
p128
aVColumn/Formula
p129
aVCell/Update
p130
aVColumn/Formula
p131
aVColumn/Formula
p132
aVColumn/Formula
p133
aVCell/Update
p134
aVCell/Update
p135
aVCell/Update
p136
aVCell/Update
p137
aVCell/Update
p138
aVCell/Update
p139
aVCell/Update
p140
aVCell/Update
p141
aVCell/Update
p142
aVCell/Update
p143
aVColumn/Formula
p144
aVColumn/Formula
p145
aVColumn/Formula
p146
aVColumn/Formula
p147
aVCell/Update
p148
aVCell/Update
p149
aVColumn/Formula
p150
aVCell/Update
p151
aVCell/Update
p152
aVCell/Update
p153
aVCell/Update
p154
aVCell/Update
p155
aVCell/Update
p156
aVCell/Update
p157
aVCell/Update
p158
aVCell/Update
p159
aVCell/Update
p160
aVCell/Update
p161
aVCell/Update
p162
aVCell/Update
p163
aVColumn/Formula
p164
aVColumn/Formula
p165
aVCell/Update
p166
aVCell/Update
p167
aVCell/Update
p168
aVColumn/Formula
p169
aVCell/Update
p170
aVCell/Update
p171
aVCell/Update
p172
aVCell/Update
p173
aVColumn/Formula
p174
aVColumn/Formula
p175
aVColumn/Formula
p176
aVColumn/Formula
p177
aVCell/Update
p178
aVColumn/Formula
p179
aVCell/Update
p180
aVCell/Update
p181
aVCell/Update
p182
aVCell/Update
p183
aVCell/Update
p184
aVCell/Update
p185
aVCell/Update
p186
aVCell/Update
p187
aVCell/Update
p188
aVColumn/Formula
p189
aVCell/Update
p190
aVCell/Update
p191
aVCell/Update
p192
aVCell/Update
p193
aVCell/Update
p194
aVCell/Update
p195
aVCell/Update
p196
aVCell/Update
p197
aVCell/Update
p198
aVCell/Update
p199
aVCell/Update
p200
aVCell/Update
p201
aVCell/Update
p202
aVCell/Update
p203
aVCell/Update
p204
aVCell/Update
p205
aVCell/Update
p206
aVCell/Update
p207
aVCell/Update
p208
aVCell/Update
p209
aVCell/Update
p210
aVCell/Update
p211
aVCell/Update
p212
aVCell/Update
p213
aVCell/Update
p214
aVCell/Update
p215
aVCell/Update
p216
aVCell/Update
p217
aVCell/Update
p218
aVCell/Update
p219
aVCell/Update
p220
aVCell/Update
p221
aVCell/Update
p222
aVCell/Update
p223
aVCell/Update
p224
aVCell/Update
p225
aVCell/Update
p226
aVCell/Update
p227
aVCell/Update
p228
aVCell/Update
p229
aVCell/Update
p230
aVCell/Update
p231
aVCell/Update
p232
aVCell/Update
p233
aVCell/Update
p234
aVCell/Update
p235
aVCell/Update
p236
aVCell/Update
p237
aVCell/Update
p238
aVCell/Update
p239
aVCell/Update
p240
aVCell/Update
p241
aVCell/Update
p242
aVCell/Update
p243
aVCell/Update
p244
aVCell/Update
p245
aVCell/Update
p246
aVCell/Update
p247
aVCell/Update
p248
aVCell/Update
p249
aVCell/Update
p250
aVCell/Update
p251
aVCell/Update
p252
aVCell/Update
p253
aVCell/Update
p254
aVCell/Update
p255
aVCell/Update
p256
aVCell/Update
p257
aVCell/Update
p258
aVCell/Update
p259
aVCell/Update
p260
aVCell/Update
p261
aVCell/Update
p262
aVCell/Update
p263
aVCell/Update
p264
aVCell/Update
p265
aVCell/Update
p266
aVCell/Update
p267
aVCell/Update
p268
aVCell/Update
p269
aVCell/Update
p270
aVCell/Update
p271
aVColumn/Formula
p272
aVColumn/Formula
p273
aVCell/Update
p274
aVCell/Update
p275
aVCell/Update
p276
aVCell/Update
p277
aVColumn/Formula
p278
aVColumn/Formula
p279
aVColumn/Formula
p280
aVCell/Update
p281
aVCell/Update
p282
aVCell/Update
p283
aVCell/Update
p284
aVColumn/Formula
p285
aVColumn/Formula
p286
aVColumn/Formula
p287
aVCell/Update
p288
aVCell/Update
p289
aVColumn/Formula
p290
aVCell/Update
p291
aVCell/Update
p292
aVCell/Update
p293
aVCell/Update
p294
aVCell/Update
p295
aVCell/Update
p296
aVColumn/Formula
p297
aVCell/Update
p298
aVColumn/Formula
p299
aVCell/Update
p300
aVCell/Update
p301
aVColumn/Formula
p302
aVColumn/Formula
p303
asS'_filepath'
p304
V/home/ubuntu/SciSheets/mysite/user/guest/tables/kristen_single_gene.pcl
p305
sS'_backup_dir'
p306
g17
sbsS'_namespace'
p307
(dp308
sS'_hidden_columns'
p309
(lp310
g0
(cscisheets.core.column
Column
p311
g2
Ntp312
Rp313
(dp314
S'_asis'
p315
I00
sS'_owning_table'
p316
g4
sS'_cells'
p317
(lp318
(lp319
cnumpy.core.multiarray
scalar
p320
(cnumpy
dtype
p321
(S'f8'
p322
I0
I1
tp323
Rp324
(I3
S'<'
p325
NNNI-1
I-1
I0
tp326
bS'\x00\x00\x00\x00\x00\x00\x00\x00'
p327
tp328
Rp329
aVI
p330
ag320
(g324
S'\x00\x00\x00\x00\x00\x00\xf0?'
p331
tp332
Rp333
aa(lp334
g320
(g324
S'\x00\x00\x00\x00\x00\x00\x00\x00'
p335
tp336
Rp337
aVR1
p338
ag320
(g324
S'\x00\x00\x00\x00\x00\x00\xf0?'
p339
tp340
Rp341
aa(lp342
g320
(g324
S'\x00\x00\x00\x00\x00\x00\x00\x00'
p343
tp344
Rp345
aVR2
p346
ag320
(g324
S'\x00\x00\x00\x00\x00\x00\xf0?'
p347
tp348
Rp349
aa(lp350
g320
(g324
S'\x00\x00\x00\x00\x00\x00\xf0?'
p351
tp352
Rp353
ag330
ag320
(g324
S'\x00\x00\x00\x00\x00\x00\xf0?'
p354
tp355
Rp356
aa(lp357
g320
(g324
S'\x00\x00\x00\x00\x00\x00\xf0?'
p358
tp359
Rp360
ag330
ag320
(g324
S'\x00\x00\x00\x00\x00\x00\x00@'
p361
tp362
Rp363
aa(lp364
g320
(g324
S'\x00\x00\x00\x00\x00\x00\xf0?'
p365
tp366
Rp367
ag330
ag320
(g324
S'\x00\x00\x00\x00\x00\x00\x08@'
p368
tp369
Rp370
aa(lp371
g320
(g324
S'\x00\x00\x00\x00\x00\x00\xf0?'
p372
tp373
Rp374
ag338
ag320
(g324
S'\x00\x00\x00\x00\x00\x00\xf0?'
p375
tp376
Rp377
aa(lp378
g320
(g324
S'\x00\x00\x00\x00\x00\x00\xf0?'
p379
tp380
Rp381
ag338
ag320
(g324
S'\x00\x00\x00\x00\x00\x00\x00@'
p382
tp383
Rp384
aa(lp385
g320
(g324
S'\x00\x00\x00\x00\x00\x00\xf0?'
p386
tp387
Rp388
ag338
ag320
(g324
S'\x00\x00\x00\x00\x00\x00\x08@'
p389
tp390
Rp391
aa(lp392
g320
(g324
S'\x00\x00\x00\x00\x00\x00\xf0?'
p393
tp394
Rp395
ag346
ag320
(g324
S'\x00\x00\x00\x00\x00\x00\xf0?'
p396
tp397
Rp398
aa(lp399
g320
(g324
S'\x00\x00\x00\x00\x00\x00\xf0?'
p400
tp401
Rp402
ag346
ag320
(g324
S'\x00\x00\x00\x00\x00\x00\x00@'
p403
tp404
Rp405
aa(lp406
g320
(g324
S'\x00\x00\x00\x00\x00\x00\xf0?'
p407
tp408
Rp409
ag346
ag320
(g324
S'\x00\x00\x00\x00\x00\x00\x08@'
p410
tp411
Rp412
aa(lp413
g320
(g324
S'\x00\x00\x00\x00\x00\x00\x00@'
p414
tp415
Rp416
ag330
ag320
(g324
S'\x00\x00\x00\x00\x00\x00\xf0?'
p417
tp418
Rp419
aa(lp420
g320
(g324
S'\x00\x00\x00\x00\x00\x00\x00@'
p421
tp422
Rp423
ag338
ag320
(g324
S'\x00\x00\x00\x00\x00\x00\xf0?'
p424
tp425
Rp426
aa(lp427
g320
(g324
S'\x00\x00\x00\x00\x00\x00\x00@'
p428
tp429
Rp430
ag346
ag320
(g324
S'\x00\x00\x00\x00\x00\x00\xf0?'
p431
tp432
Rp433
aa(lp434
g320
(g324
S'\x00\x00\x00\x00\x00\x00\x08@'
p435
tp436
Rp437
ag330
ag320
(g324
S'\x00\x00\x00\x00\x00\x00\xf0?'
p438
tp439
Rp440
aa(lp441
g320
(g324
S'\x00\x00\x00\x00\x00\x00\x08@'
p442
tp443
Rp444
ag338
ag320
(g324
S'\x00\x00\x00\x00\x00\x00\xf0?'
p445
tp446
Rp447
aa(lp448
g320
(g324
S'\x00\x00\x00\x00\x00\x00\x08@'
p449
tp450
Rp451
ag346
ag320
(g324
S'\x00\x00\x00\x00\x00\x00\xf0?'
p452
tp453
Rp454
aaNaNaNaNaNaNaNaNaNaNaNaNaNaNaNaNaNaNaNaNaNaNaNaNaNaNaNaNaNaNaNaNaNaNaNaNaNaNaNaNaNaNaNaNaNaNasS'_formula_statement'
p455
g0
(cscisheets.core.helpers.formula_statement
FormulaStatement
p456
g2
Ntp457
Rp458
(dp459
S'_statement'
p460
Vsel = Eff > min_eff\u000agrouping_columns = [\u000a    Treatment[sel],\u000a     RunType[sel], \u000a    BRpl[sel],      \u000a  ]\u000aGroups, groupedCt = groupBy(\u000a     grouping_columns, Ct[sel])\u000aGroups, groupedEff = groupBy(\u000a     grouping_columns, Eff[sel])\u000aGroups = [[g[0], g[1], g[2]] for g in Groups]\u000aGroupedCt = roundValues(groupedCt,2)\u000aGroupedEff = roundValues(groupedEff,2)
p461
sS'_name'
p462
VGroups
p463
sS'_isExpression'
p464
I00
sS'_isStatement'
p465
I00
sS'_formula'
p466
Vsel = Eff > min_eff\u000agrouping_columns = [\u000a    Treatment[sel],\u000a     RunType[sel], \u000a    BRpl[sel],      \u000a  ]\u000aGroups, groupedCt = groupBy(\u000a     grouping_columns, Ct[sel])\u000aGroups, groupedEff = groupBy(\u000a     grouping_columns, Eff[sel])\u000aGroups = [[g[0], g[1], g[2]] for g in Groups]\u000aGroupedCt = roundValues(groupedCt,2)\u000aGroupedEff = roundValues(groupedEff,2)
p467
sbsS'_data_class'
p468
g0
(cscisheets.core.helpers.api_util
DataClass
p469
c__builtin__
tuple
p470
(cnumpy
ndarray
p471
cscisheets.core.helpers.api_util
makeArray
p472
tp473
tp474
Rp475
sg462
g463
sbag0
(g311
g2
Ntp476
Rp477
(dp478
g315
I00
sg316
g4
sg317
(lp479
(lp480
F0.92
aF0.91
aF0.91
aa(lp481
F0.83
aF0.83
aF0.85
aa(lp482
F0.82
aF0.85
aF0.82
aa(lp483
F0.85
aF0.84
aF0.85
aa(lp484
F0.87
aF0.78
aF0.85
aa(lp485
F0.84
aF0.84
aF0.77
aa(lp486
F0.92
aF0.98
aF0.9
aa(lp487
F0.9
aF0.83
aF0.84
aa(lp488
F0.87
aF0.85
aF0.83
aa(lp489
F0.79
aF0.84
aF0.86
aa(lp490
F0.83
aF0.82
aF0.83
aa(lp491
F0.81
aF0.82
aF0.8
aa(lp492
F0.84
aF0.79
aF0.81
aa(lp493
F0.77
aF0.87
aF0.81
aa(lp494
F0.78
aF0.77
aF0.79
aa(lp495
F0.88
aF0.86
aF0.89
aa(lp496
F0.87
aF0.9
aF0.86
aa(lp497
F0.82
aF0.82
aF0.79
aaNaNaNaNaNaNaNaNaNaNaNaNaNaNaNaNaNaNaNaNaNaNaNaNaNaNaNaNaNaNaNaNaNaNaNaNaNaNaNaNaNaNaNaNaNaNasg455
g0
(g456
g2
Ntp498
Rp499
(dp500
g460
NsS'_column'
p501
g477
sg464
I00
sg465
I00
sg466
Nsbsg468
g0
(g469
g470
(g471
g472
tp502
tp503
Rp504
sg462
VGroupedEff
p505
sbag0
(g311
g2
Ntp506
Rp507
(dp508
g315
I00
sg316
g4
sg317
(lp509
(lp510
F18.31
aF18.29
aF18.15
aa(lp511
F18.24
aF18.22
aF18.36
aa(lp512
F19.72
aF19.75
aF20.01
aa(lp513
F22.42
aF22.5
aF22.44
aa(lp514
F21.92
aF22.03
aF21.94
aa(lp515
F23.4
aF23.47
aF23.41
aa(lp516
F19.92
aF19.85
aF20.0
aa(lp517
F21.86
aF22.09
aF21.84
aa(lp518
F23.89
aF23.54
aF24.27
aa(lp519
F22.18
aF21.71
aF21.75
aa(lp520
F23.88
aF23.42
aF23.63
aa(lp521
F24.59
aF24.61
aF24.34
aa(lp522
F23.48
aF23.31
aF23.45
aa(lp523
F23.22
aF23.8
aF23.49
aa(lp524
F26.37
aF26.36
aF26.17
aa(lp525
F18.82
aF18.97
aF18.92
aa(lp526
F18.91
aF18.78
aF18.8
aa(lp527
F20.5
aF20.47
aF20.28
aaNaNaNaNaNaNaNaNaNaNaNaNaNaNaNaNaNaNaNaNaNaNaNaNaNaNaNaNaNaNaNaNaNaNaNaNaNaNaNaNaNaNaNaNaNaNasg455
g0
(g456
g2
Ntp528
Rp529
(dp530
g460
Nsg501
g507
sg464
I00
sg465
I00
sg466
Nsbsg468
g0
(g469
g470
(g471
g472
tp531
tp532
Rp533
sg462
VGroupedCt
p534
sbag0
(g311
g2
Ntp535
Rp536
(dp537
g315
I00
sg316
g4
sg317
(lp538
(lp539
F18.3
aF18.3
aF18.1
aa(lp540
F18.2
aF18.2
aF18.4
aa(lp541
F19.7
aF19.8
aF20.0
aa(lp542
F22.4
aF22.5
aF22.4
aa(lp543
F21.9
aF22.0
aF21.9
aa(lp544
F23.4
aF23.5
aF23.4
aa(lp545
F19.9
aF19.9
aF20.0
aa(lp546
F21.9
aF22.1
aF21.8
aa(lp547
F23.9
aF23.5
aF24.3
aa(lp548
F22.2
aF21.7
aF21.8
aa(lp549
F23.9
aF23.4
aF23.6
aa(lp550
F24.6
aF24.6
aF24.3
aa(lp551
F23.5
aF23.3
aF23.4
aa(lp552
F23.2
aF23.8
aF23.5
aa(lp553
F26.4
aF26.4
aF26.2
aa(lp554
F18.8
aF19.0
aF18.9
aa(lp555
F18.9
aF18.8
aF18.8
aa(lp556
F20.5
aF20.5
aF20.3
aaNaNaNaNaNaNaNaNaNaNaNaNaNaNaNaNaNaNaNaNaNaNaNaNaNaNaNaNaNaNaNaNaNaNaNaNaNaNaNaNaNaNaNaNaNaNasg455
g0
(g456
g2
Ntp557
Rp558
(dp559
g460
Vlength = len(Groups)\u000aStdFilteredGroupedCt = roundValues([filterExtremes(g, max_std, 2) for g in pruneNulls(GroupedCt,    required_length=length)])\u000a 
p560
sg462
VStdFilteredGroupedCt
p561
sg464
I00
sg465
I00
sg466
Vlength = len(Groups)\u000aStdFilteredGroupedCt = roundValues([filterExtremes(g, max_std, 2) for g in pruneNulls(GroupedCt,    required_length=length)])\u000a 
p562
sbsg468
g0
(g469
g470
(g471
g472
tp563
tp564
Rp565
sg462
g561
sbag0
(g311
g2
Ntp566
Rp567
(dp568
g315
I00
sg316
g4
sg317
(lp569
F18.2
aF18.3
aF19.8
aF22.4
aF21.9
aF23.4
aF19.9
aF21.9
aF23.9
aF21.9
aF23.6
aF24.5
aF23.4
aF23.5
aF26.3
aF18.9
aF18.8
aF20.4
aFnan
aFnan
aFnan
aFnan
aFnan
aFnan
aFnan
aFnan
aFnan
aFnan
aFnan
aFnan
aFnan
aFnan
aFnan
aFnan
aFnan
aFnan
aFnan
aFnan
aFnan
aFnan
aFnan
aFnan
aFnan
aFnan
aFnan
aFnan
aFnan
aFnan
aFnan
aFnan
aFnan
aFnan
aFnan
aFnan
aFnan
aFnan
aFnan
aFnan
aFnan
aFnan
aFnan
aFnan
aFnan
aFnan
asg455
g0
(g456
g2
Ntp570
Rp571
(dp572
g460
VMeanCt = [np.mean(g) for g in StdFilteredGroupedCt]\u000aMeanCt = roundValues(MeanCt,1)\u000aStdCt = [np.std(g, ddof=1) for g in StdFilteredGroupedCt]\u000aStdCt = roundValues(StdCt,3)
p573
sg462
VMeanCt
p574
sg464
I00
sg465
I00
sg466
VMeanCt = [np.mean(g) for g in StdFilteredGroupedCt]\u000aMeanCt = roundValues(MeanCt,1)\u000aStdCt = [np.std(g, ddof=1) for g in StdFilteredGroupedCt]\u000aStdCt = roundValues(StdCt,3)
p575
sbsg468
g0
(g469
g470
(g471
g472
tp576
tp577
Rp578
sg462
g574
sbag0
(g311
g2
Ntp579
Rp580
(dp581
g315
I00
sg316
g4
sg317
(lp582
F0.115
aF0.115
aF0.153
aF0.058
aF0.058
aF0.058
aF0.058
aF0.153
aF0.4
aF0.265
aF0.252
aF0.173
aF0.1
aF0.3
aF0.115
aF0.1
aF0.058
aF0.115
aFnan
aFnan
aFnan
aFnan
aFnan
aFnan
aFnan
aFnan
aFnan
aFnan
aFnan
aFnan
aFnan
aFnan
aFnan
aFnan
aFnan
aFnan
aFnan
aFnan
aFnan
aFnan
aFnan
aFnan
aFnan
aFnan
aFnan
aFnan
aFnan
aFnan
aFnan
aFnan
aFnan
aFnan
aFnan
aFnan
aFnan
aFnan
aFnan
aFnan
aFnan
aFnan
aFnan
aFnan
aFnan
aFnan
asg455
g0
(g456
g2
Ntp583
Rp584
(dp585
g460
Nsg501
g580
sg464
I00
sg465
I00
sg466
Nsbsg468
g0
(g469
g470
(g471
g472
tp586
tp587
Rp588
sg462
VStdCt
p589
sbag0
(g311
g2
Ntp590
Rp591
(dp592
g315
I00
sg316
g4
sg317
(lp593
(lp594
g320
(g324
S'\x00\x00\x00\x00\x00\x00\x00\x00'
p595
tp596
Rp597
ag320
(g324
S'\x00\x00\x00\x00\x00\x00\xf0?'
p598
tp599
Rp600
aa(lp601
g320
(g324
S'\x00\x00\x00\x00\x00\x00\xf0?'
p602
tp603
Rp604
ag320
(g324
S'\x00\x00\x00\x00\x00\x00\xf0?'
p605
tp606
Rp607
aa(lp608
g320
(g324
S'\x00\x00\x00\x00\x00\x00\xf0?'
p609
tp610
Rp611
ag320
(g324
S'\x00\x00\x00\x00\x00\x00\x00@'
p612
tp613
Rp614
aa(lp615
g320
(g324
S'\x00\x00\x00\x00\x00\x00\xf0?'
p616
tp617
Rp618
ag320
(g324
S'\x00\x00\x00\x00\x00\x00\x08@'
p619
tp620
Rp621
aa(lp622
g320
(g324
S'\x00\x00\x00\x00\x00\x00\x00@'
p623
tp624
Rp625
ag320
(g324
S'\x00\x00\x00\x00\x00\x00\xf0?'
p626
tp627
Rp628
aa(lp629
g320
(g324
S'\x00\x00\x00\x00\x00\x00\x08@'
p630
tp631
Rp632
ag320
(g324
S'\x00\x00\x00\x00\x00\x00\xf0?'
p633
tp634
Rp635
aaNaNaNaNaNaNaNaNaNaNaNaNaNaNaNaNaNaNaNaNaNaNaNaNaNaNaNaNaNaNaNaNaNaNaNaNaNaNaNaNaNaNaNaNaNaNaNaNaNaNaNaNaNaNaNaNaNaNasg455
g0
(g456
g2
Ntp636
Rp637
(dp638
g460
Vdummy = tabularize(s, 'Groups', 1, 'MeanCt', \u000a          new_category_colnm='BioRuns',\u000a          values_colnm_prefix='Gene_')
p639
sg462
VBioRuns
p640
sg464
I00
sg465
I00
sg466
Vdummy = tabularize(s, 'Groups', 1, 'MeanCt', \u000a          new_category_colnm='BioRuns',\u000a          values_colnm_prefix='Gene_')
p641
sbsg468
g0
(g469
g470
(g471
g472
tp642
tp643
Rp644
sg462
g640
sbag0
(g311
g2
Ntp645
Rp646
(dp647
g315
I00
sg316
g4
sg317
(lp648
F18.2
aF22.4
aF21.9
aF23.4
aF23.4
aF18.9
aFnan
aFnan
aFnan
aFnan
aFnan
aFnan
aFnan
aFnan
aFnan
aFnan
aFnan
aFnan
aFnan
aFnan
aFnan
aFnan
aFnan
aFnan
aFnan
aFnan
aFnan
aFnan
aFnan
aFnan
aFnan
aFnan
aFnan
aFnan
aFnan
aFnan
aFnan
aFnan
aFnan
aFnan
aFnan
aFnan
aFnan
aFnan
aFnan
aFnan
aFnan
aFnan
aFnan
aFnan
aFnan
aFnan
aFnan
aFnan
aFnan
aFnan
aFnan
aFnan
aFnan
aFnan
aFnan
aFnan
aFnan
aFnan
asg455
g0
(g456
g2
Ntp649
Rp650
(dp651
g460
Nsg501
g646
sg464
I00
sg465
I00
sg466
Nsbsg468
g0
(g469
g470
(g471
g472
tp652
tp653
Rp654
sg462
S'Gene_I'
p655
sbag0
(g311
g2
Ntp656
Rp657
(dp658
g315
I00
sg316
g4
sg317
(lp659
F18.3
aF19.9
aF21.9
aF23.9
aF23.5
aF18.8
aFnan
aFnan
aFnan
aFnan
aFnan
aFnan
aFnan
aFnan
aFnan
aFnan
aFnan
aFnan
aFnan
aFnan
aFnan
aFnan
aFnan
aFnan
aFnan
aFnan
aFnan
aFnan
aFnan
aFnan
aFnan
aFnan
aFnan
aFnan
aFnan
aFnan
aFnan
aFnan
aFnan
aFnan
aFnan
aFnan
aFnan
aFnan
aFnan
aFnan
aFnan
aFnan
aFnan
aFnan
aFnan
aFnan
aFnan
aFnan
aFnan
aFnan
aFnan
aFnan
aFnan
aFnan
aFnan
aFnan
aFnan
aFnan
asg455
g0
(g456
g2
Ntp660
Rp661
(dp662
g460
Nsg501
g657
sg464
I00
sg465
I00
sg466
Nsbsg468
g654
sg462
S'Gene_R1'
p663
sbag0
(g311
g2
Ntp664
Rp665
(dp666
g315
I00
sg316
g4
sg317
(lp667
F19.8
aF21.9
aF23.6
aF24.5
aF26.3
aF20.4
aFnan
aFnan
aFnan
aFnan
aFnan
aFnan
aFnan
aFnan
aFnan
aFnan
aFnan
aFnan
aFnan
aFnan
aFnan
aFnan
aFnan
aFnan
aFnan
aFnan
aFnan
aFnan
aFnan
aFnan
aFnan
aFnan
aFnan
aFnan
aFnan
aFnan
aFnan
aFnan
aFnan
aFnan
aFnan
aFnan
aFnan
aFnan
aFnan
aFnan
aFnan
aFnan
aFnan
aFnan
aFnan
aFnan
aFnan
aFnan
aFnan
aFnan
aFnan
aFnan
aFnan
aFnan
aFnan
aFnan
aFnan
aFnan
asg455
g0
(g456
g2
Ntp668
Rp669
(dp670
g460
Nsg501
g665
sg464
I00
sg465
I00
sg466
Nsbsg468
g654
sg462
S'Gene_R2'
p671
sbag0
(g311
g2
Ntp672
Rp673
(dp674
g315
I00
sg316
g4
sg317
(lp675
F1.07177
aF0.17678
aF1.0
aF1.41421
aF1.07177
aF0.93303
aFnan
aFnan
aFnan
aFnan
aFnan
aFnan
aFnan
aFnan
aFnan
aFnan
aFnan
aFnan
aFnan
aFnan
aFnan
aFnan
aFnan
aFnan
aFnan
aFnan
aFnan
aFnan
aFnan
aFnan
aFnan
aFnan
aFnan
aFnan
aFnan
aFnan
aFnan
aFnan
aFnan
aFnan
aFnan
aFnan
aFnan
aFnan
aFnan
aFnan
aFnan
aFnan
aFnan
aFnan
aFnan
aFnan
aFnan
aFnan
aFnan
aFnan
aFnan
aFnan
aFnan
aFnan
aFnan
aFnan
aFnan
aFnan
asg455
g0
(g456
g2
Ntp676
Rp677
(dp678
g460
VExprR1 = roundValues(2**(Gene_R1 - Gene_I),5)
p679
sg462
VExprR1
p680
sg464
I01
sg465
I00
sg466
VroundValues(2**(Gene_R1 - Gene_I),5)
p681
sbsg468
g0
(g469
g470
(g471
g472
tp682
tp683
Rp684
sg462
g680
sbag0
(g311
g2
Ntp685
Rp686
(dp687
g315
I00
sg316
g4
sg317
(lp688
F3.03143
aF0.70711
aF3.24901
aF2.14355
aF7.46426
aF2.82843
aFnan
aFnan
aFnan
aFnan
aFnan
aFnan
aFnan
aFnan
aFnan
aFnan
aFnan
aFnan
aFnan
aFnan
aFnan
aFnan
aFnan
aFnan
aFnan
aFnan
aFnan
aFnan
aFnan
aFnan
aFnan
aFnan
aFnan
aFnan
aFnan
aFnan
aFnan
aFnan
aFnan
aFnan
aFnan
aFnan
aFnan
aFnan
aFnan
aFnan
aFnan
aFnan
aFnan
aFnan
aFnan
aFnan
aFnan
aFnan
aFnan
aFnan
aFnan
aFnan
aFnan
aFnan
aFnan
aFnan
aFnan
aFnan
asg455
g0
(g456
g2
Ntp689
Rp690
(dp691
g460
VExprR2 = roundValues(2**(Gene_R2 - Gene_I),5)
p692
sg462
VExprR2
p693
sg464
I01
sg465
I00
sg466
VroundValues(2**(Gene_R2 - Gene_I),5)
p694
sbsg468
g0
(g469
g470
(g471
g472
tp695
tp696
Rp697
sg462
g693
sbag0
(g311
g2
Ntp698
Rp699
(dp700
g315
I00
sg316
g4
sg317
(lp701
F1.802
aF0.354
aF1.803
aF1.741
aF2.828
aF1.625
aFnan
aFnan
aFnan
aFnan
aFnan
aFnan
aFnan
aFnan
aFnan
aFnan
aFnan
aFnan
aFnan
aFnan
aFnan
aFnan
aFnan
aFnan
aFnan
aFnan
aFnan
aFnan
aFnan
aFnan
aFnan
aFnan
aFnan
aFnan
aFnan
aFnan
aFnan
aFnan
aFnan
aFnan
aFnan
aFnan
aFnan
aFnan
aFnan
aFnan
aFnan
aFnan
aFnan
aFnan
aFnan
aFnan
aFnan
aFnan
aFnan
aFnan
aFnan
aFnan
aFnan
aFnan
aFnan
aFnan
aFnan
aFnan
asg455
g0
(g456
g2
Ntp702
Rp703
(dp704
g460
VGeoMean = roundValues(np.sqrt(ExprR1*ExprR2), 3)
p705
sg462
VGeoMean
p706
sg464
I01
sg465
I00
sg466
VroundValues(np.sqrt(ExprR1*ExprR2), 3)
p707
sbsg468
g0
(g469
g470
(g471
g472
tp708
tp709
Rp710
sg462
g706
sbag0
(g311
g2
Ntp711
Rp712
(dp713
g315
I00
sg316
g4
sg317
(lp714
F1.0
aF1.0
aF1.0
aF1.0
aF1.0
aF1.0
aF1.0
aF1.0
aF1.0
aF1.0
aF1.0
aF1.0
aF2.0
aF2.0
aF2.0
aF3.0
aF3.0
aF3.0
aF1.0
aF1.0
aF1.0
aF2.0
aF2.0
aF2.0
aF3.0
aF3.0
aF3.0
aF1.0
aF1.0
aF1.0
aF2.0
aF2.0
aF2.0
aF3.0
aF3.0
aF3.0
aF1.0
aF1.0
aF1.0
aF1.0
aF1.0
aF1.0
aF1.0
aF1.0
aF1.0
aF1.0
aF1.0
aF1.0
aF1.0
aF1.0
aF1.0
aF1.0
aF1.0
aF1.0
aFnan
aFnan
aFnan
aFnan
aFnan
aFnan
aFnan
aFnan
aFnan
aFnan
asg455
g0
(g456
g2
Ntp715
Rp716
(dp717
g460
Nsg462
S'BRpl'
p718
sg464
I00
sg465
I00
sg466
Nsbsg468
g0
(g469
g470
(cscisheets.core.helpers.extended_array
ExtendedArray
p719
g472
tp720
tp721
Rp722
sg462
g718
sbag0
(g311
g2
Ntp723
Rp724
(dp725
g315
I00
sg316
g4
sg317
(lp726
F18.31
aF18.29
aF18.15
aF18.24
aF18.22
aF18.36
aF19.72
aF19.75
aF20.01
aF22.42
aF22.5
aF22.44
aF21.92
aF22.03
aF21.94
aF23.4
aF23.47
aF23.41
aF19.92
aF19.85
aF20.0
aF21.86
aF22.09
aF21.84
aF23.89
aF23.54
aF24.27
aF22.18
aF21.71
aF21.75
aF23.88
aF23.42
aF23.63
aF24.59
aF24.61
aF24.34
aF23.48
aF23.31
aF23.45
aF23.22
aF23.8
aF23.49
aF26.37
aF26.36
aF26.17
aF18.82
aF18.97
aF18.92
aF18.91
aF18.78
aF18.8
aF20.5
aF20.47
aF20.28
aFnan
aFnan
aFnan
aFnan
aFnan
aFnan
aFnan
aFnan
aFnan
aFnan
asg455
g0
(g456
g2
Ntp727
Rp728
(dp729
g460
Nsg462
S'Ct'
p730
sg464
I00
sg465
I00
sg466
Nsbsg468
g722
sg462
g730
sbag0
(g311
g2
Ntp731
Rp732
(dp733
g315
I00
sg316
g4
sg317
(lp734
F0.919
aF0.9106
aF0.9129
aF0.8266
aF0.8343
aF0.8496
aF0.8157
aF0.8543
aF0.8208
aF0.8453
aF0.8426
aF0.8524
aF0.8658
aF0.7809
aF0.8512
aF0.8442
aF0.8357
aF0.7658
aF0.9179
aF0.9783
aF0.8971
aF0.8957
aF0.8287
aF0.8387
aF0.8746
aF0.8493
aF0.8349
aF0.7857
aF0.8427
aF0.8637
aF0.8281
aF0.8203
aF0.8288
aF0.8138
aF0.8242
aF0.804
aF0.8352
aF0.7886
aF0.8105
aF0.7701
aF0.8746
aF0.8139
aF0.7795
aF0.7676
aF0.7947
aF0.876
aF0.8597
aF0.8873
aF0.8715
aF0.8977
aF0.856
aF0.8179
aF0.8173
aF0.7894
aFnan
aFnan
aFnan
aFnan
aFnan
aFnan
aFnan
aFnan
aFnan
aFnan
asg455
g0
(g456
g2
Ntp735
Rp736
(dp737
g460
Nsg462
S'Eff'
p738
sg464
I00
sg465
I00
sg466
Nsbsg468
g722
sg462
g738
sbag0
(g311
g2
Ntp739
Rp740
(dp741
g315
I00
sg316
g4
sg317
(lp742
g330
ag330
ag330
ag338
ag338
ag338
ag346
ag346
ag346
ag330
ag330
ag330
ag330
ag330
ag330
ag330
ag330
ag330
ag338
ag338
ag338
ag338
ag338
ag338
ag338
ag338
ag338
ag346
ag346
ag346
ag346
ag346
ag346
ag346
ag346
ag346
ag330
ag330
ag330
ag338
ag338
ag338
ag346
ag346
ag346
ag330
ag330
ag330
ag338
ag338
ag338
ag346
ag346
ag346
aNaNaNaNaNaNaNaNaNaNasg455
g0
(g456
g2
Ntp743
Rp744
(dp745
g460
Nsg462
S'RunType'
p746
sg464
I00
sg465
I00
sg466
Nsbsg468
g722
sg462
g746
sbag0
(g311
g2
Ntp747
Rp748
(dp749
g315
I00
sg316
g4
sg317
(lp750
Va
p751
aVb
p752
aVc
p753
ag751
ag752
ag753
ag751
ag752
ag753
ag751
ag752
ag753
ag751
ag752
ag753
ag751
ag752
ag753
ag751
ag752
ag753
ag751
ag752
ag753
ag751
ag752
ag753
ag751
ag752
ag753
ag751
ag752
ag753
ag751
ag752
ag753
ag751
ag752
ag753
ag751
ag752
ag753
ag751
ag752
ag753
ag751
ag752
ag753
ag751
ag752
ag753
ag751
ag752
ag753
aNaNaNaNaNaNaNaNaNaNasg455
g0
(g456
g2
Ntp754
Rp755
(dp756
g460
Nsg462
S'TRpl'
p757
sg464
I00
sg465
I00
sg466
Nsbsg468
g722
sg462
g757
sbag0
(g311
g2
Ntp758
Rp759
(dp760
g315
I00
sg316
g4
sg317
(lp761
F0.0
aF0.0
aF0.0
aF0.0
aF0.0
aF0.0
aF0.0
aF0.0
aF0.0
aF1.0
aF1.0
aF1.0
aF1.0
aF1.0
aF1.0
aF1.0
aF1.0
aF1.0
aF1.0
aF1.0
aF1.0
aF1.0
aF1.0
aF1.0
aF1.0
aF1.0
aF1.0
aF1.0
aF1.0
aF1.0
aF1.0
aF1.0
aF1.0
aF1.0
aF1.0
aF1.0
aF2.0
aF2.0
aF2.0
aF2.0
aF2.0
aF2.0
aF2.0
aF2.0
aF2.0
aF3.0
aF3.0
aF3.0
aF3.0
aF3.0
aF3.0
aF3.0
aF3.0
aF3.0
aFnan
aFnan
aFnan
aFnan
aFnan
aFnan
aFnan
aFnan
aFnan
aFnan
asg455
g0
(g456
g2
Ntp762
Rp763
(dp764
g460
Nsg462
S'Treatment'
p765
sg464
I00
sg465
I00
sg466
Nsbsg468
g722
sg462
g765
sbasS'_is_evaluate_formulas'
p766
I01
sS'_prologue'
p767
g0
(g456
g2
Ntp768
Rp769
(dp770
g460
V# Prologue\u000aimport math as mt\u000aimport numpy as np\u000afrom os import listdir\u000afrom os.path import isfile, join\u000aimport pandas as pd\u000aimport scipy as sp\u000afrom numpy import nan  # Must follow sympy import \u000a\u000axlsx_path =   '/mnt/hgfs/josephhellerstein/home/Technical/SciSheets/CaseStudies/Kristen/workbooks/data.xlsx'\u000agene = ParmValues[0]\u000arun = ParmValues[1] == 'True'\u000ashow_raw = ParmValues[2] == 'True'\u000ashow_block1 = ParmValues[3] == 'True'\u000ashow_block2 = ParmValues[4] == 'True'\u000ashow_block3 = ParmValues[5] == 'True'\u000ashow_params = ParmValues[8] == 'True'\u000a#show_params = True\u000amax_std  = float(ParmValues[6])\u000amin_eff = float(ParmValues[7])\u000aworksheet = gene + "-I"\u000as.getTable().setIsEvaluateFormulas(run)\u000as.setColumnVisibility()\u000as.setColumnVisibility(['Groups', 'GroupedEff', 'GroupedCt', 'StdFilteredGroupedCt', 'MeanCt',\u000a    'StdCt'], is_visible=show_block1)\u000as.setColumnVisibility(['BioRuns', 'Gene_I', 'Gene_R1', 'Gene_R2', 'ExprR1', 'ExprR2', \u000a    'GeoMean'], is_visible=show_block2)\u000as.setColumnVisibility(['GeoGroups', 'GroupedGeoMeans', 'NrmlGeoGroupedMeans', \u000a    'MeanNrmlGeoGroups', 'StdNrmlGeoGroups'], is_visible=show_block3)\u000aif run:\u000a  Groups = []\u000a  GroupedCt = []\u000a  GroupedEff = []\u000a  MeanCt = []\u000a  Imp = []\u000a  s.deleteColumn('Ct')\u000a  s.deleteColumn('RunType')\u000a  s.deleteColumn('BRpl')\u000a  s.deleteColumn('TRpl')\u000a  s.deleteColumn('Treatment')\u000a  s.deleteColumn('Eff')\u000aif run:\u000a  importExcelToTable(s, xlsx_path, worksheet=worksheet,\u000a      column_position='ParmValues',\u000a      names=['Treatment', 'RunType', 'BRpl', 'TRpl', 'Eff', 'Ct'])\u000as.setColumnVisibility(['BRpl', 'Ct', 'Eff', 'RunType', 'TRpl', 'Treatment'], is_visible=show_raw)\u000as.setColumnVisibility(['ParmNames', 'ParmValues'], show_params)
p771
sg462
VSingleGene
p772
sg464
I00
sg465
I00
sg466
V# Prologue\u000aimport math as mt\u000aimport numpy as np\u000afrom os import listdir\u000afrom os.path import isfile, join\u000aimport pandas as pd\u000aimport scipy as sp\u000afrom numpy import nan  # Must follow sympy import \u000a\u000axlsx_path =   '/mnt/hgfs/josephhellerstein/home/Technical/SciSheets/CaseStudies/Kristen/workbooks/data.xlsx'\u000agene = ParmValues[0]\u000arun = ParmValues[1] == 'True'\u000ashow_raw = ParmValues[2] == 'True'\u000ashow_block1 = ParmValues[3] == 'True'\u000ashow_block2 = ParmValues[4] == 'True'\u000ashow_block3 = ParmValues[5] == 'True'\u000ashow_params = ParmValues[8] == 'True'\u000a#show_params = True\u000amax_std  = float(ParmValues[6])\u000amin_eff = float(ParmValues[7])\u000aworksheet = gene + "-I"\u000as.getTable().setIsEvaluateFormulas(run)\u000as.setColumnVisibility()\u000as.setColumnVisibility(['Groups', 'GroupedEff', 'GroupedCt', 'StdFilteredGroupedCt', 'MeanCt',\u000a    'StdCt'], is_visible=show_block1)\u000as.setColumnVisibility(['BioRuns', 'Gene_I', 'Gene_R1', 'Gene_R2', 'ExprR1', 'ExprR2', \u000a    'GeoMean'], is_visible=show_block2)\u000as.setColumnVisibility(['GeoGroups', 'GroupedGeoMeans', 'NrmlGeoGroupedMeans', \u000a    'MeanNrmlGeoGroups', 'StdNrmlGeoGroups'], is_visible=show_block3)\u000aif run:\u000a  Groups = []\u000a  GroupedCt = []\u000a  GroupedEff = []\u000a  MeanCt = []\u000a  Imp = []\u000a  s.deleteColumn('Ct')\u000a  s.deleteColumn('RunType')\u000a  s.deleteColumn('BRpl')\u000a  s.deleteColumn('TRpl')\u000a  s.deleteColumn('Treatment')\u000a  s.deleteColumn('Eff')\u000aif run:\u000a  importExcelToTable(s, xlsx_path, worksheet=worksheet,\u000a      column_position='ParmValues',\u000a      names=['Treatment', 'RunType', 'BRpl', 'TRpl', 'Eff', 'Ct'])\u000as.setColumnVisibility(['BRpl', 'Ct', 'Eff', 'RunType', 'TRpl', 'Treatment'], is_visible=show_raw)\u000as.setColumnVisibility(['ParmNames', 'ParmValues'], show_params)
p773
sbsS'_epilogue'
p774
g0
(g456
g2
Ntp775
Rp776
(dp777
g460
V# Epilogue\u000aif run:\u000a  worksheet = "%s-O" % gene\u000a  exportTableToExcel(s, xlsx_path, worksheet=worksheet, columns=['GeoGroups',  \u000a      'MeanNrmlGeoGroups', 'StdNrmlGeoGroups'])\u000a
p778
sg462
g772
sg464
I00
sg465
I00
sg466
V# Epilogue\u000aif run:\u000a  worksheet = "%s-O" % gene\u000a  exportTableToExcel(s, xlsx_path, worksheet=worksheet, columns=['GeoGroups',  \u000a      'MeanNrmlGeoGroups', 'StdNrmlGeoGroups'])\u000a
p779
sbsg462
g772
sS'_columns'
p780
(lp781
g0
(g311
g2
Ntp782
Rp783
(dp784
g315
I01
sg316
g4
sg317
(lp785
S'1'
p786
aS'2'
p787
aS'3'
p788
aS'4'
p789
aS'5'
p790
aS'6'
p791
aS'7'
p792
aS'8'
p793
aS'9'
p794
aS'10'
p795
aS'11'
p796
aS'12'
p797
aS'13'
p798
aS'14'
p799
aS'15'
p800
aS'16'
p801
aS'17'
p802
aS'18'
p803
aS'19'
p804
aS'20'
p805
aS'21'
p806
aS'22'
p807
aS'23'
p808
aS'24'
p809
aS'25'
p810
aS'26'
p811
aS'27'
p812
aS'28'
p813
aS'29'
p814
aS'30'
p815
aS'31'
p816
aS'32'
p817
aS'33'
p818
aS'34'
p819
aS'35'
p820
aS'36'
p821
aS'37'
p822
aS'38'
p823
aS'39'
p824
aS'40'
p825
aS'41'
p826
aS'42'
p827
aS'43'
p828
aS'44'
p829
aS'45'
p830
aS'46'
p831
aS'47'
p832
aS'48'
p833
aS'49'
p834
aS'50'
p835
aS'51'
p836
aS'52'
p837
aS'53'
p838
aS'54'
p839
aS'55'
p840
aS'56'
p841
aS'57'
p842
aS'58'
p843
aS'59'
p844
aS'60'
p845
aS'61'
p846
aS'62'
p847
aS'63'
p848
aS'64'
p849
asg455
g0
(g456
g2
Ntp850
Rp851
(dp852
g460
Nsg501
g783
sg464
I00
sg465
I00
sg466
Nsbsg468
g0
(g469
g470
(g471
g472
tp853
tp854
Rp855
sg462
S'row'
p856
sbag0
(g311
g2
Ntp857
Rp858
(dp859
g315
I00
sg316
g4
sg317
(lp860
Vgene
p861
aVrun
p862
aVshow_raw
p863
aVshow_block1
p864
aVshow_block2
p865
aVshow_block3
p866
aVmax_std
p867
aVmin_eff
p868
aVshow_params
p869
aVnan
p870
aVnan
p871
aVnan
p872
aVnan
p873
aVnan
p874
aVnan
p875
aVnan
p876
aVnan
p877
aVnan
p878
aVnan
p879
aVnan
p880
aVnan
p881
aVnan
p882
aVnan
p883
aVnan
p884
aVnan
p885
aVnan
p886
aVnan
p887
aVnan
p888
aVnan
p889
aVnan
p890
aVnan
p891
aVnan
p892
aVnan
p893
aVnan
p894
aVnan
p895
aVnan
p896
aVnan
p897
aVnan
p898
aVnan
p899
aVnan
p900
aVnan
p901
aVnan
p902
aVnan
p903
aVnan
p904
aVnan
p905
aVnan
p906
aVnan
p907
aVnan
p908
aVnan
p909
aVnan
p910
aVnan
p911
aVnan
p912
aVnan
p913
aVnan
p914
aNaNaNaNaNaNaNaNaNaNasg455
g0
(g456
g2
Ntp915
Rp916
(dp917
g460
Nsg501
g858
sg464
I00
sg465
I00
sg466
Nsbsg468
g0
(g469
g470
(g471
g472
tp918
tp919
Rp920
sg462
VParmNames
p921
sbag0
(g311
g2
Ntp922
Rp923
(dp924
g315
I00
sg316
g4
sg317
(lp925
VGene2
p926
aVTrue
p927
aVFalse
p928
aVFalse
p929
aVFalse
p930
aVTrue
p931
aF0.5
aV0.7
p932
aVTrue
p933
aV
p934
aVnan
p935
aVnan
p936
aVnan
p937
aVnan
p938
aVnan
p939
aVnan
p940
aVnan
p941
aVnan
p942
aVnan
p943
aVnan
p944
aVnan
p945
aVnan
p946
aVnan
p947
aVnan
p948
aVnan
p949
aVnan
p950
aVnan
p951
aVnan
p952
aVnan
p953
aVnan
p954
aVnan
p955
aVnan
p956
aVnan
p957
aVnan
p958
aVnan
p959
aVnan
p960
aVnan
p961
aVnan
p962
aVnan
p963
aVnan
p964
aVnan
p965
aVnan
p966
aVnan
p967
aVnan
p968
aVnan
p969
aVnan
p970
aVnan
p971
aVnan
p972
aVnan
p973
aVnan
p974
aVnan
p975
aVnan
p976
aVnan
p977
aVnan
p978
aNaNaNaNaNaNaNaNaNaNasg455
g0
(g456
g2
Ntp979
Rp980
(dp981
g460
Nsg462
VParmValues
p982
sg464
I00
sg465
I00
sg466
Nsbsg468
g0
(g469
g470
(g471
g472
tp983
tp984
Rp985
sg462
g982
sbag759
ag740
ag712
ag748
ag732
ag724
ag313
ag477
ag507
ag536
ag567
ag580
ag591
ag646
ag657
ag665
ag673
ag686
ag699
ag0
(g311
g2
Ntp986
Rp987
(dp988
g315
I00
sg316
g4
sg317
(lp989
(lp990
g320
(g324
S'\x00\x00\x00\x00\x00\x00\x00\x00'
p991
tp992
Rp993
aa(lp994
g320
(g324
S'\x00\x00\x00\x00\x00\x00\xf0?'
p995
tp996
Rp997
aa(lp998
g320
(g324
S'\x00\x00\x00\x00\x00\x00\x00@'
p999
tp1000
Rp1001
aa(lp1002
g320
(g324
S'\x00\x00\x00\x00\x00\x00\x08@'
p1003
tp1004
Rp1005
aaNaNaNaNaNaNaNaNaNaNaNaNaNaNaNaNaNaNaNaNaNaNaNaNaNaNaNaNaNaNaNaNaNaNaNaNaNaNaNaNaNaNaNaNaNaNaNaNaNaNaNaNaNaNaNaNaNaNaNaNasg455
g0
(g456
g2
Ntp1006
Rp1007
(dp1008
g460
Vcat_vals = [br[0] for br in pruneNulls(BioRuns)]\u000aclean_geo = [x for x in GeoMean if x is not None]\u000aGeoGroups, groupedGeoMeans = groupBy(cat_vals, clean_geo)\u000aGroupedGeoMeans = roundValues(groupedGeoMeans, 3)\u000aGeoGroups = [[x] for x in GeoGroups]
p1009
sg462
VGeoGroups
p1010
sg464
I00
sg465
I00
sg466
Vcat_vals = [br[0] for br in pruneNulls(BioRuns)]\u000aclean_geo = [x for x in GeoMean if x is not None]\u000aGeoGroups, groupedGeoMeans = groupBy(cat_vals, clean_geo)\u000aGroupedGeoMeans = roundValues(groupedGeoMeans, 3)\u000aGeoGroups = [[x] for x in GeoGroups]
p1011
sbsg468
g0
(g469
g470
(g471
g472
tp1012
tp1013
Rp1014
sg462
g1010
sbag0
(g311
g2
Ntp1015
Rp1016
(dp1017
g315
I00
sg316
g4
sg317
(lp1018
cnumpy.core.multiarray
_reconstruct
p1019
(g471
(I0
tp1020
S'b'
p1021
tp1022
Rp1023
(I1
(I1
tp1024
g324
I00
S'\xa2E\xb6\xf3\xfd\xd4\xfc?'
p1025
tp1026
bag1019
(g471
(I0
tp1027
g1021
tp1028
Rp1029
(I1
(I3
tp1030
g324
I00
S'\x0e-\xb2\x9d\xef\xa7\xd6?\x0c\x02+\x87\x16\xd9\xfc?B`\xe5\xd0"\xdb\xfb?'
p1031
tp1032
bag1019
(g471
(I0
tp1033
g1021
tp1034
Rp1035
(I1
(I1
tp1036
g324
I00
S'9\xb4\xc8v\xbe\x9f\x06@'
p1037
tp1038
bag1019
(g471
(I0
tp1039
g1021
tp1040
Rp1041
(I1
(I1
tp1042
g324
I00
S'\x00\x00\x00\x00\x00\x00\xfa?'
p1043
tp1044
baNaNaNaNaNaNaNaNaNaNaNaNaNaNaNaNaNaNaNaNaNaNaNaNaNaNaNaNaNaNaNaNaNaNaNaNaNaNaNaNaNaNaNaNaNaNaNaNaNaNaNaNaNaNaNaNaNaNaNaNasg455
g0
(g456
g2
Ntp1045
Rp1046
(dp1047
g460
Nsg501
g1016
sg464
I00
sg465
I00
sg466
Nsbsg468
g0
(g469
g470
(g471
g472
tp1048
tp1049
Rp1050
sg462
VGroupedGeoMeans
p1051
sbag0
(g311
g2
Ntp1052
Rp1053
(dp1054
g315
I00
sg316
g4
sg317
(lp1055
g1019
(g471
(I0
tp1056
g1021
tp1057
Rp1058
(I1
(I1
tp1059
g324
I00
S'\x00\x00\x00\x00\x00\x00\xf0?'
p1060
tp1061
bag1019
(g471
(I0
tp1062
g1021
tp1063
Rp1064
(I1
(I3
tp1065
g324
I00
S'J\x0c\x02+\x87\x16\xc9?j\xbct\x93\x18\x04\xf0?\xb6\xf3\xfd\xd4x\xe9\xee?'
p1066
tp1067
bag1019
(g471
(I0
tp1068
g1021
tp1069
Rp1070
(I1
(I1
tp1071
g324
I00
S'\xb4\xc8v\xbe\x9f\x1a\xf9?'
p1072
tp1073
bag1019
(g471
(I0
tp1074
g1021
tp1075
Rp1076
(I1
(I1
tp1077
g324
I00
S'w\xbe\x9f\x1a/\xdd\xec?'
p1078
tp1079
baNaNaNaNaNaNaNaNaNaNaNaNaNaNaNaNaNaNaNaNaNaNaNaNaNaNaNaNaNaNaNaNaNaNaNaNaNaNaNaNaNaNaNaNaNaNaNaNaNaNaNaNaNaNaNaNaNaNaNaNasg455
g0
(g456
g2
Ntp1080
Rp1081
(dp1082
g460
Vref = np.mean(GroupedGeoMeans[0])\u000aNrmlGeoGroupedMeans = [ [x/ref for x in g] for g in GroupedGeoMeans if g is not None]  \u000aNrmlGeoGroupedMeans = roundValues(NrmlGeoGroupedMeans, 3)
p1083
sg462
VNrmlGeoGroupedMeans
p1084
sg464
I00
sg465
I00
sg466
Vref = np.mean(GroupedGeoMeans[0])\u000aNrmlGeoGroupedMeans = [ [x/ref for x in g] for g in GroupedGeoMeans if g is not None]  \u000aNrmlGeoGroupedMeans = roundValues(NrmlGeoGroupedMeans, 3)
p1085
sbsg468
g0
(g469
g470
(g471
g472
tp1086
tp1087
Rp1088
sg462
g1084
sbag0
(g311
g2
Ntp1089
Rp1090
(dp1091
g315
I00
sg316
g4
sg317
(lp1092
F1.0
aF0.721
aF1.569
aF0.902
aFnan
aFnan
aFnan
aFnan
aFnan
aFnan
aFnan
aFnan
aFnan
aFnan
aFnan
aFnan
aFnan
aFnan
aFnan
aFnan
aFnan
aFnan
aFnan
aFnan
aFnan
aFnan
aFnan
aFnan
aFnan
aFnan
aFnan
aFnan
aFnan
aFnan
aFnan
aFnan
aFnan
aFnan
aFnan
aFnan
aFnan
aFnan
aFnan
aFnan
aFnan
aFnan
aFnan
aFnan
aFnan
aFnan
aFnan
aFnan
aFnan
aFnan
aFnan
aFnan
aFnan
aFnan
aFnan
aFnan
aFnan
aFnan
aFnan
aFnan
asg455
g0
(g456
g2
Ntp1093
Rp1094
(dp1095
g460
VMeanNrmlGeoGroups = [round(np.mean(g), 3) for g in NrmlGeoGroupedMeans]
p1096
sg462
VMeanNrmlGeoGroups
p1097
sg464
I01
sg465
I00
sg466
V[round(np.mean(g), 3) for g in NrmlGeoGroupedMeans]
p1098
sbsg468
g0
(g469
g470
(g471
g472
tp1099
tp1100
Rp1101
sg462
g1097
sbag0
(g311
g2
Ntp1102
Rp1103
(dp1104
g315
I00
sg316
g4
sg317
(lp1105
Fnan
aF0.263
aFnan
aFnan
aFnan
aFnan
aFnan
aFnan
aFnan
aFnan
aFnan
aFnan
aFnan
aFnan
aFnan
aFnan
aFnan
aFnan
aFnan
aFnan
aFnan
aFnan
aFnan
aFnan
aFnan
aFnan
aFnan
aFnan
aFnan
aFnan
aFnan
aFnan
aFnan
aFnan
aFnan
aFnan
aFnan
aFnan
aFnan
aFnan
aFnan
aFnan
aFnan
aFnan
aFnan
aFnan
aFnan
aFnan
aFnan
aFnan
aFnan
aFnan
aFnan
aFnan
aFnan
aFnan
aFnan
aFnan
aFnan
aFnan
aFnan
aFnan
aFnan
aFnan
asg455
g0
(g456
g2
Ntp1106
Rp1107
(dp1108
g460
VStdNrmlGeoGroups = [round(np.std(g, ddof=1)/np.sqrt(len(g)), 3) for g in NrmlGeoGroupedMeans]\u000a
p1109
sg462
VStdNrmlGeoGroups
p1110
sg464
I01
sg465
I00
sg466
V[round(np.std(g, ddof=1)/np.sqrt(len(g)), 3) for g in NrmlGeoGroupedMeans]\u000a
p1111
sbsg468
g0
(g469
g470
(g471
g472
tp1112
tp1113
Rp1114
sg462
g1110
sbasg304
V/home/ubuntu/SciSheets/mysite/user/guest/tables/kristen_single_gene.pcl
p1115
sb.