ccopy_reg
_reconstructor
p0
(cscisheets.ui.dt_table
DTTable
p1
c__builtin__
object
p2
Ntp3
Rp4
(dp5
S'_versioned_file'
p6
g0
(cmysite.helpers.versioned_file
VersionedFile
p7
g2
Ntp8
Rp9
(dp10
S'_redo_stack'
p11
g0
(cmysite.helpers.file_stack
FileStack
p12
g2
Ntp13
Rp14
(dp15
S'_dirpath'
p16
S'/home/ubuntu/SciSheets/mysite/user/guest/tables/backup'
p17
sS'_max_depth'
p18
I5
sS'_filename_pfx'
p19
Vkristen_single_gene.r
p20
sbsS'_max_versions'
p21
I5
sS'_undo_stack'
p22
g0
(g12
g2
Ntp23
Rp24
(dp25
g16
g17
sg18
I5
sg19
Vkristen_single_gene.u
p26
sbsS'_checkpoint_history'
p27
(lp28
VCell/Update
p29
aVCell/Update
p30
aVCell/Update
p31
aVCell/Update
p32
aVCell/Update
p33
aVCell/Update
p34
aVCell/Update
p35
aVCell/Update
p36
aVCell/Update
p37
aVCell/Update
p38
aVCell/Update
p39
aVCell/Update
p40
aVColumn/Formula
p41
aVColumn/Formula
p42
aVColumn/Append
p43
aVColumn/Formula
p44
aVColumn/Delete
p45
aVCell/Update
p46
aVColumn/Formula
p47
aVCell/Update
p48
aVCell/Update
p49
aVColumn/Formula
p50
aVColumn/Formula
p51
aVCell/Update
p52
aVColumn/Formula
p53
aVColumn/Formula
p54
aVCell/Update
p55
aVCell/Update
p56
aVCell/Update
p57
aVCell/Update
p58
aVColumn/Formula
p59
aVCell/Update
p60
aVCell/Update
p61
aVCell/Update
p62
aVColumn/Formula
p63
aVCell/Update
p64
aVColumn/Formula
p65
aVColumn/Formula
p66
aVCell/Update
p67
aVCell/Update
p68
aVCell/Update
p69
aVCell/Update
p70
aVCell/Update
p71
aVCell/Update
p72
aVCell/Update
p73
aVCell/Update
p74
aVCell/Update
p75
aVColumn/Formula
p76
aVCell/Update
p77
aVCell/Update
p78
aVCell/Update
p79
aVCell/Update
p80
aVCell/Update
p81
aVCell/Update
p82
aVCell/Update
p83
aVCell/Update
p84
aVCell/Update
p85
aVCell/Update
p86
aVCell/Update
p87
aVCell/Update
p88
aVColumn/Formula
p89
aVColumn/Formula
p90
aVColumn/Formula
p91
aVCell/Update
p92
aVCell/Update
p93
aVCell/Update
p94
aVCell/Update
p95
aVCell/Update
p96
aVColumn/Formula
p97
aVCell/Update
p98
aVCell/Update
p99
aVCell/Update
p100
aVCell/Update
p101
asS'_filepath'
p102
V/home/ubuntu/SciSheets/mysite/user/guest/tables/kristen_single_gene.pcl
p103
sS'_backup_dir'
p104
g17
sbsS'_namespace'
p105
(dp106
sS'_hidden_columns'
p107
(lp108
g0
(cscisheets.core.column
Column
p109
g2
Ntp110
Rp111
(dp112
S'_asis'
p113
I00
sS'_owning_table'
p114
g4
sS'_cells'
p115
(lp116
VSEP1 2012 P17F4 a
p117
aVSEP1 2012 P17F4 b
p118
aVSEP1 2012 P17F4 c
p119
aVSEP1 2012 P17F5 a
p120
aVSEP1 2012 P17F5 b
p121
aVSEP1 2012 P17F5 c
p122
aVSEP1 2012 P1F3 SEP1a
p123
aVSEP1 2012 P1F3 SEP1b
p124
aVSEP1 2012 P1F3 SEP1c
p125
aVSEP1-2 2012 P11aF2 a
p126
aVSEP1-2 2012 P11aF2 b
p127
aVSEP1-2 2012 P11aF2 c
p128
aVSEP1-3 2012 P15F2 a
p129
aVSEP1-3 2012 P15F2 b
p130
aVSEP1-3 2012 P15F2 c
p131
aVuntreated 2012 P12F1 SEP1 1:2a
p132
aVuntreated 2012 P12F1 SEP1 1:2b
p133
aVuntreated 2012 P12F1 SEP1 1:2c
p134
aVSEP1 2012 P17F4 ACTa
p135
aVSEP1 2012 P17F4 ACTb
p136
aVSEP1 2012 P17F4 ACTc
p137
aVSEP1 2012 P17F5 ACTa
p138
aVSEP1 2012 P17F5 ACTb
p139
aVSEP1 2012 P17F5 ACTc
p140
aVSEP1 2012 P1F3 ACTa
p141
aVSEP1 2012 P1F3 ACTb
p142
aVSEP1 2012 P1F3 ACTc
p143
aVSEP1-2 2012 P11aF2 ACTa
p144
aVSEP1-2 2012 P11aF2 ACTb
p145
aVSEP1-2 2012 P11aF2 ACTc
p146
aVSEP1-3 2012 P15F2 ACTa
p147
aVSEP1-3 2012 P15F2 ACTb
p148
aVSEP1-3 2012 P15F2 ACTc
p149
aVuntreated 2012 P12F1 ACTa
p150
aVuntreated 2012 P12F1 ACTb
p151
aVuntreated 2012 P12F1 ACTc
p152
aVSEP1 2012 P17F4 EEF1a
p153
aVSEP1 2012 P17F4 EEF1b
p154
aVSEP1 2012 P17F4 EEF1c
p155
aVSEP1 2012 P17F5 EEF1a
p156
aVSEP1 2012 P17F5 EEF1b
p157
aVSEP1 2012 P17F5 EEF1c
p158
aVSEP1 2012 P1F3 EEF1a
p159
aVSEP1 2012 P1F3 EEF1b
p160
aVSEP1 2012 P1F3 EEF1c
p161
aVSEP1-2 2012 P11aF2 EEF1a
p162
aVSEP1-2 2012 P11aF2 EEF1b
p163
aVSEP1-2 2012 P11aF2 EEF1c
p164
aVSEP1-3 2012 P15F2 EEF1a
p165
aVSEP1-3 2012 P15F2 EEF1b
p166
aVSEP1-3 2012 P15F2 EEF1c
p167
aVuntreated 2012 P12F1 EEF1a
p168
aVuntreated 2012 P12F1 EEF1b
p169
aVuntreated 2012 P12F1 EEF1c
p170
asS'_formula_statement'
p171
g0
(cscisheets.core.column
FormulaStatement
p172
g2
Ntp173
Rp174
(dp175
S'_statement'
p176
NsS'_column'
p177
g111
sS'_isExpression'
p178
I00
sS'_isStatement'
p179
I00
sS'_formula'
p180
NsbsS'_data_class'
p181
g0
(cscisheets.core.helpers.api_util
DataClass
p182
c__builtin__
tuple
p183
(cnumpy
ndarray
p184
cscisheets.core.helpers.api_util
makeArray
p185
tp186
tp187
Rp188
sS'_name'
p189
S'SmplName'
p190
sbag0
(g109
g2
Ntp191
Rp192
(dp193
g113
I00
sg114
g4
sg115
(lp194
I1
aI1
aI1
aI2
aI2
aI2
aI3
aI3
aI3
aI1
aI1
aI1
aI1
aI1
aI1
aI1
aI1
aI1
aI1
aI1
aI1
aI2
aI2
aI2
aI3
aI3
aI3
aI1
aI1
aI1
aI1
aI1
aI1
aI1
aI1
aI1
aI1
aI1
aI1
aI2
aI2
aI2
aI3
aI3
aI3
aI1
aI1
aI1
aI1
aI1
aI1
aI1
aI1
aI1
asg171
g0
(g172
g2
Ntp195
Rp196
(dp197
g176
Nsg177
g192
sg178
I00
sg179
I00
sg180
Nsbsg181
g188
sg189
S'BRpl'
p198
sbag0
(g109
g2
Ntp199
Rp200
(dp201
g113
I00
sg114
g4
sg115
(lp202
F26.68
aF27.13
aF27.21
aF26.76
aF26.71
aF26.19
aF29.98
aF30.12
aF29.41
aF29.95
aF30.45
aF29.88
aF24.8
aF24.97
aF24.63
aF23.0
aF22.86
aF22.8
aF19.92
aF19.85
aF20.0
aF21.86
aF22.09
aF21.84
aF23.89
aF23.54
aF24.27
aF23.22
aF23.8
aF23.49
aF18.91
aF18.78
aF18.8
aF18.24
aF18.22
aF18.36
aF22.18
aF21.71
aF21.75
aF23.88
aF23.42
aF23.63
aF24.59
aF24.61
aF24.34
aF26.37
aF26.36
aF26.17
aF20.5
aF20.47
aF20.28
aF19.72
aF19.75
aF20.01
asg171
g0
(g172
g2
Ntp203
Rp204
(dp205
g176
Nsg177
g200
sg178
I00
sg179
I00
sg180
Nsbsg181
g188
sg189
S'Ct'
p206
sbag0
(g109
g2
Ntp207
Rp208
(dp209
g113
I00
sg114
g4
sg115
(lp210
F0.9399
aF0.8296
aF0.8361
aF0.8039
aF0.8399
aF0.7935
aF0.8264
aF0.7974
aF0.8252
aF0.8418
aF0.7959
aF0.8071
aF0.8513
aF0.8485
aF0.8401
aF0.8371
aF0.891
aF0.8956
aF0.9179
aF0.9783
aF0.8971
aF0.8957
aF0.8287
aF0.8387
aF0.8746
aF0.8493
aF0.8349
aF0.7701
aF0.8746
aF0.8139
aF0.8715
aF0.8977
aF0.856
aF0.8266
aF0.8343
aF0.8496
aF0.7857
aF0.8427
aF0.8637
aF0.8281
aF0.8203
aF0.8288
aF0.8138
aF0.8242
aF0.804
aF0.7795
aF0.7676
aF0.7947
aF0.8179
aF0.8173
aF0.7894
aF0.8157
aF0.8543
aF0.8208
asg171
g0
(g172
g2
Ntp211
Rp212
(dp213
g176
Nsg177
g208
sg178
I00
sg179
I00
sg180
Nsbsg181
g188
sg189
S'Eff'
p214
sbag0
(g109
g2
Ntp215
Rp216
(dp217
g113
I00
sg114
g4
sg115
(lp218
VI
p219
ag219
ag219
ag219
ag219
ag219
ag219
ag219
ag219
ag219
ag219
ag219
ag219
ag219
ag219
ag219
ag219
ag219
aVR1
p220
aVR1
p221
aVR1
p222
aVR1
p223
aVR1
p224
aVR1
p225
aVR1
p226
aVR1
p227
aVR1
p228
aVR1
p229
aVR1
p230
aVR1
p231
aVR1
p232
aVR1
p233
aVR1
p234
aVR1
p235
aVR1
p236
aVR1
p237
aVR2
p238
aVR2
p239
aVR2
p240
aVR2
p241
aVR2
p242
aVR2
p243
aVR2
p244
aVR2
p245
aVR2
p246
aVR2
p247
aVR2
p248
aVR2
p249
aVR2
p250
aVR2
p251
aVR2
p252
aVR2
p253
aVR2
p254
aVR2
p255
asg171
g0
(g172
g2
Ntp256
Rp257
(dp258
g176
Nsg177
g216
sg178
I00
sg179
I00
sg180
Nsbsg181
g188
sg189
S'RunType'
p259
sbag0
(g109
g2
Ntp260
Rp261
(dp262
g113
I00
sg114
g4
sg115
(lp263
Va
p264
aVb
p265
aVc
p266
ag264
ag265
ag266
ag264
ag265
ag266
ag264
ag265
ag266
ag264
ag265
ag266
ag264
ag265
ag266
ag264
ag265
ag266
ag264
ag265
ag266
ag264
ag265
ag266
ag264
ag265
ag266
ag264
ag265
ag266
ag264
ag265
ag266
ag264
ag265
ag266
ag264
ag265
ag266
ag264
ag265
ag266
ag264
ag265
ag266
ag264
ag265
ag266
ag264
ag265
ag266
asg171
g0
(g172
g2
Ntp267
Rp268
(dp269
g176
Nsg177
g261
sg178
I00
sg179
I00
sg180
Nsbsg181
g188
sg189
S'TRpl'
p270
sbag0
(g109
g2
Ntp271
Rp272
(dp273
g113
I00
sg114
g4
sg115
(lp274
I1
aI1
aI1
aI1
aI1
aI1
aI1
aI1
aI1
aI2
aI2
aI2
aI3
aI3
aI3
aI0
aI0
aI0
aI1
aI1
aI1
aI1
aI1
aI1
aI1
aI1
aI1
aI2
aI2
aI2
aI3
aI3
aI3
aI0
aI0
aI0
aI1
aI1
aI1
aI1
aI1
aI1
aI1
aI1
aI1
aI2
aI2
aI2
aI3
aI3
aI3
aI0
aI0
aI0
asg171
g0
(g172
g2
Ntp275
Rp276
(dp277
g176
Nsg177
g272
sg178
I00
sg179
I00
sg180
Nsbsg181
g188
sg189
S'Treatment'
p278
sbag0
(g109
g2
Ntp279
Rp280
(dp281
g113
I00
sg114
g4
sg115
(lp282
(cnumpy.core.multiarray
scalar
p283
(cnumpy
dtype
p284
(S'i8'
p285
I0
I1
tp286
Rp287
(I3
S'<'
p288
NNNI-1
I-1
I0
tp289
bS'\x00\x00\x00\x00\x00\x00\x00\x00'
p290
tp291
Rp292
g219
g283
(g287
S'\x01\x00\x00\x00\x00\x00\x00\x00'
p293
tp294
Rp295
tp296
a(g283
(g287
S'\x00\x00\x00\x00\x00\x00\x00\x00'
p297
tp298
Rp299
VR1
p300
g283
(g287
S'\x01\x00\x00\x00\x00\x00\x00\x00'
p301
tp302
Rp303
tp304
a(g283
(g287
S'\x00\x00\x00\x00\x00\x00\x00\x00'
p305
tp306
Rp307
VR2
p308
g283
(g287
S'\x01\x00\x00\x00\x00\x00\x00\x00'
p309
tp310
Rp311
tp312
a(g283
(g287
S'\x01\x00\x00\x00\x00\x00\x00\x00'
p313
tp314
Rp315
g219
g283
(g287
S'\x01\x00\x00\x00\x00\x00\x00\x00'
p316
tp317
Rp318
tp319
a(g283
(g287
S'\x01\x00\x00\x00\x00\x00\x00\x00'
p320
tp321
Rp322
g219
g283
(g287
S'\x02\x00\x00\x00\x00\x00\x00\x00'
p323
tp324
Rp325
tp326
a(g283
(g287
S'\x01\x00\x00\x00\x00\x00\x00\x00'
p327
tp328
Rp329
g219
g283
(g287
S'\x03\x00\x00\x00\x00\x00\x00\x00'
p330
tp331
Rp332
tp333
a(g283
(g287
S'\x01\x00\x00\x00\x00\x00\x00\x00'
p334
tp335
Rp336
g300
g283
(g287
S'\x01\x00\x00\x00\x00\x00\x00\x00'
p337
tp338
Rp339
tp340
a(g283
(g287
S'\x01\x00\x00\x00\x00\x00\x00\x00'
p341
tp342
Rp343
g300
g283
(g287
S'\x02\x00\x00\x00\x00\x00\x00\x00'
p344
tp345
Rp346
tp347
a(g283
(g287
S'\x01\x00\x00\x00\x00\x00\x00\x00'
p348
tp349
Rp350
g300
g283
(g287
S'\x03\x00\x00\x00\x00\x00\x00\x00'
p351
tp352
Rp353
tp354
a(g283
(g287
S'\x01\x00\x00\x00\x00\x00\x00\x00'
p355
tp356
Rp357
g308
g283
(g287
S'\x01\x00\x00\x00\x00\x00\x00\x00'
p358
tp359
Rp360
tp361
a(g283
(g287
S'\x01\x00\x00\x00\x00\x00\x00\x00'
p362
tp363
Rp364
g308
g283
(g287
S'\x02\x00\x00\x00\x00\x00\x00\x00'
p365
tp366
Rp367
tp368
a(g283
(g287
S'\x01\x00\x00\x00\x00\x00\x00\x00'
p369
tp370
Rp371
g308
g283
(g287
S'\x03\x00\x00\x00\x00\x00\x00\x00'
p372
tp373
Rp374
tp375
a(g283
(g287
S'\x02\x00\x00\x00\x00\x00\x00\x00'
p376
tp377
Rp378
g219
g283
(g287
S'\x01\x00\x00\x00\x00\x00\x00\x00'
p379
tp380
Rp381
tp382
a(g283
(g287
S'\x02\x00\x00\x00\x00\x00\x00\x00'
p383
tp384
Rp385
g300
g283
(g287
S'\x01\x00\x00\x00\x00\x00\x00\x00'
p386
tp387
Rp388
tp389
a(g283
(g287
S'\x02\x00\x00\x00\x00\x00\x00\x00'
p390
tp391
Rp392
g308
g283
(g287
S'\x01\x00\x00\x00\x00\x00\x00\x00'
p393
tp394
Rp395
tp396
a(g283
(g287
S'\x03\x00\x00\x00\x00\x00\x00\x00'
p397
tp398
Rp399
g219
g283
(g287
S'\x01\x00\x00\x00\x00\x00\x00\x00'
p400
tp401
Rp402
tp403
a(g283
(g287
S'\x03\x00\x00\x00\x00\x00\x00\x00'
p404
tp405
Rp406
g300
g283
(g287
S'\x01\x00\x00\x00\x00\x00\x00\x00'
p407
tp408
Rp409
tp410
a(g283
(g287
S'\x03\x00\x00\x00\x00\x00\x00\x00'
p411
tp412
Rp413
g308
g283
(g287
S'\x01\x00\x00\x00\x00\x00\x00\x00'
p414
tp415
Rp416
tp417
aNaNaNaNaNaNaNaNaNaNaNaNaNaNaNaNaNaNaNaNaNaNaNaNaNaNaNaNaNaNaNaNaNaNaNaNasg171
g0
(g172
g2
Ntp418
Rp419
(dp420
g176
Vif run:\u000a  sel = Eff > min_eff\u000a  grouping_columns =   [\u000a      Treatment[sel],\u000a       RunType[sel], \u000a      BRpl[sel],      \u000a    ]\u000a  if True:\u000a    Groups, groupedCt = groupBy(\u000a      grouping_columns, Ct[sel])\u000a    Groups, groupedEff = groupBy(\u000a      grouping_columns, Eff[sel])\u000a    GroupedCt = roundValues(groupedCt,2)\u000a    GroupedEff = roundValues(groupedEff,2)
p421
sg177
g280
sg178
I00
sg179
I00
sg180
Vif run:\u000a  sel = Eff > min_eff\u000a  grouping_columns =   [\u000a      Treatment[sel],\u000a       RunType[sel], \u000a      BRpl[sel],      \u000a    ]\u000a  if True:\u000a    Groups, groupedCt = groupBy(\u000a      grouping_columns, Ct[sel])\u000a    Groups, groupedEff = groupBy(\u000a      grouping_columns, Eff[sel])\u000a    GroupedCt = roundValues(groupedCt,2)\u000a    GroupedEff = roundValues(groupedEff,2)
p422
sbsg181
g0
(g182
g183
(g184
g185
tp423
tp424
Rp425
sg189
VGroups
p426
sbag0
(g109
g2
Ntp427
Rp428
(dp429
g113
I00
sg114
g4
sg115
(lp430
(lp431
F0.84
aF0.89
aF0.9
aa(lp432
F0.83
aF0.83
aF0.85
aa(lp433
F0.82
aF0.85
aF0.82
aa(lp434
F0.94
aF0.83
aF0.84
aa(lp435
F0.8
aF0.84
aF0.79
aa(lp436
F0.83
aF0.8
aF0.83
aa(lp437
F0.92
aF0.98
aF0.9
aa(lp438
F0.9
aF0.83
aF0.84
aa(lp439
F0.87
aF0.85
aF0.83
aa(lp440
F0.79
aF0.84
aF0.86
aa(lp441
F0.83
aF0.82
aF0.83
aa(lp442
F0.81
aF0.82
aF0.8
aa(lp443
F0.84
aF0.8
aF0.81
aa(lp444
F0.77
aF0.87
aF0.81
aa(lp445
F0.78
aF0.77
aF0.79
aa(lp446
F0.85
aF0.85
aF0.84
aa(lp447
F0.87
aF0.9
aF0.86
aa(lp448
F0.82
aF0.82
aF0.79
aaNaNaNaNaNaNaNaNaNaNaNaNaNaNaNaNaNaNaNaNaNaNaNaNaNaNaNaNaNaNaNaNaNaNaNaNasg171
g0
(g172
g2
Ntp449
Rp450
(dp451
g176
Nsg177
g428
sg178
I00
sg179
I00
sg180
Nsbsg181
g0
(g182
g183
(g184
g185
tp452
tp453
Rp454
sg189
VGroupedEff
p455
sbag0
(g109
g2
Ntp456
Rp457
(dp458
g113
I00
sg114
g4
sg115
(lp459
(lp460
F23.0
aF22.86
aF22.8
aa(lp461
F18.24
aF18.22
aF18.36
aa(lp462
F19.72
aF19.75
aF20.01
aa(lp463
F26.68
aF27.13
aF27.21
aa(lp464
F26.76
aF26.71
aF26.19
aa(lp465
F29.98
aF30.12
aF29.41
aa(lp466
F19.92
aF19.85
aF20.0
aa(lp467
F21.86
aF22.09
aF21.84
aa(lp468
F23.89
aF23.54
aF24.27
aa(lp469
F22.18
aF21.71
aF21.75
aa(lp470
F23.88
aF23.42
aF23.63
aa(lp471
F24.59
aF24.61
aF24.34
aa(lp472
F29.95
aF30.45
aF29.88
aa(lp473
F23.22
aF23.8
aF23.49
aa(lp474
F26.37
aF26.36
aF26.17
aa(lp475
F24.8
aF24.97
aF24.63
aa(lp476
F18.91
aF18.78
aF18.8
aa(lp477
F20.5
aF20.47
aF20.28
aaNaNaNaNaNaNaNaNaNaNaNaNaNaNaNaNaNaNaNaNaNaNaNaNaNaNaNaNaNaNaNaNaNaNaNaNasg171
g0
(g172
g2
Ntp478
Rp479
(dp480
g176
Nsg177
g457
sg178
I00
sg179
I00
sg180
Nsbsg181
g0
(g182
g183
(g184
g185
tp481
tp482
Rp483
sg189
VGroupedCt
p484
sbag0
(g109
g2
Ntp485
Rp486
(dp487
g113
I00
sg114
g4
sg115
(lp488
(lp489
F23.0
aF22.9
aF22.8
aa(lp490
F18.2
aF18.2
aF18.4
aa(lp491
F19.7
aF19.8
aF20.0
aa(lp492
F26.7
aF27.1
aF27.2
aa(lp493
F26.8
aF26.7
aF26.2
aa(lp494
F30.0
aF30.1
aF29.4
aa(lp495
F19.9
aF19.9
aF20.0
aa(lp496
F21.9
aF22.1
aF21.8
aa(lp497
F23.9
aF23.5
aF24.3
aa(lp498
F22.2
aF21.7
aF21.8
aa(lp499
F23.9
aF23.4
aF23.6
aa(lp500
F24.6
aF24.6
aF24.3
aa(lp501
F29.9
aF30.4
aF29.9
aa(lp502
F23.2
aF23.8
aF23.5
aa(lp503
F26.4
aF26.4
aF26.2
aa(lp504
F24.8
aF25.0
aF24.6
aa(lp505
F18.9
aF18.8
aF18.8
aa(lp506
F20.5
aF20.5
aF20.3
aaNaNaNaNaNaNaNaNaNaNaNaNaNaNaNaNaNaNaNaNaNaNaNaNaNaNaNaNaNaNaNaNaNaNaNaNasg171
g0
(g172
g2
Ntp507
Rp508
(dp509
g176
Vif run:\u000a  length = len(Groups)\u000a  StdFilteredGroupedCt = roundValues([filterExtremes(g, max_std, 2) for g in pruneNulls(GroupedCt, required_length=length)])\u000a 
p510
sg177
g486
sg178
I00
sg179
I00
sg180
Vif run:\u000a  length = len(Groups)\u000a  StdFilteredGroupedCt = roundValues([filterExtremes(g, max_std, 2) for g in pruneNulls(GroupedCt, required_length=length)])\u000a 
p511
sbsg181
g0
(g182
g183
(g184
g185
tp512
tp513
Rp514
sg189
VStdFilteredGroupedCt
p515
sbag0
(g109
g2
Ntp516
Rp517
(dp518
g113
I00
sg114
g4
sg115
(lp519
F22.9
aF18.3
aF19.8
aF27.0
aF26.6
aF29.8
aF19.9
aF21.9
aF23.9
aF21.9
aF23.6
aF24.5
aF30.1
aF23.5
aF26.3
aF24.8
aF18.8
aF20.4
aFnan
aFnan
aFnan
aFnan
aFnan
aFnan
aFnan
aFnan
aFnan
aFnan
aFnan
aFnan
aFnan
aFnan
aFnan
aFnan
aFnan
aFnan
aFnan
aFnan
aFnan
aFnan
aFnan
aFnan
aFnan
aFnan
aFnan
aFnan
aFnan
aFnan
aFnan
aFnan
aFnan
aFnan
aFnan
aFnan
asg171
g0
(g172
g2
Ntp520
Rp521
(dp522
g176
Vif run:\u000a  MeanCt = [np.mean(g) for g in StdFilteredGroupedCt]\u000a  MeanCt = roundValues(MeanCt,1)\u000a  StdCt = [np.std(g, ddof=1) for g in StdFilteredGroupedCt]\u000a  StdCt = roundValues(StdCt,3)\u000as.setColumnVisibility(['Groups', 'GroupedEff', 'GroupedCt', 'StdFilteredGroupedCt', 'MeanCt', 'StdCt'], is_visible=show_block1)
p523
sg177
g517
sg178
I00
sg179
I00
sg180
Vif run:\u000a  MeanCt = [np.mean(g) for g in StdFilteredGroupedCt]\u000a  MeanCt = roundValues(MeanCt,1)\u000a  StdCt = [np.std(g, ddof=1) for g in StdFilteredGroupedCt]\u000a  StdCt = roundValues(StdCt,3)\u000as.setColumnVisibility(['Groups', 'GroupedEff', 'GroupedCt', 'StdFilteredGroupedCt', 'MeanCt', 'StdCt'], is_visible=show_block1)
p524
sbsg181
g0
(g182
g183
(g184
g185
tp525
tp526
Rp527
sg189
VMeanCt
p528
sbag0
(g109
g2
Ntp529
Rp530
(dp531
g113
I00
sg114
g4
sg115
(lp532
F0.1
aF0.115
aF0.153
aF0.265
aF0.321
aF0.379
aF0.058
aF0.153
aF0.4
aF0.265
aF0.252
aF0.173
aF0.289
aF0.3
aF0.115
aF0.2
aF0.058
aF0.115
aFnan
aFnan
aFnan
aFnan
aFnan
aFnan
aFnan
aFnan
aFnan
aFnan
aFnan
aFnan
aFnan
aFnan
aFnan
aFnan
aFnan
aFnan
aFnan
aFnan
aFnan
aFnan
aFnan
aFnan
aFnan
aFnan
aFnan
aFnan
aFnan
aFnan
aFnan
aFnan
aFnan
aFnan
aFnan
aFnan
asg171
g0
(g172
g2
Ntp533
Rp534
(dp535
g176
Nsg177
g530
sg178
I00
sg179
I00
sg180
Nsbsg181
g0
(g182
g183
(g184
g185
tp536
tp537
Rp538
sg189
VStdCt
p539
sbag0
(g109
g2
Ntp540
Rp541
(dp542
g113
I00
sg114
g4
sg115
(lp543
(lp544
g283
(g287
S'\x00\x00\x00\x00\x00\x00\x00\x00'
p545
tp546
Rp547
ag283
(g287
S'\x01\x00\x00\x00\x00\x00\x00\x00'
p548
tp549
Rp550
aa(lp551
g283
(g287
S'\x01\x00\x00\x00\x00\x00\x00\x00'
p552
tp553
Rp554
ag283
(g287
S'\x01\x00\x00\x00\x00\x00\x00\x00'
p555
tp556
Rp557
aa(lp558
g283
(g287
S'\x01\x00\x00\x00\x00\x00\x00\x00'
p559
tp560
Rp561
ag283
(g287
S'\x02\x00\x00\x00\x00\x00\x00\x00'
p562
tp563
Rp564
aa(lp565
g283
(g287
S'\x01\x00\x00\x00\x00\x00\x00\x00'
p566
tp567
Rp568
ag283
(g287
S'\x03\x00\x00\x00\x00\x00\x00\x00'
p569
tp570
Rp571
aa(lp572
g283
(g287
S'\x02\x00\x00\x00\x00\x00\x00\x00'
p573
tp574
Rp575
ag283
(g287
S'\x01\x00\x00\x00\x00\x00\x00\x00'
p576
tp577
Rp578
aa(lp579
g283
(g287
S'\x03\x00\x00\x00\x00\x00\x00\x00'
p580
tp581
Rp582
ag283
(g287
S'\x01\x00\x00\x00\x00\x00\x00\x00'
p583
tp584
Rp585
aaNaNaNaNaNaNaNaNaNaNaNaNaNaNaNaNaNaNaNaNaNaNaNaNaNaNaNaNaNaNaNaNaNaNaNaNaNaNaNaNaNaNaNaNaNaNaNaNasg171
g0
(g172
g2
Ntp586
Rp587
(dp588
g176
Vif run:\u000a      tabularize(s, 'Groups', 1, 'MeanCt', \u000a          new_category_colnm='BioRuns',\u000a          values_colnm_prefix='Gene_')
p589
sg177
g541
sg178
I00
sg179
I00
sg180
Vif run:\u000a      tabularize(s, 'Groups', 1, 'MeanCt', \u000a          new_category_colnm='BioRuns',\u000a          values_colnm_prefix='Gene_')
p590
sbsg181
g0
(g182
g183
(g184
g185
tp591
tp592
Rp593
sg189
VBioRuns
p594
sbag0
(g109
g2
Ntp595
Rp596
(dp597
g113
I00
sg114
g4
sg115
(lp598
F22.9
aF27.0
aF26.6
aF29.8
aF30.1
aF24.8
aFnan
aFnan
aFnan
aFnan
aFnan
aFnan
aFnan
aFnan
aFnan
aFnan
aFnan
aFnan
aFnan
aFnan
aFnan
aFnan
aFnan
aFnan
aFnan
aFnan
aFnan
aFnan
aFnan
aFnan
aFnan
aFnan
aFnan
aFnan
aFnan
aFnan
aFnan
aFnan
aFnan
aFnan
aFnan
aFnan
aFnan
aFnan
aFnan
aFnan
aFnan
aFnan
aFnan
aFnan
aFnan
aFnan
aFnan
aFnan
asg171
g0
(g172
g2
Ntp599
Rp600
(dp601
g176
Nsg177
g596
sg178
I00
sg179
I00
sg180
Nsbsg181
g0
(g182
g183
(g184
g185
tp602
tp603
Rp604
sg189
S'Gene_I'
p605
sbag0
(g109
g2
Ntp606
Rp607
(dp608
g113
I00
sg114
g4
sg115
(lp609
F18.3
aF19.9
aF21.9
aF23.9
aF23.5
aF18.8
aFnan
aFnan
aFnan
aFnan
aFnan
aFnan
aFnan
aFnan
aFnan
aFnan
aFnan
aFnan
aFnan
aFnan
aFnan
aFnan
aFnan
aFnan
aFnan
aFnan
aFnan
aFnan
aFnan
aFnan
aFnan
aFnan
aFnan
aFnan
aFnan
aFnan
aFnan
aFnan
aFnan
aFnan
aFnan
aFnan
aFnan
aFnan
aFnan
aFnan
aFnan
aFnan
aFnan
aFnan
aFnan
aFnan
aFnan
aFnan
asg171
g0
(g172
g2
Ntp610
Rp611
(dp612
g176
Nsg177
g607
sg178
I00
sg179
I00
sg180
Nsbsg181
g604
sg189
S'Gene_R1'
p613
sbag0
(g109
g2
Ntp614
Rp615
(dp616
g113
I00
sg114
g4
sg115
(lp617
F19.8
aF21.9
aF23.6
aF24.5
aF26.3
aF20.4
aFnan
aFnan
aFnan
aFnan
aFnan
aFnan
aFnan
aFnan
aFnan
aFnan
aFnan
aFnan
aFnan
aFnan
aFnan
aFnan
aFnan
aFnan
aFnan
aFnan
aFnan
aFnan
aFnan
aFnan
aFnan
aFnan
aFnan
aFnan
aFnan
aFnan
aFnan
aFnan
aFnan
aFnan
aFnan
aFnan
aFnan
aFnan
aFnan
aFnan
aFnan
aFnan
aFnan
aFnan
aFnan
aFnan
aFnan
aFnan
asg171
g0
(g172
g2
Ntp618
Rp619
(dp620
g176
Nsg177
g615
sg178
I00
sg179
I00
sg180
Nsbsg181
g604
sg189
S'Gene_R2'
p621
sbag0
(g109
g2
Ntp622
Rp623
(dp624
g113
I00
sg114
g4
sg115
(lp625
F0.04123
aF0.00729
aF0.03847
aF0.01675
aF0.01031
aF0.01563
aFnan
aFnan
aFnan
aFnan
aFnan
aFnan
aFnan
aFnan
aFnan
aFnan
aFnan
aFnan
aFnan
aFnan
aFnan
aFnan
aFnan
aFnan
aFnan
aFnan
aFnan
aFnan
aFnan
aFnan
aFnan
aFnan
aFnan
aFnan
aFnan
aFnan
aFnan
aFnan
aFnan
aFnan
aFnan
aFnan
aFnan
aFnan
aFnan
aFnan
aFnan
aFnan
aFnan
aFnan
aFnan
aFnan
aFnan
aFnan
asg171
g0
(g172
g2
Ntp626
Rp627
(dp628
g176
VExprR1 = roundValues(2**(Gene_R1 - Gene_I),5)
p629
sg177
g623
sg178
I01
sg179
I00
sg180
VroundValues(2**(Gene_R1 - Gene_I),5)
p630
sbsg181
g0
(g182
g183
(g184
g185
tp631
tp632
Rp633
sg189
VExprR1
p634
sbag0
(g109
g2
Ntp635
Rp636
(dp637
g113
I00
sg114
g4
sg115
(lp638
F0.11663
aF0.02916
aF0.125
aF0.02538
aF0.07179
aF0.04737
aFnan
aFnan
aFnan
aFnan
aFnan
aFnan
aFnan
aFnan
aFnan
aFnan
aFnan
aFnan
aFnan
aFnan
aFnan
aFnan
aFnan
aFnan
aFnan
aFnan
aFnan
aFnan
aFnan
aFnan
aFnan
aFnan
aFnan
aFnan
aFnan
aFnan
aFnan
aFnan
aFnan
aFnan
aFnan
aFnan
aFnan
aFnan
aFnan
aFnan
aFnan
aFnan
aFnan
aFnan
aFnan
aFnan
aFnan
aFnan
asg171
g0
(g172
g2
Ntp639
Rp640
(dp641
g176
VExprR2 = roundValues(2**(Gene_R2 - Gene_I),5)
p642
sg177
g636
sg178
I01
sg179
I00
sg180
VroundValues(2**(Gene_R2 - Gene_I),5)
p643
sbsg181
g0
(g182
g183
(g184
g185
tp644
tp645
Rp646
sg189
VExprR2
p647
sbag0
(g109
g2
Ntp648
Rp649
(dp650
g113
I00
sg114
g4
sg115
(lp651
F0.069
aF0.015
aF0.069
aF0.021
aF0.027
aF0.027
aFnan
aFnan
aFnan
aFnan
aFnan
aFnan
aFnan
aFnan
aFnan
aFnan
aFnan
aFnan
aFnan
aFnan
aFnan
aFnan
aFnan
aFnan
aFnan
aFnan
aFnan
aFnan
aFnan
aFnan
aFnan
aFnan
aFnan
aFnan
aFnan
aFnan
aFnan
aFnan
aFnan
aFnan
aFnan
aFnan
aFnan
aFnan
aFnan
aFnan
aFnan
aFnan
aFnan
aFnan
aFnan
aFnan
aFnan
aFnan
asg171
g0
(g172
g2
Ntp652
Rp653
(dp654
g176
Vif run:\u000a  GeoMean = roundValues(np.sqrt(ExprR1*ExprR2), 3)\u000as.setColumnVisibility(['BioRuns', 'Gene_I', 'Gene_R1', 'Gene_R2', 'ExprR1', 'ExprR2', 'GeoMean'], is_visible=show_block2)
p655
sg177
g649
sg178
I00
sg179
I00
sg180
Vif run:\u000a  GeoMean = roundValues(np.sqrt(ExprR1*ExprR2), 3)\u000as.setColumnVisibility(['BioRuns', 'Gene_I', 'Gene_R1', 'Gene_R2', 'ExprR1', 'ExprR2', 'GeoMean'], is_visible=show_block2)
p656
sbsg181
g0
(g182
g183
(g184
g185
tp657
tp658
Rp659
sg189
VGeoMean
p660
sbasg189
VSingleGene
p661
sS'_columns'
p662
(lp663
g0
(g109
g2
Ntp664
Rp665
(dp666
g113
I01
sg114
g4
sg115
(lp667
S'1'
p668
aS'2'
p669
aS'3'
p670
aS'4'
p671
aS'5'
p672
aS'6'
p673
aS'7'
p674
aS'8'
p675
aS'9'
p676
aS'10'
p677
aS'11'
p678
aS'12'
p679
aS'13'
p680
aS'14'
p681
aS'15'
p682
aS'16'
p683
aS'17'
p684
aS'18'
p685
aS'19'
p686
aS'20'
p687
aS'21'
p688
aS'22'
p689
aS'23'
p690
aS'24'
p691
aS'25'
p692
aS'26'
p693
aS'27'
p694
aS'28'
p695
aS'29'
p696
aS'30'
p697
aS'31'
p698
aS'32'
p699
aS'33'
p700
aS'34'
p701
aS'35'
p702
aS'36'
p703
aS'37'
p704
aS'38'
p705
aS'39'
p706
aS'40'
p707
aS'41'
p708
aS'42'
p709
aS'43'
p710
aS'44'
p711
aS'45'
p712
aS'46'
p713
aS'47'
p714
aS'48'
p715
aS'49'
p716
aS'50'
p717
aS'51'
p718
aS'52'
p719
aS'53'
p720
aS'54'
p721
asg171
g0
(g172
g2
Ntp722
Rp723
(dp724
g176
Nsg177
g665
sg178
I00
sg179
I00
sg180
Nsbsg181
g0
(g182
g183
(g184
g185
tp725
tp726
Rp727
sg189
S'row'
p728
sbag0
(g109
g2
Ntp729
Rp730
(dp731
g113
I00
sg114
g4
sg115
(lp732
Vgene
p733
aVrun
p734
aVshow_raw
p735
aVshow_block1
p736
aVshow_block2
p737
aVshow_block3
p738
aVmax_std
p739
aVmin_eff
p740
aVnan
p741
aVnan
p742
aVnan
p743
aVnan
p744
aVnan
p745
aVnan
p746
aVnan
p747
aVnan
p748
aVnan
p749
aVnan
p750
aVnan
p751
aVnan
p752
aVnan
p753
aVnan
p754
aVnan
p755
aVnan
p756
aVnan
p757
aVnan
p758
aVnan
p759
aVnan
p760
aVnan
p761
aVnan
p762
aVnan
p763
aVnan
p764
aVnan
p765
aVnan
p766
aVnan
p767
aVnan
p768
aVnan
p769
aVnan
p770
aVnan
p771
aVnan
p772
aVnan
p773
aVnan
p774
aVnan
p775
aVnan
p776
aVnan
p777
aVnan
p778
aVnan
p779
aVnan
p780
aVnan
p781
aVnan
p782
aVnan
p783
aVnan
p784
aVnan
p785
aVnan
p786
asg171
g0
(g172
g2
Ntp787
Rp788
(dp789
g176
Nsg177
g730
sg178
I00
sg179
I00
sg180
Nsbsg181
g0
(g182
g183
(g184
g185
tp790
tp791
Rp792
sg189
VParmNames
p793
sbag0
(g109
g2
Ntp794
Rp795
(dp796
g113
I00
sg114
g4
sg115
(lp797
VGene1
p798
aVTrue
p799
aVFalse
p800
aVFalse
p801
aVFalse
p802
aVTrue
p803
aV0.5
p804
aV0.7
p805
aV
p806
ag806
aVnan
p807
aVnan
p808
aVnan
p809
aVnan
p810
aVnan
p811
aVnan
p812
aVnan
p813
aVnan
p814
aVnan
p815
aVnan
p816
aVnan
p817
aVnan
p818
aVnan
p819
aVnan
p820
aVnan
p821
aVnan
p822
aVnan
p823
aVnan
p824
aVnan
p825
aVnan
p826
aVnan
p827
aVnan
p828
aVnan
p829
aVnan
p830
aVnan
p831
aVnan
p832
aVnan
p833
aVnan
p834
aVnan
p835
aVnan
p836
aVnan
p837
aVnan
p838
aVnan
p839
aVnan
p840
aVnan
p841
aVnan
p842
aVnan
p843
aVnan
p844
aVnan
p845
aVnan
p846
aVnan
p847
aVnan
p848
aVnan
p849
aVnan
p850
asg171
g0
(g172
g2
Ntp851
Rp852
(dp853
g176
Vxlsx_path = '/mnt/hgfs/josephhellerstein/home/Technical/SciSheets/CaseStudies/Kristen/workbooks/data.xlsx'\u000as.setColumnVisibility()\u000agene = ParmValues[0]\u000arun = ParmValues[1] == 'True'\u000ashow_raw = ParmValues[2] == 'True'\u000ashow_block1 = ParmValues[3] == 'True'\u000ashow_block2 = ParmValues[4] == 'True'\u000ashow_block3 = ParmValues[5] == 'True'\u000amax_std  = float(ParmValues[6])\u000amin_eff = float(ParmValues[7])\u000aworksheet = gene + "-I"\u000aif False:\u000a  Groups = []\u000a  GroupedCt = []\u000a  GroupedEff = []\u000a  MeanCt = []\u000a  Imp = []\u000a  s.deleteColumn('Ct')\u000a  s.deleteColumn('RunType')\u000a  s.deleteColumn('BRpl')\u000a  s.deleteColumn('TRpl')\u000a  s.deleteColumn('Treatment')\u000a  s.deleteColumn('SmplName')\u000a  s.deleteColumn('Eff')\u000aif run:\u000a  importExcelToTable(s, xlsx_path, worksheet=worksheet)\u000as.setColumnVisibility(['SmplName'], False)\u000as.setColumnVisibility(['BRpl', 'Ct', 'Eff', 'RunType', 'TRpl', 'Treatment'], is_visible=show_raw)
p854
sg177
g795
sg178
I00
sg179
I00
sg180
Vxlsx_path = '/mnt/hgfs/josephhellerstein/home/Technical/SciSheets/CaseStudies/Kristen/workbooks/data.xlsx'\u000as.setColumnVisibility()\u000agene = ParmValues[0]\u000arun = ParmValues[1] == 'True'\u000ashow_raw = ParmValues[2] == 'True'\u000ashow_block1 = ParmValues[3] == 'True'\u000ashow_block2 = ParmValues[4] == 'True'\u000ashow_block3 = ParmValues[5] == 'True'\u000amax_std  = float(ParmValues[6])\u000amin_eff = float(ParmValues[7])\u000aworksheet = gene + "-I"\u000aif False:\u000a  Groups = []\u000a  GroupedCt = []\u000a  GroupedEff = []\u000a  MeanCt = []\u000a  Imp = []\u000a  s.deleteColumn('Ct')\u000a  s.deleteColumn('RunType')\u000a  s.deleteColumn('BRpl')\u000a  s.deleteColumn('TRpl')\u000a  s.deleteColumn('Treatment')\u000a  s.deleteColumn('SmplName')\u000a  s.deleteColumn('Eff')\u000aif run:\u000a  importExcelToTable(s, xlsx_path, worksheet=worksheet)\u000as.setColumnVisibility(['SmplName'], False)\u000as.setColumnVisibility(['BRpl', 'Ct', 'Eff', 'RunType', 'TRpl', 'Treatment'], is_visible=show_raw)
p855
sbsg181
g0
(g182
g183
(g184
g185
tp856
tp857
Rp858
sg189
VParmValues
p859
sbag280
ag428
ag457
ag486
ag517
ag530
ag541
ag596
ag607
ag615
ag623
ag636
ag649
ag0
(g109
g2
Ntp860
Rp861
(dp862
g113
I00
sg114
g4
sg115
(lp863
F0.0
aF1.0
aF2.0
aF3.0
aFnan
aFnan
aFnan
aFnan
aFnan
aFnan
aFnan
aFnan
aFnan
aFnan
aFnan
aFnan
aFnan
aFnan
aFnan
aFnan
aFnan
aFnan
aFnan
aFnan
aFnan
aFnan
aFnan
aFnan
aFnan
aFnan
aFnan
aFnan
aFnan
aFnan
aFnan
aFnan
aFnan
aFnan
aFnan
aFnan
aFnan
aFnan
aFnan
aFnan
aFnan
aFnan
aFnan
aFnan
aFnan
aFnan
aFnan
aFnan
aFnan
aFnan
asg171
g0
(g172
g2
Ntp864
Rp865
(dp866
g176
Vif run:\u000a  cat_vals = [br[0] for br in pruneNulls(BioRuns)]\u000a  clean_geo = [x for x in GeoMean if x is not None]\u000a  GeoGroups, groupedGeoMeans = groupBy(cat_vals, clean_geo)\u000a  GroupedGeoMeans = roundValues(groupedGeoMeans, 3)
p867
sg177
g861
sg178
I00
sg179
I00
sg180
Vif run:\u000a  cat_vals = [br[0] for br in pruneNulls(BioRuns)]\u000a  clean_geo = [x for x in GeoMean if x is not None]\u000a  GeoGroups, groupedGeoMeans = groupBy(cat_vals, clean_geo)\u000a  GroupedGeoMeans = roundValues(groupedGeoMeans, 3)
p868
sbsg181
g0
(g182
g183
(g184
g185
tp869
tp870
Rp871
sg189
VGeoGroups
p872
sbag0
(g109
g2
Ntp873
Rp874
(dp875
g113
I00
sg114
g4
sg115
(lp876
cnumpy.core.multiarray
_reconstruct
p877
(g184
(I0
tp878
S'b'
p879
tp880
Rp881
(I1
(I1
tp882
g284
(S'f8'
p883
I0
I1
tp884
Rp885
(I3
S'<'
p886
NNNI-1
I-1
I0
tp887
bI00
S'D\x8bl\xe7\xfb\xa9\xb1?'
p888
tp889
bag877
(g184
(I0
tp890
g879
tp891
Rp892
(I1
(I3
tp893
g885
I00
S'\xb8\x1e\x85\xebQ\xb8\x8e?D\x8bl\xe7\xfb\xa9\xb1?\x1b/\xdd$\x06\x81\x95?'
p894
tp895
bag877
(g184
(I0
tp896
g879
tp897
Rp898
(I1
(I1
tp899
g885
I00
S'\xd9\xce\xf7S\xe3\xa5\x9b?'
p900
tp901
bag877
(g184
(I0
tp902
g879
tp903
Rp904
(I1
(I1
tp905
g885
I00
S'\xd9\xce\xf7S\xe3\xa5\x9b?'
p906
tp907
baNaNaNaNaNaNaNaNaNaNaNaNaNaNaNaNaNaNaNaNaNaNaNaNaNaNaNaNaNaNaNaNaNaNaNaNaNaNaNaNaNaNaNaNaNaNaNaNaNaNasg171
g0
(g172
g2
Ntp908
Rp909
(dp910
g176
Nsg177
g874
sg178
I00
sg179
I00
sg180
Nsbsg181
g0
(g182
g183
(g184
g185
tp911
tp912
Rp913
sg189
VGroupedGeoMeans
p914
sbag0
(g109
g2
Ntp915
Rp916
(dp917
g113
I00
sg114
g4
sg115
(lp918
g877
(g184
(I0
tp919
g879
tp920
Rp921
(I1
(I1
tp922
g885
I00
S'\x00\x00\x00\x00\x00\x00\xf0?'
p923
tp924
bag877
(g184
(I0
tp925
g879
tp926
Rp927
(I1
(I3
tp928
g885
I00
S'-\xb2\x9d\xef\xa7\xc6\xcb?\x00\x00\x00\x00\x00\x00\xf0?\xdb\xf9~j\xbct\xd3?'
p929
tp930
bag877
(g184
(I0
tp931
g879
tp932
Rp933
(I1
(I1
tp934
g885
I00
S'\xa0\x1a/\xdd$\x06\xd9?'
p935
tp936
bag877
(g184
(I0
tp937
g879
tp938
Rp939
(I1
(I1
tp940
g885
I00
S'\xa0\x1a/\xdd$\x06\xd9?'
p941
tp942
baNaNaNaNaNaNaNaNaNaNaNaNaNaNaNaNaNaNaNaNaNaNaNaNaNaNaNaNaNaNaNaNaNaNaNaNaNaNaNaNaNaNaNaNaNaNaNaNaNaNasg171
g0
(g172
g2
Ntp943
Rp944
(dp945
g176
Vif run:\u000a  ref = np.mean(GroupedGeoMeans[0])\u000a  NrmlGeoGroupedMeans = [ [x/ref for x in g] for g in GroupedGeoMeans if g is not None]  \u000a  NrmlGeoGroupedMeans = roundValues(NrmlGeoGroupedMeans, 3)
p946
sg177
g916
sg178
I00
sg179
I00
sg180
Vif run:\u000a  ref = np.mean(GroupedGeoMeans[0])\u000a  NrmlGeoGroupedMeans = [ [x/ref for x in g] for g in GroupedGeoMeans if g is not None]  \u000a  NrmlGeoGroupedMeans = roundValues(NrmlGeoGroupedMeans, 3)
p947
sbsg181
g0
(g182
g183
(g184
g185
tp948
tp949
Rp950
sg189
VNrmlGeoGroupedMeans
p951
sbag0
(g109
g2
Ntp952
Rp953
(dp954
g113
I00
sg114
g4
sg115
(lp955
F1.0
aF0.507
aF0.391
aF0.391
aFnan
aFnan
aFnan
aFnan
aFnan
aFnan
aFnan
aFnan
aFnan
aFnan
aFnan
aFnan
aFnan
aFnan
aFnan
aFnan
aFnan
aFnan
aFnan
aFnan
aFnan
aFnan
aFnan
aFnan
aFnan
aFnan
aFnan
aFnan
aFnan
aFnan
aFnan
aFnan
aFnan
aFnan
aFnan
aFnan
aFnan
aFnan
aFnan
aFnan
aFnan
aFnan
aFnan
aFnan
aFnan
aFnan
aFnan
aFnan
aFnan
aFnan
asg171
g0
(g172
g2
Ntp956
Rp957
(dp958
g176
Vif run:\u000a  MeanNrmlGeoGroups = [round(np.mean(g), 3) for g in NrmlGeoGroupedMeans]
p959
sg177
g953
sg178
I00
sg179
I00
sg180
Vif run:\u000a  MeanNrmlGeoGroups = [round(np.mean(g), 3) for g in NrmlGeoGroupedMeans]
p960
sbsg181
g0
(g182
g183
(g184
g185
tp961
tp962
Rp963
sg189
VMeanNrmlGeoGroups
p964
sbag0
(g109
g2
Ntp965
Rp966
(dp967
g113
I00
sg114
g4
sg115
(lp968
Fnan
aF0.429
aFnan
aFnan
aFnan
aFnan
aFnan
aFnan
aFnan
aFnan
aFnan
aFnan
aFnan
aFnan
aFnan
aFnan
aFnan
aFnan
aFnan
aFnan
aFnan
aFnan
aFnan
aFnan
aFnan
aFnan
aFnan
aFnan
aFnan
aFnan
aFnan
aFnan
aFnan
aFnan
aFnan
aFnan
aFnan
aFnan
aFnan
aFnan
aFnan
aFnan
aFnan
aFnan
aFnan
aFnan
aFnan
aFnan
aFnan
aFnan
aFnan
aFnan
aFnan
aFnan
asg171
g0
(g172
g2
Ntp969
Rp970
(dp971
g176
Vif run:\u000a  StdNrmlGeoGroups = [round(np.std(g, ddof=1), 3) for g in NrmlGeoGroupedMeans]\u000as.setColumnVisibility(['GeoGroups', 'GroupedGeoMeans', 'NrmlGeoGroupedMeans', 'MeanNrmlGeoGroups', 'StdNrmlGeoGroups'], is_visible=show_block3)\u000a#s.setColumnVisibility()
p972
sg177
g966
sg178
I00
sg179
I00
sg180
Vif run:\u000a  StdNrmlGeoGroups = [round(np.std(g, ddof=1), 3) for g in NrmlGeoGroupedMeans]\u000as.setColumnVisibility(['GeoGroups', 'GroupedGeoMeans', 'NrmlGeoGroupedMeans', 'MeanNrmlGeoGroups', 'StdNrmlGeoGroups'], is_visible=show_block3)\u000a#s.setColumnVisibility()
p973
sbsg181
g0
(g182
g183
(g184
g185
tp974
tp975
Rp976
sg189
VStdNrmlGeoGroups
p977
sbag192
ag200
ag208
ag216
ag111
ag261
ag272
asg102
V/home/ubuntu/SciSheets/mysite/user/guest/tables/kristen_single_gene.pcl
p978
sb.