ccopy_reg
_reconstructor
p0
(cscisheets.ui.dt_table
DTTable
p1
c__builtin__
object
p2
Ntp3
Rp4
(dp5
S'_versioned_file'
p6
g0
(cmysite.helpers.versioned_file
VersionedFile
p7
g2
Ntp8
Rp9
(dp10
S'_redo_stack'
p11
g0
(cmysite.helpers.file_stack
FileStack
p12
g2
Ntp13
Rp14
(dp15
S'_dirpath'
p16
S'/home/ubuntu/SciSheets/mysite/user/guest/tables/backup'
p17
sS'_max_depth'
p18
I5
sS'_filename_pfx'
p19
Vkristen_single_gene.r
p20
sbsS'_max_versions'
p21
I5
sS'_undo_stack'
p22
g0
(g12
g2
Ntp23
Rp24
(dp25
g16
g17
sg18
I5
sg19
Vkristen_single_gene.u
p26
sbsS'_checkpoint_history'
p27
(lp28
VCell/Update
p29
aVCell/Update
p30
aVCell/Update
p31
aVCell/Update
p32
aVCell/Update
p33
aVCell/Update
p34
aVCell/Update
p35
aVCell/Update
p36
aVCell/Update
p37
aVCell/Update
p38
aVCell/Update
p39
aVCell/Update
p40
aVColumn/Formula
p41
aVColumn/Formula
p42
aVColumn/Append
p43
aVColumn/Formula
p44
aVColumn/Delete
p45
aVCell/Update
p46
aVColumn/Formula
p47
aVCell/Update
p48
aVCell/Update
p49
aVColumn/Formula
p50
aVColumn/Formula
p51
aVCell/Update
p52
aVColumn/Formula
p53
aVColumn/Formula
p54
aVCell/Update
p55
aVCell/Update
p56
aVCell/Update
p57
aVCell/Update
p58
aVColumn/Formula
p59
aVCell/Update
p60
aVCell/Update
p61
aVCell/Update
p62
aVColumn/Formula
p63
aVCell/Update
p64
aVColumn/Formula
p65
aVColumn/Formula
p66
aVCell/Update
p67
aVCell/Update
p68
aVCell/Update
p69
aVCell/Update
p70
aVCell/Update
p71
aVCell/Update
p72
aVCell/Update
p73
aVCell/Update
p74
aVCell/Update
p75
aVColumn/Formula
p76
aVCell/Update
p77
aVCell/Update
p78
aVCell/Update
p79
aVCell/Update
p80
aVCell/Update
p81
aVCell/Update
p82
aVCell/Update
p83
aVCell/Update
p84
aVCell/Update
p85
aVCell/Update
p86
aVCell/Update
p87
aVCell/Update
p88
aVColumn/Formula
p89
aVColumn/Formula
p90
aVColumn/Formula
p91
aVCell/Update
p92
aVCell/Update
p93
aVCell/Update
p94
aVCell/Update
p95
aVCell/Update
p96
aVColumn/Formula
p97
aVCell/Update
p98
aVCell/Update
p99
aVCell/Update
p100
aVCell/Update
p101
aVCell/Update
p102
aVCell/Update
p103
aVCell/Update
p104
aVColumn/Formula
p105
aVColumn/Formula
p106
aVColumn/Formula
p107
aVCell/Update
p108
aVCell/Update
p109
aVColumn/Formula
p110
aVCell/Update
p111
aVCell/Update
p112
aVCell/Update
p113
aVCell/Update
p114
aVCell/Update
p115
aVCell/Update
p116
aVCell/Update
p117
aVCell/Update
p118
aVColumn/Formula
p119
aVCell/Update
p120
aVColumn/Formula
p121
aVColumn/Formula
p122
aVColumn/Formula
p123
aVCell/Update
p124
aVCell/Update
p125
aVColumn/Formula
p126
aVColumn/Formula
p127
aVColumn/Formula
p128
aVColumn/Formula
p129
aVCell/Update
p130
aVColumn/Formula
p131
aVColumn/Formula
p132
aVColumn/Formula
p133
aVCell/Update
p134
aVCell/Update
p135
aVCell/Update
p136
aVCell/Update
p137
aVCell/Update
p138
aVCell/Update
p139
aVCell/Update
p140
aVCell/Update
p141
aVCell/Update
p142
aVCell/Update
p143
aVColumn/Formula
p144
aVColumn/Formula
p145
aVColumn/Formula
p146
aVColumn/Formula
p147
aVCell/Update
p148
aVCell/Update
p149
aVColumn/Formula
p150
aVCell/Update
p151
aVCell/Update
p152
aVCell/Update
p153
aVCell/Update
p154
aVCell/Update
p155
aVCell/Update
p156
aVCell/Update
p157
aVCell/Update
p158
aVCell/Update
p159
aVCell/Update
p160
aVCell/Update
p161
aVCell/Update
p162
aVCell/Update
p163
aVColumn/Formula
p164
aVColumn/Formula
p165
aVCell/Update
p166
aVCell/Update
p167
aVCell/Update
p168
aVColumn/Formula
p169
aVCell/Update
p170
aVCell/Update
p171
aVCell/Update
p172
aVCell/Update
p173
aVColumn/Formula
p174
aVColumn/Formula
p175
aVColumn/Formula
p176
aVColumn/Formula
p177
aVCell/Update
p178
aVColumn/Formula
p179
aVCell/Update
p180
aVCell/Update
p181
aVCell/Update
p182
aVCell/Update
p183
aVCell/Update
p184
aVCell/Update
p185
aVCell/Update
p186
aVCell/Update
p187
aVCell/Update
p188
aVColumn/Formula
p189
aVCell/Update
p190
aVCell/Update
p191
aVCell/Update
p192
aVCell/Update
p193
aVCell/Update
p194
aVCell/Update
p195
aVCell/Update
p196
aVCell/Update
p197
aVCell/Update
p198
aVCell/Update
p199
aVCell/Update
p200
aVCell/Update
p201
aVCell/Update
p202
aVCell/Update
p203
aVCell/Update
p204
aVCell/Update
p205
aVCell/Update
p206
aVCell/Update
p207
aVCell/Update
p208
aVCell/Update
p209
aVCell/Update
p210
aVCell/Update
p211
aVCell/Update
p212
aVCell/Update
p213
aVCell/Update
p214
aVCell/Update
p215
aVCell/Update
p216
aVCell/Update
p217
aVCell/Update
p218
aVCell/Update
p219
aVCell/Update
p220
aVCell/Update
p221
aVCell/Update
p222
aVCell/Update
p223
aVCell/Update
p224
aVCell/Update
p225
aVCell/Update
p226
aVCell/Update
p227
aVCell/Update
p228
aVCell/Update
p229
aVCell/Update
p230
aVCell/Update
p231
aVCell/Update
p232
aVCell/Update
p233
aVCell/Update
p234
aVCell/Update
p235
aVCell/Update
p236
aVCell/Update
p237
aVCell/Update
p238
aVCell/Update
p239
aVCell/Update
p240
aVCell/Update
p241
aVCell/Update
p242
aVCell/Update
p243
aVCell/Update
p244
aVCell/Update
p245
aVCell/Update
p246
aVCell/Update
p247
aVCell/Update
p248
aVCell/Update
p249
aVCell/Update
p250
aVCell/Update
p251
aVCell/Update
p252
aVCell/Update
p253
aVCell/Update
p254
aVCell/Update
p255
aVCell/Update
p256
aVCell/Update
p257
aVCell/Update
p258
aVCell/Update
p259
aVCell/Update
p260
aVCell/Update
p261
aVCell/Update
p262
aVCell/Update
p263
aVCell/Update
p264
aVCell/Update
p265
aVCell/Update
p266
aVCell/Update
p267
aVCell/Update
p268
aVCell/Update
p269
aVCell/Update
p270
aVCell/Update
p271
asS'_filepath'
p272
V/home/ubuntu/SciSheets/mysite/user/guest/tables/kristen_single_gene.pcl
p273
sS'_backup_dir'
p274
g17
sbsS'_namespace'
p275
(dp276
sS'_hidden_columns'
p277
(lp278
g0
(cscisheets.core.column
Column
p279
g2
Ntp280
Rp281
(dp282
S'_asis'
p283
I00
sS'_owning_table'
p284
g4
sS'_cells'
p285
(lp286
(lp287
cnumpy.core.multiarray
scalar
p288
(cnumpy
dtype
p289
(S'i8'
p290
I0
I1
tp291
Rp292
(I3
S'<'
p293
NNNI-1
I-1
I0
tp294
bS'\x00\x00\x00\x00\x00\x00\x00\x00'
p295
tp296
Rp297
aVI
p298
ag288
(g292
S'\x01\x00\x00\x00\x00\x00\x00\x00'
p299
tp300
Rp301
aa(lp302
g288
(g292
S'\x00\x00\x00\x00\x00\x00\x00\x00'
p303
tp304
Rp305
aVR1
p306
ag288
(g292
S'\x01\x00\x00\x00\x00\x00\x00\x00'
p307
tp308
Rp309
aa(lp310
g288
(g292
S'\x00\x00\x00\x00\x00\x00\x00\x00'
p311
tp312
Rp313
aVR2
p314
ag288
(g292
S'\x01\x00\x00\x00\x00\x00\x00\x00'
p315
tp316
Rp317
aa(lp318
g288
(g292
S'\x01\x00\x00\x00\x00\x00\x00\x00'
p319
tp320
Rp321
ag298
ag288
(g292
S'\x01\x00\x00\x00\x00\x00\x00\x00'
p322
tp323
Rp324
aa(lp325
g288
(g292
S'\x01\x00\x00\x00\x00\x00\x00\x00'
p326
tp327
Rp328
ag298
ag288
(g292
S'\x02\x00\x00\x00\x00\x00\x00\x00'
p329
tp330
Rp331
aa(lp332
g288
(g292
S'\x01\x00\x00\x00\x00\x00\x00\x00'
p333
tp334
Rp335
ag298
ag288
(g292
S'\x03\x00\x00\x00\x00\x00\x00\x00'
p336
tp337
Rp338
aa(lp339
g288
(g292
S'\x01\x00\x00\x00\x00\x00\x00\x00'
p340
tp341
Rp342
ag306
ag288
(g292
S'\x01\x00\x00\x00\x00\x00\x00\x00'
p343
tp344
Rp345
aa(lp346
g288
(g292
S'\x01\x00\x00\x00\x00\x00\x00\x00'
p347
tp348
Rp349
ag306
ag288
(g292
S'\x02\x00\x00\x00\x00\x00\x00\x00'
p350
tp351
Rp352
aa(lp353
g288
(g292
S'\x01\x00\x00\x00\x00\x00\x00\x00'
p354
tp355
Rp356
ag306
ag288
(g292
S'\x03\x00\x00\x00\x00\x00\x00\x00'
p357
tp358
Rp359
aa(lp360
g288
(g292
S'\x01\x00\x00\x00\x00\x00\x00\x00'
p361
tp362
Rp363
ag314
ag288
(g292
S'\x01\x00\x00\x00\x00\x00\x00\x00'
p364
tp365
Rp366
aa(lp367
g288
(g292
S'\x01\x00\x00\x00\x00\x00\x00\x00'
p368
tp369
Rp370
ag314
ag288
(g292
S'\x02\x00\x00\x00\x00\x00\x00\x00'
p371
tp372
Rp373
aa(lp374
g288
(g292
S'\x01\x00\x00\x00\x00\x00\x00\x00'
p375
tp376
Rp377
ag314
ag288
(g292
S'\x03\x00\x00\x00\x00\x00\x00\x00'
p378
tp379
Rp380
aa(lp381
g288
(g292
S'\x02\x00\x00\x00\x00\x00\x00\x00'
p382
tp383
Rp384
ag298
ag288
(g292
S'\x01\x00\x00\x00\x00\x00\x00\x00'
p385
tp386
Rp387
aa(lp388
g288
(g292
S'\x02\x00\x00\x00\x00\x00\x00\x00'
p389
tp390
Rp391
ag306
ag288
(g292
S'\x01\x00\x00\x00\x00\x00\x00\x00'
p392
tp393
Rp394
aa(lp395
g288
(g292
S'\x02\x00\x00\x00\x00\x00\x00\x00'
p396
tp397
Rp398
ag314
ag288
(g292
S'\x01\x00\x00\x00\x00\x00\x00\x00'
p399
tp400
Rp401
aa(lp402
g288
(g292
S'\x03\x00\x00\x00\x00\x00\x00\x00'
p403
tp404
Rp405
ag298
ag288
(g292
S'\x01\x00\x00\x00\x00\x00\x00\x00'
p406
tp407
Rp408
aa(lp409
g288
(g292
S'\x03\x00\x00\x00\x00\x00\x00\x00'
p410
tp411
Rp412
ag306
ag288
(g292
S'\x01\x00\x00\x00\x00\x00\x00\x00'
p413
tp414
Rp415
aa(lp416
g288
(g292
S'\x03\x00\x00\x00\x00\x00\x00\x00'
p417
tp418
Rp419
ag314
ag288
(g292
S'\x01\x00\x00\x00\x00\x00\x00\x00'
p420
tp421
Rp422
aaNaNaNaNaNaNaNaNaNaNaNaNaNaNaNaNaNaNaNaNaNaNaNaNaNaNaNaNaNaNaNaNaNaNaNaNasS'_formula_statement'
p423
g0
(cscisheets.core.helpers.formula_statement
FormulaStatement
p424
g2
Ntp425
Rp426
(dp427
S'_statement'
p428
Vsel = Eff > min_eff\u000agrouping_columns =   [\u000a    Treatment[sel],\u000a     RunType[sel], \u000a    BRpl[sel],      \u000a  ]\u000aGroups, groupedCt = groupBy(\u000a     grouping_columns, Ct[sel])\u000aGroups, groupedEff = groupBy(\u000a     grouping_columns, Eff[sel])\u000aGroups = [[g[0], g[1], g[2]] for g in Groups]\u000aGroupedCt = roundValues(groupedCt,2)\u000aGroupedEff = roundValues(groupedEff,2)
p429
sS'_name'
p430
VGroups
p431
sS'_isExpression'
p432
I00
sS'_isStatement'
p433
I00
sS'_formula'
p434
Vsel = Eff > min_eff\u000agrouping_columns =   [\u000a    Treatment[sel],\u000a     RunType[sel], \u000a    BRpl[sel],      \u000a  ]\u000aGroups, groupedCt = groupBy(\u000a     grouping_columns, Ct[sel])\u000aGroups, groupedEff = groupBy(\u000a     grouping_columns, Eff[sel])\u000aGroups = [[g[0], g[1], g[2]] for g in Groups]\u000aGroupedCt = roundValues(groupedCt,2)\u000aGroupedEff = roundValues(groupedEff,2)
p435
sbsS'_data_class'
p436
g0
(cscisheets.core.helpers.api_util
DataClass
p437
c__builtin__
tuple
p438
(cnumpy
ndarray
p439
cscisheets.core.helpers.api_util
makeArray
p440
tp441
tp442
Rp443
sg430
g431
sbag0
(g279
g2
Ntp444
Rp445
(dp446
g283
I00
sg284
g4
sg285
(lp447
(lp448
F0.84
aF0.89
aF0.9
aa(lp449
F0.83
aF0.83
aF0.85
aa(lp450
F0.82
aF0.85
aF0.82
aa(lp451
F0.94
aF0.83
aF0.84
aa(lp452
F0.8
aF0.84
aF0.79
aa(lp453
F0.83
aF0.8
aF0.83
aa(lp454
F0.92
aF0.98
aF0.9
aa(lp455
F0.9
aF0.83
aF0.84
aa(lp456
F0.87
aF0.85
aF0.83
aa(lp457
F0.79
aF0.84
aF0.86
aa(lp458
F0.83
aF0.82
aF0.83
aa(lp459
F0.81
aF0.82
aF0.8
aa(lp460
F0.84
aF0.8
aF0.81
aa(lp461
F0.77
aF0.87
aF0.81
aa(lp462
F0.78
aF0.77
aF0.79
aa(lp463
F0.85
aF0.85
aF0.84
aa(lp464
F0.87
aF0.9
aF0.86
aa(lp465
F0.82
aF0.82
aF0.79
aaNaNaNaNaNaNaNaNaNaNaNaNaNaNaNaNaNaNaNaNaNaNaNaNaNaNaNaNaNaNaNaNaNaNaNaNasg423
g0
(g424
g2
Ntp466
Rp467
(dp468
g428
NsS'_column'
p469
g445
sg432
I00
sg433
I00
sg434
Nsbsg436
g0
(g437
g438
(g439
g440
tp470
tp471
Rp472
sg430
VGroupedEff
p473
sbag0
(g279
g2
Ntp474
Rp475
(dp476
g283
I00
sg284
g4
sg285
(lp477
(lp478
F23.0
aF22.86
aF22.8
aa(lp479
F18.24
aF18.22
aF18.36
aa(lp480
F19.72
aF19.75
aF20.01
aa(lp481
F26.68
aF27.13
aF27.21
aa(lp482
F26.76
aF26.71
aF26.19
aa(lp483
F29.98
aF30.12
aF29.41
aa(lp484
F19.92
aF19.85
aF20.0
aa(lp485
F21.86
aF22.09
aF21.84
aa(lp486
F23.89
aF23.54
aF24.27
aa(lp487
F22.18
aF21.71
aF21.75
aa(lp488
F23.88
aF23.42
aF23.63
aa(lp489
F24.59
aF24.61
aF24.34
aa(lp490
F29.95
aF30.45
aF29.88
aa(lp491
F23.22
aF23.8
aF23.49
aa(lp492
F26.37
aF26.36
aF26.17
aa(lp493
F24.8
aF24.97
aF24.63
aa(lp494
F18.91
aF18.78
aF18.8
aa(lp495
F20.5
aF20.47
aF20.28
aaNaNaNaNaNaNaNaNaNaNaNaNaNaNaNaNaNaNaNaNaNaNaNaNaNaNaNaNaNaNaNaNaNaNaNaNasg423
g0
(g424
g2
Ntp496
Rp497
(dp498
g428
Nsg469
g475
sg432
I00
sg433
I00
sg434
Nsbsg436
g0
(g437
g438
(g439
g440
tp499
tp500
Rp501
sg430
VGroupedCt
p502
sbag0
(g279
g2
Ntp503
Rp504
(dp505
g283
I00
sg284
g4
sg285
(lp506
cnumpy.core.multiarray
_reconstruct
p507
(g439
(I0
tp508
S'b'
p509
tp510
Rp511
(I1
(I3
tp512
g289
(S'f8'
p513
I0
I1
tp514
Rp515
(I3
S'<'
p516
NNNI-1
I-1
I0
tp517
bI00
S'\x00\x00\x00\x00\x00\x007@fffff\xe66@\xcd\xcc\xcc\xcc\xcc\xcc6@'
p518
tp519
bag507
(g439
(I0
tp520
g509
tp521
Rp522
(I1
(I3
tp523
g515
I00
S'3333332@3333332@ffffff2@'
p524
tp525
bag507
(g439
(I0
tp526
g509
tp527
Rp528
(I1
(I3
tp529
g515
I00
S'33333\xb33@\xcd\xcc\xcc\xcc\xcc\xcc3@\x00\x00\x00\x00\x00\x004@'
p530
tp531
bag507
(g439
(I0
tp532
g509
tp533
Rp534
(I1
(I2
tp535
g515
I00
S'\x9a\x99\x99\x99\x99\x19;@333333;@'
p536
tp537
bag507
(g439
(I0
tp538
g509
tp539
Rp540
(I1
(I2
tp541
g515
I00
S'\xcd\xcc\xcc\xcc\xcc\xcc:@33333\xb3:@'
p542
tp543
bag507
(g439
(I0
tp544
g509
tp545
Rp546
(I1
(I2
tp547
g515
I00
S'\x00\x00\x00\x00\x00\x00>@\x9a\x99\x99\x99\x99\x19>@'
p548
tp549
bag507
(g439
(I0
tp550
g509
tp551
Rp552
(I1
(I3
tp553
g515
I00
S'fffff\xe63@fffff\xe63@\x00\x00\x00\x00\x00\x004@'
p554
tp555
bag507
(g439
(I0
tp556
g509
tp557
Rp558
(I1
(I3
tp559
g515
I00
S'fffff\xe65@\x9a\x99\x99\x99\x99\x196@\xcd\xcc\xcc\xcc\xcc\xcc5@'
p560
tp561
bag507
(g439
(I0
tp562
g509
tp563
Rp564
(I1
(I2
tp565
g515
I00
S'fffff\xe67@\x00\x00\x00\x00\x00\x807@'
p566
tp567
bag507
(g439
(I0
tp568
g509
tp569
Rp570
(I1
(I2
tp571
g515
I00
S'33333\xb35@\xcd\xcc\xcc\xcc\xcc\xcc5@'
p572
tp573
bag507
(g439
(I0
tp574
g509
tp575
Rp576
(I1
(I3
tp577
g515
I00
S'fffff\xe67@ffffff7@\x9a\x99\x99\x99\x99\x997@'
p578
tp579
bag507
(g439
(I0
tp580
g509
tp581
Rp582
(I1
(I3
tp583
g515
I00
S'\x9a\x99\x99\x99\x99\x998@\x9a\x99\x99\x99\x99\x998@\xcd\xcc\xcc\xcc\xccL8@'
p584
tp585
bag507
(g439
(I0
tp586
g509
tp587
Rp588
(I1
(I2
tp589
g515
I00
S'fffff\xe6=@fffff\xe6=@'
p590
tp591
bag507
(g439
(I0
tp592
g509
tp593
Rp594
(I1
(I2
tp595
g515
I00
S'3333337@\x00\x00\x00\x00\x00\x807@'
p596
tp597
bag507
(g439
(I0
tp598
g509
tp599
Rp600
(I1
(I3
tp601
g515
I00
S'ffffff:@ffffff:@333333:@'
p602
tp603
bag507
(g439
(I0
tp604
g509
tp605
Rp606
(I1
(I3
tp607
g515
I00
S'\xcd\xcc\xcc\xcc\xcc\xcc8@\x00\x00\x00\x00\x00\x009@\x9a\x99\x99\x99\x99\x998@'
p608
tp609
bag507
(g439
(I0
tp610
g509
tp611
Rp612
(I1
(I3
tp613
g515
I00
S'fffff\xe62@\xcd\xcc\xcc\xcc\xcc\xcc2@\xcd\xcc\xcc\xcc\xcc\xcc2@'
p614
tp615
bag507
(g439
(I0
tp616
g509
tp617
Rp618
(I1
(I3
tp619
g515
I00
S'\x00\x00\x00\x00\x00\x804@\x00\x00\x00\x00\x00\x804@\xcd\xcc\xcc\xcc\xccL4@'
p620
tp621
baNaNaNaNaNaNaNaNaNaNaNaNaNaNaNaNaNaNaNaNaNaNaNaNaNaNaNaNaNaNaNaNaNaNaNaNasg423
g0
(g424
g2
Ntp622
Rp623
(dp624
g428
Vlength = len(Groups)\u000aStdFilteredGroupedCt = roundValues([filterExtremes(g, max_std, 2) for g in pruneNulls(GroupedCt,    required_length=length)])\u000a 
p625
sg430
VStdFilteredGroupedCt
p626
sg432
I00
sg433
I00
sg434
Vlength = len(Groups)\u000aStdFilteredGroupedCt = roundValues([filterExtremes(g, max_std, 2) for g in pruneNulls(GroupedCt,    required_length=length)])\u000a 
p627
sbsg436
g0
(g437
g438
(g439
g440
tp628
tp629
Rp630
sg430
g626
sbag0
(g279
g2
Ntp631
Rp632
(dp633
g283
I00
sg284
g4
sg285
(lp634
F22.9
aF18.3
aF19.8
aF27.1
aF26.8
aF30.1
aF19.9
aF21.9
aF23.7
aF21.8
aF23.6
aF24.5
aF29.9
aF23.4
aF26.3
aF24.8
aF18.8
aF20.4
aFnan
aFnan
aFnan
aFnan
aFnan
aFnan
aFnan
aFnan
aFnan
aFnan
aFnan
aFnan
aFnan
aFnan
aFnan
aFnan
aFnan
aFnan
aFnan
aFnan
aFnan
aFnan
aFnan
aFnan
aFnan
aFnan
aFnan
aFnan
aFnan
aFnan
aFnan
aFnan
aFnan
aFnan
aFnan
aFnan
asg423
g0
(g424
g2
Ntp635
Rp636
(dp637
g428
VMeanCt = [np.mean(g) for g in StdFilteredGroupedCt]\u000aMeanCt = roundValues(MeanCt,1)\u000aStdCt = [np.std(g, ddof=1) for g in StdFilteredGroupedCt]\u000aStdCt = roundValues(StdCt,3)
p638
sg430
VMeanCt
p639
sg432
I00
sg433
I00
sg434
VMeanCt = [np.mean(g) for g in StdFilteredGroupedCt]\u000aMeanCt = roundValues(MeanCt,1)\u000aStdCt = [np.std(g, ddof=1) for g in StdFilteredGroupedCt]\u000aStdCt = roundValues(StdCt,3)
p640
sbsg436
g0
(g437
g438
(g439
g440
tp641
tp642
Rp643
sg430
g639
sbag0
(g279
g2
Ntp644
Rp645
(dp646
g283
I00
sg284
g4
sg285
(lp647
F0.1
aF0.115
aF0.153
aF0.071
aF0.071
aF0.071
aF0.058
aF0.153
aF0.283
aF0.071
aF0.252
aF0.173
aF0.0
aF0.212
aF0.115
aF0.2
aF0.058
aF0.115
aFnan
aFnan
aFnan
aFnan
aFnan
aFnan
aFnan
aFnan
aFnan
aFnan
aFnan
aFnan
aFnan
aFnan
aFnan
aFnan
aFnan
aFnan
aFnan
aFnan
aFnan
aFnan
aFnan
aFnan
aFnan
aFnan
aFnan
aFnan
aFnan
aFnan
aFnan
aFnan
aFnan
aFnan
aFnan
aFnan
asg423
g0
(g424
g2
Ntp648
Rp649
(dp650
g428
Nsg469
g645
sg432
I00
sg433
I00
sg434
Nsbsg436
g0
(g437
g438
(g439
g440
tp651
tp652
Rp653
sg430
VStdCt
p654
sbag0
(g279
g2
Ntp655
Rp656
(dp657
g283
I00
sg284
g4
sg285
(lp658
(lp659
g288
(g292
S'\x00\x00\x00\x00\x00\x00\x00\x00'
p660
tp661
Rp662
ag288
(g292
S'\x01\x00\x00\x00\x00\x00\x00\x00'
p663
tp664
Rp665
aa(lp666
g288
(g292
S'\x01\x00\x00\x00\x00\x00\x00\x00'
p667
tp668
Rp669
ag288
(g292
S'\x01\x00\x00\x00\x00\x00\x00\x00'
p670
tp671
Rp672
aa(lp673
g288
(g292
S'\x01\x00\x00\x00\x00\x00\x00\x00'
p674
tp675
Rp676
ag288
(g292
S'\x02\x00\x00\x00\x00\x00\x00\x00'
p677
tp678
Rp679
aa(lp680
g288
(g292
S'\x01\x00\x00\x00\x00\x00\x00\x00'
p681
tp682
Rp683
ag288
(g292
S'\x03\x00\x00\x00\x00\x00\x00\x00'
p684
tp685
Rp686
aa(lp687
g288
(g292
S'\x02\x00\x00\x00\x00\x00\x00\x00'
p688
tp689
Rp690
ag288
(g292
S'\x01\x00\x00\x00\x00\x00\x00\x00'
p691
tp692
Rp693
aa(lp694
g288
(g292
S'\x03\x00\x00\x00\x00\x00\x00\x00'
p695
tp696
Rp697
ag288
(g292
S'\x01\x00\x00\x00\x00\x00\x00\x00'
p698
tp699
Rp700
aaNaNaNaNaNaNaNaNaNaNaNaNaNaNaNaNaNaNaNaNaNaNaNaNaNaNaNaNaNaNaNaNaNaNaNaNaNaNaNaNaNaNaNaNaNaNaNaNasg423
g0
(g424
g2
Ntp701
Rp702
(dp703
g428
Vdummy = tabularize(s, 'Groups', 1, 'MeanCt', \u000a          new_category_colnm='BioRuns',\u000a          values_colnm_prefix='Gene_')
p704
sg430
VBioRuns
p705
sg432
I00
sg433
I00
sg434
Vdummy = tabularize(s, 'Groups', 1, 'MeanCt', \u000a          new_category_colnm='BioRuns',\u000a          values_colnm_prefix='Gene_')
p706
sbsg436
g0
(g437
g438
(g439
g440
tp707
tp708
Rp709
sg430
g705
sbag0
(g279
g2
Ntp710
Rp711
(dp712
g283
I00
sg284
g4
sg285
(lp713
F22.9
aF27.1
aF26.8
aF30.1
aF29.9
aF24.8
aFnan
aFnan
aFnan
aFnan
aFnan
aFnan
aFnan
aFnan
aFnan
aFnan
aFnan
aFnan
aFnan
aFnan
aFnan
aFnan
aFnan
aFnan
aFnan
aFnan
aFnan
aFnan
aFnan
aFnan
aFnan
aFnan
aFnan
aFnan
aFnan
aFnan
aFnan
aFnan
aFnan
aFnan
aFnan
aFnan
aFnan
aFnan
aFnan
aFnan
aFnan
aFnan
aFnan
aFnan
aFnan
aFnan
aFnan
aFnan
asg423
g0
(g424
g2
Ntp714
Rp715
(dp716
g428
Nsg469
g711
sg432
I00
sg433
I00
sg434
Nsbsg436
g0
(g437
g438
(g439
g440
tp717
tp718
Rp719
sg430
S'Gene_I'
p720
sbag0
(g279
g2
Ntp721
Rp722
(dp723
g283
I00
sg284
g4
sg285
(lp724
F18.3
aF19.9
aF21.9
aF23.7
aF23.4
aF18.8
aFnan
aFnan
aFnan
aFnan
aFnan
aFnan
aFnan
aFnan
aFnan
aFnan
aFnan
aFnan
aFnan
aFnan
aFnan
aFnan
aFnan
aFnan
aFnan
aFnan
aFnan
aFnan
aFnan
aFnan
aFnan
aFnan
aFnan
aFnan
aFnan
aFnan
aFnan
aFnan
aFnan
aFnan
aFnan
aFnan
aFnan
aFnan
aFnan
aFnan
aFnan
aFnan
aFnan
aFnan
aFnan
aFnan
aFnan
aFnan
asg423
g0
(g424
g2
Ntp725
Rp726
(dp727
g428
Nsg469
g722
sg432
I00
sg433
I00
sg434
Nsbsg436
g719
sg430
S'Gene_R1'
p728
sbag0
(g279
g2
Ntp729
Rp730
(dp731
g283
I00
sg284
g4
sg285
(lp732
F19.8
aF21.8
aF23.6
aF24.5
aF26.3
aF20.4
aFnan
aFnan
aFnan
aFnan
aFnan
aFnan
aFnan
aFnan
aFnan
aFnan
aFnan
aFnan
aFnan
aFnan
aFnan
aFnan
aFnan
aFnan
aFnan
aFnan
aFnan
aFnan
aFnan
aFnan
aFnan
aFnan
aFnan
aFnan
aFnan
aFnan
aFnan
aFnan
aFnan
aFnan
aFnan
aFnan
aFnan
aFnan
aFnan
aFnan
aFnan
aFnan
aFnan
aFnan
aFnan
aFnan
aFnan
aFnan
asg423
g0
(g424
g2
Ntp733
Rp734
(dp735
g428
Nsg469
g730
sg432
I00
sg433
I00
sg434
Nsbsg436
g719
sg430
S'Gene_R2'
p736
sbag0
(g279
g2
Ntp737
Rp738
(dp739
g283
I00
sg284
g4
sg285
(lp740
F0.04123
aF0.0068
aF0.03349
aF0.01184
aF0.01105
aF0.01563
aFnan
aFnan
aFnan
aFnan
aFnan
aFnan
aFnan
aFnan
aFnan
aFnan
aFnan
aFnan
aFnan
aFnan
aFnan
aFnan
aFnan
aFnan
aFnan
aFnan
aFnan
aFnan
aFnan
aFnan
aFnan
aFnan
aFnan
aFnan
aFnan
aFnan
aFnan
aFnan
aFnan
aFnan
aFnan
aFnan
aFnan
aFnan
aFnan
aFnan
aFnan
aFnan
aFnan
aFnan
aFnan
aFnan
aFnan
aFnan
asg423
g0
(g424
g2
Ntp741
Rp742
(dp743
g428
VExprR1 = roundValues(2**(Gene_R1 - Gene_I),5)
p744
sg430
VExprR1
p745
sg432
I01
sg433
I00
sg434
VroundValues(2**(Gene_R1 - Gene_I),5)
p746
sbsg436
g0
(g437
g438
(g439
g440
tp747
tp748
Rp749
sg430
g745
sbag0
(g279
g2
Ntp750
Rp751
(dp752
g283
I00
sg284
g4
sg285
(lp753
F0.11663
aF0.02538
aF0.10882
aF0.02062
aF0.08247
aF0.04737
aFnan
aFnan
aFnan
aFnan
aFnan
aFnan
aFnan
aFnan
aFnan
aFnan
aFnan
aFnan
aFnan
aFnan
aFnan
aFnan
aFnan
aFnan
aFnan
aFnan
aFnan
aFnan
aFnan
aFnan
aFnan
aFnan
aFnan
aFnan
aFnan
aFnan
aFnan
aFnan
aFnan
aFnan
aFnan
aFnan
aFnan
aFnan
aFnan
aFnan
aFnan
aFnan
aFnan
aFnan
aFnan
aFnan
aFnan
aFnan
asg423
g0
(g424
g2
Ntp754
Rp755
(dp756
g428
VExprR2 = roundValues(2**(Gene_R2 - Gene_I),5)
p757
sg430
VExprR2
p758
sg432
I01
sg433
I00
sg434
VroundValues(2**(Gene_R2 - Gene_I),5)
p759
sbsg436
g0
(g437
g438
(g439
g440
tp760
tp761
Rp762
sg430
g758
sbag0
(g279
g2
Ntp763
Rp764
(dp765
g283
I00
sg284
g4
sg285
(lp766
F0.069
aF0.013
aF0.06
aF0.016
aF0.03
aF0.027
aFnan
aFnan
aFnan
aFnan
aFnan
aFnan
aFnan
aFnan
aFnan
aFnan
aFnan
aFnan
aFnan
aFnan
aFnan
aFnan
aFnan
aFnan
aFnan
aFnan
aFnan
aFnan
aFnan
aFnan
aFnan
aFnan
aFnan
aFnan
aFnan
aFnan
aFnan
aFnan
aFnan
aFnan
aFnan
aFnan
aFnan
aFnan
aFnan
aFnan
aFnan
aFnan
aFnan
aFnan
aFnan
aFnan
aFnan
aFnan
asg423
g0
(g424
g2
Ntp767
Rp768
(dp769
g428
VGeoMean = roundValues(np.sqrt(ExprR1*ExprR2), 3)
p770
sg430
VGeoMean
p771
sg432
I01
sg433
I00
sg434
VroundValues(np.sqrt(ExprR1*ExprR2), 3)
p772
sbsg436
g0
(g437
g438
(g439
g440
tp773
tp774
Rp775
sg430
g771
sbag0
(g279
g2
Ntp776
Rp777
(dp778
g283
I00
sg284
g4
sg285
(lp779
I1
aI1
aI1
aI1
aI1
aI1
aI1
aI1
aI1
aI1
aI1
aI1
aI2
aI2
aI2
aI3
aI3
aI3
aI1
aI1
aI1
aI2
aI2
aI2
aI3
aI3
aI3
aI1
aI1
aI1
aI2
aI2
aI2
aI3
aI3
aI3
aI1
aI1
aI1
aI1
aI1
aI1
aI1
aI1
aI1
aI1
aI1
aI1
aI1
aI1
aI1
aI1
aI1
aI1
asg423
g0
(g424
g2
Ntp780
Rp781
(dp782
g428
Nsg430
S'BRpl'
p783
sg432
I00
sg433
I00
sg434
Nsbsg436
g0
(g437
g438
(g439
g440
tp784
tp785
Rp786
sg430
g783
sbag0
(g279
g2
Ntp787
Rp788
(dp789
g283
I00
sg284
g4
sg285
(lp790
F23.0
aF22.86
aF22.8
aF18.24
aF18.22
aF18.36
aF19.72
aF19.75
aF20.01
aF26.68
aF27.13
aF27.21
aF26.76
aF26.71
aF26.19
aF29.98
aF30.12
aF29.41
aF19.92
aF19.85
aF20.0
aF21.86
aF22.09
aF21.84
aF23.89
aF23.54
aF24.27
aF22.18
aF21.71
aF21.75
aF23.88
aF23.42
aF23.63
aF24.59
aF24.61
aF24.34
aF29.95
aF30.45
aF29.88
aF23.22
aF23.8
aF23.49
aF26.37
aF26.36
aF26.17
aF24.8
aF24.97
aF24.63
aF18.91
aF18.78
aF18.8
aF20.5
aF20.47
aF20.28
asg423
g0
(g424
g2
Ntp791
Rp792
(dp793
g428
Nsg430
S'Ct'
p794
sg432
I00
sg433
I00
sg434
Nsbsg436
g786
sg430
g794
sbag0
(g279
g2
Ntp795
Rp796
(dp797
g283
I00
sg284
g4
sg285
(lp798
F0.8371
aF0.891
aF0.8956
aF0.8266
aF0.8343
aF0.8496
aF0.8157
aF0.8543
aF0.8208
aF0.9399
aF0.8296
aF0.8361
aF0.8039
aF0.8399
aF0.7935
aF0.8264
aF0.7974
aF0.8252
aF0.9179
aF0.9783
aF0.8971
aF0.8957
aF0.8287
aF0.8387
aF0.8746
aF0.8493
aF0.8349
aF0.7857
aF0.8427
aF0.8637
aF0.8281
aF0.8203
aF0.8288
aF0.8138
aF0.8242
aF0.804
aF0.8418
aF0.7959
aF0.8071
aF0.7701
aF0.8746
aF0.8139
aF0.7795
aF0.7676
aF0.7947
aF0.8513
aF0.8485
aF0.8401
aF0.8715
aF0.8977
aF0.856
aF0.8179
aF0.8173
aF0.7894
asg423
g0
(g424
g2
Ntp799
Rp800
(dp801
g428
Nsg430
S'Eff'
p802
sg432
I00
sg433
I00
sg434
Nsbsg436
g786
sg430
g802
sbag0
(g279
g2
Ntp803
Rp804
(dp805
g283
I00
sg284
g4
sg285
(lp806
g298
ag298
ag298
aVR1
p807
aVR1
p808
aVR1
p809
aVR2
p810
aVR2
p811
aVR2
p812
ag298
ag298
ag298
ag298
ag298
ag298
ag298
ag298
ag298
aVR1
p813
aVR1
p814
aVR1
p815
aVR1
p816
aVR1
p817
aVR1
p818
aVR1
p819
aVR1
p820
aVR1
p821
aVR2
p822
aVR2
p823
aVR2
p824
aVR2
p825
aVR2
p826
aVR2
p827
aVR2
p828
aVR2
p829
aVR2
p830
ag298
ag298
ag298
aVR1
p831
aVR1
p832
aVR1
p833
aVR2
p834
aVR2
p835
aVR2
p836
ag298
ag298
ag298
aVR1
p837
aVR1
p838
aVR1
p839
aVR2
p840
aVR2
p841
aVR2
p842
asg423
g0
(g424
g2
Ntp843
Rp844
(dp845
g428
Nsg430
S'RunType'
p846
sg432
I00
sg433
I00
sg434
Nsbsg436
g786
sg430
g846
sbag0
(g279
g2
Ntp847
Rp848
(dp849
g283
I00
sg284
g4
sg285
(lp850
Va
p851
aVb
p852
aVc
p853
ag851
ag852
ag853
ag851
ag852
ag853
ag851
ag852
ag853
ag851
ag852
ag853
ag851
ag852
ag853
ag851
ag852
ag853
ag851
ag852
ag853
ag851
ag852
ag853
ag851
ag852
ag853
ag851
ag852
ag853
ag851
ag852
ag853
ag851
ag852
ag853
ag851
ag852
ag853
ag851
ag852
ag853
ag851
ag852
ag853
ag851
ag852
ag853
ag851
ag852
ag853
asg423
g0
(g424
g2
Ntp854
Rp855
(dp856
g428
Nsg430
S'TRpl'
p857
sg432
I00
sg433
I00
sg434
Nsbsg436
g786
sg430
g857
sbag0
(g279
g2
Ntp858
Rp859
(dp860
g283
I00
sg284
g4
sg285
(lp861
I0
aI0
aI0
aI0
aI0
aI0
aI0
aI0
aI0
aI1
aI1
aI1
aI1
aI1
aI1
aI1
aI1
aI1
aI1
aI1
aI1
aI1
aI1
aI1
aI1
aI1
aI1
aI1
aI1
aI1
aI1
aI1
aI1
aI1
aI1
aI1
aI2
aI2
aI2
aI2
aI2
aI2
aI2
aI2
aI2
aI3
aI3
aI3
aI3
aI3
aI3
aI3
aI3
aI3
asg423
g0
(g424
g2
Ntp862
Rp863
(dp864
g428
Nsg430
S'Treatment'
p865
sg432
I00
sg433
I00
sg434
Nsbsg436
g786
sg430
g865
sbasS'_is_evaluate_formulas'
p866
I01
sS'_prologue'
p867
g0
(g424
g2
Ntp868
Rp869
(dp870
g428
V# Prologue\u000aimport math as mt\u000aimport numpy as np\u000afrom os import listdir\u000afrom os.path import isfile, join\u000aimport pandas as pd\u000aimport scipy as sp\u000afrom numpy import nan  # Must follow sympy import \u000a\u000axlsx_path = '/mnt/hgfs/josephhellerstein/home/Technical/SciSheets/CaseStudies/Kristen/workbooks/data.xlsx'\u000agene = ParmValues[0]\u000arun = ParmValues[1] == 'True'\u000ashow_raw = ParmValues[2] == 'True'\u000ashow_block1 = ParmValues[3] == 'True'\u000ashow_block2 = ParmValues[4] == 'True'\u000ashow_block3 = ParmValues[5] == 'True'\u000ashow_params = ParmValues[8] == 'True'\u000a#show_params = True\u000amax_std  = float(ParmValues[6])\u000amin_eff = float(ParmValues[7])\u000aworksheet = gene + "-I"\u000as.getTable().setIsEvaluateFormulas(run)\u000as.setColumnVisibility()\u000as.setColumnVisibility(['Groups', 'GroupedEff', 'GroupedCt', 'StdFilteredGroupedCt', 'MeanCt', 'StdCt'], is_visible=show_block1)\u000as.setColumnVisibility(['BioRuns', 'Gene_I', 'Gene_R1', 'Gene_R2', 'ExprR1', 'ExprR2', 'GeoMean'], is_visible=show_block2)\u000as.setColumnVisibility(['GeoGroups', 'GroupedGeoMeans', 'NrmlGeoGroupedMeans', 'MeanNrmlGeoGroups', 'StdNrmlGeoGroups'], is_visible=show_block3)\u000aif False:\u000a  Groups = []\u000a  GroupedCt = []\u000a  GroupedEff = []\u000a  MeanCt = []\u000a  Imp = []\u000a  s.deleteColumn('Ct')\u000a  s.deleteColumn('RunType')\u000a  s.deleteColumn('BRpl')\u000a  s.deleteColumn('TRpl')\u000a  s.deleteColumn('Treatment')\u000a  s.deleteColumn('Eff')\u000aif run:\u000a  importExcelToTable(s, xlsx_path, worksheet=worksheet,\u000a      column_position='ParmValues',\u000a      names=['Treatment', 'RunType', 'BRpl', 'TRpl', 'Eff', 'Ct'])\u000as.setColumnVisibility(['BRpl', 'Ct', 'Eff', 'RunType', 'TRpl', 'Treatment'], is_visible=show_raw)\u000as.setColumnVisibility(['ParmNames', 'ParmValues'], show_params)
p871
sg430
VSingleGene
p872
sg432
I00
sg433
I00
sg434
V# Prologue\u000aimport math as mt\u000aimport numpy as np\u000afrom os import listdir\u000afrom os.path import isfile, join\u000aimport pandas as pd\u000aimport scipy as sp\u000afrom numpy import nan  # Must follow sympy import \u000a\u000axlsx_path = '/mnt/hgfs/josephhellerstein/home/Technical/SciSheets/CaseStudies/Kristen/workbooks/data.xlsx'\u000agene = ParmValues[0]\u000arun = ParmValues[1] == 'True'\u000ashow_raw = ParmValues[2] == 'True'\u000ashow_block1 = ParmValues[3] == 'True'\u000ashow_block2 = ParmValues[4] == 'True'\u000ashow_block3 = ParmValues[5] == 'True'\u000ashow_params = ParmValues[8] == 'True'\u000a#show_params = True\u000amax_std  = float(ParmValues[6])\u000amin_eff = float(ParmValues[7])\u000aworksheet = gene + "-I"\u000as.getTable().setIsEvaluateFormulas(run)\u000as.setColumnVisibility()\u000as.setColumnVisibility(['Groups', 'GroupedEff', 'GroupedCt', 'StdFilteredGroupedCt', 'MeanCt', 'StdCt'], is_visible=show_block1)\u000as.setColumnVisibility(['BioRuns', 'Gene_I', 'Gene_R1', 'Gene_R2', 'ExprR1', 'ExprR2', 'GeoMean'], is_visible=show_block2)\u000as.setColumnVisibility(['GeoGroups', 'GroupedGeoMeans', 'NrmlGeoGroupedMeans', 'MeanNrmlGeoGroups', 'StdNrmlGeoGroups'], is_visible=show_block3)\u000aif False:\u000a  Groups = []\u000a  GroupedCt = []\u000a  GroupedEff = []\u000a  MeanCt = []\u000a  Imp = []\u000a  s.deleteColumn('Ct')\u000a  s.deleteColumn('RunType')\u000a  s.deleteColumn('BRpl')\u000a  s.deleteColumn('TRpl')\u000a  s.deleteColumn('Treatment')\u000a  s.deleteColumn('Eff')\u000aif run:\u000a  importExcelToTable(s, xlsx_path, worksheet=worksheet,\u000a      column_position='ParmValues',\u000a      names=['Treatment', 'RunType', 'BRpl', 'TRpl', 'Eff', 'Ct'])\u000as.setColumnVisibility(['BRpl', 'Ct', 'Eff', 'RunType', 'TRpl', 'Treatment'], is_visible=show_raw)\u000as.setColumnVisibility(['ParmNames', 'ParmValues'], show_params)
p873
sbsS'_epilogue'
p874
g0
(g424
g2
Ntp875
Rp876
(dp877
g428
V# Epilogue\u000aif run:\u000a  worksheet = "%s-O" % gene\u000a  exportTableToExcel(s, xlsx_path, worksheet=worksheet, columns=['GeoGroups', 'MeanNrmlGeoGroups', 'StdNrmlGeoGroups'])\u000a
p878
sg430
g872
sg432
I00
sg433
I00
sg434
V# Epilogue\u000aif run:\u000a  worksheet = "%s-O" % gene\u000a  exportTableToExcel(s, xlsx_path, worksheet=worksheet, columns=['GeoGroups', 'MeanNrmlGeoGroups', 'StdNrmlGeoGroups'])\u000a
p879
sbsg430
g872
sS'_columns'
p880
(lp881
g0
(g279
g2
Ntp882
Rp883
(dp884
g283
I01
sg284
g4
sg285
(lp885
S'1'
p886
aS'2'
p887
aS'3'
p888
aS'4'
p889
aS'5'
p890
aS'6'
p891
aS'7'
p892
aS'8'
p893
aS'9'
p894
aS'10'
p895
aS'11'
p896
aS'12'
p897
aS'13'
p898
aS'14'
p899
aS'15'
p900
aS'16'
p901
aS'17'
p902
aS'18'
p903
aS'19'
p904
aS'20'
p905
aS'21'
p906
aS'22'
p907
aS'23'
p908
aS'24'
p909
aS'25'
p910
aS'26'
p911
aS'27'
p912
aS'28'
p913
aS'29'
p914
aS'30'
p915
aS'31'
p916
aS'32'
p917
aS'33'
p918
aS'34'
p919
aS'35'
p920
aS'36'
p921
aS'37'
p922
aS'38'
p923
aS'39'
p924
aS'40'
p925
aS'41'
p926
aS'42'
p927
aS'43'
p928
aS'44'
p929
aS'45'
p930
aS'46'
p931
aS'47'
p932
aS'48'
p933
aS'49'
p934
aS'50'
p935
aS'51'
p936
aS'52'
p937
aS'53'
p938
aS'54'
p939
asg423
g0
(g424
g2
Ntp940
Rp941
(dp942
g428
Nsg469
g883
sg432
I00
sg433
I00
sg434
Nsbsg436
g0
(g437
g438
(g439
g440
tp943
tp944
Rp945
sg430
S'row'
p946
sbag0
(g279
g2
Ntp947
Rp948
(dp949
g283
I00
sg284
g4
sg285
(lp950
Vgene
p951
aVrun
p952
aVshow_raw
p953
aVshow_block1
p954
aVshow_block2
p955
aVshow_block3
p956
aVmax_std
p957
aVmin_eff
p958
aVshow_params
p959
aVnan
p960
aVnan
p961
aVnan
p962
aVnan
p963
aVnan
p964
aVnan
p965
aVnan
p966
aVnan
p967
aVnan
p968
aVnan
p969
aVnan
p970
aVnan
p971
aVnan
p972
aVnan
p973
aVnan
p974
aVnan
p975
aVnan
p976
aVnan
p977
aVnan
p978
aVnan
p979
aVnan
p980
aVnan
p981
aVnan
p982
aVnan
p983
aVnan
p984
aVnan
p985
aVnan
p986
aVnan
p987
aVnan
p988
aVnan
p989
aVnan
p990
aVnan
p991
aVnan
p992
aVnan
p993
aVnan
p994
aVnan
p995
aVnan
p996
aVnan
p997
aVnan
p998
aVnan
p999
aVnan
p1000
aVnan
p1001
aVnan
p1002
aVnan
p1003
aVnan
p1004
asg423
g0
(g424
g2
Ntp1005
Rp1006
(dp1007
g428
Nsg469
g948
sg432
I00
sg433
I00
sg434
Nsbsg436
g0
(g437
g438
(g439
g440
tp1008
tp1009
Rp1010
sg430
VParmNames
p1011
sbag0
(g279
g2
Ntp1012
Rp1013
(dp1014
g283
I00
sg284
g4
sg285
(lp1015
VGene1
p1016
aVTrue
p1017
aVFalse
p1018
aVFalse
p1019
aVFalse
p1020
aVTrue
p1021
aV0.2
p1022
aV0.7
p1023
aVTrue
p1024
aV
p1025
aVnan
p1026
aVnan
p1027
aVnan
p1028
aVnan
p1029
aVnan
p1030
aVnan
p1031
aVnan
p1032
aVnan
p1033
aVnan
p1034
aVnan
p1035
aVnan
p1036
aVnan
p1037
aVnan
p1038
aVnan
p1039
aVnan
p1040
aVnan
p1041
aVnan
p1042
aVnan
p1043
aVnan
p1044
aVnan
p1045
aVnan
p1046
aVnan
p1047
aVnan
p1048
aVnan
p1049
aVnan
p1050
aVnan
p1051
aVnan
p1052
aVnan
p1053
aVnan
p1054
aVnan
p1055
aVnan
p1056
aVnan
p1057
aVnan
p1058
aVnan
p1059
aVnan
p1060
aVnan
p1061
aVnan
p1062
aVnan
p1063
aVnan
p1064
aVnan
p1065
aVnan
p1066
aVnan
p1067
aVnan
p1068
aVnan
p1069
asg423
g0
(g424
g2
Ntp1070
Rp1071
(dp1072
g428
Nsg430
VParmValues
p1073
sg432
I00
sg433
I00
sg434
Nsbsg436
g0
(g437
g438
(g439
g440
tp1074
tp1075
Rp1076
sg430
g1073
sbag859
ag804
ag777
ag848
ag796
ag788
ag281
ag445
ag475
ag504
ag632
ag645
ag656
ag711
ag722
ag730
ag738
ag751
ag764
ag0
(g279
g2
Ntp1077
Rp1078
(dp1079
g283
I00
sg284
g4
sg285
(lp1080
(lp1081
g288
(g292
S'\x00\x00\x00\x00\x00\x00\x00\x00'
p1082
tp1083
Rp1084
aa(lp1085
g288
(g292
S'\x01\x00\x00\x00\x00\x00\x00\x00'
p1086
tp1087
Rp1088
aa(lp1089
g288
(g292
S'\x02\x00\x00\x00\x00\x00\x00\x00'
p1090
tp1091
Rp1092
aa(lp1093
g288
(g292
S'\x03\x00\x00\x00\x00\x00\x00\x00'
p1094
tp1095
Rp1096
aaNaNaNaNaNaNaNaNaNaNaNaNaNaNaNaNaNaNaNaNaNaNaNaNaNaNaNaNaNaNaNaNaNaNaNaNaNaNaNaNaNaNaNaNaNaNaNaNaNaNasg423
g0
(g424
g2
Ntp1097
Rp1098
(dp1099
g428
Vcat_vals = [br[0] for br in pruneNulls(BioRuns)]\u000aclean_geo = [x for x in GeoMean if x is not None]\u000aGeoGroups, groupedGeoMeans = groupBy(cat_vals, clean_geo)\u000aGroupedGeoMeans = roundValues(groupedGeoMeans, 3)\u000aGeoGroups = [[x] for x in GeoGroups]
p1100
sg430
VGeoGroups
p1101
sg432
I00
sg433
I00
sg434
Vcat_vals = [br[0] for br in pruneNulls(BioRuns)]\u000aclean_geo = [x for x in GeoMean if x is not None]\u000aGeoGroups, groupedGeoMeans = groupBy(cat_vals, clean_geo)\u000aGroupedGeoMeans = roundValues(groupedGeoMeans, 3)\u000aGeoGroups = [[x] for x in GeoGroups]
p1102
sbsg436
g0
(g437
g438
(g439
g440
tp1103
tp1104
Rp1105
sg430
g1101
sbag0
(g279
g2
Ntp1106
Rp1107
(dp1108
g283
I00
sg284
g4
sg285
(lp1109
g507
(g439
(I0
tp1110
g509
tp1111
Rp1112
(I1
(I1
tp1113
g515
I00
S'D\x8bl\xe7\xfb\xa9\xb1?'
p1114
tp1115
bag507
(g439
(I0
tp1116
g509
tp1117
Rp1118
(I1
(I3
tp1119
g515
I00
S'9\xb4\xc8v\xbe\x9f\x8a?\xb8\x1e\x85\xebQ\xb8\xae?\xfc\xa9\xf1\xd2Mb\x90?'
p1120
tp1121
bag507
(g439
(I0
tp1122
g509
tp1123
Rp1124
(I1
(I1
tp1125
g515
I00
S'\xb8\x1e\x85\xebQ\xb8\x9e?'
p1126
tp1127
bag507
(g439
(I0
tp1128
g509
tp1129
Rp1130
(I1
(I1
tp1131
g515
I00
S'\xd9\xce\xf7S\xe3\xa5\x9b?'
p1132
tp1133
baNaNaNaNaNaNaNaNaNaNaNaNaNaNaNaNaNaNaNaNaNaNaNaNaNaNaNaNaNaNaNaNaNaNaNaNaNaNaNaNaNaNaNaNaNaNaNaNaNaNasg423
g0
(g424
g2
Ntp1134
Rp1135
(dp1136
g428
Nsg469
g1107
sg432
I00
sg433
I00
sg434
Nsbsg436
g0
(g437
g438
(g439
g440
tp1137
tp1138
Rp1139
sg430
VGroupedGeoMeans
p1140
sbag0
(g279
g2
Ntp1141
Rp1142
(dp1143
g283
I00
sg284
g4
sg285
(lp1144
g507
(g439
(I0
tp1145
g509
tp1146
Rp1147
(I1
(I1
tp1148
g515
I00
S'\x00\x00\x00\x00\x00\x00\xf0?'
p1149
tp1150
bag507
(g439
(I0
tp1151
g509
tp1152
Rp1153
(I1
(I3
tp1154
g515
I00
S'\xaa\xf1\xd2Mb\x10\xc8?\xd7\xa3p=\n\xd7\xeb?\x19\x04V\x0e-\xb2\xcd?'
p1155
tp1156
bag507
(g439
(I0
tp1157
g509
tp1158
Rp1159
(I1
(I1
tp1160
g515
I00
S'\xd7\xa3p=\n\xd7\xdb?'
p1161
tp1162
bag507
(g439
(I0
tp1163
g509
tp1164
Rp1165
(I1
(I1
tp1166
g515
I00
S'\xa0\x1a/\xdd$\x06\xd9?'
p1167
tp1168
baNaNaNaNaNaNaNaNaNaNaNaNaNaNaNaNaNaNaNaNaNaNaNaNaNaNaNaNaNaNaNaNaNaNaNaNaNaNaNaNaNaNaNaNaNaNaNaNaNaNasg423
g0
(g424
g2
Ntp1169
Rp1170
(dp1171
g428
Vref = np.mean(GroupedGeoMeans[0])\u000aNrmlGeoGroupedMeans = [ [x/ref for x in g] for g in GroupedGeoMeans if g is not None]  \u000aNrmlGeoGroupedMeans = roundValues(NrmlGeoGroupedMeans, 3)
p1172
sg430
VNrmlGeoGroupedMeans
p1173
sg432
I00
sg433
I00
sg434
Vref = np.mean(GroupedGeoMeans[0])\u000aNrmlGeoGroupedMeans = [ [x/ref for x in g] for g in GroupedGeoMeans if g is not None]  \u000aNrmlGeoGroupedMeans = roundValues(NrmlGeoGroupedMeans, 3)
p1174
sbsg436
g0
(g437
g438
(g439
g440
tp1175
tp1176
Rp1177
sg430
g1173
sbag0
(g279
g2
Ntp1178
Rp1179
(dp1180
g283
I00
sg284
g4
sg285
(lp1181
F1.0
aF0.43
aF0.435
aF0.391
aFnan
aFnan
aFnan
aFnan
aFnan
aFnan
aFnan
aFnan
aFnan
aFnan
aFnan
aFnan
aFnan
aFnan
aFnan
aFnan
aFnan
aFnan
aFnan
aFnan
aFnan
aFnan
aFnan
aFnan
aFnan
aFnan
aFnan
aFnan
aFnan
aFnan
aFnan
aFnan
aFnan
aFnan
aFnan
aFnan
aFnan
aFnan
aFnan
aFnan
aFnan
aFnan
aFnan
aFnan
aFnan
aFnan
aFnan
aFnan
aFnan
aFnan
asg423
g0
(g424
g2
Ntp1182
Rp1183
(dp1184
g428
VMeanNrmlGeoGroups = [round(np.mean(g), 3) for g in NrmlGeoGroupedMeans]
p1185
sg430
VMeanNrmlGeoGroups
p1186
sg432
I01
sg433
I00
sg434
V[round(np.mean(g), 3) for g in NrmlGeoGroupedMeans]
p1187
sbsg436
g0
(g437
g438
(g439
g440
tp1188
tp1189
Rp1190
sg430
g1186
sbag0
(g279
g2
Ntp1191
Rp1192
(dp1193
g283
I00
sg284
g4
sg285
(lp1194
Fnan
aF0.22
aFnan
aFnan
aFnan
aFnan
aFnan
aFnan
aFnan
aFnan
aFnan
aFnan
aFnan
aFnan
aFnan
aFnan
aFnan
aFnan
aFnan
aFnan
aFnan
aFnan
aFnan
aFnan
aFnan
aFnan
aFnan
aFnan
aFnan
aFnan
aFnan
aFnan
aFnan
aFnan
aFnan
aFnan
aFnan
aFnan
aFnan
aFnan
aFnan
aFnan
aFnan
aFnan
aFnan
aFnan
aFnan
aFnan
aFnan
aFnan
aFnan
aFnan
aFnan
aFnan
asg423
g0
(g424
g2
Ntp1195
Rp1196
(dp1197
g428
VStdNrmlGeoGroups = [round(np.std(g, ddof=1)/np.sqrt(len(g)), 3) for g in NrmlGeoGroupedMeans]\u000a
p1198
sg430
VStdNrmlGeoGroups
p1199
sg432
I01
sg433
I00
sg434
V[round(np.std(g, ddof=1)/np.sqrt(len(g)), 3) for g in NrmlGeoGroupedMeans]\u000a
p1200
sbsg436
g0
(g437
g438
(g439
g440
tp1201
tp1202
Rp1203
sg430
g1199
sbasg272
V/home/ubuntu/SciSheets/mysite/user/guest/tables/kristen_single_gene.pcl
p1204
sb.