ccopy_reg
_reconstructor
p0
(cscisheets.ui.dt_table
DTTable
p1
c__builtin__
object
p2
Ntp3
Rp4
(dp5
S'_versioned_file'
p6
g0
(cmysite.helpers.versioned_file
VersionedFile
p7
g2
Ntp8
Rp9
(dp10
S'_redo_stack'
p11
g0
(cmysite.helpers.file_stack
FileStack
p12
g2
Ntp13
Rp14
(dp15
S'_dirpath'
p16
S'/home/ubuntu/SciSheets/mysite/user/guest/tables/backup'
p17
sS'_max_depth'
p18
I5
sS'_filename_pfx'
p19
Vkristen_single_gene.r
p20
sbsS'_max_versions'
p21
I5
sS'_undo_stack'
p22
g0
(g12
g2
Ntp23
Rp24
(dp25
g16
g17
sg18
I5
sg19
Vkristen_single_gene.u
p26
sbsS'_checkpoint_history'
p27
(lp28
VCell/Update
p29
aVCell/Update
p30
aVCell/Update
p31
aVCell/Update
p32
aVCell/Update
p33
aVCell/Update
p34
aVCell/Update
p35
aVCell/Update
p36
aVCell/Update
p37
aVCell/Update
p38
aVCell/Update
p39
aVCell/Update
p40
aVColumn/Formula
p41
aVColumn/Formula
p42
aVColumn/Append
p43
aVColumn/Formula
p44
aVColumn/Delete
p45
aVCell/Update
p46
aVColumn/Formula
p47
aVCell/Update
p48
aVCell/Update
p49
aVColumn/Formula
p50
aVColumn/Formula
p51
aVCell/Update
p52
aVColumn/Formula
p53
aVColumn/Formula
p54
aVCell/Update
p55
aVCell/Update
p56
aVCell/Update
p57
aVCell/Update
p58
aVColumn/Formula
p59
aVCell/Update
p60
aVCell/Update
p61
aVCell/Update
p62
aVColumn/Formula
p63
aVCell/Update
p64
aVColumn/Formula
p65
aVColumn/Formula
p66
aVCell/Update
p67
aVCell/Update
p68
aVCell/Update
p69
aVCell/Update
p70
aVCell/Update
p71
aVCell/Update
p72
aVCell/Update
p73
aVCell/Update
p74
aVCell/Update
p75
aVColumn/Formula
p76
aVCell/Update
p77
aVCell/Update
p78
aVCell/Update
p79
aVCell/Update
p80
aVCell/Update
p81
aVCell/Update
p82
aVCell/Update
p83
aVCell/Update
p84
aVCell/Update
p85
aVCell/Update
p86
aVCell/Update
p87
aVCell/Update
p88
aVColumn/Formula
p89
aVColumn/Formula
p90
aVColumn/Formula
p91
aVCell/Update
p92
aVCell/Update
p93
aVCell/Update
p94
aVCell/Update
p95
aVCell/Update
p96
aVColumn/Formula
p97
aVCell/Update
p98
aVCell/Update
p99
aVCell/Update
p100
aVCell/Update
p101
aVCell/Update
p102
aVCell/Update
p103
aVCell/Update
p104
aVColumn/Formula
p105
aVColumn/Formula
p106
aVColumn/Formula
p107
aVCell/Update
p108
aVCell/Update
p109
aVColumn/Formula
p110
aVCell/Update
p111
aVCell/Update
p112
aVCell/Update
p113
aVCell/Update
p114
aVCell/Update
p115
aVCell/Update
p116
aVCell/Update
p117
aVCell/Update
p118
aVColumn/Formula
p119
aVCell/Update
p120
aVColumn/Formula
p121
aVColumn/Formula
p122
aVColumn/Formula
p123
aVCell/Update
p124
aVCell/Update
p125
aVColumn/Formula
p126
aVColumn/Formula
p127
aVColumn/Formula
p128
aVColumn/Formula
p129
aVCell/Update
p130
aVColumn/Formula
p131
aVColumn/Formula
p132
aVColumn/Formula
p133
aVCell/Update
p134
aVCell/Update
p135
aVCell/Update
p136
aVCell/Update
p137
aVCell/Update
p138
aVCell/Update
p139
aVCell/Update
p140
aVCell/Update
p141
aVCell/Update
p142
aVCell/Update
p143
aVColumn/Formula
p144
aVColumn/Formula
p145
aVColumn/Formula
p146
aVColumn/Formula
p147
aVCell/Update
p148
aVCell/Update
p149
aVColumn/Formula
p150
aVCell/Update
p151
aVCell/Update
p152
aVCell/Update
p153
aVCell/Update
p154
aVCell/Update
p155
aVCell/Update
p156
aVCell/Update
p157
aVCell/Update
p158
aVCell/Update
p159
aVCell/Update
p160
aVCell/Update
p161
aVCell/Update
p162
aVCell/Update
p163
aVColumn/Formula
p164
aVColumn/Formula
p165
aVCell/Update
p166
aVCell/Update
p167
aVCell/Update
p168
aVColumn/Formula
p169
aVCell/Update
p170
aVCell/Update
p171
aVCell/Update
p172
aVCell/Update
p173
aVColumn/Formula
p174
aVColumn/Formula
p175
aVColumn/Formula
p176
aVColumn/Formula
p177
aVCell/Update
p178
aVColumn/Formula
p179
aVCell/Update
p180
aVCell/Update
p181
aVCell/Update
p182
aVCell/Update
p183
aVCell/Update
p184
aVCell/Update
p185
aVCell/Update
p186
aVCell/Update
p187
aVCell/Update
p188
aVColumn/Formula
p189
aVCell/Update
p190
aVCell/Update
p191
aVCell/Update
p192
aVCell/Update
p193
aVCell/Update
p194
aVCell/Update
p195
aVCell/Update
p196
aVCell/Update
p197
aVCell/Update
p198
aVCell/Update
p199
aVCell/Update
p200
aVCell/Update
p201
aVCell/Update
p202
aVCell/Update
p203
aVCell/Update
p204
aVCell/Update
p205
aVCell/Update
p206
aVCell/Update
p207
aVCell/Update
p208
aVCell/Update
p209
aVCell/Update
p210
aVCell/Update
p211
aVCell/Update
p212
aVCell/Update
p213
aVCell/Update
p214
aVCell/Update
p215
aVCell/Update
p216
aVCell/Update
p217
aVCell/Update
p218
aVCell/Update
p219
aVCell/Update
p220
aVCell/Update
p221
aVCell/Update
p222
aVCell/Update
p223
aVCell/Update
p224
aVCell/Update
p225
aVCell/Update
p226
aVCell/Update
p227
aVCell/Update
p228
aVCell/Update
p229
aVCell/Update
p230
aVCell/Update
p231
aVCell/Update
p232
aVCell/Update
p233
aVCell/Update
p234
aVCell/Update
p235
aVCell/Update
p236
aVCell/Update
p237
aVCell/Update
p238
aVCell/Update
p239
aVCell/Update
p240
aVCell/Update
p241
aVCell/Update
p242
aVCell/Update
p243
aVCell/Update
p244
aVCell/Update
p245
aVCell/Update
p246
aVCell/Update
p247
aVCell/Update
p248
aVCell/Update
p249
aVCell/Update
p250
aVCell/Update
p251
aVCell/Update
p252
aVCell/Update
p253
aVCell/Update
p254
aVCell/Update
p255
aVCell/Update
p256
aVCell/Update
p257
aVCell/Update
p258
aVCell/Update
p259
aVCell/Update
p260
aVCell/Update
p261
aVCell/Update
p262
aVCell/Update
p263
aVCell/Update
p264
aVCell/Update
p265
aVCell/Update
p266
aVCell/Update
p267
aVCell/Update
p268
aVCell/Update
p269
aVCell/Update
p270
aVCell/Update
p271
aVColumn/Formula
p272
aVColumn/Formula
p273
aVCell/Update
p274
aVCell/Update
p275
aVCell/Update
p276
aVCell/Update
p277
aVColumn/Formula
p278
aVColumn/Formula
p279
aVColumn/Formula
p280
aVCell/Update
p281
aVCell/Update
p282
aVCell/Update
p283
aVCell/Update
p284
aVColumn/Formula
p285
aVColumn/Formula
p286
aVColumn/Formula
p287
aVCell/Update
p288
aVCell/Update
p289
aVColumn/Formula
p290
aVCell/Update
p291
aVCell/Update
p292
aVCell/Update
p293
aVCell/Update
p294
aVCell/Update
p295
aVCell/Update
p296
aVColumn/Formula
p297
aVCell/Update
p298
aVColumn/Formula
p299
aVCell/Update
p300
aVCell/Update
p301
aVColumn/Formula
p302
aVColumn/Formula
p303
aVCell/Update
p304
aVCell/Update
p305
aVCell/Update
p306
aVCell/Update
p307
aVColumn/Formula
p308
aVColumn/Formula
p309
aVColumn/Formula
p310
aVColumn/Formula
p311
aVColumn/Formula
p312
aVCell/Update
p313
aVCell/Update
p314
aVColumn/Formula
p315
aVCell/Update
p316
aVColumn/Formula
p317
aVColumn/Formula
p318
aVCell/Update
p319
aVCell/Update
p320
aVCell/Update
p321
aVColumn/Formula
p322
aVColumn/Formula
p323
aVColumn/Formula
p324
aVCell/Update
p325
aVColumn/Formula
p326
aVCell/Update
p327
aVColumn/Formula
p328
aVColumn/Formula
p329
aVColumn/Formula
p330
aVColumn/Formula
p331
aVColumn/Formula
p332
aVColumn/Formula
p333
aVCell/Update
p334
aVColumn/Formula
p335
aVCell/Update
p336
aVCell/Update
p337
aVCell/Update
p338
aVColumn/Formula
p339
aVColumn/Formula
p340
aVColumn/Formula
p341
aVColumn/Formula
p342
aVColumn/Formula
p343
aVCell/Update
p344
aVCell/Update
p345
aVCell/Update
p346
aVColumn/Formula
p347
aVCell/Update
p348
aVCell/Update
p349
aVColumn/Formula
p350
aVColumn/Formula
p351
aVColumn/Formula
p352
aVColumn/Formula
p353
aVColumn/Formula
p354
aVColumn/Formula
p355
aVCell/Update
p356
aVColumn/Formula
p357
aVColumn/Formula
p358
aVColumn/Formula
p359
aVCell/Update
p360
aVCell/Update
p361
aVCell/Update
p362
aVColumn/Formula
p363
aVColumn/Formula
p364
aVCell/Update
p365
aVColumn/Formula
p366
aVColumn/Formula
p367
aVColumn/Formula
p368
aVColumn/Formula
p369
aVColumn/Formula
p370
aVColumn/Formula
p371
aVCell/Update
p372
aVCell/Update
p373
aVColumn/Formula
p374
aVCell/Update
p375
aVColumn/Formula
p376
aVColumn/Formula
p377
aVCell/Update
p378
aVCell/Update
p379
aVCell/Update
p380
aVCell/Update
p381
aVCell/Update
p382
aVColumn/Formula
p383
aVCell/Update
p384
aVCell/Update
p385
aVColumn/Formula
p386
aVColumn/Formula
p387
aVCell/Update
p388
aVCell/Update
p389
aVColumn/Formula
p390
aVColumn/Formula
p391
aVCell/Update
p392
aVCell/Update
p393
aVCell/Update
p394
aVCell/Update
p395
aVCell/Update
p396
aVCell/Update
p397
aVColumn/Formula
p398
aVCell/Update
p399
aVColumn/Formula
p400
aVCell/Update
p401
aVCell/Update
p402
aVColumn/Formula
p403
aVCell/Update
p404
aVColumn/Formula
p405
aVCell/Update
p406
aVColumn/Formula
p407
aVColumn/Formula
p408
aVCell/Update
p409
aVCell/Update
p410
aVCell/Update
p411
aVColumn/Formula
p412
aVColumn/Formula
p413
aVColumn/Formula
p414
aVCell/Update
p415
aVCell/Update
p416
aVColumn/Formula
p417
aVCell/Update
p418
aVColumn/Formula
p419
aVCell/Update
p420
aVCell/Update
p421
aVCell/Update
p422
aVCell/Update
p423
aVCell/Update
p424
aVCell/Update
p425
aVCell/Update
p426
aVCell/Update
p427
aVCell/Update
p428
aVCell/Update
p429
aVCell/Update
p430
aVCell/Update
p431
aVCell/Update
p432
aVCell/Update
p433
aVCell/Update
p434
aVCell/Update
p435
aVCell/Update
p436
aVCell/Update
p437
aVCell/Update
p438
aVCell/Update
p439
aVCell/Update
p440
aVCell/Update
p441
aVCell/Update
p442
aVColumn/Formula
p443
aVCell/Update
p444
aVColumn/Formula
p445
aVCell/Update
p446
aVCell/Update
p447
aVCell/Update
p448
aVCell/Update
p449
aVCell/Update
p450
aVCell/Update
p451
aVCell/Update
p452
aVCell/Update
p453
aVCell/Update
p454
aVCell/Update
p455
aVCell/Update
p456
aVCell/Update
p457
aVCell/Update
p458
aVColumn/Formula
p459
aVCell/Update
p460
aVCell/Update
p461
aVCell/Update
p462
aVCell/Update
p463
aVColumn/Formula
p464
aVCell/Update
p465
aVCell/Update
p466
aVCell/Update
p467
aVCell/Update
p468
aVCell/Update
p469
aVCell/Update
p470
aVCell/Update
p471
aVColumn/Formula
p472
aVColumn/Formula
p473
aVCell/Update
p474
aVCell/Update
p475
aVColumn/Formula
p476
aVCell/Update
p477
aVCell/Update
p478
aVCell/Update
p479
aVCell/Update
p480
aVCell/Update
p481
aVCell/Update
p482
aVColumn/Formula
p483
aVColumn/Formula
p484
aVColumn/Formula
p485
aVColumn/Formula
p486
aVColumn/Formula
p487
aVColumn/Formula
p488
aVColumn/Formula
p489
aVCell/Update
p490
aVCell/Update
p491
aVCell/Update
p492
aVColumn/Formula
p493
aVColumn/Formula
p494
aVColumn/Formula
p495
aVCell/Update
p496
aVCell/Update
p497
aVCell/Update
p498
aVCell/Update
p499
aVCell/Update
p500
aVColumn/Formula
p501
aVCell/Update
p502
aVColumn/Formula
p503
aVCell/Update
p504
aVCell/Update
p505
aVCell/Update
p506
aVColumn/Formula
p507
aVColumn/Formula
p508
aVColumn/Formula
p509
aVColumn/Formula
p510
aVCell/Update
p511
asS'_filepath'
p512
V/home/ubuntu/SciSheets/mysite/user/guest/tables/kristen_single_gene.pcl
p513
sS'_backup_dir'
p514
g17
sbsS'_namespace'
p515
(dp516
sS'_columns'
p517
(lp518
g0
(cscisheets.core.column
Column
p519
g2
Ntp520
Rp521
(dp522
S'_asis'
p523
I01
sS'_children'
p524
(lp525
sS'_cells'
p526
(lp527
S'1'
p528
aS'2'
p529
aS'3'
p530
aS'4'
p531
aS'5'
p532
aS'6'
p533
aS'7'
p534
aS'8'
p535
aS'9'
p536
aS'10'
p537
aS'11'
p538
aS'12'
p539
aS'13'
p540
aS'14'
p541
aS'15'
p542
aS'16'
p543
aS'17'
p544
aS'18'
p545
aS'19'
p546
aS'20'
p547
aS'21'
p548
aS'22'
p549
aS'23'
p550
aS'24'
p551
aS'25'
p552
aS'26'
p553
aS'27'
p554
aS'28'
p555
aS'29'
p556
aS'30'
p557
aS'31'
p558
aS'32'
p559
aS'33'
p560
aS'34'
p561
aS'35'
p562
aS'36'
p563
aS'37'
p564
aS'38'
p565
aS'39'
p566
aS'40'
p567
aS'41'
p568
aS'42'
p569
aS'43'
p570
aS'44'
p571
aS'45'
p572
aS'46'
p573
aS'47'
p574
aS'48'
p575
aS'49'
p576
aS'50'
p577
aS'51'
p578
aS'52'
p579
aS'53'
p580
aS'54'
p581
aS'55'
p582
aS'56'
p583
aS'57'
p584
aS'58'
p585
aS'59'
p586
aS'60'
p587
aS'61'
p588
aS'62'
p589
aS'63'
p590
aS'64'
p591
asS'_formula_statement'
p592
g0
(cscisheets.core.helpers.formula_statement
FormulaStatement
p593
g2
Ntp594
Rp595
(dp596
S'_statement'
p597
NsS'_name'
p598
S'row'
p599
sS'_isExpression'
p600
I00
sS'_isStatement'
p601
I00
sS'_formula'
p602
NsbsS'_parent'
p603
g4
sS'_data_class'
p604
g0
(cscisheets.core.helpers.api_util
DataClass
p605
c__builtin__
tuple
p606
(cscisheets.core.helpers.extended_array
ExtendedArray
p607
cscisheets.core.helpers.api_util
makeArray
p608
tp609
tp610
Rp611
sg598
g599
sbag0
(g519
g2
Ntp612
Rp613
(dp614
g523
I00
sg524
(lp615
sg526
(lp616
Vgene
p617
aVrun
p618
aVshow_raw
p619
aVshow_block1
p620
aVshow_block2
p621
aVshow_block3
p622
aVmax_std
p623
aVmin_eff
p624
aVshow_params
p625
aVnan
p626
aVnan
p627
aVnan
p628
aVnan
p629
aVnan
p630
aVnan
p631
aVnan
p632
aVnan
p633
aVnan
p634
aVnan
p635
aVnan
p636
aVnan
p637
aVnan
p638
aVnan
p639
aVnan
p640
aVnan
p641
aVnan
p642
aVnan
p643
aVnan
p644
aVnan
p645
aVnan
p646
aVnan
p647
aVnan
p648
aVnan
p649
aVnan
p650
aVnan
p651
aVnan
p652
aVnan
p653
aVnan
p654
aVnan
p655
aVnan
p656
aVnan
p657
aVnan
p658
aVnan
p659
aVnan
p660
aVnan
p661
aVnan
p662
aVnan
p663
aVnan
p664
aVnan
p665
aVnan
p666
aVnan
p667
aVnan
p668
aVnan
p669
aVnan
p670
aNaNaNaNaNaNaNaNaNaNasg592
g0
(g593
g2
Ntp671
Rp672
(dp673
g597
Nsg598
VParmNames
p674
sg600
I00
sg601
I00
sg602
Nsbsg603
g4
sg604
g0
(g605
g606
(cnumpy
ndarray
p675
g608
tp676
tp677
Rp678
sg598
g674
sbag0
(g519
g2
Ntp679
Rp680
(dp681
g523
I00
sg524
(lp682
sg526
(lp683
VGene1
p684
aVTrue
p685
aVFalse
p686
aVFalse
p687
aVFalse
p688
aVTrue
p689
aF0.5
aF0.7
aVTrue
p690
aV
p691
aVnan
p692
aVnan
p693
aVnan
p694
aVnan
p695
aVnan
p696
aVnan
p697
aVnan
p698
aVnan
p699
aVnan
p700
aVnan
p701
aVnan
p702
aVnan
p703
aVnan
p704
aVnan
p705
aVnan
p706
aVnan
p707
aVnan
p708
aVnan
p709
aVnan
p710
aVnan
p711
aVnan
p712
aVnan
p713
aVnan
p714
aVnan
p715
aVnan
p716
aVnan
p717
aVnan
p718
aVnan
p719
aVnan
p720
aVnan
p721
aVnan
p722
aVnan
p723
aVnan
p724
aVnan
p725
aVnan
p726
aVnan
p727
aVnan
p728
aVnan
p729
aVnan
p730
aVnan
p731
aVnan
p732
aVnan
p733
aVnan
p734
aVnan
p735
aNaNaNaNaNaNaNaNaNaNasg592
g0
(g593
g2
Ntp736
Rp737
(dp738
g597
Nsg598
VParmValues
p739
sg600
I00
sg601
I00
sg602
Nsbsg603
g4
sg604
g0
(g605
g606
(g675
g608
tp740
tp741
Rp742
sg598
g739
sbag0
(g519
g2
Ntp743
Rp744
(dp745
g523
I00
sg524
(lp746
sg526
(lp747
I0
aI0
aI0
aI0
aI0
aI0
aI0
aI0
aI0
aI0
aI1
aI1
aI1
aI1
aI1
aI1
aI1
aI1
aI1
aI1
aI1
aI1
aI1
aI1
aI1
aI1
aI1
aI1
aI1
aI1
aI1
aI1
aI1
aI1
aI1
aI1
aI1
aI2
aI2
aI2
aI2
aI2
aI2
aI2
aI2
aI2
aI3
aI3
aI3
aI3
aI3
aI3
aI3
aI3
aI3
aI4
aI4
aI4
aI4
aI4
aI4
aI4
aI4
aI4
asg592
g0
(g593
g2
Ntp748
Rp749
(dp750
g597
Nsg598
S'Treatment'
p751
sg600
I00
sg601
I00
sg602
Nsbsg603
g4
sg604
g611
sg598
g751
sbag0
(g519
g2
Ntp752
Rp753
(dp754
g523
I00
sg524
(lp755
sg526
(lp756
VI
p757
ag757
ag757
ag757
aVR1
p758
ag758
ag758
aVR2
p759
ag759
ag759
ag757
ag757
ag757
ag757
ag757
ag757
ag757
ag757
ag757
ag758
ag758
ag758
ag758
ag758
ag758
ag758
ag758
ag758
ag759
ag759
ag759
ag759
ag759
ag759
ag759
ag759
ag759
ag757
ag757
ag757
ag758
ag758
ag758
ag759
ag759
ag759
ag757
ag757
ag757
ag758
ag758
ag758
ag759
ag759
ag759
ag757
ag757
ag757
ag758
ag758
ag758
ag759
ag759
ag759
asg592
g0
(g593
g2
Ntp760
Rp761
(dp762
g597
Nsg598
S'RunType'
p763
sg600
I00
sg601
I00
sg602
Nsbsg603
g4
sg604
g611
sg598
g763
sbag0
(g519
g2
Ntp764
Rp765
(dp766
g523
I00
sg524
(lp767
sg526
(lp768
I1
aI1
aI1
aI1
aI1
aI1
aI1
aI1
aI1
aI1
aI1
aI1
aI1
aI2
aI2
aI2
aI3
aI3
aI3
aI1
aI1
aI1
aI2
aI2
aI2
aI3
aI3
aI3
aI1
aI1
aI1
aI2
aI2
aI2
aI3
aI3
aI3
aI1
aI1
aI1
aI1
aI1
aI1
aI1
aI1
aI1
aI1
aI1
aI1
aI1
aI1
aI1
aI1
aI1
aI1
aI1
aI1
aI1
aI1
aI1
aI1
aI1
aI1
aI1
asg592
g0
(g593
g2
Ntp769
Rp770
(dp771
g597
Nsg598
S'BRpl'
p772
sg600
I00
sg601
I00
sg602
Nsbsg603
g4
sg604
g611
sg598
g772
sbag0
(g519
g2
Ntp773
Rp774
(dp775
g523
I00
sg524
(lp776
sg526
(lp777
Va
p778
aVb
p779
aVc
p780
aVd
p781
ag778
ag779
ag780
ag778
ag779
ag780
ag778
ag779
ag780
ag778
ag779
ag780
ag778
ag779
ag780
ag778
ag779
ag780
ag778
ag779
ag780
ag778
ag779
ag780
ag778
ag779
ag780
ag778
ag779
ag780
ag778
ag779
ag780
ag778
ag779
ag780
ag778
ag779
ag780
ag778
ag779
ag780
ag778
ag779
ag780
ag778
ag779
ag780
ag778
ag779
ag780
ag778
ag779
ag780
ag778
ag779
ag780
ag778
ag779
ag780
asg592
g0
(g593
g2
Ntp782
Rp783
(dp784
g597
Nsg598
S'TRpl'
p785
sg600
I00
sg601
I00
sg602
Nsbsg603
g4
sg604
g611
sg598
g785
sbag0
(g519
g2
Ntp786
Rp787
(dp788
g523
I00
sg524
(lp789
sg526
(lp790
F0.8371
aF0.891
aF0.8956
aF0.8671
aF0.8266
aF0.8343
aF0.8496
aF0.8157
aF0.8543
aF0.8208
aF0.9399
aF0.8296
aF0.8361
aF0.8039
aF0.8399
aF0.7935
aF0.8264
aF0.7974
aF0.8252
aF0.9179
aF0.9783
aF0.8971
aF0.8957
aF0.8287
aF0.8387
aF0.8746
aF0.8493
aF0.8349
aF0.7857
aF0.8427
aF0.8637
aF0.8281
aF0.8203
aF0.8288
aF0.8138
aF0.8242
aF0.804
aF0.8418
aF0.7959
aF0.8071
aF0.7701
aF0.8746
aF0.8139
aF0.7795
aF0.7676
aF0.7947
aF0.8513
aF0.8485
aF0.8401
aF0.8715
aF0.8977
aF0.856
aF0.8179
aF0.8173
aF0.7894
aF0.8513
aF0.8485
aF0.8401
aF0.8715
aF0.8977
aF0.856
aF0.8179
aF0.8173
aF0.7894
asg592
g0
(g593
g2
Ntp791
Rp792
(dp793
g597
Nsg598
S'Eff'
p794
sg600
I00
sg601
I00
sg602
Nsbsg603
g4
sg604
g611
sg598
g794
sbag0
(g519
g2
Ntp795
Rp796
(dp797
g523
I00
sg524
(lp798
sg526
(lp799
F23.0
aF22.86
aF22.8
aF23.0
aF18.24
aF18.22
aF18.36
aF19.72
aF19.75
aF20.01
aF26.68
aF27.13
aF27.21
aF26.76
aF26.71
aF26.19
aF29.98
aF30.12
aF29.41
aF19.92
aF19.85
aF20.0
aF21.86
aF22.09
aF21.84
aF23.89
aF23.54
aF24.27
aF22.18
aF21.71
aF21.75
aF23.88
aF23.42
aF23.63
aF24.59
aF24.61
aF24.34
aF29.95
aF30.45
aF29.88
aF23.22
aF23.8
aF23.49
aF26.37
aF26.36
aF26.17
aF24.8
aF24.97
aF24.63
aF18.91
aF18.78
aF18.8
aF20.5
aF20.47
aF20.28
aF24.8
aF24.97
aF24.63
aF18.91
aF18.78
aF18.8
aF20.5
aF20.47
aF20.28
asg592
g0
(g593
g2
Ntp800
Rp801
(dp802
g597
Nsg598
S'Ct'
p803
sg600
I00
sg601
I00
sg602
Nsbsg603
g4
sg604
g611
sg598
g803
sbag0
(g519
g2
Ntp804
Rp805
(dp806
g523
I00
sg524
(lp807
sg526
(lp808
(lp809
cnumpy.core.multiarray
scalar
p810
(cnumpy
dtype
p811
(S'i8'
p812
I0
I1
tp813
Rp814
(I3
S'<'
p815
NNNI-1
I-1
I0
tp816
bS'\x00\x00\x00\x00\x00\x00\x00\x00'
p817
tp818
Rp819
ag810
(g811
(S'U1'
p820
I0
I1
tp821
Rp822
(I3
S'<'
p823
NNNI4
I4
I8
tp824
bS'I\x00\x00\x00'
p825
tp826
Rp827
ag810
(g814
S'\x01\x00\x00\x00\x00\x00\x00\x00'
p828
tp829
Rp830
aa(lp831
g810
(g814
S'\x00\x00\x00\x00\x00\x00\x00\x00'
p832
tp833
Rp834
ag810
(g811
(S'U2'
p835
I0
I1
tp836
Rp837
(I3
S'<'
p838
NNNI8
I4
I8
tp839
bS'R\x00\x00\x001\x00\x00\x00'
p840
tp841
Rp842
ag810
(g814
S'\x01\x00\x00\x00\x00\x00\x00\x00'
p843
tp844
Rp845
aa(lp846
g810
(g814
S'\x00\x00\x00\x00\x00\x00\x00\x00'
p847
tp848
Rp849
ag810
(g811
(S'U2'
p850
I0
I1
tp851
Rp852
(I3
S'<'
p853
NNNI8
I4
I8
tp854
bS'R\x00\x00\x002\x00\x00\x00'
p855
tp856
Rp857
ag810
(g814
S'\x01\x00\x00\x00\x00\x00\x00\x00'
p858
tp859
Rp860
aa(lp861
g810
(g814
S'\x01\x00\x00\x00\x00\x00\x00\x00'
p862
tp863
Rp864
ag827
ag810
(g814
S'\x01\x00\x00\x00\x00\x00\x00\x00'
p865
tp866
Rp867
aa(lp868
g810
(g814
S'\x01\x00\x00\x00\x00\x00\x00\x00'
p869
tp870
Rp871
ag827
ag810
(g814
S'\x02\x00\x00\x00\x00\x00\x00\x00'
p872
tp873
Rp874
aa(lp875
g810
(g814
S'\x01\x00\x00\x00\x00\x00\x00\x00'
p876
tp877
Rp878
ag827
ag810
(g814
S'\x03\x00\x00\x00\x00\x00\x00\x00'
p879
tp880
Rp881
aa(lp882
g810
(g814
S'\x01\x00\x00\x00\x00\x00\x00\x00'
p883
tp884
Rp885
ag842
ag810
(g814
S'\x01\x00\x00\x00\x00\x00\x00\x00'
p886
tp887
Rp888
aa(lp889
g810
(g814
S'\x01\x00\x00\x00\x00\x00\x00\x00'
p890
tp891
Rp892
ag842
ag810
(g814
S'\x02\x00\x00\x00\x00\x00\x00\x00'
p893
tp894
Rp895
aa(lp896
g810
(g814
S'\x01\x00\x00\x00\x00\x00\x00\x00'
p897
tp898
Rp899
ag842
ag810
(g814
S'\x03\x00\x00\x00\x00\x00\x00\x00'
p900
tp901
Rp902
aa(lp903
g810
(g814
S'\x01\x00\x00\x00\x00\x00\x00\x00'
p904
tp905
Rp906
ag857
ag810
(g814
S'\x01\x00\x00\x00\x00\x00\x00\x00'
p907
tp908
Rp909
aa(lp910
g810
(g814
S'\x01\x00\x00\x00\x00\x00\x00\x00'
p911
tp912
Rp913
ag857
ag810
(g814
S'\x02\x00\x00\x00\x00\x00\x00\x00'
p914
tp915
Rp916
aa(lp917
g810
(g814
S'\x01\x00\x00\x00\x00\x00\x00\x00'
p918
tp919
Rp920
ag857
ag810
(g814
S'\x03\x00\x00\x00\x00\x00\x00\x00'
p921
tp922
Rp923
aa(lp924
g810
(g814
S'\x02\x00\x00\x00\x00\x00\x00\x00'
p925
tp926
Rp927
ag827
ag810
(g814
S'\x01\x00\x00\x00\x00\x00\x00\x00'
p928
tp929
Rp930
aa(lp931
g810
(g814
S'\x02\x00\x00\x00\x00\x00\x00\x00'
p932
tp933
Rp934
ag842
ag810
(g814
S'\x01\x00\x00\x00\x00\x00\x00\x00'
p935
tp936
Rp937
aa(lp938
g810
(g814
S'\x02\x00\x00\x00\x00\x00\x00\x00'
p939
tp940
Rp941
ag857
ag810
(g814
S'\x01\x00\x00\x00\x00\x00\x00\x00'
p942
tp943
Rp944
aa(lp945
g810
(g814
S'\x03\x00\x00\x00\x00\x00\x00\x00'
p946
tp947
Rp948
ag827
ag810
(g814
S'\x01\x00\x00\x00\x00\x00\x00\x00'
p949
tp950
Rp951
aa(lp952
g810
(g814
S'\x03\x00\x00\x00\x00\x00\x00\x00'
p953
tp954
Rp955
ag842
ag810
(g814
S'\x01\x00\x00\x00\x00\x00\x00\x00'
p956
tp957
Rp958
aa(lp959
g810
(g814
S'\x03\x00\x00\x00\x00\x00\x00\x00'
p960
tp961
Rp962
ag857
ag810
(g814
S'\x01\x00\x00\x00\x00\x00\x00\x00'
p963
tp964
Rp965
aa(lp966
g810
(g814
S'\x04\x00\x00\x00\x00\x00\x00\x00'
p967
tp968
Rp969
ag827
ag810
(g814
S'\x01\x00\x00\x00\x00\x00\x00\x00'
p970
tp971
Rp972
aa(lp973
g810
(g814
S'\x04\x00\x00\x00\x00\x00\x00\x00'
p974
tp975
Rp976
ag842
ag810
(g814
S'\x01\x00\x00\x00\x00\x00\x00\x00'
p977
tp978
Rp979
aa(lp980
g810
(g814
S'\x04\x00\x00\x00\x00\x00\x00\x00'
p981
tp982
Rp983
ag857
ag810
(g814
S'\x01\x00\x00\x00\x00\x00\x00\x00'
p984
tp985
Rp986
aasg592
g0
(g593
g2
Ntp987
Rp988
(dp989
g597
Vsel = [e > min_eff for e in Eff]\u000apairs = zip(range(len(sel)), sel)\u000apTreatment = [Treatment[i] for i,b in pairs if b]\u000apRunType = [RunType[i] for i,b in pairs if b]\u000apBRpl = [BRpl[i] for i,b in pairs if b]\u000agrouping_columns = [pTreatment, pRunType, pBRpl]\u000apCt = [Ct[i] for i,b in pairs if b]\u000apEff = [Eff[i] for i,b in pairs if b]\u000aGroups, groupedCt = groupBy(\u000a     grouping_columns, pCt)\u000aGroups, groupedEff = groupBy(\u000a     grouping_columns, pEff)\u000aGroups = [[g[0], g[1], g[2]] for g in Groups]\u000aGroupedCt = roundValues(groupedCt,2)\u000aGroupedEff = roundValues(groupedEff,2)
p990
sg598
VGroups
p991
sg600
I00
sg601
I00
sg602
Vsel = [e > min_eff for e in Eff]\u000apairs = zip(range(len(sel)), sel)\u000apTreatment = [Treatment[i] for i,b in pairs if b]\u000apRunType = [RunType[i] for i,b in pairs if b]\u000apBRpl = [BRpl[i] for i,b in pairs if b]\u000agrouping_columns = [pTreatment, pRunType, pBRpl]\u000apCt = [Ct[i] for i,b in pairs if b]\u000apEff = [Eff[i] for i,b in pairs if b]\u000aGroups, groupedCt = groupBy(\u000a     grouping_columns, pCt)\u000aGroups, groupedEff = groupBy(\u000a     grouping_columns, pEff)\u000aGroups = [[g[0], g[1], g[2]] for g in Groups]\u000aGroupedCt = roundValues(groupedCt,2)\u000aGroupedEff = roundValues(groupedEff,2)
p992
sbsg603
g4
sg604
g0
(g605
g606
(g675
g608
tp993
tp994
Rp995
sg598
g991
sbag0
(g519
g2
Ntp996
Rp997
(dp998
g523
I00
sg524
(lp999
sg526
(lp1000
cnumpy.core.multiarray
_reconstruct
p1001
(g675
(I0
tp1002
S'b'
p1003
tp1004
Rp1005
(I1
(I4
tp1006
g811
(S'f8'
p1007
I0
I1
tp1008
Rp1009
(I3
S'<'
p1010
NNNI-1
I-1
I0
tp1011
bI00
S'\xe1z\x14\xaeG\xe1\xea?{\x14\xaeG\xe1z\xec?\xcd\xcc\xcc\xcc\xcc\xcc\xec?\xd7\xa3p=\n\xd7\xeb?'
p1012
tp1013
bag1001
(g675
(I0
tp1014
g1003
tp1015
Rp1016
(I1
(I3
tp1017
g1009
I00
S'\x8f\xc2\xf5(\\\x8f\xea?\x8f\xc2\xf5(\\\x8f\xea?333333\xeb?'
p1018
tp1019
bag1001
(g675
(I0
tp1020
g1003
tp1021
Rp1022
(I1
(I3
tp1023
g1009
I00
S'=\n\xd7\xa3p=\xea?333333\xeb?=\n\xd7\xa3p=\xea?'
p1024
tp1025
bag1001
(g675
(I0
tp1026
g1003
tp1027
Rp1028
(I1
(I3
tp1029
g1009
I00
S'\x14\xaeG\xe1z\x14\xee?\x8f\xc2\xf5(\\\x8f\xea?\xe1z\x14\xaeG\xe1\xea?'
p1030
tp1031
bag1001
(g675
(I0
tp1032
g1003
tp1033
Rp1034
(I1
(I3
tp1035
g1009
I00
S'\x9a\x99\x99\x99\x99\x99\xe9?\xe1z\x14\xaeG\xe1\xea?H\xe1z\x14\xaeG\xe9?'
p1036
tp1037
bag1001
(g675
(I0
tp1038
g1003
tp1039
Rp1040
(I1
(I3
tp1041
g1009
I00
S'\x8f\xc2\xf5(\\\x8f\xea?\x9a\x99\x99\x99\x99\x99\xe9?\x8f\xc2\xf5(\\\x8f\xea?'
p1042
tp1043
bag1001
(g675
(I0
tp1044
g1003
tp1045
Rp1046
(I1
(I3
tp1047
g1009
I00
S'q=\n\xd7\xa3p\xed?\\\x8f\xc2\xf5(\\\xef?\xcd\xcc\xcc\xcc\xcc\xcc\xec?'
p1048
tp1049
bag1001
(g675
(I0
tp1050
g1003
tp1051
Rp1052
(I1
(I3
tp1053
g1009
I00
S'\xcd\xcc\xcc\xcc\xcc\xcc\xec?\x8f\xc2\xf5(\\\x8f\xea?\xe1z\x14\xaeG\xe1\xea?'
p1054
tp1055
bag1001
(g675
(I0
tp1056
g1003
tp1057
Rp1058
(I1
(I3
tp1059
g1009
I00
S'\xd7\xa3p=\n\xd7\xeb?333333\xeb?\x8f\xc2\xf5(\\\x8f\xea?'
p1060
tp1061
bag1001
(g675
(I0
tp1062
g1003
tp1063
Rp1064
(I1
(I3
tp1065
g1009
I00
S'H\xe1z\x14\xaeG\xe9?\xe1z\x14\xaeG\xe1\xea?\x85\xebQ\xb8\x1e\x85\xeb?'
p1066
tp1067
bag1001
(g675
(I0
tp1068
g1003
tp1069
Rp1070
(I1
(I3
tp1071
g1009
I00
S'\x8f\xc2\xf5(\\\x8f\xea?=\n\xd7\xa3p=\xea?\x8f\xc2\xf5(\\\x8f\xea?'
p1072
tp1073
bag1001
(g675
(I0
tp1074
g1003
tp1075
Rp1076
(I1
(I3
tp1077
g1009
I00
S'\xecQ\xb8\x1e\x85\xeb\xe9?=\n\xd7\xa3p=\xea?\x9a\x99\x99\x99\x99\x99\xe9?'
p1078
tp1079
bag1001
(g675
(I0
tp1080
g1003
tp1081
Rp1082
(I1
(I3
tp1083
g1009
I00
S'\xe1z\x14\xaeG\xe1\xea?\x9a\x99\x99\x99\x99\x99\xe9?\xecQ\xb8\x1e\x85\xeb\xe9?'
p1084
tp1085
bag1001
(g675
(I0
tp1086
g1003
tp1087
Rp1088
(I1
(I3
tp1089
g1009
I00
S'\xa4p=\n\xd7\xa3\xe8?\xd7\xa3p=\n\xd7\xeb?\xecQ\xb8\x1e\x85\xeb\xe9?'
p1090
tp1091
bag1001
(g675
(I0
tp1092
g1003
tp1093
Rp1094
(I1
(I3
tp1095
g1009
I00
S'\xf6(\\\x8f\xc2\xf5\xe8?\xa4p=\n\xd7\xa3\xe8?H\xe1z\x14\xaeG\xe9?'
p1096
tp1097
bag1001
(g675
(I0
tp1098
g1003
tp1099
Rp1100
(I1
(I3
tp1101
g1009
I00
S'333333\xeb?333333\xeb?\xe1z\x14\xaeG\xe1\xea?'
p1102
tp1103
bag1001
(g675
(I0
tp1104
g1003
tp1105
Rp1106
(I1
(I3
tp1107
g1009
I00
S'\xd7\xa3p=\n\xd7\xeb?\xcd\xcc\xcc\xcc\xcc\xcc\xec?\x85\xebQ\xb8\x1e\x85\xeb?'
p1108
tp1109
bag1001
(g675
(I0
tp1110
g1003
tp1111
Rp1112
(I1
(I3
tp1113
g1009
I00
S'=\n\xd7\xa3p=\xea?=\n\xd7\xa3p=\xea?H\xe1z\x14\xaeG\xe9?'
p1114
tp1115
bag1001
(g675
(I0
tp1116
g1003
tp1117
Rp1118
(I1
(I3
tp1119
g1009
I00
S'333333\xeb?333333\xeb?\xe1z\x14\xaeG\xe1\xea?'
p1120
tp1121
bag1001
(g675
(I0
tp1122
g1003
tp1123
Rp1124
(I1
(I3
tp1125
g1009
I00
S'\xd7\xa3p=\n\xd7\xeb?\xcd\xcc\xcc\xcc\xcc\xcc\xec?\x85\xebQ\xb8\x1e\x85\xeb?'
p1126
tp1127
bag1001
(g675
(I0
tp1128
g1003
tp1129
Rp1130
(I1
(I3
tp1131
g1009
I00
S'=\n\xd7\xa3p=\xea?=\n\xd7\xa3p=\xea?H\xe1z\x14\xaeG\xe9?'
p1132
tp1133
basg592
g0
(g593
g2
Ntp1134
Rp1135
(dp1136
g597
Nsg598
VGroupedEff
p1137
sg600
I00
sg601
I00
sg602
Nsbsg603
g4
sg604
g0
(g605
g606
(g675
g608
tp1138
tp1139
Rp1140
sg598
g1137
sbag0
(g519
g2
Ntp1141
Rp1142
(dp1143
g523
I00
sg524
(lp1144
sg526
(lp1145
g1001
(g675
(I0
tp1146
g1003
tp1147
Rp1148
(I1
(I4
tp1149
g1009
I00
S'\x00\x00\x00\x00\x00\x007@\\\x8f\xc2\xf5(\xdc6@\xcd\xcc\xcc\xcc\xcc\xcc6@\x00\x00\x00\x00\x00\x007@'
p1150
tp1151
bag1001
(g675
(I0
tp1152
g1003
tp1153
Rp1154
(I1
(I3
tp1155
g1009
I00
S'=\n\xd7\xa3p=2@\xb8\x1e\x85\xebQ82@\\\x8f\xc2\xf5(\\2@'
p1156
tp1157
bag1001
(g675
(I0
tp1158
g1003
tp1159
Rp1160
(I1
(I3
tp1161
g1009
I00
S'\xb8\x1e\x85\xebQ\xb83@\x00\x00\x00\x00\x00\xc03@\xc3\xf5(\\\x8f\x024@'
p1162
tp1163
bag1001
(g675
(I0
tp1164
g1003
tp1165
Rp1166
(I1
(I3
tp1167
g1009
I00
S'\xaeG\xe1z\x14\xae:@\xe1z\x14\xaeG!;@\xf6(\\\x8f\xc25;@'
p1168
tp1169
bag1001
(g675
(I0
tp1170
g1003
tp1171
Rp1172
(I1
(I3
tp1173
g1009
I00
S'\xc3\xf5(\\\x8f\xc2:@\xf6(\\\x8f\xc2\xb5:@q=\n\xd7\xa30:@'
p1174
tp1175
bag1001
(g675
(I0
tp1176
g1003
tp1177
Rp1178
(I1
(I3
tp1179
g1009
I00
S'{\x14\xaeG\xe1\xfa=@\x1f\x85\xebQ\xb8\x1e>@)\\\x8f\xc2\xf5h=@'
p1180
tp1181
bag1001
(g675
(I0
tp1182
g1003
tp1183
Rp1184
(I1
(I3
tp1185
g1009
I00
S'\xecQ\xb8\x1e\x85\xeb3@\x9a\x99\x99\x99\x99\xd93@\x00\x00\x00\x00\x00\x004@'
p1186
tp1187
bag1001
(g675
(I0
tp1188
g1003
tp1189
Rp1190
(I1
(I3
tp1191
g1009
I00
S'\\\x8f\xc2\xf5(\xdc5@\xd7\xa3p=\n\x176@\xd7\xa3p=\n\xd75@'
p1192
tp1193
bag1001
(g675
(I0
tp1194
g1003
tp1195
Rp1196
(I1
(I3
tp1197
g1009
I00
S'\xa4p=\n\xd7\xe37@\n\xd7\xa3p=\x8a7@\x85\xebQ\xb8\x1eE8@'
p1198
tp1199
bag1001
(g675
(I0
tp1200
g1003
tp1201
Rp1202
(I1
(I3
tp1203
g1009
I00
S'\xaeG\xe1z\x14.6@\xf6(\\\x8f\xc2\xb55@\x00\x00\x00\x00\x00\xc05@'
p1204
tp1205
bag1001
(g675
(I0
tp1206
g1003
tp1207
Rp1208
(I1
(I3
tp1209
g1009
I00
S'\xe1z\x14\xaeG\xe17@\xecQ\xb8\x1e\x85k7@\xe1z\x14\xaeG\xa17@'
p1210
tp1211
bag1001
(g675
(I0
tp1212
g1003
tp1213
Rp1214
(I1
(I3
tp1215
g1009
I00
S'\xd7\xa3p=\n\x978@\\\x8f\xc2\xf5(\x9c8@\xd7\xa3p=\nW8@'
p1216
tp1217
bag1001
(g675
(I0
tp1218
g1003
tp1219
Rp1220
(I1
(I3
tp1221
g1009
I00
S'33333\xf3=@33333s>@\xe1z\x14\xaeG\xe1=@'
p1222
tp1223
bag1001
(g675
(I0
tp1224
g1003
tp1225
Rp1226
(I1
(I3
tp1227
g1009
I00
S'\xb8\x1e\x85\xebQ87@\xcd\xcc\xcc\xcc\xcc\xcc7@=\n\xd7\xa3p}7@'
p1228
tp1229
bag1001
(g675
(I0
tp1230
g1003
tp1231
Rp1232
(I1
(I3
tp1233
g1009
I00
S'\x1f\x85\xebQ\xb8^:@\\\x8f\xc2\xf5(\\:@\xecQ\xb8\x1e\x85+:@'
p1234
tp1235
bag1001
(g675
(I0
tp1236
g1003
tp1237
Rp1238
(I1
(I3
tp1239
g1009
I00
S'\xcd\xcc\xcc\xcc\xcc\xcc8@\xb8\x1e\x85\xebQ\xf88@\xe1z\x14\xaeG\xa18@'
p1240
tp1241
bag1001
(g675
(I0
tp1242
g1003
tp1243
Rp1244
(I1
(I3
tp1245
g1009
I00
S')\\\x8f\xc2\xf5\xe82@H\xe1z\x14\xae\xc72@\xcd\xcc\xcc\xcc\xcc\xcc2@'
p1246
tp1247
bag1001
(g675
(I0
tp1248
g1003
tp1249
Rp1250
(I1
(I3
tp1251
g1009
I00
S'\x00\x00\x00\x00\x00\x804@\xb8\x1e\x85\xebQx4@H\xe1z\x14\xaeG4@'
p1252
tp1253
bag1001
(g675
(I0
tp1254
g1003
tp1255
Rp1256
(I1
(I3
tp1257
g1009
I00
S'\xcd\xcc\xcc\xcc\xcc\xcc8@\xb8\x1e\x85\xebQ\xf88@\xe1z\x14\xaeG\xa18@'
p1258
tp1259
bag1001
(g675
(I0
tp1260
g1003
tp1261
Rp1262
(I1
(I3
tp1263
g1009
I00
S')\\\x8f\xc2\xf5\xe82@H\xe1z\x14\xae\xc72@\xcd\xcc\xcc\xcc\xcc\xcc2@'
p1264
tp1265
bag1001
(g675
(I0
tp1266
g1003
tp1267
Rp1268
(I1
(I3
tp1269
g1009
I00
S'\x00\x00\x00\x00\x00\x804@\xb8\x1e\x85\xebQx4@H\xe1z\x14\xaeG4@'
p1270
tp1271
basg592
g0
(g593
g2
Ntp1272
Rp1273
(dp1274
g597
Nsg598
VGroupedCt
p1275
sg600
I00
sg601
I00
sg602
Nsbsg603
g4
sg604
g0
(g605
g606
(g675
g608
tp1276
tp1277
Rp1278
sg598
g1275
sbag0
(g519
g2
Ntp1279
Rp1280
(dp1281
g523
I00
sg524
(lp1282
sg526
(lp1283
g1001
(g675
(I0
tp1284
g1003
tp1285
Rp1286
(I1
(I4
tp1287
g1009
I00
S'\x00\x00\x00\x00\x00\x007@fffff\xe66@\xcd\xcc\xcc\xcc\xcc\xcc6@\x00\x00\x00\x00\x00\x007@'
p1288
tp1289
bag1001
(g675
(I0
tp1290
g1003
tp1291
Rp1292
(I1
(I3
tp1293
g1009
I00
S'3333332@3333332@ffffff2@'
p1294
tp1295
bag1001
(g675
(I0
tp1296
g1003
tp1297
Rp1298
(I1
(I3
tp1299
g1009
I00
S'33333\xb33@\xcd\xcc\xcc\xcc\xcc\xcc3@\x00\x00\x00\x00\x00\x004@'
p1300
tp1301
bag1001
(g675
(I0
tp1302
g1003
tp1303
Rp1304
(I1
(I3
tp1305
g1009
I00
S'33333\xb3:@\x9a\x99\x99\x99\x99\x19;@333333;@'
p1306
tp1307
bag1001
(g675
(I0
tp1308
g1003
tp1309
Rp1310
(I1
(I3
tp1311
g1009
I00
S'\xcd\xcc\xcc\xcc\xcc\xcc:@33333\xb3:@333333:@'
p1312
tp1313
bag1001
(g675
(I0
tp1314
g1003
tp1315
Rp1316
(I1
(I3
tp1317
g1009
I00
S'\x00\x00\x00\x00\x00\x00>@\x9a\x99\x99\x99\x99\x19>@ffffff=@'
p1318
tp1319
bag1001
(g675
(I0
tp1320
g1003
tp1321
Rp1322
(I1
(I3
tp1323
g1009
I00
S'fffff\xe63@fffff\xe63@\x00\x00\x00\x00\x00\x004@'
p1324
tp1325
bag1001
(g675
(I0
tp1326
g1003
tp1327
Rp1328
(I1
(I3
tp1329
g1009
I00
S'fffff\xe65@\x9a\x99\x99\x99\x99\x196@\xcd\xcc\xcc\xcc\xcc\xcc5@'
p1330
tp1331
bag1001
(g675
(I0
tp1332
g1003
tp1333
Rp1334
(I1
(I3
tp1335
g1009
I00
S'fffff\xe67@\x00\x00\x00\x00\x00\x807@\xcd\xcc\xcc\xcc\xccL8@'
p1336
tp1337
bag1001
(g675
(I0
tp1338
g1003
tp1339
Rp1340
(I1
(I3
tp1341
g1009
I00
S'3333336@33333\xb35@\xcd\xcc\xcc\xcc\xcc\xcc5@'
p1342
tp1343
bag1001
(g675
(I0
tp1344
g1003
tp1345
Rp1346
(I1
(I3
tp1347
g1009
I00
S'fffff\xe67@ffffff7@\x9a\x99\x99\x99\x99\x997@'
p1348
tp1349
bag1001
(g675
(I0
tp1350
g1003
tp1351
Rp1352
(I1
(I3
tp1353
g1009
I00
S'\x9a\x99\x99\x99\x99\x998@\x9a\x99\x99\x99\x99\x998@\xcd\xcc\xcc\xcc\xccL8@'
p1354
tp1355
bag1001
(g675
(I0
tp1356
g1003
tp1357
Rp1358
(I1
(I3
tp1359
g1009
I00
S'fffff\xe6=@ffffff>@fffff\xe6=@'
p1360
tp1361
bag1001
(g675
(I0
tp1362
g1003
tp1363
Rp1364
(I1
(I3
tp1365
g1009
I00
S'3333337@\xcd\xcc\xcc\xcc\xcc\xcc7@\x00\x00\x00\x00\x00\x807@'
p1366
tp1367
bag1001
(g675
(I0
tp1368
g1003
tp1369
Rp1370
(I1
(I3
tp1371
g1009
I00
S'ffffff:@ffffff:@333333:@'
p1372
tp1373
bag1001
(g675
(I0
tp1374
g1003
tp1375
Rp1376
(I1
(I3
tp1377
g1009
I00
S'\xcd\xcc\xcc\xcc\xcc\xcc8@\x00\x00\x00\x00\x00\x009@\x9a\x99\x99\x99\x99\x998@'
p1378
tp1379
bag1001
(g675
(I0
tp1380
g1003
tp1381
Rp1382
(I1
(I3
tp1383
g1009
I00
S'fffff\xe62@\xcd\xcc\xcc\xcc\xcc\xcc2@\xcd\xcc\xcc\xcc\xcc\xcc2@'
p1384
tp1385
bag1001
(g675
(I0
tp1386
g1003
tp1387
Rp1388
(I1
(I3
tp1389
g1009
I00
S'\x00\x00\x00\x00\x00\x804@\x00\x00\x00\x00\x00\x804@\xcd\xcc\xcc\xcc\xccL4@'
p1390
tp1391
bag1001
(g675
(I0
tp1392
g1003
tp1393
Rp1394
(I1
(I3
tp1395
g1009
I00
S'\xcd\xcc\xcc\xcc\xcc\xcc8@\x00\x00\x00\x00\x00\x009@\x9a\x99\x99\x99\x99\x998@'
p1396
tp1397
bag1001
(g675
(I0
tp1398
g1003
tp1399
Rp1400
(I1
(I3
tp1401
g1009
I00
S'fffff\xe62@\xcd\xcc\xcc\xcc\xcc\xcc2@\xcd\xcc\xcc\xcc\xcc\xcc2@'
p1402
tp1403
bag1001
(g675
(I0
tp1404
g1003
tp1405
Rp1406
(I1
(I3
tp1407
g1009
I00
S'\x00\x00\x00\x00\x00\x804@\x00\x00\x00\x00\x00\x804@\xcd\xcc\xcc\xcc\xccL4@'
p1408
tp1409
basg592
g0
(g593
g2
Ntp1410
Rp1411
(dp1412
g597
Vlength = len(Groups)\u000aStdFilteredGroupedCt = roundValues([filterExtremes(g, max_std, 2) for g in pruneNulls(GroupedCt)])\u000a 
p1413
sg598
VStdFilteredGroupedCt
p1414
sg600
I00
sg601
I00
sg602
Vlength = len(Groups)\u000aStdFilteredGroupedCt = roundValues([filterExtremes(g, max_std, 2) for g in pruneNulls(GroupedCt)])\u000a 
p1415
sbsg603
g4
sg604
g0
(g605
g606
(g675
g608
tp1416
tp1417
Rp1418
sg598
g1414
sbag0
(g519
g2
Ntp1419
Rp1420
(dp1421
g523
I00
sg524
(lp1422
sg526
(lp1423
F22.9
aF18.3
aF19.8
aF27.0
aF26.6
aF29.8
aF19.9
aF21.9
aF23.9
aF21.9
aF23.6
aF24.5
aF30.1
aF23.5
aF26.3
aF24.8
aF18.8
aF20.4
aF24.8
aF18.8
aF20.4
aFnan
aFnan
aFnan
aFnan
aFnan
aFnan
aFnan
aFnan
aFnan
aFnan
aFnan
aFnan
aFnan
aFnan
aFnan
aFnan
aFnan
aFnan
aFnan
aFnan
aFnan
aFnan
aFnan
aFnan
aFnan
aFnan
aFnan
aFnan
aFnan
aFnan
aFnan
aFnan
aFnan
aFnan
aFnan
aFnan
aFnan
aFnan
aFnan
aFnan
aFnan
aFnan
aFnan
asg592
g0
(g593
g2
Ntp1424
Rp1425
(dp1426
g597
VMeanCt = [np.mean(g) for g in StdFilteredGroupedCt]\u000aMeanCt = roundValues(MeanCt,1)\u000aStdCt = [np.std(g, ddof=1) if len(g) > 2 else 0 for g in StdFilteredGroupedCt]\u000aStdCt = roundValues(StdCt,3)
p1427
sg598
VMeanCt
p1428
sg600
I00
sg601
I00
sg602
VMeanCt = [np.mean(g) for g in StdFilteredGroupedCt]\u000aMeanCt = roundValues(MeanCt,1)\u000aStdCt = [np.std(g, ddof=1) if len(g) > 2 else 0 for g in StdFilteredGroupedCt]\u000aStdCt = roundValues(StdCt,3)
p1429
sbsg603
g4
sg604
g0
(g605
g606
(g675
g608
tp1430
tp1431
Rp1432
sg598
g1428
sbag0
(g519
g2
Ntp1433
Rp1434
(dp1435
g523
I00
sg524
(lp1436
sg526
(lp1437
F0.096
aF0.115
aF0.153
aF0.265
aF0.321
aF0.379
aF0.058
aF0.153
aF0.4
aF0.265
aF0.252
aF0.173
aF0.289
aF0.3
aF0.115
aF0.2
aF0.058
aF0.115
aF0.2
aF0.058
aF0.115
asg592
g0
(g593
g2
Ntp1438
Rp1439
(dp1440
g597
Nsg598
VStdCt
p1441
sg600
I00
sg601
I00
sg602
Nsbsg603
g4
sg604
g0
(g605
g606
(g675
g608
tp1442
tp1443
Rp1444
sg598
g1441
sbag0
(g519
g2
Ntp1445
Rp1446
(dp1447
g523
I00
sg524
(lp1448
sg526
(lp1449
(lp1450
g810
(g1009
S'\x00\x00\x00\x00\x00\x00\x00\x00'
p1451
tp1452
Rp1453
ag810
(g1009
S'\x00\x00\x00\x00\x00\x00\xf0?'
p1454
tp1455
Rp1456
aa(lp1457
g810
(g1009
S'\x00\x00\x00\x00\x00\x00\xf0?'
p1458
tp1459
Rp1460
ag810
(g1009
S'\x00\x00\x00\x00\x00\x00\xf0?'
p1461
tp1462
Rp1463
aa(lp1464
g810
(g1009
S'\x00\x00\x00\x00\x00\x00\xf0?'
p1465
tp1466
Rp1467
ag810
(g1009
S'\x00\x00\x00\x00\x00\x00\x00@'
p1468
tp1469
Rp1470
aa(lp1471
g810
(g1009
S'\x00\x00\x00\x00\x00\x00\xf0?'
p1472
tp1473
Rp1474
ag810
(g1009
S'\x00\x00\x00\x00\x00\x00\x08@'
p1475
tp1476
Rp1477
aa(lp1478
g810
(g1009
S'\x00\x00\x00\x00\x00\x00\x00@'
p1479
tp1480
Rp1481
ag810
(g1009
S'\x00\x00\x00\x00\x00\x00\xf0?'
p1482
tp1483
Rp1484
aa(lp1485
g810
(g1009
S'\x00\x00\x00\x00\x00\x00\x08@'
p1486
tp1487
Rp1488
ag810
(g1009
S'\x00\x00\x00\x00\x00\x00\xf0?'
p1489
tp1490
Rp1491
aaNaNaNaNaNaNaNaNaNaNaNaNaNaNaNaNaNaNaNaNaNaNaNaNaNaNaNaNaNaNaNaNaNaNaNaNaNaNaNaNaNaNaNaNaNaNaNaNaNaNaNaNaNaNaNaNaNaNasg592
g0
(g593
g2
Ntp1492
Rp1493
(dp1494
g597
Vdummy = tabularize(s, 'Groups', 1, 'MeanCt', \u000a          new_category_colnm='BioRuns',\u000a          values_colnm_prefix='Gene_')
p1495
sg598
VBioRuns
p1496
sg600
I00
sg601
I00
sg602
Vdummy = tabularize(s, 'Groups', 1, 'MeanCt', \u000a          new_category_colnm='BioRuns',\u000a          values_colnm_prefix='Gene_')
p1497
sbsg603
g4
sg604
g0
(g605
g606
(g675
g608
tp1498
tp1499
Rp1500
sg598
g1496
sbag0
(g519
g2
Ntp1501
Rp1502
(dp1503
g523
I00
sg524
(lp1504
sg526
(lp1505
F22.9
aF27.0
aF26.6
aF29.8
aF30.1
aF24.8
aFnan
aFnan
aFnan
aFnan
aFnan
aFnan
aFnan
aFnan
aFnan
aFnan
aFnan
aFnan
aFnan
aFnan
aFnan
aFnan
aFnan
aFnan
aFnan
aFnan
aFnan
aFnan
aFnan
aFnan
aFnan
aFnan
aFnan
aFnan
aFnan
aFnan
aFnan
aFnan
aFnan
aFnan
aFnan
aFnan
aFnan
aFnan
aFnan
aFnan
aFnan
aFnan
aFnan
aFnan
aFnan
aFnan
aFnan
aFnan
aFnan
aFnan
aFnan
aFnan
aFnan
aFnan
aFnan
aFnan
aFnan
aFnan
asg592
g0
(g593
g2
Ntp1506
Rp1507
(dp1508
g597
Nsg598
S'Gene_I'
p1509
sg600
I00
sg601
I00
sg602
Nsbsg603
g4
sg604
g0
(g605
g606
(g675
g608
tp1510
tp1511
Rp1512
sg598
g1509
sbag0
(g519
g2
Ntp1513
Rp1514
(dp1515
g523
I00
sg524
(lp1516
sg526
(lp1517
F18.3
aF19.9
aF21.9
aF23.9
aF23.5
aF18.8
aFnan
aFnan
aFnan
aFnan
aFnan
aFnan
aFnan
aFnan
aFnan
aFnan
aFnan
aFnan
aFnan
aFnan
aFnan
aFnan
aFnan
aFnan
aFnan
aFnan
aFnan
aFnan
aFnan
aFnan
aFnan
aFnan
aFnan
aFnan
aFnan
aFnan
aFnan
aFnan
aFnan
aFnan
aFnan
aFnan
aFnan
aFnan
aFnan
aFnan
aFnan
aFnan
aFnan
aFnan
aFnan
aFnan
aFnan
aFnan
aFnan
aFnan
aFnan
aFnan
aFnan
aFnan
aFnan
aFnan
aFnan
aFnan
asg592
g0
(g593
g2
Ntp1518
Rp1519
(dp1520
g597
Nsg598
S'Gene_R1'
p1521
sg600
I00
sg601
I00
sg602
Nsbsg603
g4
sg604
g1512
sg598
g1521
sbag0
(g519
g2
Ntp1522
Rp1523
(dp1524
g523
I00
sg524
(lp1525
sg526
(lp1526
F19.8
aF21.9
aF23.6
aF24.5
aF26.3
aF20.4
aFnan
aFnan
aFnan
aFnan
aFnan
aFnan
aFnan
aFnan
aFnan
aFnan
aFnan
aFnan
aFnan
aFnan
aFnan
aFnan
aFnan
aFnan
aFnan
aFnan
aFnan
aFnan
aFnan
aFnan
aFnan
aFnan
aFnan
aFnan
aFnan
aFnan
aFnan
aFnan
aFnan
aFnan
aFnan
aFnan
aFnan
aFnan
aFnan
aFnan
aFnan
aFnan
aFnan
aFnan
aFnan
aFnan
aFnan
aFnan
aFnan
aFnan
aFnan
aFnan
aFnan
aFnan
aFnan
aFnan
aFnan
aFnan
asg592
g0
(g593
g2
Ntp1527
Rp1528
(dp1529
g597
Nsg598
S'Gene_R2'
p1530
sg600
I00
sg601
I00
sg602
Nsbsg603
g4
sg604
g1512
sg598
g1530
sbag0
(g519
g2
Ntp1531
Rp1532
(dp1533
g523
I00
sg524
(lp1534
sg526
(lp1535
F0.04123
aF0.00729
aF0.03847
aF0.01675
aF0.01031
aF0.01563
aFnan
aFnan
aFnan
aFnan
aFnan
aFnan
aFnan
aFnan
aFnan
aFnan
aFnan
aFnan
aFnan
aFnan
aFnan
aFnan
aFnan
aFnan
aFnan
aFnan
aFnan
aFnan
aFnan
aFnan
aFnan
aFnan
aFnan
aFnan
aFnan
aFnan
aFnan
aFnan
aFnan
aFnan
aFnan
aFnan
aFnan
aFnan
aFnan
aFnan
aFnan
aFnan
aFnan
aFnan
aFnan
aFnan
aFnan
aFnan
aFnan
aFnan
aFnan
aFnan
aFnan
aFnan
aFnan
aFnan
aFnan
aFnan
asg592
g0
(g593
g2
Ntp1536
Rp1537
(dp1538
g597
VExprR1 = roundValues(2**(Gene_R1 - Gene_I),5)
p1539
sg598
VExprR1
p1540
sg600
I01
sg601
I00
sg602
VroundValues(2**(Gene_R1 - Gene_I),5)
p1541
sbsg603
g4
sg604
g0
(g605
g606
(g675
g608
tp1542
tp1543
Rp1544
sg598
g1540
sbag0
(g519
g2
Ntp1545
Rp1546
(dp1547
g523
I00
sg524
(lp1548
sg526
(lp1549
F0.11663
aF0.02916
aF0.125
aF0.02538
aF0.07179
aF0.04737
aFnan
aFnan
aFnan
aFnan
aFnan
aFnan
aFnan
aFnan
aFnan
aFnan
aFnan
aFnan
aFnan
aFnan
aFnan
aFnan
aFnan
aFnan
aFnan
aFnan
aFnan
aFnan
aFnan
aFnan
aFnan
aFnan
aFnan
aFnan
aFnan
aFnan
aFnan
aFnan
aFnan
aFnan
aFnan
aFnan
aFnan
aFnan
aFnan
aFnan
aFnan
aFnan
aFnan
aFnan
aFnan
aFnan
aFnan
aFnan
aFnan
aFnan
aFnan
aFnan
aFnan
aFnan
aFnan
aFnan
aFnan
aFnan
asg592
g0
(g593
g2
Ntp1550
Rp1551
(dp1552
g597
VExprR2 = roundValues(2**(Gene_R2 - Gene_I),5)
p1553
sg598
VExprR2
p1554
sg600
I01
sg601
I00
sg602
VroundValues(2**(Gene_R2 - Gene_I),5)
p1555
sbsg603
g4
sg604
g0
(g605
g606
(g675
g608
tp1556
tp1557
Rp1558
sg598
g1554
sbag0
(g519
g2
Ntp1559
Rp1560
(dp1561
g523
I00
sg524
(lp1562
sg526
(lp1563
F0.069
aF0.015
aF0.069
aF0.021
aF0.027
aF0.027
aFnan
aFnan
aFnan
aFnan
aFnan
aFnan
aFnan
aFnan
aFnan
aFnan
aFnan
aFnan
aFnan
aFnan
aFnan
aFnan
aFnan
aFnan
aFnan
aFnan
aFnan
aFnan
aFnan
aFnan
aFnan
aFnan
aFnan
aFnan
aFnan
aFnan
aFnan
aFnan
aFnan
aFnan
aFnan
aFnan
aFnan
aFnan
aFnan
aFnan
aFnan
aFnan
aFnan
aFnan
aFnan
aFnan
aFnan
aFnan
aFnan
aFnan
aFnan
aFnan
aFnan
aFnan
aFnan
aFnan
aFnan
aFnan
asg592
g0
(g593
g2
Ntp1564
Rp1565
(dp1566
g597
VGeoMean = roundValues(np.sqrt(ExprR1*ExprR2), 3)
p1567
sg598
VGeoMean
p1568
sg600
I01
sg601
I00
sg602
VroundValues(np.sqrt(ExprR1*ExprR2), 3)
p1569
sbsg603
g4
sg604
g0
(g605
g606
(g675
g608
tp1570
tp1571
Rp1572
sg598
g1568
sbag0
(g519
g2
Ntp1573
Rp1574
(dp1575
g523
I00
sg524
(lp1576
sg526
(lp1577
F0.0
aF1.0
aF2.0
aF3.0
aFnan
aFnan
aFnan
aFnan
aFnan
aFnan
aFnan
aFnan
aFnan
aFnan
aFnan
aFnan
aFnan
aFnan
aFnan
aFnan
aFnan
aFnan
aFnan
aFnan
aFnan
aFnan
aFnan
aFnan
aFnan
aFnan
aFnan
aFnan
aFnan
aFnan
aFnan
aFnan
aFnan
aFnan
aFnan
aFnan
aFnan
aFnan
aFnan
aFnan
aFnan
aFnan
aFnan
aFnan
aFnan
aFnan
aFnan
aFnan
aFnan
aFnan
aFnan
aFnan
aFnan
aFnan
aFnan
aFnan
aFnan
aFnan
aFnan
aFnan
asg592
g0
(g593
g2
Ntp1578
Rp1579
(dp1580
g597
Vcat_vals = [br[0] for br in pruneNulls(BioRuns)]\u000aclean_geo = [x for x in GeoMean if x is not None]\u000aGeoGroups, groupedGeoMeans = groupBy(cat_vals, clean_geo)\u000aGroupedGeoMeans = roundValues(groupedGeoMeans, 3)
p1581
sg598
VGeoGroups
p1582
sg600
I00
sg601
I00
sg602
Vcat_vals = [br[0] for br in pruneNulls(BioRuns)]\u000aclean_geo = [x for x in GeoMean if x is not None]\u000aGeoGroups, groupedGeoMeans = groupBy(cat_vals, clean_geo)\u000aGroupedGeoMeans = roundValues(groupedGeoMeans, 3)
p1583
sbsg603
g4
sg604
g0
(g605
g606
(g675
g608
tp1584
tp1585
Rp1586
sg598
g1582
sbag0
(g519
g2
Ntp1587
Rp1588
(dp1589
g523
I00
sg524
(lp1590
sg526
(lp1591
g1001
(g675
(I0
tp1592
g1003
tp1593
Rp1594
(I1
(I1
tp1595
g1009
I00
S'D\x8bl\xe7\xfb\xa9\xb1?'
p1596
tp1597
bag1001
(g675
(I0
tp1598
g1003
tp1599
Rp1600
(I1
(I3
tp1601
g1009
I00
S'\xb8\x1e\x85\xebQ\xb8\x8e?D\x8bl\xe7\xfb\xa9\xb1?\x1b/\xdd$\x06\x81\x95?'
p1602
tp1603
bag1001
(g675
(I0
tp1604
g1003
tp1605
Rp1606
(I1
(I1
tp1607
g1009
I00
S'\xd9\xce\xf7S\xe3\xa5\x9b?'
p1608
tp1609
bag1001
(g675
(I0
tp1610
g1003
tp1611
Rp1612
(I1
(I1
tp1613
g1009
I00
S'\xd9\xce\xf7S\xe3\xa5\x9b?'
p1614
tp1615
basg592
g0
(g593
g2
Ntp1616
Rp1617
(dp1618
g597
Nsg598
VGroupedGeoMeans
p1619
sg600
I00
sg601
I00
sg602
Nsbsg603
g4
sg604
g0
(g605
g606
(g675
g608
tp1620
tp1621
Rp1622
sg598
g1619
sbag0
(g519
g2
Ntp1623
Rp1624
(dp1625
g523
I00
sg524
(lp1626
sg526
(lp1627
g1001
(g675
(I0
tp1628
g1003
tp1629
Rp1630
(I1
(I1
tp1631
g1009
I00
S'\x00\x00\x00\x00\x00\x00\xf0?'
p1632
tp1633
bag1001
(g675
(I0
tp1634
g1003
tp1635
Rp1636
(I1
(I3
tp1637
g1009
I00
S'-\xb2\x9d\xef\xa7\xc6\xcb?\x00\x00\x00\x00\x00\x00\xf0?\xdb\xf9~j\xbct\xd3?'
p1638
tp1639
bag1001
(g675
(I0
tp1640
g1003
tp1641
Rp1642
(I1
(I1
tp1643
g1009
I00
S'\xa0\x1a/\xdd$\x06\xd9?'
p1644
tp1645
bag1001
(g675
(I0
tp1646
g1003
tp1647
Rp1648
(I1
(I1
tp1649
g1009
I00
S'\xa0\x1a/\xdd$\x06\xd9?'
p1650
tp1651
basg592
g0
(g593
g2
Ntp1652
Rp1653
(dp1654
g597
Vref = np.mean(GroupedGeoMeans[0])\u000aNrmlGeoGroupedMeans = [ [x/ref for x in g] for g in GroupedGeoMeans if g is not None]  \u000aNrmlGeoGroupedMeans = roundValues(NrmlGeoGroupedMeans, 3)
p1655
sg598
VNrmlGeoGroupedMeans
p1656
sg600
I00
sg601
I00
sg602
Vref = np.mean(GroupedGeoMeans[0])\u000aNrmlGeoGroupedMeans = [ [x/ref for x in g] for g in GroupedGeoMeans if g is not None]  \u000aNrmlGeoGroupedMeans = roundValues(NrmlGeoGroupedMeans, 3)
p1657
sbsg603
g4
sg604
g0
(g605
g606
(g675
g608
tp1658
tp1659
Rp1660
sg598
g1656
sbag0
(g519
g2
Ntp1661
Rp1662
(dp1663
g523
I00
sg524
(lp1664
sg526
(lp1665
F1.0
aF0.507
aF0.391
aF0.391
asg592
g0
(g593
g2
Ntp1666
Rp1667
(dp1668
g597
VMeanNrmlGeoGroups = [round(np.mean(g), 3) for g in NrmlGeoGroupedMeans]
p1669
sg598
VMeanNrmlGeoGroups
p1670
sg600
I01
sg601
I00
sg602
V[round(np.mean(g), 3) for g in NrmlGeoGroupedMeans]
p1671
sbsg603
g4
sg604
g0
(g605
g606
(g675
g608
tp1672
tp1673
Rp1674
sg598
g1670
sbag0
(g519
g2
Ntp1675
Rp1676
(dp1677
g523
I00
sg524
(lp1678
sg526
(lp1679
F0.248
asg592
g0
(g593
g2
Ntp1680
Rp1681
(dp1682
g597
VStdNrmlGeoGroups = []\u000afor grp in NrmlGeoGroupedMeans:\u000a  if len(grp) > 1:\u000a    val = np.std(grp, ddof=1)/np.sqrt(len(grp))\u000a    val = round(val, 3)\u000a    StdNrmlGeoGroups.append(val)\u000a
p1683
sg598
VStdNrmlGeoGroups
p1684
sg600
I00
sg601
I00
sg602
VStdNrmlGeoGroups = []\u000afor grp in NrmlGeoGroupedMeans:\u000a  if len(grp) > 1:\u000a    val = np.std(grp, ddof=1)/np.sqrt(len(grp))\u000a    val = round(val, 3)\u000a    StdNrmlGeoGroups.append(val)\u000a
p1685
sbsg603
g4
sg604
g0
(g605
g606
(g675
g608
tp1686
tp1687
Rp1688
sg598
g1684
sbasS'_is_evaluate_formulas'
p1689
I01
sS'_prologue'
p1690
g0
(g593
g2
Ntp1691
Rp1692
(dp1693
g597
V# Prologue\u000aimport math as mt\u000aimport numpy as np\u000afrom os import listdir\u000afrom os.path import isfile, join\u000aimport pandas as pd\u000aimport scipy as sp\u000afrom numpy import nan  # Must follow sympy import \u000a\u000axlsx_path =   '/mnt/hgfs/josephhellerstein/home/Technical/SciSheets/CaseStudies/Kristen/workbooks/data.xlsx'\u000agene = ParmValues[0]\u000arun = ParmValues[1] == 'True'\u000ashow_raw = ParmValues[2] == 'True'\u000ashow_block1 = ParmValues[3] == 'True'\u000ashow_block2 = ParmValues[4] == 'True'\u000ashow_block3 = ParmValues[5] == 'True'\u000ashow_params = ParmValues[8] == 'True'\u000a#show_params = True\u000amax_std  = float(ParmValues[6])\u000amin_eff = float(ParmValues[7])\u000aworksheet = gene + "-I"\u000as.getTable().setIsEvaluateFormulas(run)\u000a\u000aif run:\u000a  Groups = []\u000a  GroupedCt = []\u000a  GroupedEff = []\u000a  MeanCt = []\u000a  Imp = []\u000a  s.deleteColumn('Ct')\u000a  s.deleteColumn('RunType')\u000a  s.deleteColumn('BRpl')\u000a  s.deleteColumn('TRpl')\u000a  s.deleteColumn('Treatment')\u000a  s.deleteColumn('Eff')\u000aif run:\u000a  importExcelToTable(s, xlsx_path, worksheet=worksheet,\u000a      column_position='ParmValues',\u000a      names=['Treatment', 'RunType', 'BRpl', 'TRpl', 'Eff', 'Ct'])\u000as.setColumnVisibility(['BRpl', 'Ct', 'Eff', 'RunType', 'TRpl', 'Treatment'], is_visible=show_raw)\u000as.setColumnVisibility(['ParmNames', 'ParmValues'], show_params)\u000as.setColumnVisibility()\u000as.setColumnVisibility(['Groups', 'GroupedEff', 'GroupedCt', 'StdFilteredGroupedCt', 'MeanCt',\u000a    'StdCt'], is_visible=show_block1)\u000as.setColumnVisibility(['BioRuns', 'Gene_I', 'Gene_R1', 'Gene_R2', 'ExprR1', 'ExprR2', \u000a    'GeoMean'], is_visible=show_block2)\u000as.setColumnVisibility(['GeoGroups', 'GroupedGeoMeans', 'NrmlGeoGroupedMeans', \u000a    'MeanNrmlGeoGroups', 'StdNrmlGeoGroups'], is_visible=show_block3)
p1694
sg598
VSingleGene
p1695
sg600
I00
sg601
I00
sg602
V# Prologue\u000aimport math as mt\u000aimport numpy as np\u000afrom os import listdir\u000afrom os.path import isfile, join\u000aimport pandas as pd\u000aimport scipy as sp\u000afrom numpy import nan  # Must follow sympy import \u000a\u000axlsx_path =   '/mnt/hgfs/josephhellerstein/home/Technical/SciSheets/CaseStudies/Kristen/workbooks/data.xlsx'\u000agene = ParmValues[0]\u000arun = ParmValues[1] == 'True'\u000ashow_raw = ParmValues[2] == 'True'\u000ashow_block1 = ParmValues[3] == 'True'\u000ashow_block2 = ParmValues[4] == 'True'\u000ashow_block3 = ParmValues[5] == 'True'\u000ashow_params = ParmValues[8] == 'True'\u000a#show_params = True\u000amax_std  = float(ParmValues[6])\u000amin_eff = float(ParmValues[7])\u000aworksheet = gene + "-I"\u000as.getTable().setIsEvaluateFormulas(run)\u000a\u000aif run:\u000a  Groups = []\u000a  GroupedCt = []\u000a  GroupedEff = []\u000a  MeanCt = []\u000a  Imp = []\u000a  s.deleteColumn('Ct')\u000a  s.deleteColumn('RunType')\u000a  s.deleteColumn('BRpl')\u000a  s.deleteColumn('TRpl')\u000a  s.deleteColumn('Treatment')\u000a  s.deleteColumn('Eff')\u000aif run:\u000a  importExcelToTable(s, xlsx_path, worksheet=worksheet,\u000a      column_position='ParmValues',\u000a      names=['Treatment', 'RunType', 'BRpl', 'TRpl', 'Eff', 'Ct'])\u000as.setColumnVisibility(['BRpl', 'Ct', 'Eff', 'RunType', 'TRpl', 'Treatment'], is_visible=show_raw)\u000as.setColumnVisibility(['ParmNames', 'ParmValues'], show_params)\u000as.setColumnVisibility()\u000as.setColumnVisibility(['Groups', 'GroupedEff', 'GroupedCt', 'StdFilteredGroupedCt', 'MeanCt',\u000a    'StdCt'], is_visible=show_block1)\u000as.setColumnVisibility(['BioRuns', 'Gene_I', 'Gene_R1', 'Gene_R2', 'ExprR1', 'ExprR2', \u000a    'GeoMean'], is_visible=show_block2)\u000as.setColumnVisibility(['GeoGroups', 'GroupedGeoMeans', 'NrmlGeoGroupedMeans', \u000a    'MeanNrmlGeoGroups', 'StdNrmlGeoGroups'], is_visible=show_block3)
p1696
sbsS'_epilogue'
p1697
g0
(g593
g2
Ntp1698
Rp1699
(dp1700
g597
V# Epilogue\u000aif run:\u000a  worksheet = "%s-O" % gene\u000a  exportTableToExcel(s, xlsx_path, worksheet=worksheet, columns=['GeoGroups',  \u000a      'MeanNrmlGeoGroups', 'StdNrmlGeoGroups'])\u000a
p1701
sg598
g1695
sg600
I00
sg601
I00
sg602
V# Epilogue\u000aif run:\u000a  worksheet = "%s-O" % gene\u000a  exportTableToExcel(s, xlsx_path, worksheet=worksheet, columns=['GeoGroups',  \u000a      'MeanNrmlGeoGroups', 'StdNrmlGeoGroups'])\u000a
p1702
sbsg598
g1695
sS'_hidden_columns'
p1703
(lp1704
g805
ag997
ag1142
ag1280
ag1420
ag1434
ag1446
ag1502
ag1514
ag1523
ag1532
ag1546
ag1560
asb.