ccopy_reg
_reconstructor
p0
(cscisheets.ui.dt_table
DTTable
p1
c__builtin__
object
p2
Ntp3
Rp4
(dp5
S'_columns'
p6
(lp7
g0
(cscisheets.core.column
Column
p8
g2
Ntp9
Rp10
(dp11
S'_asis'
p12
I01
sS'_owning_table'
p13
g4
sS'_cells'
p14
(lp15
S'1'
p16
aS'2'
p17
aS'3'
p18
aS'4'
p19
aS'5'
p20
aS'6'
p21
aS'7'
p22
aS'8'
p23
aS'9'
p24
aS'10'
p25
aS'11'
p26
aS'12'
p27
aS'13'
p28
aS'14'
p29
aS'15'
p30
aS'16'
p31
aS'17'
p32
aS'18'
p33
aS'19'
p34
aS'20'
p35
aS'21'
p36
aS'22'
p37
aS'23'
p38
aS'24'
p39
aS'25'
p40
aS'26'
p41
aS'27'
p42
aS'28'
p43
aS'29'
p44
aS'30'
p45
asS'_formula_statement'
p46
g0
(cscisheets.core.column
FormulaStatement
p47
g2
Ntp48
Rp49
(dp50
S'_statement'
p51
NsS'_column'
p52
g10
sS'_isExpression'
p53
I00
sS'_isStatement'
p54
I00
sS'_formula'
p55
NsbsS'_data_class'
p56
g0
(cscisheets.core.helpers.api_util
DataClass
p57
c__builtin__
tuple
p58
(cnumpy
ndarray
p59
cscisheets.core.helpers.api_util
makeArray
p60
tp61
tp62
Rp63
sS'_name'
p64
S'row'
p65
sbag0
(g8
g2
Ntp66
Rp67
(dp68
g12
I00
sg13
g4
sg14
(lp69
I54
aI100
aI70
aI56
aI73
aI99
aI73
aI98
aI99
aI63
aI85
aI50
aI97
aI79
aI89
aI51
aI99
aI97
aI87
aI67
aI80
aI71
aI98
aI52
aI98
aI85
aI88
aI52
aI81
aI62
asg46
g0
(g47
g2
Ntp70
Rp71
(dp72
g51
Vimport random\u000aEffData = [random.randint(50, 100) for x in range(30)]
p73
sg52
g67
sg53
I00
sg54
I00
sg55
Vimport random\u000aEffData = [random.randint(50, 100) for x in range(30)]
p74
sbsg56
g0
(g57
g58
(g59
g60
tp75
tp76
Rp77
sg64
VEffData
p78
sbag0
(g8
g2
Ntp79
Rp80
(dp81
g12
I00
sg13
g4
sg14
(lp82
F3.0
aFnan
aFnan
aFnan
aFnan
aFnan
aFnan
aFnan
aFnan
aFnan
aFnan
aFnan
aFnan
aFnan
aFnan
aFnan
aFnan
aFnan
aFnan
aFnan
aFnan
aFnan
aFnan
aFnan
aFnan
aFnan
aFnan
aFnan
aFnan
aFnan
asg46
g0
(g47
g2
Ntp83
Rp84
(dp85
g51
Vbatch_size = int(BatchSize[0])
p86
sg52
g80
sg53
I00
sg54
I00
sg55
g86
sbsg56
g0
(g57
g58
(g59
g60
tp87
tp88
Rp89
sg64
VBatchSize
p90
sbag0
(g8
g2
Ntp91
Rp92
(dp93
g12
I00
sg13
g4
sg14
(lp94
F1.0
aFnan
aFnan
aFnan
aFnan
aFnan
aFnan
aFnan
aFnan
aFnan
aFnan
aFnan
aFnan
aFnan
aFnan
aFnan
aFnan
aFnan
aFnan
aFnan
aFnan
aFnan
aFnan
aFnan
aFnan
aFnan
aFnan
aFnan
aFnan
aFnan
asg46
g0
(g47
g2
Ntp95
Rp96
(dp97
g51
Nsg52
g92
sg53
I00
sg54
I00
sg55
Nsbsg56
g0
(g57
g58
(g59
g60
tp98
tp99
Rp100
sg64
VNumBatch
p101
sbag0
(g8
g2
Ntp102
Rp103
(dp104
g12
I00
sg13
g4
sg14
(lp105
F70.0
aFnan
aFnan
aFnan
aFnan
aFnan
aFnan
aFnan
aFnan
aFnan
aFnan
aFnan
aFnan
aFnan
aFnan
aFnan
aFnan
aFnan
aFnan
aFnan
aFnan
aFnan
aFnan
aFnan
aFnan
aFnan
aFnan
aFnan
aFnan
aFnan
asg46
g0
(g47
g2
Ntp106
Rp107
(dp108
g51
Nsg52
g103
sg53
I00
sg54
I00
sg55
Nsbsg56
g0
(g57
g58
(g59
g60
tp109
tp110
Rp111
sg64
VMinEff
p112
sbag0
(g8
g2
Ntp113
Rp114
(dp115
g12
I00
sg13
g4
sg14
(lp116
(lp117
I54
aI100
aI70
aa(lp118
I56
aI73
aI99
aa(lp119
I73
aI98
aI99
aa(lp120
I63
aI85
aI50
aa(lp121
I97
aI79
aI89
aa(lp122
I51
aI99
aI97
aa(lp123
I87
aI67
aI80
aa(lp124
I71
aI98
aI52
aa(lp125
I98
aI85
aI88
aa(lp126
I52
aI81
aI62
aaNaNaNaNaNaNaNaNaNaNaNaNaNaNaNaNaNaNaNaNasg46
g0
(g47
g2
Ntp127
Rp128
(dp129
g51
Vbatch_count = len(EffData)/batch_size\u000aGroupedData = np.array(EffData).reshape(batch_count, batch_size)
p130
sg52
g114
sg53
I00
sg54
I00
sg55
Vbatch_count = len(EffData)/batch_size\u000aGroupedData = np.array(EffData).reshape(batch_count, batch_size)
p131
sbsg56
g0
(g57
g58
(g59
g60
tp132
tp133
Rp134
sg64
VGroupedData
p135
sbag0
(g8
g2
Ntp136
Rp137
(dp138
g12
I00
sg13
g4
sg14
(lp139
(lp140
cnumpy.core.multiarray
scalar
p141
(cnumpy
dtype
p142
(S'i8'
p143
I0
I1
tp144
Rp145
(I3
S'<'
p146
NNNI-1
I-1
I0
tp147
bS'd\x00\x00\x00\x00\x00\x00\x00'
p148
tp149
Rp150
ag141
(g145
S'F\x00\x00\x00\x00\x00\x00\x00'
p151
tp152
Rp153
aa(lp154
g141
(g145
S'I\x00\x00\x00\x00\x00\x00\x00'
p155
tp156
Rp157
ag141
(g145
S'c\x00\x00\x00\x00\x00\x00\x00'
p158
tp159
Rp160
aa(lp161
g141
(g145
S'I\x00\x00\x00\x00\x00\x00\x00'
p162
tp163
Rp164
ag141
(g145
S'b\x00\x00\x00\x00\x00\x00\x00'
p165
tp166
Rp167
ag141
(g145
S'c\x00\x00\x00\x00\x00\x00\x00'
p168
tp169
Rp170
aa(lp171
g141
(g145
S'U\x00\x00\x00\x00\x00\x00\x00'
p172
tp173
Rp174
aa(lp175
g141
(g145
S'a\x00\x00\x00\x00\x00\x00\x00'
p176
tp177
Rp178
ag141
(g145
S'O\x00\x00\x00\x00\x00\x00\x00'
p179
tp180
Rp181
ag141
(g145
S'Y\x00\x00\x00\x00\x00\x00\x00'
p182
tp183
Rp184
aa(lp185
g141
(g145
S'c\x00\x00\x00\x00\x00\x00\x00'
p186
tp187
Rp188
ag141
(g145
S'a\x00\x00\x00\x00\x00\x00\x00'
p189
tp190
Rp191
aa(lp192
g141
(g145
S'W\x00\x00\x00\x00\x00\x00\x00'
p193
tp194
Rp195
ag141
(g145
S'P\x00\x00\x00\x00\x00\x00\x00'
p196
tp197
Rp198
aa(lp199
g141
(g145
S'G\x00\x00\x00\x00\x00\x00\x00'
p200
tp201
Rp202
ag141
(g145
S'b\x00\x00\x00\x00\x00\x00\x00'
p203
tp204
Rp205
aa(lp206
g141
(g145
S'b\x00\x00\x00\x00\x00\x00\x00'
p207
tp208
Rp209
ag141
(g145
S'U\x00\x00\x00\x00\x00\x00\x00'
p210
tp211
Rp212
ag141
(g145
S'X\x00\x00\x00\x00\x00\x00\x00'
p213
tp214
Rp215
aa(lp216
g141
(g145
S'Q\x00\x00\x00\x00\x00\x00\x00'
p217
tp218
Rp219
aaNaNaNaNaNaNaNaNaNaNaNaNaNaNaNaNaNaNaNaNasg46
g0
(g47
g2
Ntp220
Rp221
(dp222
g51
VGroupedPrunedData = []\u000afor data in GroupedData:\u000a  new_data = []\u000a  for d in data:\u000a    if d >= MinEff[0]:\u000a      new_data.append(d)\u000a  GroupedPrunedData.append(new_data)
p223
sg52
g137
sg53
I00
sg54
I00
sg55
VGroupedPrunedData = []\u000afor data in GroupedData:\u000a  new_data = []\u000a  for d in data:\u000a    if d >= MinEff[0]:\u000a      new_data.append(d)\u000a  GroupedPrunedData.append(new_data)
p224
sbsg56
g0
(g57
g58
(g59
g60
tp225
tp226
Rp227
sg64
VGroupedPrunedData
p228
sbag0
(g8
g2
Ntp229
Rp230
(dp231
g12
I00
sg13
g4
sg14
(lp232
Fnan
aFnan
aFnan
aFnan
aFnan
aFnan
aFnan
aFnan
aFnan
aFnan
aFnan
aFnan
aFnan
aFnan
aFnan
aFnan
aFnan
aFnan
aFnan
aFnan
aFnan
aFnan
aFnan
aFnan
aFnan
aFnan
aFnan
aFnan
aFnan
aFnan
asg46
g0
(g47
g2
Ntp233
Rp234
(dp235
g51
Nsg52
g230
sg53
I00
sg54
I00
sg55
Nsbsg56
g0
(g57
g58
(g59
g60
tp236
tp237
Rp238
sg64
VMean
p239
sbag0
(g8
g2
Ntp240
Rp241
(dp242
g12
I00
sg13
g4
sg14
(lp243
Fnan
aFnan
aFnan
aFnan
aFnan
aFnan
aFnan
aFnan
aFnan
aFnan
aFnan
aFnan
aFnan
aFnan
aFnan
aFnan
aFnan
aFnan
aFnan
aFnan
aFnan
aFnan
aFnan
aFnan
aFnan
aFnan
aFnan
aFnan
aFnan
aFnan
asg46
g0
(g47
g2
Ntp244
Rp245
(dp246
g51
Nsg52
g241
sg53
I00
sg54
I00
sg55
Nsbsg56
g0
(g57
g58
(g59
g60
tp247
tp248
Rp249
sg64
VStd
p250
sbag0
(g8
g2
Ntp251
Rp252
(dp253
g12
I00
sg13
g4
sg14
(lp254
Fnan
aFnan
aFnan
aFnan
aFnan
aFnan
aFnan
aFnan
aFnan
aFnan
aFnan
aFnan
aFnan
aFnan
aFnan
aFnan
aFnan
aFnan
aFnan
aFnan
aFnan
aFnan
aFnan
aFnan
aFnan
aFnan
aFnan
aFnan
aFnan
aFnan
asg46
g0
(g47
g2
Ntp255
Rp256
(dp257
g51
Nsg52
g252
sg53
I00
sg54
I00
sg55
Nsbsg56
g0
(g57
g58
(g59
g60
tp258
tp259
Rp260
sg64
VzScore
p261
sbasS'_filepath'
p262
V/home/ubuntu/SciSheets/mysite/user/guest/tables/kristen_gene_table.pcl
p263
sg64
VGeneTable
p264
sb.