ccopy_reg
_reconstructor
p0
(cscisheets.ui.dt_table
DTTable
p1
c__builtin__
object
p2
Ntp3
Rp4
(dp5
S'_versioned_file'
p6
g0
(cmysite.helpers.versioned_file
VersionedFile
p7
g2
Ntp8
Rp9
(dp10
S'_redo_stack'
p11
g0
(cmysite.helpers.file_stack
FileStack
p12
g2
Ntp13
Rp14
(dp15
S'_dirpath'
p16
S'/home/ubuntu/SciSheets/mysite/user/guest/tables/backup'
p17
sS'_max_depth'
p18
I5
sS'_filename_pfx'
p19
Vkristen_single_gene.r
p20
sbsS'_max_versions'
p21
I5
sS'_undo_stack'
p22
g0
(g12
g2
Ntp23
Rp24
(dp25
g16
g17
sg18
I5
sg19
Vkristen_single_gene.u
p26
sbsS'_checkpoint_history'
p27
(lp28
VCell/Update
p29
aVCell/Update
p30
aVCell/Update
p31
aVCell/Update
p32
aVCell/Update
p33
aVCell/Update
p34
aVCell/Update
p35
aVCell/Update
p36
aVCell/Update
p37
aVCell/Update
p38
aVCell/Update
p39
aVCell/Update
p40
aVColumn/Formula
p41
aVColumn/Formula
p42
aVColumn/Append
p43
aVColumn/Formula
p44
aVColumn/Delete
p45
aVCell/Update
p46
aVColumn/Formula
p47
aVCell/Update
p48
aVCell/Update
p49
aVColumn/Formula
p50
aVColumn/Formula
p51
aVCell/Update
p52
aVColumn/Formula
p53
aVColumn/Formula
p54
aVCell/Update
p55
aVCell/Update
p56
aVCell/Update
p57
aVCell/Update
p58
aVColumn/Formula
p59
aVCell/Update
p60
aVCell/Update
p61
aVCell/Update
p62
aVColumn/Formula
p63
aVCell/Update
p64
aVColumn/Formula
p65
aVColumn/Formula
p66
aVCell/Update
p67
aVCell/Update
p68
aVCell/Update
p69
aVCell/Update
p70
aVCell/Update
p71
aVCell/Update
p72
aVCell/Update
p73
aVCell/Update
p74
aVCell/Update
p75
aVColumn/Formula
p76
aVCell/Update
p77
aVCell/Update
p78
aVCell/Update
p79
aVCell/Update
p80
aVCell/Update
p81
aVCell/Update
p82
aVCell/Update
p83
asS'_filepath'
p84
V/home/ubuntu/SciSheets/mysite/user/guest/tables/kristen_single_gene.pcl
p85
sS'_backup_dir'
p86
g17
sbsS'_namespace'
p87
(dp88
sS'_hidden_columns'
p89
(lp90
g0
(cscisheets.core.column
Column
p91
g2
Ntp92
Rp93
(dp94
S'_asis'
p95
I00
sS'_owning_table'
p96
g4
sS'_cells'
p97
(lp98
VSEP1 2012 P17F4 3a
p99
aVSEP1 2012 P17F4 b
p100
aVSEP1 2012 P17F4 c
p101
aVSEP1 2012 P17F5 a
p102
aVSEP1 2012 P17F5 b
p103
aVSEP1 2012 P17F5 c
p104
aVSEP1 2012 P1F3 SEP1a
p105
aVSEP1 2012 P1F3 SEP1b
p106
aVSEP1 2012 P1F3 SEP1c
p107
aVSEP1-2 2012 P11aF2 a
p108
aVSEP1-2 2012 P11aF2 b
p109
aVSEP1-2 2012 P11aF2 c
p110
aVSEP1-3 2012 P15F2 a
p111
aVSEP1-3 2012 P15F2 b
p112
aVSEP1-3 2012 P15F2 c
p113
aVuntreated 2012 P12F1 SEP3-3 1:2a
p114
aVuntreated 2012 P12F1 SEP3-3 1:2b
p115
aVuntreated 2012 P12F1 SEP3-3 1:2c
p116
aVSEP1 2012 P17F4 ACTa
p117
aVSEP1 2012 P17F4 ACTb
p118
aVSEP1 2012 P17F4 ACTc
p119
aVSEP1 2012 P17F5 ACTa
p120
aVSEP1 2012 P17F5 ACTb
p121
aVSEP1 2012 P17F5 ACTc
p122
aVSEP1 2012 P1F3 ACTa
p123
aVSEP1 2012 P1F3 ACTb
p124
aVSEP1 2012 P1F3 ACTc
p125
aVSEP1-2 2012 P11aF2 ACTa
p126
aVSEP1-2 2012 P11aF2 ACTb
p127
aVSEP1-2 2012 P11aF2 ACTc
p128
aVSEP1-3 2012 P15F2 ACTa
p129
aVSEP1-3 2012 P15F2 ACTb
p130
aVSEP1-3 2012 P15F2 ACTc
p131
aVuntreated 2012 P12F1 ACTa
p132
aVuntreated 2012 P12F1 ACTb
p133
aVuntreated 2012 P12F1 ACTc
p134
aVSEP1 2012 P17F4 EEF1a
p135
aVSEP1 2012 P17F4 EEF1b
p136
aVSEP1 2012 P17F4 EEF1c
p137
aVSEP1 2012 P17F5 EEF1a
p138
aVSEP1 2012 P17F5 EEF1b
p139
aVSEP1 2012 P17F5 EEF1c
p140
aVSEP1 2012 P1F3 EEF1a
p141
aVSEP1 2012 P1F3 EEF1b
p142
aVSEP1 2012 P1F3 EEF1c
p143
aVSEP1-2 2012 P11aF2 EEF1a
p144
aVSEP1-2 2012 P11aF2 EEF1b
p145
aVSEP1-2 2012 P11aF2 EEF1c
p146
aVSEP1-3 2012 P15F2 EEF1a
p147
aVSEP1-3 2012 P15F2 EEF1b
p148
aVSEP1-3 2012 P15F2 EEF1c
p149
aVuntreated 2012 P12F1 EEF1a
p150
aVuntreated 2012 P12F1 EEF1b
p151
aVuntreated 2012 P12F1 EEF1c
p152
asS'_formula_statement'
p153
g0
(cscisheets.core.column
FormulaStatement
p154
g2
Ntp155
Rp156
(dp157
S'_statement'
p158
NsS'_column'
p159
g93
sS'_isExpression'
p160
I00
sS'_isStatement'
p161
I00
sS'_formula'
p162
NsbsS'_data_class'
p163
g0
(cscisheets.core.helpers.api_util
DataClass
p164
c__builtin__
tuple
p165
(cnumpy
ndarray
p166
cscisheets.core.helpers.api_util
makeArray
p167
tp168
tp169
Rp170
sS'_name'
p171
S'SmplName'
p172
sbag0
(g91
g2
Ntp173
Rp174
(dp175
g95
I00
sg96
g4
sg97
(lp176
I1
aI1
aI1
aI2
aI2
aI2
aI3
aI3
aI3
aI1
aI1
aI1
aI1
aI1
aI1
aI1
aI1
aI1
aI1
aI1
aI1
aI2
aI2
aI2
aI3
aI3
aI3
aI1
aI1
aI1
aI1
aI1
aI1
aI1
aI1
aI1
aI1
aI1
aI1
aI2
aI2
aI2
aI3
aI3
aI3
aI1
aI1
aI1
aI1
aI1
aI1
aI1
aI1
aI1
asg153
g0
(g154
g2
Ntp177
Rp178
(dp179
g158
Nsg159
g174
sg160
I00
sg161
I00
sg162
Nsbsg163
g170
sg171
S'BRpl'
p180
sbag0
(g91
g2
Ntp181
Rp182
(dp183
g95
I00
sg96
g4
sg97
(lp184
F22.42
aF22.5
aF22.44
aF21.92
aF22.03
aF21.94
aF23.4
aF23.47
aF23.41
aF23.48
aF23.31
aF23.45
aF18.82
aF18.97
aF18.92
aF18.31
aF18.29
aF18.15
aF19.92
aF19.85
aF20.0
aF21.86
aF22.09
aF21.84
aF23.89
aF23.54
aF24.27
aF23.22
aF23.8
aF23.49
aF18.91
aF18.78
aF18.8
aF18.24
aF18.22
aF18.36
aF22.18
aF21.71
aF21.75
aF23.88
aF23.42
aF23.63
aF24.59
aF24.61
aF24.34
aF26.37
aF26.36
aF26.17
aF20.5
aF20.47
aF20.28
aF19.72
aF19.75
aF20.01
asg153
g0
(g154
g2
Ntp185
Rp186
(dp187
g158
Nsg159
g182
sg160
I00
sg161
I00
sg162
Nsbsg163
g170
sg171
S'Ct'
p188
sbag0
(g91
g2
Ntp189
Rp190
(dp191
g95
I00
sg96
g4
sg97
(lp192
F0.8453
aF0.8426
aF0.8524
aF0.8658
aF0.7809
aF0.8512
aF0.8442
aF0.8357
aF0.7658
aF0.8352
aF0.7886
aF0.8105
aF0.876
aF0.8597
aF0.8873
aF0.919
aF0.9106
aF0.9129
aF0.9179
aF0.9783
aF0.8971
aF0.8957
aF0.8287
aF0.8387
aF0.8746
aF0.8493
aF0.8349
aF0.7701
aF0.8746
aF0.8139
aF0.8715
aF0.8977
aF0.856
aF0.8266
aF0.8343
aF0.8496
aF0.7857
aF0.8427
aF0.8637
aF0.8281
aF0.8203
aF0.8288
aF0.8138
aF0.8242
aF0.804
aF0.7795
aF0.7676
aF0.7947
aF0.8179
aF0.8173
aF0.7894
aF0.8157
aF0.8543
aF0.8208
asg153
g0
(g154
g2
Ntp193
Rp194
(dp195
g158
Nsg159
g190
sg160
I00
sg161
I00
sg162
Nsbsg163
g170
sg171
S'Eff'
p196
sbag0
(g91
g2
Ntp197
Rp198
(dp199
g95
I00
sg96
g4
sg97
(lp200
VI
p201
ag201
ag201
ag201
ag201
ag201
ag201
ag201
ag201
ag201
ag201
ag201
ag201
ag201
ag201
ag201
ag201
ag201
aVR1
p202
aVR1
p203
aVR1
p204
aVR1
p205
aVR1
p206
aVR1
p207
aVR1
p208
aVR1
p209
aVR1
p210
aVR1
p211
aVR1
p212
aVR1
p213
aVR1
p214
aVR1
p215
aVR1
p216
aVR1
p217
aVR1
p218
aVR1
p219
aVR2
p220
aVR2
p221
aVR2
p222
aVR2
p223
aVR2
p224
aVR2
p225
aVR2
p226
aVR2
p227
aVR2
p228
aVR2
p229
aVR2
p230
aVR2
p231
aVR2
p232
aVR2
p233
aVR2
p234
aVR2
p235
aVR2
p236
aVR2
p237
asg153
g0
(g154
g2
Ntp238
Rp239
(dp240
g158
Nsg159
g198
sg160
I00
sg161
I00
sg162
Nsbsg163
g170
sg171
S'RunType'
p241
sbag0
(g91
g2
Ntp242
Rp243
(dp244
g95
I00
sg96
g4
sg97
(lp245
Va
p246
aVb
p247
aVc
p248
ag246
ag247
ag248
ag246
ag247
ag248
ag246
ag247
ag248
ag246
ag247
ag248
ag246
ag247
ag248
ag246
ag247
ag248
ag246
ag247
ag248
ag246
ag247
ag248
ag246
ag247
ag248
ag246
ag247
ag248
ag246
ag247
ag248
ag246
ag247
ag248
ag246
ag247
ag248
ag246
ag247
ag248
ag246
ag247
ag248
ag246
ag247
ag248
ag246
ag247
ag248
asg153
g0
(g154
g2
Ntp249
Rp250
(dp251
g158
Nsg159
g243
sg160
I00
sg161
I00
sg162
Nsbsg163
g170
sg171
S'TRpl'
p252
sbag0
(g91
g2
Ntp253
Rp254
(dp255
g95
I00
sg96
g4
sg97
(lp256
I1
aI1
aI1
aI1
aI1
aI1
aI1
aI1
aI1
aI2
aI2
aI2
aI3
aI3
aI3
aI0
aI0
aI0
aI1
aI1
aI1
aI1
aI1
aI1
aI1
aI1
aI1
aI2
aI2
aI2
aI3
aI3
aI3
aI0
aI0
aI0
aI1
aI1
aI1
aI1
aI1
aI1
aI1
aI1
aI1
aI2
aI2
aI2
aI3
aI3
aI3
aI0
aI0
aI0
asg153
g0
(g154
g2
Ntp257
Rp258
(dp259
g158
Nsg159
g254
sg160
I00
sg161
I00
sg162
Nsbsg163
g170
sg171
S'Treatment'
p260
sbag0
(g91
g2
Ntp261
Rp262
(dp263
g95
I00
sg96
g4
sg97
(lp264
(cnumpy.core.multiarray
scalar
p265
(cnumpy
dtype
p266
(S'i8'
p267
I0
I1
tp268
Rp269
(I3
S'<'
p270
NNNI-1
I-1
I0
tp271
bS'\x00\x00\x00\x00\x00\x00\x00\x00'
p272
tp273
Rp274
g201
g265
(g269
S'\x01\x00\x00\x00\x00\x00\x00\x00'
p275
tp276
Rp277
tp278
a(g265
(g269
S'\x00\x00\x00\x00\x00\x00\x00\x00'
p279
tp280
Rp281
VR1
p282
g265
(g269
S'\x01\x00\x00\x00\x00\x00\x00\x00'
p283
tp284
Rp285
tp286
a(g265
(g269
S'\x00\x00\x00\x00\x00\x00\x00\x00'
p287
tp288
Rp289
VR2
p290
g265
(g269
S'\x01\x00\x00\x00\x00\x00\x00\x00'
p291
tp292
Rp293
tp294
a(g265
(g269
S'\x01\x00\x00\x00\x00\x00\x00\x00'
p295
tp296
Rp297
g201
g265
(g269
S'\x01\x00\x00\x00\x00\x00\x00\x00'
p298
tp299
Rp300
tp301
a(g265
(g269
S'\x01\x00\x00\x00\x00\x00\x00\x00'
p302
tp303
Rp304
g201
g265
(g269
S'\x02\x00\x00\x00\x00\x00\x00\x00'
p305
tp306
Rp307
tp308
a(g265
(g269
S'\x01\x00\x00\x00\x00\x00\x00\x00'
p309
tp310
Rp311
g201
g265
(g269
S'\x03\x00\x00\x00\x00\x00\x00\x00'
p312
tp313
Rp314
tp315
a(g265
(g269
S'\x01\x00\x00\x00\x00\x00\x00\x00'
p316
tp317
Rp318
g282
g265
(g269
S'\x01\x00\x00\x00\x00\x00\x00\x00'
p319
tp320
Rp321
tp322
a(g265
(g269
S'\x01\x00\x00\x00\x00\x00\x00\x00'
p323
tp324
Rp325
g282
g265
(g269
S'\x02\x00\x00\x00\x00\x00\x00\x00'
p326
tp327
Rp328
tp329
a(g265
(g269
S'\x01\x00\x00\x00\x00\x00\x00\x00'
p330
tp331
Rp332
g282
g265
(g269
S'\x03\x00\x00\x00\x00\x00\x00\x00'
p333
tp334
Rp335
tp336
a(g265
(g269
S'\x01\x00\x00\x00\x00\x00\x00\x00'
p337
tp338
Rp339
g290
g265
(g269
S'\x01\x00\x00\x00\x00\x00\x00\x00'
p340
tp341
Rp342
tp343
a(g265
(g269
S'\x01\x00\x00\x00\x00\x00\x00\x00'
p344
tp345
Rp346
g290
g265
(g269
S'\x02\x00\x00\x00\x00\x00\x00\x00'
p347
tp348
Rp349
tp350
a(g265
(g269
S'\x01\x00\x00\x00\x00\x00\x00\x00'
p351
tp352
Rp353
g290
g265
(g269
S'\x03\x00\x00\x00\x00\x00\x00\x00'
p354
tp355
Rp356
tp357
a(g265
(g269
S'\x02\x00\x00\x00\x00\x00\x00\x00'
p358
tp359
Rp360
g201
g265
(g269
S'\x01\x00\x00\x00\x00\x00\x00\x00'
p361
tp362
Rp363
tp364
a(g265
(g269
S'\x02\x00\x00\x00\x00\x00\x00\x00'
p365
tp366
Rp367
g282
g265
(g269
S'\x01\x00\x00\x00\x00\x00\x00\x00'
p368
tp369
Rp370
tp371
a(g265
(g269
S'\x02\x00\x00\x00\x00\x00\x00\x00'
p372
tp373
Rp374
g290
g265
(g269
S'\x01\x00\x00\x00\x00\x00\x00\x00'
p375
tp376
Rp377
tp378
a(g265
(g269
S'\x03\x00\x00\x00\x00\x00\x00\x00'
p379
tp380
Rp381
g201
g265
(g269
S'\x01\x00\x00\x00\x00\x00\x00\x00'
p382
tp383
Rp384
tp385
a(g265
(g269
S'\x03\x00\x00\x00\x00\x00\x00\x00'
p386
tp387
Rp388
g282
g265
(g269
S'\x01\x00\x00\x00\x00\x00\x00\x00'
p389
tp390
Rp391
tp392
a(g265
(g269
S'\x03\x00\x00\x00\x00\x00\x00\x00'
p393
tp394
Rp395
g290
g265
(g269
S'\x01\x00\x00\x00\x00\x00\x00\x00'
p396
tp397
Rp398
tp399
aNaNaNaNaNaNaNaNaNaNaNaNaNaNaNaNaNaNaNaNaNaNaNaNaNaNaNaNaNaNaNaNaNaNaNaNasg153
g0
(g154
g2
Ntp400
Rp401
(dp402
g158
Vif run:\u000a  sel = Eff > min_eff\u000a  grouping_columns =   [\u000a      Treatment[sel],\u000a       RunType[sel], \u000a      BRpl[sel],      \u000a    ]\u000a  if True:\u000a    Groups, groupedCt = groupBy(\u000a      grouping_columns, Ct[sel])\u000a    Groups, groupedEff = groupBy(\u000a      grouping_columns, Eff[sel])\u000a    GroupedCt = roundValues(groupedCt,2)\u000a    GroupedEff = roundValues(groupedEff,2)
p403
sg159
g262
sg160
I00
sg161
I00
sg162
Vif run:\u000a  sel = Eff > min_eff\u000a  grouping_columns =   [\u000a      Treatment[sel],\u000a       RunType[sel], \u000a      BRpl[sel],      \u000a    ]\u000a  if True:\u000a    Groups, groupedCt = groupBy(\u000a      grouping_columns, Ct[sel])\u000a    Groups, groupedEff = groupBy(\u000a      grouping_columns, Eff[sel])\u000a    GroupedCt = roundValues(groupedCt,2)\u000a    GroupedEff = roundValues(groupedEff,2)
p404
sbsg163
g0
(g164
g165
(g166
g167
tp405
tp406
Rp407
sg171
VGroups
p408
sbag0
(g91
g2
Ntp409
Rp410
(dp411
g95
I00
sg96
g4
sg97
(lp412
(lp413
F0.92
aF0.91
aF0.91
aa(lp414
F0.83
aF0.83
aF0.85
aa(lp415
F0.82
aF0.85
aF0.82
aa(lp416
F0.85
aF0.84
aF0.85
aa(lp417
F0.87
aF0.78
aF0.85
aa(lp418
F0.84
aF0.84
aF0.77
aa(lp419
F0.92
aF0.98
aF0.9
aa(lp420
F0.9
aF0.83
aF0.84
aa(lp421
F0.87
aF0.85
aF0.83
aa(lp422
F0.79
aF0.84
aF0.86
aa(lp423
F0.83
aF0.82
aF0.83
aa(lp424
F0.81
aF0.82
aF0.8
aa(lp425
F0.84
aF0.79
aF0.81
aa(lp426
F0.77
aF0.87
aF0.81
aa(lp427
F0.78
aF0.77
aF0.79
aa(lp428
F0.88
aF0.86
aF0.89
aa(lp429
F0.87
aF0.9
aF0.86
aa(lp430
F0.82
aF0.82
aF0.79
aaNaNaNaNaNaNaNaNaNaNaNaNaNaNaNaNaNaNaNaNaNaNaNaNaNaNaNaNaNaNaNaNaNaNaNaNasg153
g0
(g154
g2
Ntp431
Rp432
(dp433
g158
Nsg159
g410
sg160
I00
sg161
I00
sg162
Nsbsg163
g0
(g164
g165
(g166
g167
tp434
tp435
Rp436
sg171
VGroupedEff
p437
sbag0
(g91
g2
Ntp438
Rp439
(dp440
g95
I00
sg96
g4
sg97
(lp441
(lp442
F18.31
aF18.29
aF18.15
aa(lp443
F18.24
aF18.22
aF18.36
aa(lp444
F19.72
aF19.75
aF20.01
aa(lp445
F22.42
aF22.5
aF22.44
aa(lp446
F21.92
aF22.03
aF21.94
aa(lp447
F23.4
aF23.47
aF23.41
aa(lp448
F19.92
aF19.85
aF20.0
aa(lp449
F21.86
aF22.09
aF21.84
aa(lp450
F23.89
aF23.54
aF24.27
aa(lp451
F22.18
aF21.71
aF21.75
aa(lp452
F23.88
aF23.42
aF23.63
aa(lp453
F24.59
aF24.61
aF24.34
aa(lp454
F23.48
aF23.31
aF23.45
aa(lp455
F23.22
aF23.8
aF23.49
aa(lp456
F26.37
aF26.36
aF26.17
aa(lp457
F18.82
aF18.97
aF18.92
aa(lp458
F18.91
aF18.78
aF18.8
aa(lp459
F20.5
aF20.47
aF20.28
aaNaNaNaNaNaNaNaNaNaNaNaNaNaNaNaNaNaNaNaNaNaNaNaNaNaNaNaNaNaNaNaNaNaNaNaNasg153
g0
(g154
g2
Ntp460
Rp461
(dp462
g158
Nsg159
g439
sg160
I00
sg161
I00
sg162
Nsbsg163
g0
(g164
g165
(g166
g167
tp463
tp464
Rp465
sg171
VGroupedCt
p466
sbag0
(g91
g2
Ntp467
Rp468
(dp469
g95
I00
sg96
g4
sg97
(lp470
(lp471
F18.3
aF18.3
aF18.1
aa(lp472
F18.2
aF18.2
aF18.4
aa(lp473
F19.7
aF19.8
aF20.0
aa(lp474
F22.4
aF22.5
aF22.4
aa(lp475
F21.9
aF22.0
aF21.9
aa(lp476
F23.4
aF23.5
aF23.4
aa(lp477
F19.9
aF19.9
aF20.0
aa(lp478
F21.9
aF22.1
aF21.8
aa(lp479
F23.9
aF23.5
aF24.3
aa(lp480
F22.2
aF21.7
aF21.8
aa(lp481
F23.9
aF23.4
aF23.6
aa(lp482
F24.6
aF24.6
aF24.3
aa(lp483
F23.5
aF23.3
aF23.4
aa(lp484
F23.2
aF23.8
aF23.5
aa(lp485
F26.4
aF26.4
aF26.2
aa(lp486
F18.8
aF19.0
aF18.9
aa(lp487
F18.9
aF18.8
aF18.8
aa(lp488
F20.5
aF20.5
aF20.3
aaNaNaNaNaNaNaNaNaNaNaNaNaNaNaNaNaNaNaNaNaNaNaNaNaNaNaNaNaNaNaNaNaNaNaNaNasg153
g0
(g154
g2
Ntp489
Rp490
(dp491
g158
Vif run:\u000a  length = len(Groups)\u000a  StdFilteredGroupedCt = roundValues([filterExtremes(g, max_std, 2) for g in pruneNulls(GroupedCt, required_length=length)])\u000a 
p492
sg159
g468
sg160
I00
sg161
I00
sg162
Vif run:\u000a  length = len(Groups)\u000a  StdFilteredGroupedCt = roundValues([filterExtremes(g, max_std, 2) for g in pruneNulls(GroupedCt, required_length=length)])\u000a 
p493
sbsg163
g0
(g164
g165
(g166
g167
tp494
tp495
Rp496
sg171
VStdFilteredGroupedCt
p497
sbag0
(g91
g2
Ntp498
Rp499
(dp500
g95
I00
sg96
g4
sg97
(lp501
F18.2
aF18.3
aF19.8
aF22.4
aF21.9
aF23.4
aF19.9
aF21.9
aF23.9
aF21.9
aF23.6
aF24.5
aF23.4
aF23.5
aF26.3
aF18.9
aF18.8
aF20.4
aFnan
aFnan
aFnan
aFnan
aFnan
aFnan
aFnan
aFnan
aFnan
aFnan
aFnan
aFnan
aFnan
aFnan
aFnan
aFnan
aFnan
aFnan
aFnan
aFnan
aFnan
aFnan
aFnan
aFnan
aFnan
aFnan
aFnan
aFnan
aFnan
aFnan
aFnan
aFnan
aFnan
aFnan
aFnan
aFnan
asg153
g0
(g154
g2
Ntp502
Rp503
(dp504
g158
Vif run:\u000a  MeanCt = [np.mean(g) for g in StdFilteredGroupedCt]\u000a  MeanCt = roundValues(MeanCt,1)\u000a  StdCt = [np.std(g, ddof=1) for g in StdFilteredGroupedCt]\u000a  StdCt = roundValues(StdCt,3)\u000as.setColumnVisibility(['Groups', 'GroupedEff', 'GroupedCt', 'StdFilteredGroupedCt', 'MeanCt', 'StdCt'], is_visible=show_block1)
p505
sg159
g499
sg160
I00
sg161
I00
sg162
Vif run:\u000a  MeanCt = [np.mean(g) for g in StdFilteredGroupedCt]\u000a  MeanCt = roundValues(MeanCt,1)\u000a  StdCt = [np.std(g, ddof=1) for g in StdFilteredGroupedCt]\u000a  StdCt = roundValues(StdCt,3)\u000as.setColumnVisibility(['Groups', 'GroupedEff', 'GroupedCt', 'StdFilteredGroupedCt', 'MeanCt', 'StdCt'], is_visible=show_block1)
p506
sbsg163
g0
(g164
g165
(g166
g167
tp507
tp508
Rp509
sg171
VMeanCt
p510
sbag0
(g91
g2
Ntp511
Rp512
(dp513
g95
I00
sg96
g4
sg97
(lp514
F0.115
aF0.115
aF0.153
aF0.058
aF0.058
aF0.058
aF0.058
aF0.153
aF0.4
aF0.265
aF0.252
aF0.173
aF0.1
aF0.3
aF0.115
aF0.1
aF0.058
aF0.115
aFnan
aFnan
aFnan
aFnan
aFnan
aFnan
aFnan
aFnan
aFnan
aFnan
aFnan
aFnan
aFnan
aFnan
aFnan
aFnan
aFnan
aFnan
aFnan
aFnan
aFnan
aFnan
aFnan
aFnan
aFnan
aFnan
aFnan
aFnan
aFnan
aFnan
aFnan
aFnan
aFnan
aFnan
aFnan
aFnan
asg153
g0
(g154
g2
Ntp515
Rp516
(dp517
g158
Nsg159
g512
sg160
I00
sg161
I00
sg162
Nsbsg163
g0
(g164
g165
(g166
g167
tp518
tp519
Rp520
sg171
VStdCt
p521
sbag0
(g91
g2
Ntp522
Rp523
(dp524
g95
I00
sg96
g4
sg97
(lp525
(lp526
g265
(g269
S'\x00\x00\x00\x00\x00\x00\x00\x00'
p527
tp528
Rp529
ag265
(g269
S'\x01\x00\x00\x00\x00\x00\x00\x00'
p530
tp531
Rp532
aa(lp533
g265
(g269
S'\x01\x00\x00\x00\x00\x00\x00\x00'
p534
tp535
Rp536
ag265
(g269
S'\x01\x00\x00\x00\x00\x00\x00\x00'
p537
tp538
Rp539
aa(lp540
g265
(g269
S'\x01\x00\x00\x00\x00\x00\x00\x00'
p541
tp542
Rp543
ag265
(g269
S'\x02\x00\x00\x00\x00\x00\x00\x00'
p544
tp545
Rp546
aa(lp547
g265
(g269
S'\x01\x00\x00\x00\x00\x00\x00\x00'
p548
tp549
Rp550
ag265
(g269
S'\x03\x00\x00\x00\x00\x00\x00\x00'
p551
tp552
Rp553
aa(lp554
g265
(g269
S'\x02\x00\x00\x00\x00\x00\x00\x00'
p555
tp556
Rp557
ag265
(g269
S'\x01\x00\x00\x00\x00\x00\x00\x00'
p558
tp559
Rp560
aa(lp561
g265
(g269
S'\x03\x00\x00\x00\x00\x00\x00\x00'
p562
tp563
Rp564
ag265
(g269
S'\x01\x00\x00\x00\x00\x00\x00\x00'
p565
tp566
Rp567
aaNaNaNaNaNaNaNaNaNaNaNaNaNaNaNaNaNaNaNaNaNaNaNaNaNaNaNaNaNaNaNaNaNaNaNaNaNaNaNaNaNaNaNaNaNaNaNaNasg153
g0
(g154
g2
Ntp568
Rp569
(dp570
g158
Vif run:\u000a      tabularize(s, 'Groups', 1, 'MeanCt', \u000a          new_category_colnm='BioRuns',\u000a          values_colnm_prefix='Gene_')
p571
sg159
g523
sg160
I00
sg161
I00
sg162
Vif run:\u000a      tabularize(s, 'Groups', 1, 'MeanCt', \u000a          new_category_colnm='BioRuns',\u000a          values_colnm_prefix='Gene_')
p572
sbsg163
g0
(g164
g165
(g166
g167
tp573
tp574
Rp575
sg171
VBioRuns
p576
sbag0
(g91
g2
Ntp577
Rp578
(dp579
g95
I00
sg96
g4
sg97
(lp580
F18.2
aF22.4
aF21.9
aF23.4
aF23.4
aF18.9
aFnan
aFnan
aFnan
aFnan
aFnan
aFnan
aFnan
aFnan
aFnan
aFnan
aFnan
aFnan
aFnan
aFnan
aFnan
aFnan
aFnan
aFnan
aFnan
aFnan
aFnan
aFnan
aFnan
aFnan
aFnan
aFnan
aFnan
aFnan
aFnan
aFnan
aFnan
aFnan
aFnan
aFnan
aFnan
aFnan
aFnan
aFnan
aFnan
aFnan
aFnan
aFnan
aFnan
aFnan
aFnan
aFnan
aFnan
aFnan
asg153
g0
(g154
g2
Ntp581
Rp582
(dp583
g158
Nsg159
g578
sg160
I00
sg161
I00
sg162
Nsbsg163
g0
(g164
g165
(g166
g167
tp584
tp585
Rp586
sg171
S'Gene_I'
p587
sbag0
(g91
g2
Ntp588
Rp589
(dp590
g95
I00
sg96
g4
sg97
(lp591
F18.3
aF19.9
aF21.9
aF23.9
aF23.5
aF18.8
aFnan
aFnan
aFnan
aFnan
aFnan
aFnan
aFnan
aFnan
aFnan
aFnan
aFnan
aFnan
aFnan
aFnan
aFnan
aFnan
aFnan
aFnan
aFnan
aFnan
aFnan
aFnan
aFnan
aFnan
aFnan
aFnan
aFnan
aFnan
aFnan
aFnan
aFnan
aFnan
aFnan
aFnan
aFnan
aFnan
aFnan
aFnan
aFnan
aFnan
aFnan
aFnan
aFnan
aFnan
aFnan
aFnan
aFnan
aFnan
asg153
g0
(g154
g2
Ntp592
Rp593
(dp594
g158
Nsg159
g589
sg160
I00
sg161
I00
sg162
Nsbsg163
g586
sg171
S'Gene_R1'
p595
sbag0
(g91
g2
Ntp596
Rp597
(dp598
g95
I00
sg96
g4
sg97
(lp599
F19.8
aF21.9
aF23.6
aF24.5
aF26.3
aF20.4
aFnan
aFnan
aFnan
aFnan
aFnan
aFnan
aFnan
aFnan
aFnan
aFnan
aFnan
aFnan
aFnan
aFnan
aFnan
aFnan
aFnan
aFnan
aFnan
aFnan
aFnan
aFnan
aFnan
aFnan
aFnan
aFnan
aFnan
aFnan
aFnan
aFnan
aFnan
aFnan
aFnan
aFnan
aFnan
aFnan
aFnan
aFnan
aFnan
aFnan
aFnan
aFnan
aFnan
aFnan
aFnan
aFnan
aFnan
aFnan
asg153
g0
(g154
g2
Ntp600
Rp601
(dp602
g158
Nsg159
g597
sg160
I00
sg161
I00
sg162
Nsbsg163
g586
sg171
S'Gene_R2'
p603
sbag0
(g91
g2
Ntp604
Rp605
(dp606
g95
I00
sg96
g4
sg97
(lp607
F1.07177
aF0.17678
aF1.0
aF1.41421
aF1.07177
aF0.93303
aFnan
aFnan
aFnan
aFnan
aFnan
aFnan
aFnan
aFnan
aFnan
aFnan
aFnan
aFnan
aFnan
aFnan
aFnan
aFnan
aFnan
aFnan
aFnan
aFnan
aFnan
aFnan
aFnan
aFnan
aFnan
aFnan
aFnan
aFnan
aFnan
aFnan
aFnan
aFnan
aFnan
aFnan
aFnan
aFnan
aFnan
aFnan
aFnan
aFnan
aFnan
aFnan
aFnan
aFnan
aFnan
aFnan
aFnan
aFnan
asg153
g0
(g154
g2
Ntp608
Rp609
(dp610
g158
VExprR1 = roundValues(2**(Gene_R1 - Gene_I),5)
p611
sg159
g605
sg160
I01
sg161
I00
sg162
VroundValues(2**(Gene_R1 - Gene_I),5)
p612
sbsg163
g0
(g164
g165
(g166
g167
tp613
tp614
Rp615
sg171
VExprR1
p616
sbag0
(g91
g2
Ntp617
Rp618
(dp619
g95
I00
sg96
g4
sg97
(lp620
F3.03143
aF0.70711
aF3.24901
aF2.14355
aF7.46426
aF2.82843
aFnan
aFnan
aFnan
aFnan
aFnan
aFnan
aFnan
aFnan
aFnan
aFnan
aFnan
aFnan
aFnan
aFnan
aFnan
aFnan
aFnan
aFnan
aFnan
aFnan
aFnan
aFnan
aFnan
aFnan
aFnan
aFnan
aFnan
aFnan
aFnan
aFnan
aFnan
aFnan
aFnan
aFnan
aFnan
aFnan
aFnan
aFnan
aFnan
aFnan
aFnan
aFnan
aFnan
aFnan
aFnan
aFnan
aFnan
aFnan
asg153
g0
(g154
g2
Ntp621
Rp622
(dp623
g158
VExprR2 = roundValues(2**(Gene_R2 - Gene_I),5)
p624
sg159
g618
sg160
I01
sg161
I00
sg162
VroundValues(2**(Gene_R2 - Gene_I),5)
p625
sbsg163
g0
(g164
g165
(g166
g167
tp626
tp627
Rp628
sg171
VExprR2
p629
sbag0
(g91
g2
Ntp630
Rp631
(dp632
g95
I00
sg96
g4
sg97
(lp633
F1.802
aF0.354
aF1.803
aF1.741
aF2.828
aF1.625
aFnan
aFnan
aFnan
aFnan
aFnan
aFnan
aFnan
aFnan
aFnan
aFnan
aFnan
aFnan
aFnan
aFnan
aFnan
aFnan
aFnan
aFnan
aFnan
aFnan
aFnan
aFnan
aFnan
aFnan
aFnan
aFnan
aFnan
aFnan
aFnan
aFnan
aFnan
aFnan
aFnan
aFnan
aFnan
aFnan
aFnan
aFnan
aFnan
aFnan
aFnan
aFnan
aFnan
aFnan
aFnan
aFnan
aFnan
aFnan
asg153
g0
(g154
g2
Ntp634
Rp635
(dp636
g158
Vif run:\u000a  GeoMean = roundValues(np.sqrt(ExprR1*ExprR2), 3)\u000as.setColumnVisibility(['BioRuns', 'Gene_I', 'Gene_R1', 'Gene_R2', 'ExprR1', 'ExprR2', 'GeoMean'], is_visible=show_block2)
p637
sg159
g631
sg160
I00
sg161
I00
sg162
Vif run:\u000a  GeoMean = roundValues(np.sqrt(ExprR1*ExprR2), 3)\u000as.setColumnVisibility(['BioRuns', 'Gene_I', 'Gene_R1', 'Gene_R2', 'ExprR1', 'ExprR2', 'GeoMean'], is_visible=show_block2)
p638
sbsg163
g0
(g164
g165
(g166
g167
tp639
tp640
Rp641
sg171
VGeoMean
p642
sbasg171
VSingleGene
p643
sS'_columns'
p644
(lp645
g0
(g91
g2
Ntp646
Rp647
(dp648
g95
I01
sg96
g4
sg97
(lp649
S'1'
p650
aS'2'
p651
aS'3'
p652
aS'4'
p653
aS'5'
p654
aS'6'
p655
aS'7'
p656
aS'8'
p657
aS'9'
p658
aS'10'
p659
aS'11'
p660
aS'12'
p661
aS'13'
p662
aS'14'
p663
aS'15'
p664
aS'16'
p665
aS'17'
p666
aS'18'
p667
aS'19'
p668
aS'20'
p669
aS'21'
p670
aS'22'
p671
aS'23'
p672
aS'24'
p673
aS'25'
p674
aS'26'
p675
aS'27'
p676
aS'28'
p677
aS'29'
p678
aS'30'
p679
aS'31'
p680
aS'32'
p681
aS'33'
p682
aS'34'
p683
aS'35'
p684
aS'36'
p685
aS'37'
p686
aS'38'
p687
aS'39'
p688
aS'40'
p689
aS'41'
p690
aS'42'
p691
aS'43'
p692
aS'44'
p693
aS'45'
p694
aS'46'
p695
aS'47'
p696
aS'48'
p697
aS'49'
p698
aS'50'
p699
aS'51'
p700
aS'52'
p701
aS'53'
p702
aS'54'
p703
asg153
g0
(g154
g2
Ntp704
Rp705
(dp706
g158
Nsg159
g647
sg160
I00
sg161
I00
sg162
Nsbsg163
g0
(g164
g165
(g166
g167
tp707
tp708
Rp709
sg171
S'row'
p710
sbag0
(g91
g2
Ntp711
Rp712
(dp713
g95
I00
sg96
g4
sg97
(lp714
Vgene
p715
aVrun
p716
aVshow_raw
p717
aVshow_block1
p718
aVshow_block2
p719
aVshow_block3
p720
aVmax_std
p721
aVmin_eff
p722
aVnan
p723
aVnan
p724
aVnan
p725
aVnan
p726
aVnan
p727
aVnan
p728
aVnan
p729
aVnan
p730
aVnan
p731
aVnan
p732
aVnan
p733
aVnan
p734
aVnan
p735
aVnan
p736
aVnan
p737
aVnan
p738
aVnan
p739
aVnan
p740
aVnan
p741
aVnan
p742
aVnan
p743
aVnan
p744
aVnan
p745
aVnan
p746
aVnan
p747
aVnan
p748
aVnan
p749
aVnan
p750
aVnan
p751
aVnan
p752
aVnan
p753
aVnan
p754
aVnan
p755
aVnan
p756
aVnan
p757
aVnan
p758
aVnan
p759
aVnan
p760
aVnan
p761
aVnan
p762
aVnan
p763
aVnan
p764
aVnan
p765
aVnan
p766
aVnan
p767
aVnan
p768
asg153
g0
(g154
g2
Ntp769
Rp770
(dp771
g158
Nsg159
g712
sg160
I00
sg161
I00
sg162
Nsbsg163
g0
(g164
g165
(g166
g167
tp772
tp773
Rp774
sg171
VParmNames
p775
sbag0
(g91
g2
Ntp776
Rp777
(dp778
g95
I00
sg96
g4
sg97
(lp779
VGene2
p780
aVTrue
p781
aVFalse
p782
aVFalse
p783
aVFalse
p784
aVTrue
p785
aV0.5
p786
aV0.7
p787
aV
p788
ag788
aVnan
p789
aVnan
p790
aVnan
p791
aVnan
p792
aVnan
p793
aVnan
p794
aVnan
p795
aVnan
p796
aVnan
p797
aVnan
p798
aVnan
p799
aVnan
p800
aVnan
p801
aVnan
p802
aVnan
p803
aVnan
p804
aVnan
p805
aVnan
p806
aVnan
p807
aVnan
p808
aVnan
p809
aVnan
p810
aVnan
p811
aVnan
p812
aVnan
p813
aVnan
p814
aVnan
p815
aVnan
p816
aVnan
p817
aVnan
p818
aVnan
p819
aVnan
p820
aVnan
p821
aVnan
p822
aVnan
p823
aVnan
p824
aVnan
p825
aVnan
p826
aVnan
p827
aVnan
p828
aVnan
p829
aVnan
p830
aVnan
p831
aVnan
p832
asg153
g0
(g154
g2
Ntp833
Rp834
(dp835
g158
Vxlsx_path = '/mnt/hgfs/josephhellerstein/home/Technical/SciSheets/CaseStudies/Kristen/workbooks/data.xlsx'\u000as.setColumnVisibility()\u000agene = ParmValues[0]\u000arun = ParmValues[1] == 'True'\u000ashow_raw = ParmValues[2] == 'True'\u000ashow_block1 = ParmValues[3] == 'True'\u000ashow_block2 = ParmValues[4] == 'True'\u000ashow_block3 = ParmValues[5] == 'True'\u000amax_std  = float(ParmValues[6])\u000amin_eff = float(ParmValues[7])\u000aworksheet = gene + "-I"\u000aif False:\u000a  Groups = []\u000a  GroupedCt = []\u000a  GroupedEff = []\u000a  MeanCt = []\u000a  Imp = []\u000a  s.deleteColumn('Ct')\u000a  s.deleteColumn('RunType')\u000a  s.deleteColumn('BRpl')\u000a  s.deleteColumn('TRpl')\u000a  s.deleteColumn('Treatment')\u000a  s.deleteColumn('SmplName')\u000a  s.deleteColumn('Eff')\u000aif run:\u000a  importExcelToTable(s, xlsx_path, worksheet=worksheet)\u000as.setColumnVisibility(['SmplName'], False)\u000as.setColumnVisibility(['BRpl', 'Ct', 'Eff', 'RunType', 'TRpl', 'Treatment'], is_visible=show_raw)
p836
sg159
g777
sg160
I00
sg161
I00
sg162
Vxlsx_path = '/mnt/hgfs/josephhellerstein/home/Technical/SciSheets/CaseStudies/Kristen/workbooks/data.xlsx'\u000as.setColumnVisibility()\u000agene = ParmValues[0]\u000arun = ParmValues[1] == 'True'\u000ashow_raw = ParmValues[2] == 'True'\u000ashow_block1 = ParmValues[3] == 'True'\u000ashow_block2 = ParmValues[4] == 'True'\u000ashow_block3 = ParmValues[5] == 'True'\u000amax_std  = float(ParmValues[6])\u000amin_eff = float(ParmValues[7])\u000aworksheet = gene + "-I"\u000aif False:\u000a  Groups = []\u000a  GroupedCt = []\u000a  GroupedEff = []\u000a  MeanCt = []\u000a  Imp = []\u000a  s.deleteColumn('Ct')\u000a  s.deleteColumn('RunType')\u000a  s.deleteColumn('BRpl')\u000a  s.deleteColumn('TRpl')\u000a  s.deleteColumn('Treatment')\u000a  s.deleteColumn('SmplName')\u000a  s.deleteColumn('Eff')\u000aif run:\u000a  importExcelToTable(s, xlsx_path, worksheet=worksheet)\u000as.setColumnVisibility(['SmplName'], False)\u000as.setColumnVisibility(['BRpl', 'Ct', 'Eff', 'RunType', 'TRpl', 'Treatment'], is_visible=show_raw)
p837
sbsg163
g0
(g164
g165
(g166
g167
tp838
tp839
Rp840
sg171
VParmValues
p841
sbag262
ag410
ag439
ag468
ag499
ag512
ag523
ag578
ag589
ag597
ag605
ag618
ag631
ag0
(g91
g2
Ntp842
Rp843
(dp844
g95
I00
sg96
g4
sg97
(lp845
F0.0
aF1.0
aF2.0
aF3.0
aFnan
aFnan
aFnan
aFnan
aFnan
aFnan
aFnan
aFnan
aFnan
aFnan
aFnan
aFnan
aFnan
aFnan
aFnan
aFnan
aFnan
aFnan
aFnan
aFnan
aFnan
aFnan
aFnan
aFnan
aFnan
aFnan
aFnan
aFnan
aFnan
aFnan
aFnan
aFnan
aFnan
aFnan
aFnan
aFnan
aFnan
aFnan
aFnan
aFnan
aFnan
aFnan
aFnan
aFnan
aFnan
aFnan
aFnan
aFnan
aFnan
aFnan
asg153
g0
(g154
g2
Ntp846
Rp847
(dp848
g158
Vif run:\u000a  cat_vals = [br[0] for br in pruneNulls(BioRuns)]\u000a  clean_geo = [x for x in GeoMean if x is not None]\u000a  GeoGroups, groupedGeoMeans = groupBy(cat_vals, clean_geo)\u000a  GroupedGeoMeans = roundValues(groupedGeoMeans, 3)
p849
sg159
g843
sg160
I00
sg161
I00
sg162
Vif run:\u000a  cat_vals = [br[0] for br in pruneNulls(BioRuns)]\u000a  clean_geo = [x for x in GeoMean if x is not None]\u000a  GeoGroups, groupedGeoMeans = groupBy(cat_vals, clean_geo)\u000a  GroupedGeoMeans = roundValues(groupedGeoMeans, 3)
p850
sbsg163
g0
(g164
g165
(g166
g167
tp851
tp852
Rp853
sg171
VGeoGroups
p854
sbag0
(g91
g2
Ntp855
Rp856
(dp857
g95
I00
sg96
g4
sg97
(lp858
cnumpy.core.multiarray
_reconstruct
p859
(g166
(I0
tp860
S'b'
p861
tp862
Rp863
(I1
(I1
tp864
g266
(S'f8'
p865
I0
I1
tp866
Rp867
(I3
S'<'
p868
NNNI-1
I-1
I0
tp869
bI00
S'\xa2E\xb6\xf3\xfd\xd4\xfc?'
p870
tp871
bag859
(g166
(I0
tp872
g861
tp873
Rp874
(I1
(I3
tp875
g867
I00
S'\x0e-\xb2\x9d\xef\xa7\xd6?\x0c\x02+\x87\x16\xd9\xfc?B`\xe5\xd0"\xdb\xfb?'
p876
tp877
bag859
(g166
(I0
tp878
g861
tp879
Rp880
(I1
(I1
tp881
g867
I00
S'9\xb4\xc8v\xbe\x9f\x06@'
p882
tp883
bag859
(g166
(I0
tp884
g861
tp885
Rp886
(I1
(I1
tp887
g867
I00
S'\x00\x00\x00\x00\x00\x00\xfa?'
p888
tp889
baNaNaNaNaNaNaNaNaNaNaNaNaNaNaNaNaNaNaNaNaNaNaNaNaNaNaNaNaNaNaNaNaNaNaNaNaNaNaNaNaNaNaNaNaNaNaNaNaNaNasg153
g0
(g154
g2
Ntp890
Rp891
(dp892
g158
Nsg159
g856
sg160
I00
sg161
I00
sg162
Nsbsg163
g0
(g164
g165
(g166
g167
tp893
tp894
Rp895
sg171
VGroupedGeoMeans
p896
sbag0
(g91
g2
Ntp897
Rp898
(dp899
g95
I00
sg96
g4
sg97
(lp900
g859
(g166
(I0
tp901
g861
tp902
Rp903
(I1
(I1
tp904
g867
I00
S'\x00\x00\x00\x00\x00\x00\xf0?'
p905
tp906
bag859
(g166
(I0
tp907
g861
tp908
Rp909
(I1
(I3
tp910
g867
I00
S'J\x0c\x02+\x87\x16\xc9?j\xbct\x93\x18\x04\xf0?\xb6\xf3\xfd\xd4x\xe9\xee?'
p911
tp912
bag859
(g166
(I0
tp913
g861
tp914
Rp915
(I1
(I1
tp916
g867
I00
S'\xb4\xc8v\xbe\x9f\x1a\xf9?'
p917
tp918
bag859
(g166
(I0
tp919
g861
tp920
Rp921
(I1
(I1
tp922
g867
I00
S'w\xbe\x9f\x1a/\xdd\xec?'
p923
tp924
baNaNaNaNaNaNaNaNaNaNaNaNaNaNaNaNaNaNaNaNaNaNaNaNaNaNaNaNaNaNaNaNaNaNaNaNaNaNaNaNaNaNaNaNaNaNaNaNaNaNasg153
g0
(g154
g2
Ntp925
Rp926
(dp927
g158
Vif run:\u000a  ref = np.mean(GroupedGeoMeans[0])\u000a  NrmlGeoGroupedMeans = [ [x/ref for x in g] for g in GroupedGeoMeans if g is not None]  \u000a  NrmlGeoGroupedMeans = roundValues(NrmlGeoGroupedMeans, 3)
p928
sg159
g898
sg160
I00
sg161
I00
sg162
Vif run:\u000a  ref = np.mean(GroupedGeoMeans[0])\u000a  NrmlGeoGroupedMeans = [ [x/ref for x in g] for g in GroupedGeoMeans if g is not None]  \u000a  NrmlGeoGroupedMeans = roundValues(NrmlGeoGroupedMeans, 3)
p929
sbsg163
g0
(g164
g165
(g166
g167
tp930
tp931
Rp932
sg171
VNrmlGeoGroupedMeans
p933
sbag0
(g91
g2
Ntp934
Rp935
(dp936
g95
I00
sg96
g4
sg97
(lp937
F1.0
aF0.721
aF1.569
aF0.902
aFnan
aFnan
aFnan
aFnan
aFnan
aFnan
aFnan
aFnan
aFnan
aFnan
aFnan
aFnan
aFnan
aFnan
aFnan
aFnan
aFnan
aFnan
aFnan
aFnan
aFnan
aFnan
aFnan
aFnan
aFnan
aFnan
aFnan
aFnan
aFnan
aFnan
aFnan
aFnan
aFnan
aFnan
aFnan
aFnan
aFnan
aFnan
aFnan
aFnan
aFnan
aFnan
aFnan
aFnan
aFnan
aFnan
aFnan
aFnan
aFnan
aFnan
asg153
g0
(g154
g2
Ntp938
Rp939
(dp940
g158
Vif run:\u000a  MeanNrmlGeoGroups = [round(np.mean(g), 3) for g in NrmlGeoGroupedMeans]
p941
sg159
g935
sg160
I00
sg161
I00
sg162
Vif run:\u000a  MeanNrmlGeoGroups = [round(np.mean(g), 3) for g in NrmlGeoGroupedMeans]
p942
sbsg163
g0
(g164
g165
(g166
g167
tp943
tp944
Rp945
sg171
VMeanNrmlGeoGroups
p946
sbag0
(g91
g2
Ntp947
Rp948
(dp949
g95
I00
sg96
g4
sg97
(lp950
Fnan
aF0.455
aFnan
aFnan
aFnan
aFnan
aFnan
aFnan
aFnan
aFnan
aFnan
aFnan
aFnan
aFnan
aFnan
aFnan
aFnan
aFnan
aFnan
aFnan
aFnan
aFnan
aFnan
aFnan
aFnan
aFnan
aFnan
aFnan
aFnan
aFnan
aFnan
aFnan
aFnan
aFnan
aFnan
aFnan
aFnan
aFnan
aFnan
aFnan
aFnan
aFnan
aFnan
aFnan
aFnan
aFnan
aFnan
aFnan
aFnan
aFnan
aFnan
aFnan
aFnan
aFnan
asg153
g0
(g154
g2
Ntp951
Rp952
(dp953
g158
Vif run:\u000a  StdNrmlGeoGroups = [round(np.std(g, ddof=1), 3) for g in NrmlGeoGroupedMeans]\u000as.setColumnVisibility(['GeoGroups', 'GroupedGeoMeans', 'NrmlGeoGroupedMeans', 'MeanNrmlGeoGroups', 'StdNrmlGeoGroups'], is_visible=show_block3)\u000a#s.setColumnVisibility()
p954
sg159
g948
sg160
I00
sg161
I00
sg162
Vif run:\u000a  StdNrmlGeoGroups = [round(np.std(g, ddof=1), 3) for g in NrmlGeoGroupedMeans]\u000as.setColumnVisibility(['GeoGroups', 'GroupedGeoMeans', 'NrmlGeoGroupedMeans', 'MeanNrmlGeoGroups', 'StdNrmlGeoGroups'], is_visible=show_block3)\u000a#s.setColumnVisibility()
p955
sbsg163
g0
(g164
g165
(g166
g167
tp956
tp957
Rp958
sg171
VStdNrmlGeoGroups
p959
sbag174
ag182
ag190
ag198
ag93
ag243
ag254
asg84
V/home/ubuntu/SciSheets/mysite/user/guest/tables/kristen_single_gene.pcl
p960
sb.