ccopy_reg
_reconstructor
p0
(cscisheets.ui.dt_table
DTTable
p1
c__builtin__
object
p2
Ntp3
Rp4
(dp5
S'_versioned_file'
p6
g0
(cmysite.helpers.versioned_file
VersionedFile
p7
g2
Ntp8
Rp9
(dp10
S'_redo_stack'
p11
g0
(cmysite.helpers.file_stack
FileStack
p12
g2
Ntp13
Rp14
(dp15
S'_dirpath'
p16
S'/home/ubuntu/SciSheets/mysite/user/guest/tables/backup'
p17
sS'_max_depth'
p18
I5
sS'_filename_pfx'
p19
Vkristen_single_gene.r
p20
sbsS'_max_versions'
p21
I5
sS'_undo_stack'
p22
g0
(g12
g2
Ntp23
Rp24
(dp25
g16
g17
sg18
I5
sg19
Vkristen_single_gene.u
p26
sbsS'_checkpoint_history'
p27
(lp28
VCell/Update
p29
aVCell/Update
p30
aVCell/Update
p31
aVCell/Update
p32
aVCell/Update
p33
aVCell/Update
p34
aVCell/Update
p35
aVCell/Update
p36
aVCell/Update
p37
aVCell/Update
p38
aVCell/Update
p39
aVCell/Update
p40
aVColumn/Formula
p41
aVColumn/Formula
p42
aVColumn/Append
p43
aVColumn/Formula
p44
aVColumn/Delete
p45
aVCell/Update
p46
aVColumn/Formula
p47
aVCell/Update
p48
aVCell/Update
p49
aVColumn/Formula
p50
aVColumn/Formula
p51
aVCell/Update
p52
aVColumn/Formula
p53
aVColumn/Formula
p54
aVCell/Update
p55
aVCell/Update
p56
aVCell/Update
p57
aVCell/Update
p58
aVColumn/Formula
p59
aVCell/Update
p60
aVCell/Update
p61
aVCell/Update
p62
aVColumn/Formula
p63
aVCell/Update
p64
aVColumn/Formula
p65
aVColumn/Formula
p66
aVCell/Update
p67
aVCell/Update
p68
aVCell/Update
p69
aVCell/Update
p70
aVCell/Update
p71
aVCell/Update
p72
aVCell/Update
p73
aVCell/Update
p74
aVCell/Update
p75
aVColumn/Formula
p76
aVCell/Update
p77
aVCell/Update
p78
aVCell/Update
p79
aVCell/Update
p80
aVCell/Update
p81
aVCell/Update
p82
aVCell/Update
p83
aVCell/Update
p84
aVCell/Update
p85
aVCell/Update
p86
aVCell/Update
p87
aVCell/Update
p88
aVColumn/Formula
p89
aVColumn/Formula
p90
aVColumn/Formula
p91
aVCell/Update
p92
aVCell/Update
p93
aVCell/Update
p94
aVCell/Update
p95
aVCell/Update
p96
aVColumn/Formula
p97
aVCell/Update
p98
aVCell/Update
p99
aVCell/Update
p100
aVCell/Update
p101
aVCell/Update
p102
aVCell/Update
p103
aVCell/Update
p104
aVColumn/Formula
p105
aVColumn/Formula
p106
aVColumn/Formula
p107
aVCell/Update
p108
aVCell/Update
p109
aVColumn/Formula
p110
aVCell/Update
p111
aVCell/Update
p112
aVCell/Update
p113
aVCell/Update
p114
aVCell/Update
p115
aVCell/Update
p116
aVCell/Update
p117
aVCell/Update
p118
aVColumn/Formula
p119
aVCell/Update
p120
aVColumn/Formula
p121
aVColumn/Formula
p122
aVColumn/Formula
p123
aVCell/Update
p124
aVCell/Update
p125
aVColumn/Formula
p126
aVColumn/Formula
p127
aVColumn/Formula
p128
aVColumn/Formula
p129
aVCell/Update
p130
aVColumn/Formula
p131
aVColumn/Formula
p132
aVColumn/Formula
p133
aVCell/Update
p134
aVCell/Update
p135
aVCell/Update
p136
aVCell/Update
p137
aVCell/Update
p138
aVCell/Update
p139
aVCell/Update
p140
aVCell/Update
p141
aVCell/Update
p142
aVCell/Update
p143
aVColumn/Formula
p144
aVColumn/Formula
p145
aVColumn/Formula
p146
aVColumn/Formula
p147
aVCell/Update
p148
aVCell/Update
p149
aVColumn/Formula
p150
aVCell/Update
p151
aVCell/Update
p152
aVCell/Update
p153
aVCell/Update
p154
aVCell/Update
p155
aVCell/Update
p156
aVCell/Update
p157
aVCell/Update
p158
aVCell/Update
p159
aVCell/Update
p160
aVCell/Update
p161
aVCell/Update
p162
aVCell/Update
p163
aVColumn/Formula
p164
aVColumn/Formula
p165
aVCell/Update
p166
aVCell/Update
p167
aVCell/Update
p168
aVColumn/Formula
p169
aVCell/Update
p170
aVCell/Update
p171
aVCell/Update
p172
aVCell/Update
p173
aVColumn/Formula
p174
aVColumn/Formula
p175
aVColumn/Formula
p176
aVColumn/Formula
p177
aVCell/Update
p178
aVColumn/Formula
p179
aVCell/Update
p180
aVCell/Update
p181
aVCell/Update
p182
aVCell/Update
p183
aVCell/Update
p184
aVCell/Update
p185
aVCell/Update
p186
aVCell/Update
p187
aVCell/Update
p188
aVColumn/Formula
p189
aVCell/Update
p190
aVCell/Update
p191
aVCell/Update
p192
aVCell/Update
p193
aVCell/Update
p194
aVCell/Update
p195
aVCell/Update
p196
aVCell/Update
p197
aVCell/Update
p198
aVCell/Update
p199
aVCell/Update
p200
aVCell/Update
p201
aVCell/Update
p202
aVCell/Update
p203
aVCell/Update
p204
aVCell/Update
p205
aVCell/Update
p206
aVCell/Update
p207
aVCell/Update
p208
aVCell/Update
p209
aVCell/Update
p210
aVCell/Update
p211
aVCell/Update
p212
aVCell/Update
p213
aVCell/Update
p214
aVCell/Update
p215
aVCell/Update
p216
aVCell/Update
p217
aVCell/Update
p218
aVCell/Update
p219
aVCell/Update
p220
aVCell/Update
p221
aVCell/Update
p222
aVCell/Update
p223
aVCell/Update
p224
aVCell/Update
p225
aVCell/Update
p226
aVCell/Update
p227
aVCell/Update
p228
aVCell/Update
p229
aVCell/Update
p230
aVCell/Update
p231
aVCell/Update
p232
aVCell/Update
p233
aVCell/Update
p234
aVCell/Update
p235
aVCell/Update
p236
aVCell/Update
p237
aVCell/Update
p238
aVCell/Update
p239
aVCell/Update
p240
aVCell/Update
p241
aVCell/Update
p242
aVCell/Update
p243
aVCell/Update
p244
aVCell/Update
p245
aVCell/Update
p246
aVCell/Update
p247
aVCell/Update
p248
aVCell/Update
p249
aVCell/Update
p250
aVCell/Update
p251
aVCell/Update
p252
aVCell/Update
p253
aVCell/Update
p254
aVCell/Update
p255
aVCell/Update
p256
aVCell/Update
p257
aVCell/Update
p258
aVCell/Update
p259
aVCell/Update
p260
aVCell/Update
p261
aVCell/Update
p262
aVCell/Update
p263
aVCell/Update
p264
aVCell/Update
p265
aVCell/Update
p266
aVCell/Update
p267
aVCell/Update
p268
aVCell/Update
p269
aVCell/Update
p270
aVCell/Update
p271
aVColumn/Formula
p272
aVColumn/Formula
p273
aVCell/Update
p274
aVCell/Update
p275
aVCell/Update
p276
aVCell/Update
p277
aVColumn/Formula
p278
aVColumn/Formula
p279
aVColumn/Formula
p280
aVCell/Update
p281
aVCell/Update
p282
aVCell/Update
p283
aVCell/Update
p284
aVColumn/Formula
p285
aVColumn/Formula
p286
aVColumn/Formula
p287
aVCell/Update
p288
aVCell/Update
p289
aVColumn/Formula
p290
aVCell/Update
p291
aVCell/Update
p292
aVCell/Update
p293
aVCell/Update
p294
aVCell/Update
p295
aVCell/Update
p296
aVColumn/Formula
p297
aVCell/Update
p298
aVColumn/Formula
p299
aVCell/Update
p300
aVCell/Update
p301
aVColumn/Formula
p302
aVColumn/Formula
p303
aVCell/Update
p304
aVCell/Update
p305
aVCell/Update
p306
aVCell/Update
p307
aVColumn/Formula
p308
aVColumn/Formula
p309
aVColumn/Formula
p310
aVColumn/Formula
p311
aVColumn/Formula
p312
aVCell/Update
p313
aVCell/Update
p314
aVColumn/Formula
p315
aVCell/Update
p316
aVColumn/Formula
p317
aVColumn/Formula
p318
aVCell/Update
p319
aVCell/Update
p320
aVCell/Update
p321
aVColumn/Formula
p322
aVColumn/Formula
p323
aVColumn/Formula
p324
aVCell/Update
p325
aVColumn/Formula
p326
aVCell/Update
p327
aVColumn/Formula
p328
aVColumn/Formula
p329
aVColumn/Formula
p330
aVColumn/Formula
p331
aVColumn/Formula
p332
aVColumn/Formula
p333
aVCell/Update
p334
aVColumn/Formula
p335
aVCell/Update
p336
aVCell/Update
p337
aVCell/Update
p338
aVColumn/Formula
p339
aVColumn/Formula
p340
aVColumn/Formula
p341
aVColumn/Formula
p342
aVColumn/Formula
p343
aVCell/Update
p344
aVCell/Update
p345
aVCell/Update
p346
aVColumn/Formula
p347
aVCell/Update
p348
aVCell/Update
p349
aVColumn/Formula
p350
aVColumn/Formula
p351
aVColumn/Formula
p352
aVColumn/Formula
p353
aVColumn/Formula
p354
aVColumn/Formula
p355
aVCell/Update
p356
aVColumn/Formula
p357
aVColumn/Formula
p358
aVColumn/Formula
p359
aVCell/Update
p360
aVCell/Update
p361
aVCell/Update
p362
aVColumn/Formula
p363
aVColumn/Formula
p364
aVCell/Update
p365
aVColumn/Formula
p366
aVColumn/Formula
p367
aVColumn/Formula
p368
aVColumn/Formula
p369
aVColumn/Formula
p370
aVColumn/Formula
p371
aVCell/Update
p372
aVCell/Update
p373
aVColumn/Formula
p374
aVCell/Update
p375
aVColumn/Formula
p376
aVColumn/Formula
p377
aVCell/Update
p378
aVCell/Update
p379
aVCell/Update
p380
aVCell/Update
p381
aVCell/Update
p382
aVColumn/Formula
p383
aVCell/Update
p384
aVCell/Update
p385
aVColumn/Formula
p386
aVColumn/Formula
p387
aVCell/Update
p388
aVCell/Update
p389
aVColumn/Formula
p390
aVColumn/Formula
p391
aVCell/Update
p392
aVCell/Update
p393
aVCell/Update
p394
aVCell/Update
p395
aVCell/Update
p396
aVCell/Update
p397
aVColumn/Formula
p398
aVCell/Update
p399
aVColumn/Formula
p400
aVCell/Update
p401
aVCell/Update
p402
aVColumn/Formula
p403
aVCell/Update
p404
aVColumn/Formula
p405
aVCell/Update
p406
aVColumn/Formula
p407
aVColumn/Formula
p408
aVCell/Update
p409
aVCell/Update
p410
aVCell/Update
p411
aVColumn/Formula
p412
aVColumn/Formula
p413
aVColumn/Formula
p414
aVCell/Update
p415
aVCell/Update
p416
aVColumn/Formula
p417
aVCell/Update
p418
aVColumn/Formula
p419
aVCell/Update
p420
aVCell/Update
p421
aVCell/Update
p422
aVCell/Update
p423
aVCell/Update
p424
aVCell/Update
p425
aVCell/Update
p426
aVCell/Update
p427
aVCell/Update
p428
aVCell/Update
p429
aVCell/Update
p430
aVCell/Update
p431
aVCell/Update
p432
aVCell/Update
p433
aVCell/Update
p434
aVCell/Update
p435
aVCell/Update
p436
aVCell/Update
p437
aVCell/Update
p438
aVCell/Update
p439
aVCell/Update
p440
aVCell/Update
p441
aVCell/Update
p442
aVColumn/Formula
p443
aVCell/Update
p444
aVColumn/Formula
p445
aVCell/Update
p446
aVCell/Update
p447
aVCell/Update
p448
aVCell/Update
p449
aVCell/Update
p450
aVCell/Update
p451
aVCell/Update
p452
aVCell/Update
p453
aVCell/Update
p454
aVCell/Update
p455
aVCell/Update
p456
aVCell/Update
p457
aVCell/Update
p458
aVColumn/Formula
p459
aVCell/Update
p460
aVCell/Update
p461
aVCell/Update
p462
aVCell/Update
p463
aVColumn/Formula
p464
aVCell/Update
p465
aVCell/Update
p466
aVCell/Update
p467
aVCell/Update
p468
aVCell/Update
p469
aVCell/Update
p470
aVCell/Update
p471
aVColumn/Formula
p472
aVColumn/Formula
p473
aVCell/Update
p474
aVCell/Update
p475
aVColumn/Formula
p476
aVCell/Update
p477
aVCell/Update
p478
aVCell/Update
p479
aVCell/Update
p480
aVCell/Update
p481
aVCell/Update
p482
aVColumn/Formula
p483
aVColumn/Formula
p484
aVColumn/Formula
p485
aVColumn/Formula
p486
aVColumn/Formula
p487
aVColumn/Formula
p488
aVColumn/Formula
p489
aVCell/Update
p490
aVCell/Update
p491
aVCell/Update
p492
aVColumn/Formula
p493
aVColumn/Formula
p494
aVColumn/Formula
p495
aVCell/Update
p496
aVCell/Update
p497
aVCell/Update
p498
aVCell/Update
p499
aVCell/Update
p500
aVColumn/Formula
p501
aVCell/Update
p502
aVColumn/Formula
p503
aVCell/Update
p504
aVCell/Update
p505
aVCell/Update
p506
aVCell/Update
p507
aVCell/Update
p508
aVCell/Update
p509
aVCell/Update
p510
asS'_filepath'
p511
V/home/ubuntu/SciSheets/mysite/user/guest/tables/kristen_single_gene.pcl
p512
sS'_backup_dir'
p513
g17
sbsS'_namespace'
p514
(dp515
sS'_hidden_columns'
p516
(lp517
g0
(cscisheets.core.column
Column
p518
g2
Ntp519
Rp520
(dp521
S'_asis'
p522
I00
sS'_owning_table'
p523
g4
sS'_cells'
p524
(lp525
(lp526
cnumpy.core.multiarray
scalar
p527
(cnumpy
dtype
p528
(S'f8'
p529
I0
I1
tp530
Rp531
(I3
S'<'
p532
NNNI-1
I-1
I0
tp533
bS'\x00\x00\x00\x00\x00\x00\x00\x00'
p534
tp535
Rp536
aVI
p537
ag527
(g531
S'\x00\x00\x00\x00\x00\x00\xf0?'
p538
tp539
Rp540
aa(lp541
g527
(g531
S'\x00\x00\x00\x00\x00\x00\x00\x00'
p542
tp543
Rp544
aVR1
p545
ag527
(g531
S'\x00\x00\x00\x00\x00\x00\xf0?'
p546
tp547
Rp548
aa(lp549
g527
(g531
S'\x00\x00\x00\x00\x00\x00\x00\x00'
p550
tp551
Rp552
aVR2
p553
ag527
(g531
S'\x00\x00\x00\x00\x00\x00\xf0?'
p554
tp555
Rp556
aa(lp557
g527
(g531
S'\x00\x00\x00\x00\x00\x00\xf0?'
p558
tp559
Rp560
ag537
ag527
(g531
S'\x00\x00\x00\x00\x00\x00\xf0?'
p561
tp562
Rp563
aa(lp564
g527
(g531
S'\x00\x00\x00\x00\x00\x00\xf0?'
p565
tp566
Rp567
ag537
ag527
(g531
S'\x00\x00\x00\x00\x00\x00\x00@'
p568
tp569
Rp570
aa(lp571
g527
(g531
S'\x00\x00\x00\x00\x00\x00\xf0?'
p572
tp573
Rp574
ag537
ag527
(g531
S'\x00\x00\x00\x00\x00\x00\x08@'
p575
tp576
Rp577
aa(lp578
g527
(g531
S'\x00\x00\x00\x00\x00\x00\xf0?'
p579
tp580
Rp581
ag545
ag527
(g531
S'\x00\x00\x00\x00\x00\x00\xf0?'
p582
tp583
Rp584
aa(lp585
g527
(g531
S'\x00\x00\x00\x00\x00\x00\xf0?'
p586
tp587
Rp588
ag545
ag527
(g531
S'\x00\x00\x00\x00\x00\x00\x00@'
p589
tp590
Rp591
aa(lp592
g527
(g531
S'\x00\x00\x00\x00\x00\x00\xf0?'
p593
tp594
Rp595
ag545
ag527
(g531
S'\x00\x00\x00\x00\x00\x00\x08@'
p596
tp597
Rp598
aa(lp599
g527
(g531
S'\x00\x00\x00\x00\x00\x00\xf0?'
p600
tp601
Rp602
ag553
ag527
(g531
S'\x00\x00\x00\x00\x00\x00\xf0?'
p603
tp604
Rp605
aa(lp606
g527
(g531
S'\x00\x00\x00\x00\x00\x00\xf0?'
p607
tp608
Rp609
ag553
ag527
(g531
S'\x00\x00\x00\x00\x00\x00\x00@'
p610
tp611
Rp612
aa(lp613
g527
(g531
S'\x00\x00\x00\x00\x00\x00\xf0?'
p614
tp615
Rp616
ag553
ag527
(g531
S'\x00\x00\x00\x00\x00\x00\x08@'
p617
tp618
Rp619
aa(lp620
g527
(g531
S'\x00\x00\x00\x00\x00\x00\x00@'
p621
tp622
Rp623
ag537
ag527
(g531
S'\x00\x00\x00\x00\x00\x00\xf0?'
p624
tp625
Rp626
aa(lp627
g527
(g531
S'\x00\x00\x00\x00\x00\x00\x00@'
p628
tp629
Rp630
ag545
ag527
(g531
S'\x00\x00\x00\x00\x00\x00\xf0?'
p631
tp632
Rp633
aa(lp634
g527
(g531
S'\x00\x00\x00\x00\x00\x00\x00@'
p635
tp636
Rp637
ag553
ag527
(g531
S'\x00\x00\x00\x00\x00\x00\xf0?'
p638
tp639
Rp640
aa(lp641
g527
(g531
S'\x00\x00\x00\x00\x00\x00\x08@'
p642
tp643
Rp644
ag537
ag527
(g531
S'\x00\x00\x00\x00\x00\x00\xf0?'
p645
tp646
Rp647
aa(lp648
g527
(g531
S'\x00\x00\x00\x00\x00\x00\x08@'
p649
tp650
Rp651
ag545
ag527
(g531
S'\x00\x00\x00\x00\x00\x00\xf0?'
p652
tp653
Rp654
aa(lp655
g527
(g531
S'\x00\x00\x00\x00\x00\x00\x08@'
p656
tp657
Rp658
ag553
ag527
(g531
S'\x00\x00\x00\x00\x00\x00\xf0?'
p659
tp660
Rp661
aasS'_formula_statement'
p662
g0
(cscisheets.core.helpers.formula_statement
FormulaStatement
p663
g2
Ntp664
Rp665
(dp666
S'_statement'
p667
Vsel = [e > min_eff for e in Eff]\u000apairs = zip(range(len(sel)), sel)\u000apTreatment = [Treatment[i] for i,b in pairs if b]\u000apRunType = [RunType[i] for i,b in pairs if b]\u000apBRpl = [BRpl[i] for i,b in pairs if b]\u000agrouping_columns = [pTreatment, pRunType, pBRpl]\u000apCt = [Ct[i] for i,b in pairs if b]\u000apEff = [Eff[i] for i,b in pairs if b]\u000aGroups, groupedCt = groupBy(\u000a     grouping_columns, pCt)\u000aGroups, groupedEff = groupBy(\u000a     grouping_columns, pEff)\u000aGroups = [[g[0], g[1], g[2]] for g in Groups]\u000aGroupedCt = roundValues(groupedCt,2)\u000aGroupedEff = roundValues(groupedEff,2)
p668
sS'_name'
p669
VGroups
p670
sS'_isExpression'
p671
I00
sS'_isStatement'
p672
I00
sS'_formula'
p673
Vsel = [e > min_eff for e in Eff]\u000apairs = zip(range(len(sel)), sel)\u000apTreatment = [Treatment[i] for i,b in pairs if b]\u000apRunType = [RunType[i] for i,b in pairs if b]\u000apBRpl = [BRpl[i] for i,b in pairs if b]\u000agrouping_columns = [pTreatment, pRunType, pBRpl]\u000apCt = [Ct[i] for i,b in pairs if b]\u000apEff = [Eff[i] for i,b in pairs if b]\u000aGroups, groupedCt = groupBy(\u000a     grouping_columns, pCt)\u000aGroups, groupedEff = groupBy(\u000a     grouping_columns, pEff)\u000aGroups = [[g[0], g[1], g[2]] for g in Groups]\u000aGroupedCt = roundValues(groupedCt,2)\u000aGroupedEff = roundValues(groupedEff,2)
p674
sbsS'_data_class'
p675
g0
(cscisheets.core.helpers.api_util
DataClass
p676
c__builtin__
tuple
p677
(cnumpy
ndarray
p678
cscisheets.core.helpers.api_util
makeArray
p679
tp680
tp681
Rp682
sg669
g670
sbag0
(g518
g2
Ntp683
Rp684
(dp685
g522
I00
sg523
g4
sg524
(lp686
(lp687
F0.92
aF0.91
aF0.91
aa(lp688
F0.83
aF0.83
aF0.85
aa(lp689
F0.82
aF0.85
aF0.82
aa(lp690
F0.85
aF0.84
aF0.85
aa(lp691
F0.87
aF0.78
aF0.85
aa(lp692
F0.84
aF0.84
aF0.77
aa(lp693
F0.92
aF0.98
aF0.9
aa(lp694
F0.9
aF0.83
aF0.84
aa(lp695
F0.87
aF0.85
aF0.83
aa(lp696
F0.79
aF0.84
aF0.86
aa(lp697
F0.83
aF0.82
aF0.83
aa(lp698
F0.81
aF0.82
aF0.8
aa(lp699
F0.84
aF0.79
aF0.81
aa(lp700
F0.77
aF0.87
aF0.81
aa(lp701
F0.78
aF0.77
aF0.79
aa(lp702
F0.88
aF0.86
aF0.89
aa(lp703
F0.87
aF0.9
aF0.86
aa(lp704
F0.82
aF0.82
aF0.79
aasg662
g0
(g663
g2
Ntp705
Rp706
(dp707
g667
NsS'_column'
p708
g684
sg671
I00
sg672
I00
sg673
Nsbsg675
g0
(g676
g677
(g678
g679
tp709
tp710
Rp711
sg669
VGroupedEff
p712
sbag0
(g518
g2
Ntp713
Rp714
(dp715
g522
I00
sg523
g4
sg524
(lp716
(lp717
F18.31
aF18.29
aF18.15
aa(lp718
F18.24
aF18.22
aF18.36
aa(lp719
F19.72
aF19.75
aF20.01
aa(lp720
F22.42
aF22.5
aF22.44
aa(lp721
F21.92
aF22.03
aF21.94
aa(lp722
F23.4
aF23.47
aF23.41
aa(lp723
F19.92
aF19.85
aF20.0
aa(lp724
F21.86
aF22.09
aF21.84
aa(lp725
F23.89
aF23.54
aF24.27
aa(lp726
F22.18
aF21.71
aF21.75
aa(lp727
F23.88
aF23.42
aF23.63
aa(lp728
F24.59
aF24.61
aF24.34
aa(lp729
F23.48
aF23.31
aF23.45
aa(lp730
F23.22
aF23.8
aF23.49
aa(lp731
F26.37
aF26.36
aF26.17
aa(lp732
F18.82
aF18.97
aF18.92
aa(lp733
F18.91
aF18.78
aF18.8
aa(lp734
F20.5
aF20.47
aF20.28
aasg662
g0
(g663
g2
Ntp735
Rp736
(dp737
g667
Nsg708
g714
sg671
I00
sg672
I00
sg673
Nsbsg675
g0
(g676
g677
(g678
g679
tp738
tp739
Rp740
sg669
VGroupedCt
p741
sbag0
(g518
g2
Ntp742
Rp743
(dp744
g522
I00
sg523
g4
sg524
(lp745
(lp746
F18.3
aF18.3
aF18.1
aa(lp747
F18.2
aF18.2
aF18.4
aa(lp748
F19.7
aF19.8
aF20.0
aa(lp749
F22.4
aF22.5
aF22.4
aa(lp750
F21.9
aF22.0
aF21.9
aa(lp751
F23.4
aF23.5
aF23.4
aa(lp752
F19.9
aF19.9
aF20.0
aa(lp753
F21.9
aF22.1
aF21.8
aa(lp754
F23.9
aF23.5
aF24.3
aa(lp755
F22.2
aF21.7
aF21.8
aa(lp756
F23.9
aF23.4
aF23.6
aa(lp757
F24.6
aF24.6
aF24.3
aa(lp758
F23.5
aF23.3
aF23.4
aa(lp759
F23.2
aF23.8
aF23.5
aa(lp760
F26.4
aF26.4
aF26.2
aa(lp761
F18.8
aF19.0
aF18.9
aa(lp762
F18.9
aF18.8
aF18.8
aa(lp763
F20.5
aF20.5
aF20.3
aasg662
g0
(g663
g2
Ntp764
Rp765
(dp766
g667
Vlength = len(Groups)\u000aStdFilteredGroupedCt = roundValues([filterExtremes(g, max_std, 2) for g in pruneNulls(GroupedCt)])\u000a 
p767
sg669
VStdFilteredGroupedCt
p768
sg671
I00
sg672
I00
sg673
Vlength = len(Groups)\u000aStdFilteredGroupedCt = roundValues([filterExtremes(g, max_std, 2) for g in pruneNulls(GroupedCt)])\u000a 
p769
sbsg675
g0
(g676
g677
(g678
g679
tp770
tp771
Rp772
sg669
g768
sbag0
(g518
g2
Ntp773
Rp774
(dp775
g522
I00
sg523
g4
sg524
(lp776
F18.2
aF18.3
aF19.8
aF22.4
aF21.9
aF23.4
aF19.9
aF21.9
aF23.9
aF21.9
aF23.6
aF24.5
aF23.4
aF23.5
aF26.3
aF18.9
aF18.8
aF20.4
aFnan
aFnan
aFnan
aFnan
aFnan
aFnan
aFnan
aFnan
aFnan
aFnan
aFnan
aFnan
aFnan
aFnan
aFnan
aFnan
aFnan
aFnan
aFnan
aFnan
aFnan
aFnan
aFnan
aFnan
aFnan
aFnan
aFnan
aFnan
aFnan
aFnan
aFnan
aFnan
aFnan
aFnan
aFnan
aFnan
aFnan
aFnan
aFnan
aFnan
aFnan
aFnan
aFnan
aFnan
aFnan
aFnan
asg662
g0
(g663
g2
Ntp777
Rp778
(dp779
g667
VMeanCt = [np.mean(g) for g in StdFilteredGroupedCt]\u000aMeanCt = roundValues(MeanCt,1)\u000aStdCt = [np.std(g, ddof=1) if len(g) > 2 else 0 for g in StdFilteredGroupedCt]\u000aStdCt = roundValues(StdCt,3)
p780
sg669
VMeanCt
p781
sg671
I00
sg672
I00
sg673
VMeanCt = [np.mean(g) for g in StdFilteredGroupedCt]\u000aMeanCt = roundValues(MeanCt,1)\u000aStdCt = [np.std(g, ddof=1) if len(g) > 2 else 0 for g in StdFilteredGroupedCt]\u000aStdCt = roundValues(StdCt,3)
p782
sbsg675
g0
(g676
g677
(g678
g679
tp783
tp784
Rp785
sg669
g781
sbag0
(g518
g2
Ntp786
Rp787
(dp788
g522
I00
sg523
g4
sg524
(lp789
F0.115
aF0.115
aF0.153
aF0.058
aF0.058
aF0.058
aF0.058
aF0.153
aF0.4
aF0.265
aF0.252
aF0.173
aF0.1
aF0.3
aF0.115
aF0.1
aF0.058
aF0.115
asg662
g0
(g663
g2
Ntp790
Rp791
(dp792
g667
Nsg708
g787
sg671
I00
sg672
I00
sg673
Nsbsg675
g0
(g676
g677
(g678
g679
tp793
tp794
Rp795
sg669
VStdCt
p796
sbag0
(g518
g2
Ntp797
Rp798
(dp799
g522
I00
sg523
g4
sg524
(lp800
(lp801
g527
(g528
(S'i8'
p802
I0
I1
tp803
Rp804
(I3
S'<'
p805
NNNI-1
I-1
I0
tp806
bS'\x00\x00\x00\x00\x00\x00\x00\x00'
p807
tp808
Rp809
ag527
(g804
S'\x01\x00\x00\x00\x00\x00\x00\x00'
p810
tp811
Rp812
aa(lp813
g527
(g804
S'\x01\x00\x00\x00\x00\x00\x00\x00'
p814
tp815
Rp816
ag527
(g804
S'\x01\x00\x00\x00\x00\x00\x00\x00'
p817
tp818
Rp819
aa(lp820
g527
(g804
S'\x01\x00\x00\x00\x00\x00\x00\x00'
p821
tp822
Rp823
ag527
(g804
S'\x02\x00\x00\x00\x00\x00\x00\x00'
p824
tp825
Rp826
aa(lp827
g527
(g804
S'\x01\x00\x00\x00\x00\x00\x00\x00'
p828
tp829
Rp830
ag527
(g804
S'\x03\x00\x00\x00\x00\x00\x00\x00'
p831
tp832
Rp833
aa(lp834
g527
(g804
S'\x02\x00\x00\x00\x00\x00\x00\x00'
p835
tp836
Rp837
ag527
(g804
S'\x01\x00\x00\x00\x00\x00\x00\x00'
p838
tp839
Rp840
aa(lp841
g527
(g804
S'\x03\x00\x00\x00\x00\x00\x00\x00'
p842
tp843
Rp844
ag527
(g804
S'\x01\x00\x00\x00\x00\x00\x00\x00'
p845
tp846
Rp847
aa(lp848
g527
(g804
S'\x04\x00\x00\x00\x00\x00\x00\x00'
p849
tp850
Rp851
ag527
(g804
S'\x01\x00\x00\x00\x00\x00\x00\x00'
p852
tp853
Rp854
aaNaNaNaNaNaNaNaNaNaNaNaNaNaNaNaNaNaNaNaNaNaNaNaNaNaNaNaNaNaNaNaNaNaNaNaNaNaNaNaNaNaNaNaNaNaNaNaNaNaNaNaNaNaNaNaNaNasg662
g0
(g663
g2
Ntp855
Rp856
(dp857
g667
Vdummy = tabularize(s, 'Groups', 1, 'MeanCt', \u000a          new_category_colnm='BioRuns',\u000a          values_colnm_prefix='Gene_')
p858
sg669
VBioRuns
p859
sg671
I00
sg672
I00
sg673
Vdummy = tabularize(s, 'Groups', 1, 'MeanCt', \u000a          new_category_colnm='BioRuns',\u000a          values_colnm_prefix='Gene_')
p860
sbsg675
g0
(g676
g677
(g678
g679
tp861
tp862
Rp863
sg669
g859
sbag0
(g518
g2
Ntp864
Rp865
(dp866
g522
I00
sg523
g4
sg524
(lp867
F18.2
aF22.4
aF21.9
aF23.4
aF23.4
aF18.9
aFnan
aFnan
aFnan
aFnan
aFnan
aFnan
aFnan
aFnan
aFnan
aFnan
aFnan
aFnan
aFnan
aFnan
aFnan
aFnan
aFnan
aFnan
aFnan
aFnan
aFnan
aFnan
aFnan
aFnan
aFnan
aFnan
aFnan
aFnan
aFnan
aFnan
aFnan
aFnan
aFnan
aFnan
aFnan
aFnan
aFnan
aFnan
aFnan
aFnan
aFnan
aFnan
aFnan
aFnan
aFnan
aFnan
aFnan
aFnan
aFnan
aFnan
aFnan
aFnan
aFnan
aFnan
aFnan
aFnan
aFnan
aFnan
asg662
g0
(g663
g2
Ntp868
Rp869
(dp870
g667
Nsg708
g865
sg671
I00
sg672
I00
sg673
Nsbsg675
g0
(g676
g677
(g678
g679
tp871
tp872
Rp873
sg669
S'Gene_I'
p874
sbag0
(g518
g2
Ntp875
Rp876
(dp877
g522
I00
sg523
g4
sg524
(lp878
F18.3
aF19.9
aF21.9
aF23.9
aF23.5
aF18.8
aFnan
aFnan
aFnan
aFnan
aFnan
aFnan
aFnan
aFnan
aFnan
aFnan
aFnan
aFnan
aFnan
aFnan
aFnan
aFnan
aFnan
aFnan
aFnan
aFnan
aFnan
aFnan
aFnan
aFnan
aFnan
aFnan
aFnan
aFnan
aFnan
aFnan
aFnan
aFnan
aFnan
aFnan
aFnan
aFnan
aFnan
aFnan
aFnan
aFnan
aFnan
aFnan
aFnan
aFnan
aFnan
aFnan
aFnan
aFnan
aFnan
aFnan
aFnan
aFnan
aFnan
aFnan
aFnan
aFnan
aFnan
aFnan
asg662
g0
(g663
g2
Ntp879
Rp880
(dp881
g667
Nsg708
g876
sg671
I00
sg672
I00
sg673
Nsbsg675
g873
sg669
S'Gene_R1'
p882
sbag0
(g518
g2
Ntp883
Rp884
(dp885
g522
I00
sg523
g4
sg524
(lp886
F19.8
aF21.9
aF23.6
aF24.5
aF26.3
aF20.4
aFnan
aFnan
aFnan
aFnan
aFnan
aFnan
aFnan
aFnan
aFnan
aFnan
aFnan
aFnan
aFnan
aFnan
aFnan
aFnan
aFnan
aFnan
aFnan
aFnan
aFnan
aFnan
aFnan
aFnan
aFnan
aFnan
aFnan
aFnan
aFnan
aFnan
aFnan
aFnan
aFnan
aFnan
aFnan
aFnan
aFnan
aFnan
aFnan
aFnan
aFnan
aFnan
aFnan
aFnan
aFnan
aFnan
aFnan
aFnan
aFnan
aFnan
aFnan
aFnan
aFnan
aFnan
aFnan
aFnan
aFnan
aFnan
asg662
g0
(g663
g2
Ntp887
Rp888
(dp889
g667
Nsg708
g884
sg671
I00
sg672
I00
sg673
Nsbsg675
g873
sg669
S'Gene_R2'
p890
sbag0
(g518
g2
Ntp891
Rp892
(dp893
g522
I00
sg523
g4
sg524
(lp894
F1.07177
aF0.17678
aF1.0
aF1.41421
aF1.07177
aF0.93303
aFnan
aFnan
aFnan
aFnan
aFnan
aFnan
aFnan
aFnan
aFnan
aFnan
aFnan
aFnan
aFnan
aFnan
aFnan
aFnan
aFnan
aFnan
aFnan
aFnan
aFnan
aFnan
aFnan
aFnan
aFnan
aFnan
aFnan
aFnan
aFnan
aFnan
aFnan
aFnan
aFnan
aFnan
aFnan
aFnan
aFnan
aFnan
aFnan
aFnan
aFnan
aFnan
aFnan
aFnan
aFnan
aFnan
aFnan
aFnan
aFnan
aFnan
aFnan
aFnan
aFnan
aFnan
aFnan
aFnan
aFnan
aFnan
asg662
g0
(g663
g2
Ntp895
Rp896
(dp897
g667
VExprR1 = roundValues(2**(Gene_R1 - Gene_I),5)
p898
sg669
VExprR1
p899
sg671
I01
sg672
I00
sg673
VroundValues(2**(Gene_R1 - Gene_I),5)
p900
sbsg675
g0
(g676
g677
(g678
g679
tp901
tp902
Rp903
sg669
g899
sbag0
(g518
g2
Ntp904
Rp905
(dp906
g522
I00
sg523
g4
sg524
(lp907
F3.03143
aF0.70711
aF3.24901
aF2.14355
aF7.46426
aF2.82843
aFnan
aFnan
aFnan
aFnan
aFnan
aFnan
aFnan
aFnan
aFnan
aFnan
aFnan
aFnan
aFnan
aFnan
aFnan
aFnan
aFnan
aFnan
aFnan
aFnan
aFnan
aFnan
aFnan
aFnan
aFnan
aFnan
aFnan
aFnan
aFnan
aFnan
aFnan
aFnan
aFnan
aFnan
aFnan
aFnan
aFnan
aFnan
aFnan
aFnan
aFnan
aFnan
aFnan
aFnan
aFnan
aFnan
aFnan
aFnan
aFnan
aFnan
aFnan
aFnan
aFnan
aFnan
aFnan
aFnan
aFnan
aFnan
asg662
g0
(g663
g2
Ntp908
Rp909
(dp910
g667
VExprR2 = roundValues(2**(Gene_R2 - Gene_I),5)
p911
sg669
VExprR2
p912
sg671
I01
sg672
I00
sg673
VroundValues(2**(Gene_R2 - Gene_I),5)
p913
sbsg675
g0
(g676
g677
(g678
g679
tp914
tp915
Rp916
sg669
g912
sbag0
(g518
g2
Ntp917
Rp918
(dp919
g522
I00
sg523
g4
sg524
(lp920
F1.802
aF0.354
aF1.803
aF1.741
aF2.828
aF1.625
aFnan
aFnan
aFnan
aFnan
aFnan
aFnan
aFnan
aFnan
aFnan
aFnan
aFnan
aFnan
aFnan
aFnan
aFnan
aFnan
aFnan
aFnan
aFnan
aFnan
aFnan
aFnan
aFnan
aFnan
aFnan
aFnan
aFnan
aFnan
aFnan
aFnan
aFnan
aFnan
aFnan
aFnan
aFnan
aFnan
aFnan
aFnan
aFnan
aFnan
aFnan
aFnan
aFnan
aFnan
aFnan
aFnan
aFnan
aFnan
aFnan
aFnan
aFnan
aFnan
aFnan
aFnan
aFnan
aFnan
aFnan
aFnan
asg662
g0
(g663
g2
Ntp921
Rp922
(dp923
g667
VGeoMean = roundValues(np.sqrt(ExprR1*ExprR2), 3)
p924
sg669
VGeoMean
p925
sg671
I01
sg672
I00
sg673
VroundValues(np.sqrt(ExprR1*ExprR2), 3)
p926
sbsg675
g0
(g676
g677
(g678
g679
tp927
tp928
Rp929
sg669
g925
sbag0
(g518
g2
Ntp930
Rp931
(dp932
g522
I00
sg523
g4
sg524
(lp933
F1.0
aF1.0
aF1.0
aF1.0
aF1.0
aF1.0
aF1.0
aF1.0
aF1.0
aF1.0
aF1.0
aF1.0
aF2.0
aF2.0
aF2.0
aF3.0
aF3.0
aF3.0
aF1.0
aF1.0
aF1.0
aF2.0
aF2.0
aF2.0
aF3.0
aF3.0
aF3.0
aF1.0
aF1.0
aF1.0
aF2.0
aF2.0
aF2.0
aF3.0
aF3.0
aF3.0
aF1.0
aF1.0
aF1.0
aF1.0
aF1.0
aF1.0
aF1.0
aF1.0
aF1.0
aF1.0
aF1.0
aF1.0
aF1.0
aF1.0
aF1.0
aF1.0
aF1.0
aF1.0
aFnan
aFnan
aFnan
aFnan
aFnan
aFnan
aFnan
aFnan
aFnan
aFnan
asg662
g0
(g663
g2
Ntp934
Rp935
(dp936
g667
Nsg669
S'BRpl'
p937
sg671
I00
sg672
I00
sg673
Nsbsg675
g0
(g676
g677
(cscisheets.core.helpers.extended_array
ExtendedArray
p938
g679
tp939
tp940
Rp941
sg669
g937
sbag0
(g518
g2
Ntp942
Rp943
(dp944
g522
I00
sg523
g4
sg524
(lp945
F18.31
aF18.29
aF18.15
aF18.24
aF18.22
aF18.36
aF19.72
aF19.75
aF20.01
aF22.42
aF22.5
aF22.44
aF21.92
aF22.03
aF21.94
aF23.4
aF23.47
aF23.41
aF19.92
aF19.85
aF20.0
aF21.86
aF22.09
aF21.84
aF23.89
aF23.54
aF24.27
aF22.18
aF21.71
aF21.75
aF23.88
aF23.42
aF23.63
aF24.59
aF24.61
aF24.34
aF23.48
aF23.31
aF23.45
aF23.22
aF23.8
aF23.49
aF26.37
aF26.36
aF26.17
aF18.82
aF18.97
aF18.92
aF18.91
aF18.78
aF18.8
aF20.5
aF20.47
aF20.28
aFnan
aFnan
aFnan
aFnan
aFnan
aFnan
aFnan
aFnan
aFnan
aFnan
asg662
g0
(g663
g2
Ntp946
Rp947
(dp948
g667
Nsg669
S'Ct'
p949
sg671
I00
sg672
I00
sg673
Nsbsg675
g941
sg669
g949
sbag0
(g518
g2
Ntp950
Rp951
(dp952
g522
I00
sg523
g4
sg524
(lp953
F0.919
aF0.9106
aF0.9129
aF0.8266
aF0.8343
aF0.8496
aF0.8157
aF0.8543
aF0.8208
aF0.8453
aF0.8426
aF0.8524
aF0.8658
aF0.7809
aF0.8512
aF0.8442
aF0.8357
aF0.7658
aF0.9179
aF0.9783
aF0.8971
aF0.8957
aF0.8287
aF0.8387
aF0.8746
aF0.8493
aF0.8349
aF0.7857
aF0.8427
aF0.8637
aF0.8281
aF0.8203
aF0.8288
aF0.8138
aF0.8242
aF0.804
aF0.8352
aF0.7886
aF0.8105
aF0.7701
aF0.8746
aF0.8139
aF0.7795
aF0.7676
aF0.7947
aF0.876
aF0.8597
aF0.8873
aF0.8715
aF0.8977
aF0.856
aF0.8179
aF0.8173
aF0.7894
aFnan
aFnan
aFnan
aFnan
aFnan
aFnan
aFnan
aFnan
aFnan
aFnan
asg662
g0
(g663
g2
Ntp954
Rp955
(dp956
g667
Nsg669
S'Eff'
p957
sg671
I00
sg672
I00
sg673
Nsbsg675
g941
sg669
g957
sbag0
(g518
g2
Ntp958
Rp959
(dp960
g522
I00
sg523
g4
sg524
(lp961
g537
ag537
ag537
ag545
ag545
ag545
ag553
ag553
ag553
ag537
ag537
ag537
ag537
ag537
ag537
ag537
ag537
ag537
ag545
ag545
ag545
ag545
ag545
ag545
ag545
ag545
ag545
ag553
ag553
ag553
ag553
ag553
ag553
ag553
ag553
ag553
ag537
ag537
ag537
ag545
ag545
ag545
ag553
ag553
ag553
ag537
ag537
ag537
ag545
ag545
ag545
ag553
ag553
ag553
aNaNaNaNaNaNaNaNaNaNasg662
g0
(g663
g2
Ntp962
Rp963
(dp964
g667
Nsg669
S'RunType'
p965
sg671
I00
sg672
I00
sg673
Nsbsg675
g941
sg669
g965
sbag0
(g518
g2
Ntp966
Rp967
(dp968
g522
I00
sg523
g4
sg524
(lp969
Va
p970
aVb
p971
aVc
p972
ag970
ag971
ag972
ag970
ag971
ag972
ag970
ag971
ag972
ag970
ag971
ag972
ag970
ag971
ag972
ag970
ag971
ag972
ag970
ag971
ag972
ag970
ag971
ag972
ag970
ag971
ag972
ag970
ag971
ag972
ag970
ag971
ag972
ag970
ag971
ag972
ag970
ag971
ag972
ag970
ag971
ag972
ag970
ag971
ag972
ag970
ag971
ag972
ag970
ag971
ag972
aNaNaNaNaNaNaNaNaNaNasg662
g0
(g663
g2
Ntp973
Rp974
(dp975
g667
Nsg669
S'TRpl'
p976
sg671
I00
sg672
I00
sg673
Nsbsg675
g941
sg669
g976
sbag0
(g518
g2
Ntp977
Rp978
(dp979
g522
I00
sg523
g4
sg524
(lp980
F0.0
aF0.0
aF0.0
aF0.0
aF0.0
aF0.0
aF0.0
aF0.0
aF0.0
aF1.0
aF1.0
aF1.0
aF1.0
aF1.0
aF1.0
aF1.0
aF1.0
aF1.0
aF1.0
aF1.0
aF1.0
aF1.0
aF1.0
aF1.0
aF1.0
aF1.0
aF1.0
aF1.0
aF1.0
aF1.0
aF1.0
aF1.0
aF1.0
aF1.0
aF1.0
aF1.0
aF2.0
aF2.0
aF2.0
aF2.0
aF2.0
aF2.0
aF2.0
aF2.0
aF2.0
aF3.0
aF3.0
aF3.0
aF3.0
aF3.0
aF3.0
aF3.0
aF3.0
aF3.0
aFnan
aFnan
aFnan
aFnan
aFnan
aFnan
aFnan
aFnan
aFnan
aFnan
asg662
g0
(g663
g2
Ntp981
Rp982
(dp983
g667
Nsg669
S'Treatment'
p984
sg671
I00
sg672
I00
sg673
Nsbsg675
g941
sg669
g984
sbasS'_is_evaluate_formulas'
p985
I01
sS'_prologue'
p986
g0
(g663
g2
Ntp987
Rp988
(dp989
g667
V# Prologue\u000aimport math as mt\u000aimport numpy as np\u000afrom os import listdir\u000afrom os.path import isfile, join\u000aimport pandas as pd\u000aimport scipy as sp\u000afrom numpy import nan  # Must follow sympy import \u000a\u000axlsx_path =   '/mnt/hgfs/josephhellerstein/home/Technical/SciSheets/CaseStudies/Kristen/workbooks/data.xlsx'\u000agene = ParmValues[0]\u000arun = ParmValues[1] == 'True'\u000ashow_raw = ParmValues[2] == 'True'\u000ashow_block1 = ParmValues[3] == 'True'\u000ashow_block2 = ParmValues[4] == 'True'\u000ashow_block3 = ParmValues[5] == 'True'\u000ashow_params = ParmValues[8] == 'True'\u000a#show_params = True\u000amax_std  = float(ParmValues[6])\u000amin_eff = float(ParmValues[7])\u000aworksheet = gene + "-I"\u000as.getTable().setIsEvaluateFormulas(run)\u000as.setColumnVisibility()\u000as.setColumnVisibility(['Groups', 'GroupedEff', 'GroupedCt', 'StdFilteredGroupedCt', 'MeanCt',\u000a    'StdCt'], is_visible=show_block1)\u000as.setColumnVisibility(['BioRuns', 'Gene_I', 'Gene_R1', 'Gene_R2', 'ExprR1', 'ExprR2', \u000a    'GeoMean'], is_visible=show_block2)\u000as.setColumnVisibility(['GeoGroups', 'GroupedGeoMeans', 'NrmlGeoGroupedMeans', \u000a    'MeanNrmlGeoGroups', 'StdNrmlGeoGroups'], is_visible=show_block3)\u000aif run:\u000a  Groups = []\u000a  GroupedCt = []\u000a  GroupedEff = []\u000a  MeanCt = []\u000a  Imp = []\u000a  s.deleteColumn('Ct')\u000a  s.deleteColumn('RunType')\u000a  s.deleteColumn('BRpl')\u000a  s.deleteColumn('TRpl')\u000a  s.deleteColumn('Treatment')\u000a  s.deleteColumn('Eff')\u000aif run:\u000a  importExcelToTable(s, xlsx_path, worksheet=worksheet,\u000a      column_position='ParmValues',\u000a      names=['Treatment', 'RunType', 'BRpl', 'TRpl', 'Eff', 'Ct'])\u000as.setColumnVisibility(['BRpl', 'Ct', 'Eff', 'RunType', 'TRpl', 'Treatment'], is_visible=show_raw)\u000as.setColumnVisibility(['ParmNames', 'ParmValues'], show_params)
p990
sg669
VSingleGene
p991
sg671
I00
sg672
I00
sg673
V# Prologue\u000aimport math as mt\u000aimport numpy as np\u000afrom os import listdir\u000afrom os.path import isfile, join\u000aimport pandas as pd\u000aimport scipy as sp\u000afrom numpy import nan  # Must follow sympy import \u000a\u000axlsx_path =   '/mnt/hgfs/josephhellerstein/home/Technical/SciSheets/CaseStudies/Kristen/workbooks/data.xlsx'\u000agene = ParmValues[0]\u000arun = ParmValues[1] == 'True'\u000ashow_raw = ParmValues[2] == 'True'\u000ashow_block1 = ParmValues[3] == 'True'\u000ashow_block2 = ParmValues[4] == 'True'\u000ashow_block3 = ParmValues[5] == 'True'\u000ashow_params = ParmValues[8] == 'True'\u000a#show_params = True\u000amax_std  = float(ParmValues[6])\u000amin_eff = float(ParmValues[7])\u000aworksheet = gene + "-I"\u000as.getTable().setIsEvaluateFormulas(run)\u000as.setColumnVisibility()\u000as.setColumnVisibility(['Groups', 'GroupedEff', 'GroupedCt', 'StdFilteredGroupedCt', 'MeanCt',\u000a    'StdCt'], is_visible=show_block1)\u000as.setColumnVisibility(['BioRuns', 'Gene_I', 'Gene_R1', 'Gene_R2', 'ExprR1', 'ExprR2', \u000a    'GeoMean'], is_visible=show_block2)\u000as.setColumnVisibility(['GeoGroups', 'GroupedGeoMeans', 'NrmlGeoGroupedMeans', \u000a    'MeanNrmlGeoGroups', 'StdNrmlGeoGroups'], is_visible=show_block3)\u000aif run:\u000a  Groups = []\u000a  GroupedCt = []\u000a  GroupedEff = []\u000a  MeanCt = []\u000a  Imp = []\u000a  s.deleteColumn('Ct')\u000a  s.deleteColumn('RunType')\u000a  s.deleteColumn('BRpl')\u000a  s.deleteColumn('TRpl')\u000a  s.deleteColumn('Treatment')\u000a  s.deleteColumn('Eff')\u000aif run:\u000a  importExcelToTable(s, xlsx_path, worksheet=worksheet,\u000a      column_position='ParmValues',\u000a      names=['Treatment', 'RunType', 'BRpl', 'TRpl', 'Eff', 'Ct'])\u000as.setColumnVisibility(['BRpl', 'Ct', 'Eff', 'RunType', 'TRpl', 'Treatment'], is_visible=show_raw)\u000as.setColumnVisibility(['ParmNames', 'ParmValues'], show_params)
p992
sbsS'_epilogue'
p993
g0
(g663
g2
Ntp994
Rp995
(dp996
g667
V# Epilogue\u000aif run:\u000a  worksheet = "%s-O" % gene\u000a  exportTableToExcel(s, xlsx_path, worksheet=worksheet, columns=['GeoGroups',  \u000a      'MeanNrmlGeoGroups', 'StdNrmlGeoGroups'])\u000a
p997
sg669
g991
sg671
I00
sg672
I00
sg673
V# Epilogue\u000aif run:\u000a  worksheet = "%s-O" % gene\u000a  exportTableToExcel(s, xlsx_path, worksheet=worksheet, columns=['GeoGroups',  \u000a      'MeanNrmlGeoGroups', 'StdNrmlGeoGroups'])\u000a
p998
sbsg669
g991
sS'_columns'
p999
(lp1000
g0
(g518
g2
Ntp1001
Rp1002
(dp1003
g522
I01
sg523
g4
sg524
(lp1004
S'1'
p1005
aS'2'
p1006
aS'3'
p1007
aS'4'
p1008
aS'5'
p1009
aS'6'
p1010
aS'7'
p1011
aS'8'
p1012
aS'9'
p1013
aS'10'
p1014
aS'11'
p1015
aS'12'
p1016
aS'13'
p1017
aS'14'
p1018
aS'15'
p1019
aS'16'
p1020
aS'17'
p1021
aS'18'
p1022
aS'19'
p1023
aS'20'
p1024
aS'21'
p1025
aS'22'
p1026
aS'23'
p1027
aS'24'
p1028
aS'25'
p1029
aS'26'
p1030
aS'27'
p1031
aS'28'
p1032
aS'29'
p1033
aS'30'
p1034
aS'31'
p1035
aS'32'
p1036
aS'33'
p1037
aS'34'
p1038
aS'35'
p1039
aS'36'
p1040
aS'37'
p1041
aS'38'
p1042
aS'39'
p1043
aS'40'
p1044
aS'41'
p1045
aS'42'
p1046
aS'43'
p1047
aS'44'
p1048
aS'45'
p1049
aS'46'
p1050
aS'47'
p1051
aS'48'
p1052
aS'49'
p1053
aS'50'
p1054
aS'51'
p1055
aS'52'
p1056
aS'53'
p1057
aS'54'
p1058
aS'55'
p1059
aS'56'
p1060
aS'57'
p1061
aS'58'
p1062
aS'59'
p1063
aS'60'
p1064
aS'61'
p1065
aS'62'
p1066
aS'63'
p1067
aS'64'
p1068
asg662
g0
(g663
g2
Ntp1069
Rp1070
(dp1071
g667
Nsg708
g1002
sg671
I00
sg672
I00
sg673
Nsbsg675
g0
(g676
g677
(g678
g679
tp1072
tp1073
Rp1074
sg669
S'row'
p1075
sbag0
(g518
g2
Ntp1076
Rp1077
(dp1078
g522
I00
sg523
g4
sg524
(lp1079
Vgene
p1080
aVrun
p1081
aVshow_raw
p1082
aVshow_block1
p1083
aVshow_block2
p1084
aVshow_block3
p1085
aVmax_std
p1086
aVmin_eff
p1087
aVshow_params
p1088
aVnan
p1089
aVnan
p1090
aVnan
p1091
aVnan
p1092
aVnan
p1093
aVnan
p1094
aVnan
p1095
aVnan
p1096
aVnan
p1097
aVnan
p1098
aVnan
p1099
aVnan
p1100
aVnan
p1101
aVnan
p1102
aVnan
p1103
aVnan
p1104
aVnan
p1105
aVnan
p1106
aVnan
p1107
aVnan
p1108
aVnan
p1109
aVnan
p1110
aVnan
p1111
aVnan
p1112
aVnan
p1113
aVnan
p1114
aVnan
p1115
aVnan
p1116
aVnan
p1117
aVnan
p1118
aVnan
p1119
aVnan
p1120
aVnan
p1121
aVnan
p1122
aVnan
p1123
aVnan
p1124
aVnan
p1125
aVnan
p1126
aVnan
p1127
aVnan
p1128
aVnan
p1129
aVnan
p1130
aVnan
p1131
aVnan
p1132
aVnan
p1133
aNaNaNaNaNaNaNaNaNaNasg662
g0
(g663
g2
Ntp1134
Rp1135
(dp1136
g667
Nsg708
g1077
sg671
I00
sg672
I00
sg673
Nsbsg675
g0
(g676
g677
(g678
g679
tp1137
tp1138
Rp1139
sg669
VParmNames
p1140
sbag0
(g518
g2
Ntp1141
Rp1142
(dp1143
g522
I00
sg523
g4
sg524
(lp1144
VGene2
p1145
aVTrue
p1146
aVFalse
p1147
aVFalse
p1148
aVFalse
p1149
aVTrue
p1150
aF0.5
aF0.7
aVTrue
p1151
aV
p1152
aVnan
p1153
aVnan
p1154
aVnan
p1155
aVnan
p1156
aVnan
p1157
aVnan
p1158
aVnan
p1159
aVnan
p1160
aVnan
p1161
aVnan
p1162
aVnan
p1163
aVnan
p1164
aVnan
p1165
aVnan
p1166
aVnan
p1167
aVnan
p1168
aVnan
p1169
aVnan
p1170
aVnan
p1171
aVnan
p1172
aVnan
p1173
aVnan
p1174
aVnan
p1175
aVnan
p1176
aVnan
p1177
aVnan
p1178
aVnan
p1179
aVnan
p1180
aVnan
p1181
aVnan
p1182
aVnan
p1183
aVnan
p1184
aVnan
p1185
aVnan
p1186
aVnan
p1187
aVnan
p1188
aVnan
p1189
aVnan
p1190
aVnan
p1191
aVnan
p1192
aVnan
p1193
aVnan
p1194
aVnan
p1195
aVnan
p1196
aNaNaNaNaNaNaNaNaNaNasg662
g0
(g663
g2
Ntp1197
Rp1198
(dp1199
g667
Nsg669
VParmValues
p1200
sg671
I00
sg672
I00
sg673
Nsbsg675
g0
(g676
g677
(g678
g679
tp1201
tp1202
Rp1203
sg669
g1200
sbag978
ag959
ag931
ag967
ag951
ag943
ag520
ag684
ag714
ag743
ag774
ag787
ag798
ag865
ag876
ag884
ag892
ag905
ag918
ag0
(g518
g2
Ntp1204
Rp1205
(dp1206
g522
I00
sg523
g4
sg524
(lp1207
I0
aI1
aI2
aI3
aI4
asg662
g0
(g663
g2
Ntp1208
Rp1209
(dp1210
g667
Vcat_vals = [br[0] for br in pruneNulls(BioRuns)]\u000aclean_geo = [x for x in GeoMean if x is not None]\u000aGeoGroups, groupedGeoMeans = groupBy(cat_vals, clean_geo)\u000aGroupedGeoMeans = roundValues(groupedGeoMeans, 3)
p1211
sg669
VGeoGroups
p1212
sg671
I00
sg672
I00
sg673
Vcat_vals = [br[0] for br in pruneNulls(BioRuns)]\u000aclean_geo = [x for x in GeoMean if x is not None]\u000aGeoGroups, groupedGeoMeans = groupBy(cat_vals, clean_geo)\u000aGroupedGeoMeans = roundValues(groupedGeoMeans, 3)
p1213
sbsg675
g0
(g676
g677
(g678
g679
tp1214
tp1215
Rp1216
sg669
g1212
sbag0
(g518
g2
Ntp1217
Rp1218
(dp1219
g522
I00
sg523
g4
sg524
(lp1220
cnumpy.core.multiarray
_reconstruct
p1221
(g678
(I0
tp1222
S'b'
p1223
tp1224
Rp1225
(I1
(I1
tp1226
g531
I00
S'\xa2E\xb6\xf3\xfd\xd4\xfc?'
p1227
tp1228
bag1221
(g678
(I0
tp1229
g1223
tp1230
Rp1231
(I1
(I3
tp1232
g531
I00
S'\x0e-\xb2\x9d\xef\xa7\xd6?\x0c\x02+\x87\x16\xd9\xfc?B`\xe5\xd0"\xdb\xfb?'
p1233
tp1234
bag1221
(g678
(I0
tp1235
g1223
tp1236
Rp1237
(I1
(I1
tp1238
g531
I00
S'9\xb4\xc8v\xbe\x9f\x06@'
p1239
tp1240
bag1221
(g678
(I0
tp1241
g1223
tp1242
Rp1243
(I1
(I1
tp1244
g531
I00
S'\x00\x00\x00\x00\x00\x00\xfa?'
p1245
tp1246
bag1221
(g678
(I0
tp1247
g1223
tp1248
Rp1249
(I1
(I1
tp1250
g531
I00
S'\x00\x00\x00\x00\x00\x00\xf8\x7f'
p1251
tp1252
basg662
g0
(g663
g2
Ntp1253
Rp1254
(dp1255
g667
Nsg708
g1218
sg671
I00
sg672
I00
sg673
Nsbsg675
g0
(g676
g677
(g678
g679
tp1256
tp1257
Rp1258
sg669
VGroupedGeoMeans
p1259
sbag0
(g518
g2
Ntp1260
Rp1261
(dp1262
g522
I00
sg523
g4
sg524
(lp1263
g1221
(g678
(I0
tp1264
g1223
tp1265
Rp1266
(I1
(I1
tp1267
g531
I00
S'\x00\x00\x00\x00\x00\x00\xf0?'
p1268
tp1269
bag1221
(g678
(I0
tp1270
g1223
tp1271
Rp1272
(I1
(I3
tp1273
g531
I00
S'J\x0c\x02+\x87\x16\xc9?j\xbct\x93\x18\x04\xf0?\xb6\xf3\xfd\xd4x\xe9\xee?'
p1274
tp1275
bag1221
(g678
(I0
tp1276
g1223
tp1277
Rp1278
(I1
(I1
tp1279
g531
I00
S'\xb4\xc8v\xbe\x9f\x1a\xf9?'
p1280
tp1281
bag1221
(g678
(I0
tp1282
g1223
tp1283
Rp1284
(I1
(I1
tp1285
g531
I00
S'w\xbe\x9f\x1a/\xdd\xec?'
p1286
tp1287
bag1221
(g678
(I0
tp1288
g1223
tp1289
Rp1290
(I1
(I1
tp1291
g531
I00
S'\x00\x00\x00\x00\x00\x00\xf8\x7f'
p1292
tp1293
basg662
g0
(g663
g2
Ntp1294
Rp1295
(dp1296
g667
Vref = np.mean(GroupedGeoMeans[0])\u000aNrmlGeoGroupedMeans = [ [x/ref for x in g] for g in GroupedGeoMeans if g is not None]  \u000aNrmlGeoGroupedMeans = roundValues(NrmlGeoGroupedMeans, 3)
p1297
sg669
VNrmlGeoGroupedMeans
p1298
sg671
I00
sg672
I00
sg673
Vref = np.mean(GroupedGeoMeans[0])\u000aNrmlGeoGroupedMeans = [ [x/ref for x in g] for g in GroupedGeoMeans if g is not None]  \u000aNrmlGeoGroupedMeans = roundValues(NrmlGeoGroupedMeans, 3)
p1299
sbsg675
g0
(g676
g677
(g678
g679
tp1300
tp1301
Rp1302
sg669
g1298
sbag0
(g518
g2
Ntp1303
Rp1304
(dp1305
g522
I00
sg523
g4
sg524
(lp1306
F1.0
aF0.721
aF1.569
aF0.902
aFnan
asg662
g0
(g663
g2
Ntp1307
Rp1308
(dp1309
g667
VMeanNrmlGeoGroups = [round(np.mean(g), 3) for g in NrmlGeoGroupedMeans]
p1310
sg669
VMeanNrmlGeoGroups
p1311
sg671
I01
sg672
I00
sg673
V[round(np.mean(g), 3) for g in NrmlGeoGroupedMeans]
p1312
sbsg675
g0
(g676
g677
(g678
g679
tp1313
tp1314
Rp1315
sg669
g1311
sbag0
(g518
g2
Ntp1316
Rp1317
(dp1318
g522
I00
sg523
g4
sg524
(lp1319
F0.263
asg662
g0
(g663
g2
Ntp1320
Rp1321
(dp1322
g667
VStdNrmlGeoGroups = []\u000afor grp in NrmlGeoGroupedMeans:\u000a  if len(grp) > 1:\u000a    val = np.std(grp, ddof=1)/np.sqrt(len(grp))\u000a    val = round(val, 3)\u000a    StdNrmlGeoGroups.append(val)\u000a
p1323
sg669
VStdNrmlGeoGroups
p1324
sg671
I00
sg672
I00
sg673
VStdNrmlGeoGroups = []\u000afor grp in NrmlGeoGroupedMeans:\u000a  if len(grp) > 1:\u000a    val = np.std(grp, ddof=1)/np.sqrt(len(grp))\u000a    val = round(val, 3)\u000a    StdNrmlGeoGroups.append(val)\u000a
p1325
sbsg675
g0
(g676
g677
(g678
g679
tp1326
tp1327
Rp1328
sg669
g1324
sbasg511
V/home/ubuntu/SciSheets/mysite/user/guest/tables/kristen_single_gene.pcl
p1329
sb.