ccopy_reg
_reconstructor
p0
(cscisheets.ui.dt_table
DTTable
p1
c__builtin__
object
p2
Ntp3
Rp4
(dp5
S'_versioned_file'
p6
g0
(cmysite.helpers.versioned_file
VersionedFile
p7
g2
Ntp8
Rp9
(dp10
S'_redo_stack'
p11
g0
(cmysite.helpers.file_stack
FileStack
p12
g2
Ntp13
Rp14
(dp15
S'_dirpath'
p16
S'/home/ubuntu/SciSheets/mysite/user/guest/tables/backup'
p17
sS'_max_depth'
p18
I5
sS'_filename_pfx'
p19
Vkristen_single_gene.r
p20
sbsS'_max_versions'
p21
I5
sS'_undo_stack'
p22
g0
(g12
g2
Ntp23
Rp24
(dp25
g16
g17
sg18
I5
sg19
Vkristen_single_gene.u
p26
sbsS'_checkpoint_history'
p27
(lp28
VCell/Update
p29
aVCell/Update
p30
aVCell/Update
p31
aVCell/Update
p32
aVCell/Update
p33
aVCell/Update
p34
aVCell/Update
p35
aVCell/Update
p36
aVCell/Update
p37
aVCell/Update
p38
aVCell/Update
p39
aVCell/Update
p40
aVColumn/Formula
p41
aVColumn/Formula
p42
aVColumn/Append
p43
aVColumn/Formula
p44
aVColumn/Delete
p45
aVCell/Update
p46
aVColumn/Formula
p47
aVCell/Update
p48
aVCell/Update
p49
aVColumn/Formula
p50
aVColumn/Formula
p51
aVCell/Update
p52
aVColumn/Formula
p53
aVColumn/Formula
p54
aVCell/Update
p55
aVCell/Update
p56
aVCell/Update
p57
aVCell/Update
p58
aVColumn/Formula
p59
aVCell/Update
p60
aVCell/Update
p61
aVCell/Update
p62
aVColumn/Formula
p63
aVCell/Update
p64
aVColumn/Formula
p65
aVColumn/Formula
p66
aVCell/Update
p67
aVCell/Update
p68
aVCell/Update
p69
aVCell/Update
p70
aVCell/Update
p71
aVCell/Update
p72
aVCell/Update
p73
aVCell/Update
p74
aVCell/Update
p75
aVColumn/Formula
p76
aVCell/Update
p77
aVCell/Update
p78
aVCell/Update
p79
aVCell/Update
p80
aVCell/Update
p81
aVCell/Update
p82
aVCell/Update
p83
aVCell/Update
p84
aVCell/Update
p85
aVCell/Update
p86
aVCell/Update
p87
aVCell/Update
p88
aVColumn/Formula
p89
aVColumn/Formula
p90
aVColumn/Formula
p91
aVCell/Update
p92
aVCell/Update
p93
aVCell/Update
p94
aVCell/Update
p95
aVCell/Update
p96
aVColumn/Formula
p97
aVCell/Update
p98
aVCell/Update
p99
aVCell/Update
p100
aVCell/Update
p101
aVCell/Update
p102
aVCell/Update
p103
aVCell/Update
p104
aVColumn/Formula
p105
aVColumn/Formula
p106
aVColumn/Formula
p107
aVCell/Update
p108
aVCell/Update
p109
aVColumn/Formula
p110
aVCell/Update
p111
aVCell/Update
p112
aVCell/Update
p113
aVCell/Update
p114
aVCell/Update
p115
aVCell/Update
p116
aVCell/Update
p117
aVCell/Update
p118
aVColumn/Formula
p119
aVCell/Update
p120
aVColumn/Formula
p121
aVColumn/Formula
p122
aVColumn/Formula
p123
aVCell/Update
p124
aVCell/Update
p125
aVColumn/Formula
p126
aVColumn/Formula
p127
aVColumn/Formula
p128
aVColumn/Formula
p129
aVCell/Update
p130
aVColumn/Formula
p131
aVColumn/Formula
p132
aVColumn/Formula
p133
aVCell/Update
p134
aVCell/Update
p135
aVCell/Update
p136
aVCell/Update
p137
aVCell/Update
p138
aVCell/Update
p139
aVCell/Update
p140
aVCell/Update
p141
aVCell/Update
p142
aVCell/Update
p143
aVColumn/Formula
p144
aVColumn/Formula
p145
aVColumn/Formula
p146
aVColumn/Formula
p147
aVCell/Update
p148
aVCell/Update
p149
aVColumn/Formula
p150
aVCell/Update
p151
aVCell/Update
p152
aVCell/Update
p153
aVCell/Update
p154
aVCell/Update
p155
aVCell/Update
p156
aVCell/Update
p157
aVCell/Update
p158
aVCell/Update
p159
aVCell/Update
p160
aVCell/Update
p161
aVCell/Update
p162
aVCell/Update
p163
aVColumn/Formula
p164
aVColumn/Formula
p165
aVCell/Update
p166
aVCell/Update
p167
aVCell/Update
p168
aVColumn/Formula
p169
aVCell/Update
p170
aVCell/Update
p171
aVCell/Update
p172
aVCell/Update
p173
aVColumn/Formula
p174
aVColumn/Formula
p175
aVColumn/Formula
p176
aVColumn/Formula
p177
aVCell/Update
p178
aVColumn/Formula
p179
aVCell/Update
p180
aVCell/Update
p181
aVCell/Update
p182
aVCell/Update
p183
aVCell/Update
p184
aVCell/Update
p185
asS'_filepath'
p186
V/home/ubuntu/SciSheets/mysite/user/guest/tables/kristen_single_gene.pcl
p187
sS'_backup_dir'
p188
g17
sbsS'_namespace'
p189
(dp190
sS'_hidden_columns'
p191
(lp192
g0
(cscisheets.core.column
Column
p193
g2
Ntp194
Rp195
(dp196
S'_asis'
p197
I00
sS'_owning_table'
p198
g4
sS'_cells'
p199
(lp200
(lp201
cnumpy.core.multiarray
scalar
p202
(cnumpy
dtype
p203
(S'i8'
p204
I0
I1
tp205
Rp206
(I3
S'<'
p207
NNNI-1
I-1
I0
tp208
bS'\x00\x00\x00\x00\x00\x00\x00\x00'
p209
tp210
Rp211
aVI
p212
ag202
(g206
S'\x01\x00\x00\x00\x00\x00\x00\x00'
p213
tp214
Rp215
aa(lp216
g202
(g206
S'\x00\x00\x00\x00\x00\x00\x00\x00'
p217
tp218
Rp219
aVR1
p220
ag202
(g206
S'\x01\x00\x00\x00\x00\x00\x00\x00'
p221
tp222
Rp223
aa(lp224
g202
(g206
S'\x00\x00\x00\x00\x00\x00\x00\x00'
p225
tp226
Rp227
aVR2
p228
ag202
(g206
S'\x01\x00\x00\x00\x00\x00\x00\x00'
p229
tp230
Rp231
aa(lp232
g202
(g206
S'\x01\x00\x00\x00\x00\x00\x00\x00'
p233
tp234
Rp235
ag212
ag202
(g206
S'\x01\x00\x00\x00\x00\x00\x00\x00'
p236
tp237
Rp238
aa(lp239
g202
(g206
S'\x01\x00\x00\x00\x00\x00\x00\x00'
p240
tp241
Rp242
ag212
ag202
(g206
S'\x02\x00\x00\x00\x00\x00\x00\x00'
p243
tp244
Rp245
aa(lp246
g202
(g206
S'\x01\x00\x00\x00\x00\x00\x00\x00'
p247
tp248
Rp249
ag212
ag202
(g206
S'\x03\x00\x00\x00\x00\x00\x00\x00'
p250
tp251
Rp252
aa(lp253
g202
(g206
S'\x01\x00\x00\x00\x00\x00\x00\x00'
p254
tp255
Rp256
ag220
ag202
(g206
S'\x01\x00\x00\x00\x00\x00\x00\x00'
p257
tp258
Rp259
aa(lp260
g202
(g206
S'\x01\x00\x00\x00\x00\x00\x00\x00'
p261
tp262
Rp263
ag220
ag202
(g206
S'\x02\x00\x00\x00\x00\x00\x00\x00'
p264
tp265
Rp266
aa(lp267
g202
(g206
S'\x01\x00\x00\x00\x00\x00\x00\x00'
p268
tp269
Rp270
ag220
ag202
(g206
S'\x03\x00\x00\x00\x00\x00\x00\x00'
p271
tp272
Rp273
aa(lp274
g202
(g206
S'\x01\x00\x00\x00\x00\x00\x00\x00'
p275
tp276
Rp277
ag228
ag202
(g206
S'\x01\x00\x00\x00\x00\x00\x00\x00'
p278
tp279
Rp280
aa(lp281
g202
(g206
S'\x01\x00\x00\x00\x00\x00\x00\x00'
p282
tp283
Rp284
ag228
ag202
(g206
S'\x02\x00\x00\x00\x00\x00\x00\x00'
p285
tp286
Rp287
aa(lp288
g202
(g206
S'\x01\x00\x00\x00\x00\x00\x00\x00'
p289
tp290
Rp291
ag228
ag202
(g206
S'\x03\x00\x00\x00\x00\x00\x00\x00'
p292
tp293
Rp294
aa(lp295
g202
(g206
S'\x02\x00\x00\x00\x00\x00\x00\x00'
p296
tp297
Rp298
ag212
ag202
(g206
S'\x01\x00\x00\x00\x00\x00\x00\x00'
p299
tp300
Rp301
aa(lp302
g202
(g206
S'\x02\x00\x00\x00\x00\x00\x00\x00'
p303
tp304
Rp305
ag220
ag202
(g206
S'\x01\x00\x00\x00\x00\x00\x00\x00'
p306
tp307
Rp308
aa(lp309
g202
(g206
S'\x02\x00\x00\x00\x00\x00\x00\x00'
p310
tp311
Rp312
ag228
ag202
(g206
S'\x01\x00\x00\x00\x00\x00\x00\x00'
p313
tp314
Rp315
aa(lp316
g202
(g206
S'\x03\x00\x00\x00\x00\x00\x00\x00'
p317
tp318
Rp319
ag212
ag202
(g206
S'\x01\x00\x00\x00\x00\x00\x00\x00'
p320
tp321
Rp322
aa(lp323
g202
(g206
S'\x03\x00\x00\x00\x00\x00\x00\x00'
p324
tp325
Rp326
ag220
ag202
(g206
S'\x01\x00\x00\x00\x00\x00\x00\x00'
p327
tp328
Rp329
aa(lp330
g202
(g206
S'\x03\x00\x00\x00\x00\x00\x00\x00'
p331
tp332
Rp333
ag228
ag202
(g206
S'\x01\x00\x00\x00\x00\x00\x00\x00'
p334
tp335
Rp336
aaNaNaNaNaNaNaNaNaNaNaNaNaNaNaNaNaNaNaNaNaNaNaNaNaNaNaNaNaNaNaNaNaNaNaNaNasS'_formula_statement'
p337
g0
(cscisheets.core.helpers.formula_statement
FormulaStatement
p338
g2
Ntp339
Rp340
(dp341
S'_statement'
p342
Vsel = Eff > min_eff\u000agrouping_columns =   [\u000a    Treatment[sel],\u000a     RunType[sel], \u000a    BRpl[sel],      \u000a  ]\u000aGroups, groupedCt = groupBy(\u000a     grouping_columns, Ct[sel])\u000aGroups, groupedEff = groupBy(\u000a     grouping_columns, Eff[sel])\u000aGroups = [[g[0], g[1], g[2]] for g in Groups]\u000aGroupedCt = roundValues(groupedCt,2)\u000aGroupedEff = roundValues(groupedEff,2)
p343
sS'_name'
p344
VGroups
p345
sS'_isExpression'
p346
I00
sS'_isStatement'
p347
I00
sS'_formula'
p348
Vsel = Eff > min_eff\u000agrouping_columns =   [\u000a    Treatment[sel],\u000a     RunType[sel], \u000a    BRpl[sel],      \u000a  ]\u000aGroups, groupedCt = groupBy(\u000a     grouping_columns, Ct[sel])\u000aGroups, groupedEff = groupBy(\u000a     grouping_columns, Eff[sel])\u000aGroups = [[g[0], g[1], g[2]] for g in Groups]\u000aGroupedCt = roundValues(groupedCt,2)\u000aGroupedEff = roundValues(groupedEff,2)
p349
sbsS'_data_class'
p350
g0
(cscisheets.core.helpers.api_util
DataClass
p351
c__builtin__
tuple
p352
(cnumpy
ndarray
p353
cscisheets.core.helpers.api_util
makeArray
p354
tp355
tp356
Rp357
sg344
g345
sbag0
(g193
g2
Ntp358
Rp359
(dp360
g197
I00
sg198
g4
sg199
(lp361
(lp362
F0.92
aF0.91
aF0.91
aa(lp363
F0.83
aF0.83
aF0.85
aa(lp364
F0.82
aF0.85
aF0.82
aa(lp365
F0.85
aF0.84
aF0.85
aa(lp366
F0.87
aF0.78
aF0.85
aa(lp367
F0.84
aF0.84
aF0.77
aa(lp368
F0.92
aF0.98
aF0.9
aa(lp369
F0.9
aF0.83
aF0.84
aa(lp370
F0.87
aF0.85
aF0.83
aa(lp371
F0.79
aF0.84
aF0.86
aa(lp372
F0.83
aF0.82
aF0.83
aa(lp373
F0.81
aF0.82
aF0.8
aa(lp374
F0.84
aF0.79
aF0.81
aa(lp375
F0.77
aF0.87
aF0.81
aa(lp376
F0.78
aF0.77
aF0.79
aa(lp377
F0.88
aF0.86
aF0.89
aa(lp378
F0.87
aF0.9
aF0.86
aa(lp379
F0.82
aF0.82
aF0.79
aaNaNaNaNaNaNaNaNaNaNaNaNaNaNaNaNaNaNaNaNaNaNaNaNaNaNaNaNaNaNaNaNaNaNaNaNasg337
g0
(g338
g2
Ntp380
Rp381
(dp382
g342
NsS'_column'
p383
g359
sg346
I00
sg347
I00
sg348
Nsbsg350
g0
(g351
g352
(g353
g354
tp384
tp385
Rp386
sg344
VGroupedEff
p387
sbag0
(g193
g2
Ntp388
Rp389
(dp390
g197
I00
sg198
g4
sg199
(lp391
(lp392
F18.31
aF18.29
aF18.15
aa(lp393
F18.24
aF18.22
aF18.36
aa(lp394
F19.72
aF19.75
aF20.01
aa(lp395
F22.42
aF22.5
aF22.44
aa(lp396
F21.92
aF22.03
aF21.94
aa(lp397
F23.4
aF23.47
aF23.41
aa(lp398
F19.92
aF19.85
aF20.0
aa(lp399
F21.86
aF22.09
aF21.84
aa(lp400
F23.89
aF23.54
aF24.27
aa(lp401
F22.18
aF21.71
aF21.75
aa(lp402
F23.88
aF23.42
aF23.63
aa(lp403
F24.59
aF24.61
aF24.34
aa(lp404
F23.48
aF23.31
aF23.45
aa(lp405
F23.22
aF23.8
aF23.49
aa(lp406
F26.37
aF26.36
aF26.17
aa(lp407
F18.82
aF18.97
aF18.92
aa(lp408
F18.91
aF18.78
aF18.8
aa(lp409
F20.5
aF20.47
aF20.28
aaNaNaNaNaNaNaNaNaNaNaNaNaNaNaNaNaNaNaNaNaNaNaNaNaNaNaNaNaNaNaNaNaNaNaNaNasg337
g0
(g338
g2
Ntp410
Rp411
(dp412
g342
Nsg383
g389
sg346
I00
sg347
I00
sg348
Nsbsg350
g0
(g351
g352
(g353
g354
tp413
tp414
Rp415
sg344
VGroupedCt
p416
sbag0
(g193
g2
Ntp417
Rp418
(dp419
g197
I00
sg198
g4
sg199
(lp420
(lp421
F18.3
aF18.3
aF18.1
aa(lp422
F18.2
aF18.2
aF18.4
aa(lp423
F19.7
aF19.8
aF20.0
aa(lp424
F22.4
aF22.5
aF22.4
aa(lp425
F21.9
aF22.0
aF21.9
aa(lp426
F23.4
aF23.5
aF23.4
aa(lp427
F19.9
aF19.9
aF20.0
aa(lp428
F21.9
aF22.1
aF21.8
aa(lp429
F23.9
aF23.5
aF24.3
aa(lp430
F22.2
aF21.7
aF21.8
aa(lp431
F23.9
aF23.4
aF23.6
aa(lp432
F24.6
aF24.6
aF24.3
aa(lp433
F23.5
aF23.3
aF23.4
aa(lp434
F23.2
aF23.8
aF23.5
aa(lp435
F26.4
aF26.4
aF26.2
aa(lp436
F18.8
aF19.0
aF18.9
aa(lp437
F18.9
aF18.8
aF18.8
aa(lp438
F20.5
aF20.5
aF20.3
aaNaNaNaNaNaNaNaNaNaNaNaNaNaNaNaNaNaNaNaNaNaNaNaNaNaNaNaNaNaNaNaNaNaNaNaNasg337
g0
(g338
g2
Ntp439
Rp440
(dp441
g342
Vlength = len(Groups)\u000aStdFilteredGroupedCt = roundValues([filterExtremes(g, max_std, 2) for g in pruneNulls(GroupedCt,    required_length=length)])\u000a 
p442
sg344
VStdFilteredGroupedCt
p443
sg346
I00
sg347
I00
sg348
Vlength = len(Groups)\u000aStdFilteredGroupedCt = roundValues([filterExtremes(g, max_std, 2) for g in pruneNulls(GroupedCt,    required_length=length)])\u000a 
p444
sbsg350
g0
(g351
g352
(g353
g354
tp445
tp446
Rp447
sg344
g443
sbag0
(g193
g2
Ntp448
Rp449
(dp450
g197
I00
sg198
g4
sg199
(lp451
F18.2
aF18.3
aF19.8
aF22.4
aF21.9
aF23.4
aF19.9
aF21.9
aF23.9
aF21.9
aF23.6
aF24.5
aF23.4
aF23.5
aF26.3
aF18.9
aF18.8
aF20.4
aFnan
aFnan
aFnan
aFnan
aFnan
aFnan
aFnan
aFnan
aFnan
aFnan
aFnan
aFnan
aFnan
aFnan
aFnan
aFnan
aFnan
aFnan
aFnan
aFnan
aFnan
aFnan
aFnan
aFnan
aFnan
aFnan
aFnan
aFnan
aFnan
aFnan
aFnan
aFnan
aFnan
aFnan
aFnan
aFnan
asg337
g0
(g338
g2
Ntp452
Rp453
(dp454
g342
VMeanCt = [np.mean(g) for g in StdFilteredGroupedCt]\u000aMeanCt = roundValues(MeanCt,1)\u000aStdCt = [np.std(g, ddof=1) for g in StdFilteredGroupedCt]\u000aStdCt = roundValues(StdCt,3)
p455
sg344
VMeanCt
p456
sg346
I00
sg347
I00
sg348
VMeanCt = [np.mean(g) for g in StdFilteredGroupedCt]\u000aMeanCt = roundValues(MeanCt,1)\u000aStdCt = [np.std(g, ddof=1) for g in StdFilteredGroupedCt]\u000aStdCt = roundValues(StdCt,3)
p457
sbsg350
g0
(g351
g352
(g353
g354
tp458
tp459
Rp460
sg344
g456
sbag0
(g193
g2
Ntp461
Rp462
(dp463
g197
I00
sg198
g4
sg199
(lp464
F0.115
aF0.115
aF0.153
aF0.058
aF0.058
aF0.058
aF0.058
aF0.153
aF0.4
aF0.265
aF0.252
aF0.173
aF0.1
aF0.3
aF0.115
aF0.1
aF0.058
aF0.115
aFnan
aFnan
aFnan
aFnan
aFnan
aFnan
aFnan
aFnan
aFnan
aFnan
aFnan
aFnan
aFnan
aFnan
aFnan
aFnan
aFnan
aFnan
aFnan
aFnan
aFnan
aFnan
aFnan
aFnan
aFnan
aFnan
aFnan
aFnan
aFnan
aFnan
aFnan
aFnan
aFnan
aFnan
aFnan
aFnan
asg337
g0
(g338
g2
Ntp465
Rp466
(dp467
g342
Nsg383
g462
sg346
I00
sg347
I00
sg348
Nsbsg350
g0
(g351
g352
(g353
g354
tp468
tp469
Rp470
sg344
VStdCt
p471
sbag0
(g193
g2
Ntp472
Rp473
(dp474
g197
I00
sg198
g4
sg199
(lp475
(lp476
g202
(g206
S'\x00\x00\x00\x00\x00\x00\x00\x00'
p477
tp478
Rp479
ag202
(g206
S'\x01\x00\x00\x00\x00\x00\x00\x00'
p480
tp481
Rp482
aa(lp483
g202
(g206
S'\x01\x00\x00\x00\x00\x00\x00\x00'
p484
tp485
Rp486
ag202
(g206
S'\x01\x00\x00\x00\x00\x00\x00\x00'
p487
tp488
Rp489
aa(lp490
g202
(g206
S'\x01\x00\x00\x00\x00\x00\x00\x00'
p491
tp492
Rp493
ag202
(g206
S'\x02\x00\x00\x00\x00\x00\x00\x00'
p494
tp495
Rp496
aa(lp497
g202
(g206
S'\x01\x00\x00\x00\x00\x00\x00\x00'
p498
tp499
Rp500
ag202
(g206
S'\x03\x00\x00\x00\x00\x00\x00\x00'
p501
tp502
Rp503
aa(lp504
g202
(g206
S'\x02\x00\x00\x00\x00\x00\x00\x00'
p505
tp506
Rp507
ag202
(g206
S'\x01\x00\x00\x00\x00\x00\x00\x00'
p508
tp509
Rp510
aa(lp511
g202
(g206
S'\x03\x00\x00\x00\x00\x00\x00\x00'
p512
tp513
Rp514
ag202
(g206
S'\x01\x00\x00\x00\x00\x00\x00\x00'
p515
tp516
Rp517
aaNaNaNaNaNaNaNaNaNaNaNaNaNaNaNaNaNaNaNaNaNaNaNaNaNaNaNaNaNaNaNaNaNaNaNaNaNaNaNaNaNaNaNaNaNaNaNaNasg337
g0
(g338
g2
Ntp518
Rp519
(dp520
g342
Vdummy = tabularize(s, 'Groups', 1, 'MeanCt', \u000a          new_category_colnm='BioRuns',\u000a          values_colnm_prefix='Gene_')
p521
sg344
VBioRuns
p522
sg346
I00
sg347
I00
sg348
Vdummy = tabularize(s, 'Groups', 1, 'MeanCt', \u000a          new_category_colnm='BioRuns',\u000a          values_colnm_prefix='Gene_')
p523
sbsg350
g0
(g351
g352
(g353
g354
tp524
tp525
Rp526
sg344
g522
sbag0
(g193
g2
Ntp527
Rp528
(dp529
g197
I00
sg198
g4
sg199
(lp530
F18.2
aF22.4
aF21.9
aF23.4
aF23.4
aF18.9
aFnan
aFnan
aFnan
aFnan
aFnan
aFnan
aFnan
aFnan
aFnan
aFnan
aFnan
aFnan
aFnan
aFnan
aFnan
aFnan
aFnan
aFnan
aFnan
aFnan
aFnan
aFnan
aFnan
aFnan
aFnan
aFnan
aFnan
aFnan
aFnan
aFnan
aFnan
aFnan
aFnan
aFnan
aFnan
aFnan
aFnan
aFnan
aFnan
aFnan
aFnan
aFnan
aFnan
aFnan
aFnan
aFnan
aFnan
aFnan
asg337
g0
(g338
g2
Ntp531
Rp532
(dp533
g342
Nsg383
g528
sg346
I00
sg347
I00
sg348
Nsbsg350
g0
(g351
g352
(g353
g354
tp534
tp535
Rp536
sg344
S'Gene_I'
p537
sbag0
(g193
g2
Ntp538
Rp539
(dp540
g197
I00
sg198
g4
sg199
(lp541
F18.3
aF19.9
aF21.9
aF23.9
aF23.5
aF18.8
aFnan
aFnan
aFnan
aFnan
aFnan
aFnan
aFnan
aFnan
aFnan
aFnan
aFnan
aFnan
aFnan
aFnan
aFnan
aFnan
aFnan
aFnan
aFnan
aFnan
aFnan
aFnan
aFnan
aFnan
aFnan
aFnan
aFnan
aFnan
aFnan
aFnan
aFnan
aFnan
aFnan
aFnan
aFnan
aFnan
aFnan
aFnan
aFnan
aFnan
aFnan
aFnan
aFnan
aFnan
aFnan
aFnan
aFnan
aFnan
asg337
g0
(g338
g2
Ntp542
Rp543
(dp544
g342
Nsg383
g539
sg346
I00
sg347
I00
sg348
Nsbsg350
g536
sg344
S'Gene_R1'
p545
sbag0
(g193
g2
Ntp546
Rp547
(dp548
g197
I00
sg198
g4
sg199
(lp549
F19.8
aF21.9
aF23.6
aF24.5
aF26.3
aF20.4
aFnan
aFnan
aFnan
aFnan
aFnan
aFnan
aFnan
aFnan
aFnan
aFnan
aFnan
aFnan
aFnan
aFnan
aFnan
aFnan
aFnan
aFnan
aFnan
aFnan
aFnan
aFnan
aFnan
aFnan
aFnan
aFnan
aFnan
aFnan
aFnan
aFnan
aFnan
aFnan
aFnan
aFnan
aFnan
aFnan
aFnan
aFnan
aFnan
aFnan
aFnan
aFnan
aFnan
aFnan
aFnan
aFnan
aFnan
aFnan
asg337
g0
(g338
g2
Ntp550
Rp551
(dp552
g342
Nsg383
g547
sg346
I00
sg347
I00
sg348
Nsbsg350
g536
sg344
S'Gene_R2'
p553
sbag0
(g193
g2
Ntp554
Rp555
(dp556
g197
I00
sg198
g4
sg199
(lp557
F1.07177
aF0.17678
aF1.0
aF1.41421
aF1.07177
aF0.93303
aFnan
aFnan
aFnan
aFnan
aFnan
aFnan
aFnan
aFnan
aFnan
aFnan
aFnan
aFnan
aFnan
aFnan
aFnan
aFnan
aFnan
aFnan
aFnan
aFnan
aFnan
aFnan
aFnan
aFnan
aFnan
aFnan
aFnan
aFnan
aFnan
aFnan
aFnan
aFnan
aFnan
aFnan
aFnan
aFnan
aFnan
aFnan
aFnan
aFnan
aFnan
aFnan
aFnan
aFnan
aFnan
aFnan
aFnan
aFnan
asg337
g0
(g338
g2
Ntp558
Rp559
(dp560
g342
VExprR1 = roundValues(2**(Gene_R1 - Gene_I),5)
p561
sg344
VExprR1
p562
sg346
I01
sg347
I00
sg348
VroundValues(2**(Gene_R1 - Gene_I),5)
p563
sbsg350
g0
(g351
g352
(g353
g354
tp564
tp565
Rp566
sg344
g562
sbag0
(g193
g2
Ntp567
Rp568
(dp569
g197
I00
sg198
g4
sg199
(lp570
F3.03143
aF0.70711
aF3.24901
aF2.14355
aF7.46426
aF2.82843
aFnan
aFnan
aFnan
aFnan
aFnan
aFnan
aFnan
aFnan
aFnan
aFnan
aFnan
aFnan
aFnan
aFnan
aFnan
aFnan
aFnan
aFnan
aFnan
aFnan
aFnan
aFnan
aFnan
aFnan
aFnan
aFnan
aFnan
aFnan
aFnan
aFnan
aFnan
aFnan
aFnan
aFnan
aFnan
aFnan
aFnan
aFnan
aFnan
aFnan
aFnan
aFnan
aFnan
aFnan
aFnan
aFnan
aFnan
aFnan
asg337
g0
(g338
g2
Ntp571
Rp572
(dp573
g342
VExprR2 = roundValues(2**(Gene_R2 - Gene_I),5)
p574
sg344
VExprR2
p575
sg346
I01
sg347
I00
sg348
VroundValues(2**(Gene_R2 - Gene_I),5)
p576
sbsg350
g0
(g351
g352
(g353
g354
tp577
tp578
Rp579
sg344
g575
sbag0
(g193
g2
Ntp580
Rp581
(dp582
g197
I00
sg198
g4
sg199
(lp583
F1.802
aF0.354
aF1.803
aF1.741
aF2.828
aF1.625
aFnan
aFnan
aFnan
aFnan
aFnan
aFnan
aFnan
aFnan
aFnan
aFnan
aFnan
aFnan
aFnan
aFnan
aFnan
aFnan
aFnan
aFnan
aFnan
aFnan
aFnan
aFnan
aFnan
aFnan
aFnan
aFnan
aFnan
aFnan
aFnan
aFnan
aFnan
aFnan
aFnan
aFnan
aFnan
aFnan
aFnan
aFnan
aFnan
aFnan
aFnan
aFnan
aFnan
aFnan
aFnan
aFnan
aFnan
aFnan
asg337
g0
(g338
g2
Ntp584
Rp585
(dp586
g342
VGeoMean = roundValues(np.sqrt(ExprR1*ExprR2), 3)
p587
sg344
VGeoMean
p588
sg346
I01
sg347
I00
sg348
VroundValues(np.sqrt(ExprR1*ExprR2), 3)
p589
sbsg350
g0
(g351
g352
(g353
g354
tp590
tp591
Rp592
sg344
g588
sbasS'_is_evaluate_formulas'
p593
I01
sS'_prologue'
p594
g0
(g338
g2
Ntp595
Rp596
(dp597
g342
V# Prologue\u000aimport math as mt\u000aimport numpy as np\u000afrom os import listdir\u000afrom os.path import isfile, join\u000aimport pandas as pd\u000aimport scipy as sp\u000afrom numpy import nan  # Must follow sympy import \u000a\u000axlsx_path = '/mnt/hgfs/josephhellerstein/home/Technical/SciSheets/CaseStudies/Kristen/workbooks/data.xlsx'\u000agene = ParmValues[0]\u000arun = ParmValues[1] == 'True'\u000ashow_raw = ParmValues[2] == 'True'\u000ashow_block1 = ParmValues[3] == 'True'\u000ashow_block2 = ParmValues[4] == 'True'\u000ashow_block3 = ParmValues[5] == 'True'\u000amax_std  = float(ParmValues[6])\u000amin_eff = float(ParmValues[7])\u000aworksheet = gene + "-I"\u000as.getTable().setIsEvaluateFormulas(run)\u000as.setColumnVisibility()\u000as.setColumnVisibility(['Groups', 'GroupedEff', 'GroupedCt', 'StdFilteredGroupedCt', 'MeanCt', 'StdCt'], is_visible=show_block1)\u000as.setColumnVisibility(['BioRuns', 'Gene_I', 'Gene_R1', 'Gene_R2', 'ExprR1', 'ExprR2', 'GeoMean'], is_visible=show_block2)\u000as.setColumnVisibility(['GeoGroups', 'GroupedGeoMeans', 'NrmlGeoGroupedMeans', 'MeanNrmlGeoGroups', 'StdNrmlGeoGroups'], is_visible=show_block3)\u000aif True:\u000a  Groups = []\u000a  GroupedCt = []\u000a  GroupedEff = []\u000a  MeanCt = []\u000a  Imp = []\u000a  s.deleteColumn('Ct')\u000a  s.deleteColumn('RunType')\u000a  s.deleteColumn('BRpl')\u000a  s.deleteColumn('TRpl')\u000a  s.deleteColumn('Treatment')\u000a  s.deleteColumn('Eff')\u000aif run:\u000a  importExcelToTable(s, xlsx_path, worksheet=worksheet,\u000a      column_position='ParmValues',\u000a      names=['Treatment', 'RunType', 'BRpl', 'TRpl', 'Eff', 'Ct'])\u000as.setColumnVisibility(['BRpl', 'Ct', 'Eff', 'RunType', 'TRpl', 'Treatment'], is_visible=show_raw)\u000a
p598
sg344
VSingleGene
p599
sg346
I00
sg347
I00
sg348
V# Prologue\u000aimport math as mt\u000aimport numpy as np\u000afrom os import listdir\u000afrom os.path import isfile, join\u000aimport pandas as pd\u000aimport scipy as sp\u000afrom numpy import nan  # Must follow sympy import \u000a\u000axlsx_path = '/mnt/hgfs/josephhellerstein/home/Technical/SciSheets/CaseStudies/Kristen/workbooks/data.xlsx'\u000agene = ParmValues[0]\u000arun = ParmValues[1] == 'True'\u000ashow_raw = ParmValues[2] == 'True'\u000ashow_block1 = ParmValues[3] == 'True'\u000ashow_block2 = ParmValues[4] == 'True'\u000ashow_block3 = ParmValues[5] == 'True'\u000amax_std  = float(ParmValues[6])\u000amin_eff = float(ParmValues[7])\u000aworksheet = gene + "-I"\u000as.getTable().setIsEvaluateFormulas(run)\u000as.setColumnVisibility()\u000as.setColumnVisibility(['Groups', 'GroupedEff', 'GroupedCt', 'StdFilteredGroupedCt', 'MeanCt', 'StdCt'], is_visible=show_block1)\u000as.setColumnVisibility(['BioRuns', 'Gene_I', 'Gene_R1', 'Gene_R2', 'ExprR1', 'ExprR2', 'GeoMean'], is_visible=show_block2)\u000as.setColumnVisibility(['GeoGroups', 'GroupedGeoMeans', 'NrmlGeoGroupedMeans', 'MeanNrmlGeoGroups', 'StdNrmlGeoGroups'], is_visible=show_block3)\u000aif True:\u000a  Groups = []\u000a  GroupedCt = []\u000a  GroupedEff = []\u000a  MeanCt = []\u000a  Imp = []\u000a  s.deleteColumn('Ct')\u000a  s.deleteColumn('RunType')\u000a  s.deleteColumn('BRpl')\u000a  s.deleteColumn('TRpl')\u000a  s.deleteColumn('Treatment')\u000a  s.deleteColumn('Eff')\u000aif run:\u000a  importExcelToTable(s, xlsx_path, worksheet=worksheet,\u000a      column_position='ParmValues',\u000a      names=['Treatment', 'RunType', 'BRpl', 'TRpl', 'Eff', 'Ct'])\u000as.setColumnVisibility(['BRpl', 'Ct', 'Eff', 'RunType', 'TRpl', 'Treatment'], is_visible=show_raw)\u000a
p600
sbsS'_epilogue'
p601
g0
(g338
g2
Ntp602
Rp603
(dp604
g342
V# Epilogue\u000aif run:\u000a  worksheet = "%s-O" % gene\u000a  exportTableToExcel(s, xlsx_path, worksheet=worksheet, columns=['GeoGroups', 'MeanNrmlGeoGroups', 'StdNrmlGeoGroups'])\u000a
p605
sg344
g599
sg346
I00
sg347
I00
sg348
V# Epilogue\u000aif run:\u000a  worksheet = "%s-O" % gene\u000a  exportTableToExcel(s, xlsx_path, worksheet=worksheet, columns=['GeoGroups', 'MeanNrmlGeoGroups', 'StdNrmlGeoGroups'])\u000a
p606
sbsg344
g599
sS'_columns'
p607
(lp608
g0
(g193
g2
Ntp609
Rp610
(dp611
g197
I01
sg198
g4
sg199
(lp612
S'1'
p613
aS'2'
p614
aS'3'
p615
aS'4'
p616
aS'5'
p617
aS'6'
p618
aS'7'
p619
aS'8'
p620
aS'9'
p621
aS'10'
p622
aS'11'
p623
aS'12'
p624
aS'13'
p625
aS'14'
p626
aS'15'
p627
aS'16'
p628
aS'17'
p629
aS'18'
p630
aS'19'
p631
aS'20'
p632
aS'21'
p633
aS'22'
p634
aS'23'
p635
aS'24'
p636
aS'25'
p637
aS'26'
p638
aS'27'
p639
aS'28'
p640
aS'29'
p641
aS'30'
p642
aS'31'
p643
aS'32'
p644
aS'33'
p645
aS'34'
p646
aS'35'
p647
aS'36'
p648
aS'37'
p649
aS'38'
p650
aS'39'
p651
aS'40'
p652
aS'41'
p653
aS'42'
p654
aS'43'
p655
aS'44'
p656
aS'45'
p657
aS'46'
p658
aS'47'
p659
aS'48'
p660
aS'49'
p661
aS'50'
p662
aS'51'
p663
aS'52'
p664
aS'53'
p665
aS'54'
p666
asg337
g0
(g338
g2
Ntp667
Rp668
(dp669
g342
Nsg383
g610
sg346
I00
sg347
I00
sg348
Nsbsg350
g0
(g351
g352
(g353
g354
tp670
tp671
Rp672
sg344
S'row'
p673
sbag0
(g193
g2
Ntp674
Rp675
(dp676
g197
I00
sg198
g4
sg199
(lp677
Vgene
p678
aVrun
p679
aVshow_raw
p680
aVshow_block1
p681
aVshow_block2
p682
aVshow_block3
p683
aVmax_std
p684
aVmin_eff
p685
aVnan
p686
aVnan
p687
aVnan
p688
aVnan
p689
aVnan
p690
aVnan
p691
aVnan
p692
aVnan
p693
aVnan
p694
aVnan
p695
aVnan
p696
aVnan
p697
aVnan
p698
aVnan
p699
aVnan
p700
aVnan
p701
aVnan
p702
aVnan
p703
aVnan
p704
aVnan
p705
aVnan
p706
aVnan
p707
aVnan
p708
aVnan
p709
aVnan
p710
aVnan
p711
aVnan
p712
aVnan
p713
aVnan
p714
aVnan
p715
aVnan
p716
aVnan
p717
aVnan
p718
aVnan
p719
aVnan
p720
aVnan
p721
aVnan
p722
aVnan
p723
aVnan
p724
aVnan
p725
aVnan
p726
aVnan
p727
aVnan
p728
aVnan
p729
aVnan
p730
aVnan
p731
asg337
g0
(g338
g2
Ntp732
Rp733
(dp734
g342
Nsg383
g675
sg346
I00
sg347
I00
sg348
Nsbsg350
g0
(g351
g352
(g353
g354
tp735
tp736
Rp737
sg344
VParmNames
p738
sbag0
(g193
g2
Ntp739
Rp740
(dp741
g197
I00
sg198
g4
sg199
(lp742
VGene2
p743
aVTrue
p744
aVTrue
p745
aVFalse
p746
aVFalse
p747
aVTrue
p748
aV0.5
p749
aV0.7
p750
aV
p751
ag751
aVnan
p752
aVnan
p753
aVnan
p754
aVnan
p755
aVnan
p756
aVnan
p757
aVnan
p758
aVnan
p759
aVnan
p760
aVnan
p761
aVnan
p762
aVnan
p763
aVnan
p764
aVnan
p765
aVnan
p766
aVnan
p767
aVnan
p768
aVnan
p769
aVnan
p770
aVnan
p771
aVnan
p772
aVnan
p773
aVnan
p774
aVnan
p775
aVnan
p776
aVnan
p777
aVnan
p778
aVnan
p779
aVnan
p780
aVnan
p781
aVnan
p782
aVnan
p783
aVnan
p784
aVnan
p785
aVnan
p786
aVnan
p787
aVnan
p788
aVnan
p789
aVnan
p790
aVnan
p791
aVnan
p792
aVnan
p793
aVnan
p794
aVnan
p795
asg337
g0
(g338
g2
Ntp796
Rp797
(dp798
g342
Nsg344
VParmValues
p799
sg346
I00
sg347
I00
sg348
Nsbsg350
g0
(g351
g352
(g353
g354
tp800
tp801
Rp802
sg344
g799
sbag0
(g193
g2
Ntp803
Rp804
(dp805
g197
I00
sg198
g4
sg199
(lp806
I0
aI0
aI0
aI0
aI0
aI0
aI0
aI0
aI0
aI1
aI1
aI1
aI1
aI1
aI1
aI1
aI1
aI1
aI1
aI1
aI1
aI1
aI1
aI1
aI1
aI1
aI1
aI1
aI1
aI1
aI1
aI1
aI1
aI1
aI1
aI1
aI2
aI2
aI2
aI2
aI2
aI2
aI2
aI2
aI2
aI3
aI3
aI3
aI3
aI3
aI3
aI3
aI3
aI3
asg337
g0
(g338
g2
Ntp807
Rp808
(dp809
g342
Nsg344
S'Treatment'
p810
sg346
I00
sg347
I00
sg348
Nsbsg350
g0
(g351
g352
(g353
g354
tp811
tp812
Rp813
sg344
g810
sbag0
(g193
g2
Ntp814
Rp815
(dp816
g197
I00
sg198
g4
sg199
(lp817
g212
ag212
ag212
aVR1
p818
aVR1
p819
aVR1
p820
aVR2
p821
aVR2
p822
aVR2
p823
ag212
ag212
ag212
ag212
ag212
ag212
ag212
ag212
ag212
aVR1
p824
aVR1
p825
aVR1
p826
aVR1
p827
aVR1
p828
aVR1
p829
aVR1
p830
aVR1
p831
aVR1
p832
aVR2
p833
aVR2
p834
aVR2
p835
aVR2
p836
aVR2
p837
aVR2
p838
aVR2
p839
aVR2
p840
aVR2
p841
ag212
ag212
ag212
aVR1
p842
aVR1
p843
aVR1
p844
aVR2
p845
aVR2
p846
aVR2
p847
ag212
ag212
ag212
aVR1
p848
aVR1
p849
aVR1
p850
aVR2
p851
aVR2
p852
aVR2
p853
asg337
g0
(g338
g2
Ntp854
Rp855
(dp856
g342
Nsg344
S'RunType'
p857
sg346
I00
sg347
I00
sg348
Nsbsg350
g813
sg344
g857
sbag0
(g193
g2
Ntp858
Rp859
(dp860
g197
I00
sg198
g4
sg199
(lp861
I1
aI1
aI1
aI1
aI1
aI1
aI1
aI1
aI1
aI1
aI1
aI1
aI2
aI2
aI2
aI3
aI3
aI3
aI1
aI1
aI1
aI2
aI2
aI2
aI3
aI3
aI3
aI1
aI1
aI1
aI2
aI2
aI2
aI3
aI3
aI3
aI1
aI1
aI1
aI1
aI1
aI1
aI1
aI1
aI1
aI1
aI1
aI1
aI1
aI1
aI1
aI1
aI1
aI1
asg337
g0
(g338
g2
Ntp862
Rp863
(dp864
g342
Nsg344
S'BRpl'
p865
sg346
I00
sg347
I00
sg348
Nsbsg350
g813
sg344
g865
sbag0
(g193
g2
Ntp866
Rp867
(dp868
g197
I00
sg198
g4
sg199
(lp869
Va
p870
aVb
p871
aVc
p872
ag870
ag871
ag872
ag870
ag871
ag872
ag870
ag871
ag872
ag870
ag871
ag872
ag870
ag871
ag872
ag870
ag871
ag872
ag870
ag871
ag872
ag870
ag871
ag872
ag870
ag871
ag872
ag870
ag871
ag872
ag870
ag871
ag872
ag870
ag871
ag872
ag870
ag871
ag872
ag870
ag871
ag872
ag870
ag871
ag872
ag870
ag871
ag872
ag870
ag871
ag872
asg337
g0
(g338
g2
Ntp873
Rp874
(dp875
g342
Nsg344
S'TRpl'
p876
sg346
I00
sg347
I00
sg348
Nsbsg350
g813
sg344
g876
sbag0
(g193
g2
Ntp877
Rp878
(dp879
g197
I00
sg198
g4
sg199
(lp880
F0.919
aF0.9106
aF0.9129
aF0.8266
aF0.8343
aF0.8496
aF0.8157
aF0.8543
aF0.8208
aF0.8453
aF0.8426
aF0.8524
aF0.8658
aF0.7809
aF0.8512
aF0.8442
aF0.8357
aF0.7658
aF0.9179
aF0.9783
aF0.8971
aF0.8957
aF0.8287
aF0.8387
aF0.8746
aF0.8493
aF0.8349
aF0.7857
aF0.8427
aF0.8637
aF0.8281
aF0.8203
aF0.8288
aF0.8138
aF0.8242
aF0.804
aF0.8352
aF0.7886
aF0.8105
aF0.7701
aF0.8746
aF0.8139
aF0.7795
aF0.7676
aF0.7947
aF0.876
aF0.8597
aF0.8873
aF0.8715
aF0.8977
aF0.856
aF0.8179
aF0.8173
aF0.7894
asg337
g0
(g338
g2
Ntp881
Rp882
(dp883
g342
Nsg344
S'Eff'
p884
sg346
I00
sg347
I00
sg348
Nsbsg350
g813
sg344
g884
sbag0
(g193
g2
Ntp885
Rp886
(dp887
g197
I00
sg198
g4
sg199
(lp888
F18.31
aF18.29
aF18.15
aF18.24
aF18.22
aF18.36
aF19.72
aF19.75
aF20.01
aF22.42
aF22.5
aF22.44
aF21.92
aF22.03
aF21.94
aF23.4
aF23.47
aF23.41
aF19.92
aF19.85
aF20.0
aF21.86
aF22.09
aF21.84
aF23.89
aF23.54
aF24.27
aF22.18
aF21.71
aF21.75
aF23.88
aF23.42
aF23.63
aF24.59
aF24.61
aF24.34
aF23.48
aF23.31
aF23.45
aF23.22
aF23.8
aF23.49
aF26.37
aF26.36
aF26.17
aF18.82
aF18.97
aF18.92
aF18.91
aF18.78
aF18.8
aF20.5
aF20.47
aF20.28
asg337
g0
(g338
g2
Ntp889
Rp890
(dp891
g342
Nsg344
S'Ct'
p892
sg346
I00
sg347
I00
sg348
Nsbsg350
g813
sg344
g892
sbag195
ag359
ag389
ag418
ag449
ag462
ag473
ag528
ag539
ag547
ag555
ag568
ag581
ag0
(g193
g2
Ntp893
Rp894
(dp895
g197
I00
sg198
g4
sg199
(lp896
(lp897
g202
(g206
S'\x00\x00\x00\x00\x00\x00\x00\x00'
p898
tp899
Rp900
aa(lp901
g202
(g206
S'\x01\x00\x00\x00\x00\x00\x00\x00'
p902
tp903
Rp904
aa(lp905
g202
(g206
S'\x02\x00\x00\x00\x00\x00\x00\x00'
p906
tp907
Rp908
aa(lp909
g202
(g206
S'\x03\x00\x00\x00\x00\x00\x00\x00'
p910
tp911
Rp912
aaNaNaNaNaNaNaNaNaNaNaNaNaNaNaNaNaNaNaNaNaNaNaNaNaNaNaNaNaNaNaNaNaNaNaNaNaNaNaNaNaNaNaNaNaNaNaNaNaNaNasg337
g0
(g338
g2
Ntp913
Rp914
(dp915
g342
Vcat_vals = [br[0] for br in pruneNulls(BioRuns)]\u000aclean_geo = [x for x in GeoMean if x is not None]\u000aGeoGroups, groupedGeoMeans = groupBy(cat_vals, clean_geo)\u000aGroupedGeoMeans = roundValues(groupedGeoMeans, 3)\u000aGeoGroups = [[x] for x in GeoGroups]
p916
sg344
VGeoGroups
p917
sg346
I00
sg347
I00
sg348
Vcat_vals = [br[0] for br in pruneNulls(BioRuns)]\u000aclean_geo = [x for x in GeoMean if x is not None]\u000aGeoGroups, groupedGeoMeans = groupBy(cat_vals, clean_geo)\u000aGroupedGeoMeans = roundValues(groupedGeoMeans, 3)\u000aGeoGroups = [[x] for x in GeoGroups]
p918
sbsg350
g0
(g351
g352
(g353
g354
tp919
tp920
Rp921
sg344
g917
sbag0
(g193
g2
Ntp922
Rp923
(dp924
g197
I00
sg198
g4
sg199
(lp925
cnumpy.core.multiarray
_reconstruct
p926
(g353
(I0
tp927
S'b'
p928
tp929
Rp930
(I1
(I1
tp931
g203
(S'f8'
p932
I0
I1
tp933
Rp934
(I3
S'<'
p935
NNNI-1
I-1
I0
tp936
bI00
S'\xa2E\xb6\xf3\xfd\xd4\xfc?'
p937
tp938
bag926
(g353
(I0
tp939
g928
tp940
Rp941
(I1
(I3
tp942
g934
I00
S'\x0e-\xb2\x9d\xef\xa7\xd6?\x0c\x02+\x87\x16\xd9\xfc?B`\xe5\xd0"\xdb\xfb?'
p943
tp944
bag926
(g353
(I0
tp945
g928
tp946
Rp947
(I1
(I1
tp948
g934
I00
S'9\xb4\xc8v\xbe\x9f\x06@'
p949
tp950
bag926
(g353
(I0
tp951
g928
tp952
Rp953
(I1
(I1
tp954
g934
I00
S'\x00\x00\x00\x00\x00\x00\xfa?'
p955
tp956
baNaNaNaNaNaNaNaNaNaNaNaNaNaNaNaNaNaNaNaNaNaNaNaNaNaNaNaNaNaNaNaNaNaNaNaNaNaNaNaNaNaNaNaNaNaNaNaNaNaNasg337
g0
(g338
g2
Ntp957
Rp958
(dp959
g342
Nsg383
g923
sg346
I00
sg347
I00
sg348
Nsbsg350
g0
(g351
g352
(g353
g354
tp960
tp961
Rp962
sg344
VGroupedGeoMeans
p963
sbag0
(g193
g2
Ntp964
Rp965
(dp966
g197
I00
sg198
g4
sg199
(lp967
g926
(g353
(I0
tp968
g928
tp969
Rp970
(I1
(I1
tp971
g934
I00
S'\x00\x00\x00\x00\x00\x00\xf0?'
p972
tp973
bag926
(g353
(I0
tp974
g928
tp975
Rp976
(I1
(I3
tp977
g934
I00
S'J\x0c\x02+\x87\x16\xc9?j\xbct\x93\x18\x04\xf0?\xb6\xf3\xfd\xd4x\xe9\xee?'
p978
tp979
bag926
(g353
(I0
tp980
g928
tp981
Rp982
(I1
(I1
tp983
g934
I00
S'\xb4\xc8v\xbe\x9f\x1a\xf9?'
p984
tp985
bag926
(g353
(I0
tp986
g928
tp987
Rp988
(I1
(I1
tp989
g934
I00
S'w\xbe\x9f\x1a/\xdd\xec?'
p990
tp991
baNaNaNaNaNaNaNaNaNaNaNaNaNaNaNaNaNaNaNaNaNaNaNaNaNaNaNaNaNaNaNaNaNaNaNaNaNaNaNaNaNaNaNaNaNaNaNaNaNaNasg337
g0
(g338
g2
Ntp992
Rp993
(dp994
g342
Vref = np.mean(GroupedGeoMeans[0])\u000aNrmlGeoGroupedMeans = [ [x/ref for x in g] for g in GroupedGeoMeans if g is not None]  \u000aNrmlGeoGroupedMeans = roundValues(NrmlGeoGroupedMeans, 3)
p995
sg344
VNrmlGeoGroupedMeans
p996
sg346
I00
sg347
I00
sg348
Vref = np.mean(GroupedGeoMeans[0])\u000aNrmlGeoGroupedMeans = [ [x/ref for x in g] for g in GroupedGeoMeans if g is not None]  \u000aNrmlGeoGroupedMeans = roundValues(NrmlGeoGroupedMeans, 3)
p997
sbsg350
g0
(g351
g352
(g353
g354
tp998
tp999
Rp1000
sg344
g996
sbag0
(g193
g2
Ntp1001
Rp1002
(dp1003
g197
I00
sg198
g4
sg199
(lp1004
F1.0
aF0.721
aF1.569
aF0.902
aFnan
aFnan
aFnan
aFnan
aFnan
aFnan
aFnan
aFnan
aFnan
aFnan
aFnan
aFnan
aFnan
aFnan
aFnan
aFnan
aFnan
aFnan
aFnan
aFnan
aFnan
aFnan
aFnan
aFnan
aFnan
aFnan
aFnan
aFnan
aFnan
aFnan
aFnan
aFnan
aFnan
aFnan
aFnan
aFnan
aFnan
aFnan
aFnan
aFnan
aFnan
aFnan
aFnan
aFnan
aFnan
aFnan
aFnan
aFnan
aFnan
aFnan
asg337
g0
(g338
g2
Ntp1005
Rp1006
(dp1007
g342
VMeanNrmlGeoGroups = [round(np.mean(g), 3) for g in NrmlGeoGroupedMeans]
p1008
sg344
VMeanNrmlGeoGroups
p1009
sg346
I01
sg347
I00
sg348
V[round(np.mean(g), 3) for g in NrmlGeoGroupedMeans]
p1010
sbsg350
g0
(g351
g352
(g353
g354
tp1011
tp1012
Rp1013
sg344
g1009
sbag0
(g193
g2
Ntp1014
Rp1015
(dp1016
g197
I00
sg198
g4
sg199
(lp1017
Fnan
aF0.263
aFnan
aFnan
aFnan
aFnan
aFnan
aFnan
aFnan
aFnan
aFnan
aFnan
aFnan
aFnan
aFnan
aFnan
aFnan
aFnan
aFnan
aFnan
aFnan
aFnan
aFnan
aFnan
aFnan
aFnan
aFnan
aFnan
aFnan
aFnan
aFnan
aFnan
aFnan
aFnan
aFnan
aFnan
aFnan
aFnan
aFnan
aFnan
aFnan
aFnan
aFnan
aFnan
aFnan
aFnan
aFnan
aFnan
aFnan
aFnan
aFnan
aFnan
aFnan
aFnan
asg337
g0
(g338
g2
Ntp1018
Rp1019
(dp1020
g342
VStdNrmlGeoGroups = [round(np.std(g, ddof=1)/np.sqrt(len(g)), 3) for g in NrmlGeoGroupedMeans]\u000a
p1021
sg344
VStdNrmlGeoGroups
p1022
sg346
I01
sg347
I00
sg348
V[round(np.std(g, ddof=1)/np.sqrt(len(g)), 3) for g in NrmlGeoGroupedMeans]\u000a
p1023
sbsg350
g0
(g351
g352
(g353
g354
tp1024
tp1025
Rp1026
sg344
g1022
sbasg186
V/home/ubuntu/SciSheets/mysite/user/guest/tables/kristen_single_gene.pcl
p1027
sb.