ccopy_reg
_reconstructor
p0
(cscisheets.ui.dt_table
DTTable
p1
c__builtin__
object
p2
Ntp3
Rp4
(dp5
S'_versioned_file'
p6
g0
(cmysite.helpers.versioned_file
VersionedFile
p7
g2
Ntp8
Rp9
(dp10
S'_redo_stack'
p11
g0
(cmysite.helpers.file_stack
FileStack
p12
g2
Ntp13
Rp14
(dp15
S'_dirpath'
p16
S'/home/ubuntu/SciSheets/mysite/user/guest/tables/backup'
p17
sS'_max_depth'
p18
I5
sS'_filename_pfx'
p19
Vkristen_single_gene.r
p20
sbsS'_max_versions'
p21
I5
sS'_undo_stack'
p22
g0
(g12
g2
Ntp23
Rp24
(dp25
g16
g17
sg18
I5
sg19
Vkristen_single_gene.u
p26
sbsS'_checkpoint_history'
p27
(lp28
VCell/Update
p29
aVCell/Update
p30
aVCell/Update
p31
aVCell/Update
p32
aVCell/Update
p33
aVCell/Update
p34
aVCell/Update
p35
aVCell/Update
p36
aVCell/Update
p37
aVCell/Update
p38
aVCell/Update
p39
aVCell/Update
p40
aVColumn/Formula
p41
aVColumn/Formula
p42
aVColumn/Append
p43
aVColumn/Formula
p44
aVColumn/Delete
p45
aVCell/Update
p46
aVColumn/Formula
p47
aVCell/Update
p48
aVCell/Update
p49
aVColumn/Formula
p50
aVColumn/Formula
p51
aVCell/Update
p52
aVColumn/Formula
p53
aVColumn/Formula
p54
aVCell/Update
p55
aVCell/Update
p56
aVCell/Update
p57
aVCell/Update
p58
aVColumn/Formula
p59
aVCell/Update
p60
aVCell/Update
p61
aVCell/Update
p62
aVColumn/Formula
p63
aVCell/Update
p64
aVColumn/Formula
p65
aVColumn/Formula
p66
aVCell/Update
p67
aVCell/Update
p68
aVCell/Update
p69
aVCell/Update
p70
aVCell/Update
p71
aVCell/Update
p72
aVCell/Update
p73
aVCell/Update
p74
aVCell/Update
p75
aVColumn/Formula
p76
aVCell/Update
p77
aVCell/Update
p78
aVCell/Update
p79
aVCell/Update
p80
aVCell/Update
p81
aVCell/Update
p82
aVCell/Update
p83
aVCell/Update
p84
aVCell/Update
p85
aVCell/Update
p86
aVCell/Update
p87
aVCell/Update
p88
aVColumn/Formula
p89
aVColumn/Formula
p90
aVColumn/Formula
p91
aVCell/Update
p92
aVCell/Update
p93
aVCell/Update
p94
aVCell/Update
p95
aVCell/Update
p96
aVColumn/Formula
p97
aVCell/Update
p98
aVCell/Update
p99
aVCell/Update
p100
aVCell/Update
p101
aVCell/Update
p102
aVCell/Update
p103
aVCell/Update
p104
aVColumn/Formula
p105
aVColumn/Formula
p106
aVColumn/Formula
p107
aVCell/Update
p108
aVCell/Update
p109
aVColumn/Formula
p110
aVCell/Update
p111
aVCell/Update
p112
aVCell/Update
p113
aVCell/Update
p114
aVCell/Update
p115
aVCell/Update
p116
aVCell/Update
p117
aVCell/Update
p118
aVColumn/Formula
p119
aVCell/Update
p120
aVColumn/Formula
p121
aVColumn/Formula
p122
aVColumn/Formula
p123
aVCell/Update
p124
aVCell/Update
p125
aVColumn/Formula
p126
aVColumn/Formula
p127
aVColumn/Formula
p128
aVColumn/Formula
p129
aVCell/Update
p130
aVColumn/Formula
p131
aVColumn/Formula
p132
aVColumn/Formula
p133
aVCell/Update
p134
aVCell/Update
p135
aVCell/Update
p136
aVCell/Update
p137
aVCell/Update
p138
aVCell/Update
p139
aVCell/Update
p140
aVCell/Update
p141
aVCell/Update
p142
aVCell/Update
p143
aVColumn/Formula
p144
aVColumn/Formula
p145
aVColumn/Formula
p146
aVColumn/Formula
p147
aVCell/Update
p148
aVCell/Update
p149
aVColumn/Formula
p150
aVCell/Update
p151
aVCell/Update
p152
aVCell/Update
p153
aVCell/Update
p154
aVCell/Update
p155
aVCell/Update
p156
aVCell/Update
p157
aVCell/Update
p158
aVCell/Update
p159
aVCell/Update
p160
aVCell/Update
p161
aVCell/Update
p162
aVCell/Update
p163
aVColumn/Formula
p164
aVColumn/Formula
p165
aVCell/Update
p166
aVCell/Update
p167
aVCell/Update
p168
aVColumn/Formula
p169
aVCell/Update
p170
aVCell/Update
p171
aVCell/Update
p172
aVCell/Update
p173
aVColumn/Formula
p174
aVColumn/Formula
p175
aVColumn/Formula
p176
aVColumn/Formula
p177
aVCell/Update
p178
aVColumn/Formula
p179
aVCell/Update
p180
aVCell/Update
p181
aVCell/Update
p182
aVCell/Update
p183
aVCell/Update
p184
aVCell/Update
p185
aVCell/Update
p186
aVCell/Update
p187
aVCell/Update
p188
aVColumn/Formula
p189
aVCell/Update
p190
aVCell/Update
p191
aVCell/Update
p192
aVCell/Update
p193
aVCell/Update
p194
aVCell/Update
p195
aVCell/Update
p196
aVCell/Update
p197
aVCell/Update
p198
aVCell/Update
p199
aVCell/Update
p200
aVCell/Update
p201
aVCell/Update
p202
aVCell/Update
p203
aVCell/Update
p204
aVCell/Update
p205
aVCell/Update
p206
aVCell/Update
p207
aVCell/Update
p208
aVCell/Update
p209
aVCell/Update
p210
aVCell/Update
p211
aVCell/Update
p212
aVCell/Update
p213
aVCell/Update
p214
aVCell/Update
p215
aVCell/Update
p216
aVCell/Update
p217
aVCell/Update
p218
aVCell/Update
p219
aVCell/Update
p220
aVCell/Update
p221
aVCell/Update
p222
aVCell/Update
p223
aVCell/Update
p224
aVCell/Update
p225
aVCell/Update
p226
aVCell/Update
p227
aVCell/Update
p228
aVCell/Update
p229
aVCell/Update
p230
aVCell/Update
p231
aVCell/Update
p232
aVCell/Update
p233
aVCell/Update
p234
aVCell/Update
p235
aVCell/Update
p236
aVCell/Update
p237
aVCell/Update
p238
aVCell/Update
p239
aVCell/Update
p240
aVCell/Update
p241
aVCell/Update
p242
aVCell/Update
p243
aVCell/Update
p244
aVCell/Update
p245
aVCell/Update
p246
aVCell/Update
p247
aVCell/Update
p248
aVCell/Update
p249
asS'_filepath'
p250
V/home/ubuntu/SciSheets/mysite/user/guest/tables/kristen_single_gene.pcl
p251
sS'_backup_dir'
p252
g17
sbsS'_namespace'
p253
(dp254
sS'_hidden_columns'
p255
(lp256
g0
(cscisheets.core.column
Column
p257
g2
Ntp258
Rp259
(dp260
S'_asis'
p261
I00
sS'_owning_table'
p262
g4
sS'_cells'
p263
(lp264
(lp265
cnumpy.core.multiarray
scalar
p266
(cnumpy
dtype
p267
(S'i8'
p268
I0
I1
tp269
Rp270
(I3
S'<'
p271
NNNI-1
I-1
I0
tp272
bS'\x00\x00\x00\x00\x00\x00\x00\x00'
p273
tp274
Rp275
aVI
p276
ag266
(g270
S'\x01\x00\x00\x00\x00\x00\x00\x00'
p277
tp278
Rp279
aa(lp280
g266
(g270
S'\x00\x00\x00\x00\x00\x00\x00\x00'
p281
tp282
Rp283
aVR1
p284
ag266
(g270
S'\x01\x00\x00\x00\x00\x00\x00\x00'
p285
tp286
Rp287
aa(lp288
g266
(g270
S'\x00\x00\x00\x00\x00\x00\x00\x00'
p289
tp290
Rp291
aVR2
p292
ag266
(g270
S'\x01\x00\x00\x00\x00\x00\x00\x00'
p293
tp294
Rp295
aa(lp296
g266
(g270
S'\x01\x00\x00\x00\x00\x00\x00\x00'
p297
tp298
Rp299
ag276
ag266
(g270
S'\x01\x00\x00\x00\x00\x00\x00\x00'
p300
tp301
Rp302
aa(lp303
g266
(g270
S'\x01\x00\x00\x00\x00\x00\x00\x00'
p304
tp305
Rp306
ag276
ag266
(g270
S'\x02\x00\x00\x00\x00\x00\x00\x00'
p307
tp308
Rp309
aa(lp310
g266
(g270
S'\x01\x00\x00\x00\x00\x00\x00\x00'
p311
tp312
Rp313
ag276
ag266
(g270
S'\x03\x00\x00\x00\x00\x00\x00\x00'
p314
tp315
Rp316
aa(lp317
g266
(g270
S'\x01\x00\x00\x00\x00\x00\x00\x00'
p318
tp319
Rp320
ag284
ag266
(g270
S'\x01\x00\x00\x00\x00\x00\x00\x00'
p321
tp322
Rp323
aa(lp324
g266
(g270
S'\x01\x00\x00\x00\x00\x00\x00\x00'
p325
tp326
Rp327
ag284
ag266
(g270
S'\x02\x00\x00\x00\x00\x00\x00\x00'
p328
tp329
Rp330
aa(lp331
g266
(g270
S'\x01\x00\x00\x00\x00\x00\x00\x00'
p332
tp333
Rp334
ag284
ag266
(g270
S'\x03\x00\x00\x00\x00\x00\x00\x00'
p335
tp336
Rp337
aa(lp338
g266
(g270
S'\x01\x00\x00\x00\x00\x00\x00\x00'
p339
tp340
Rp341
ag292
ag266
(g270
S'\x01\x00\x00\x00\x00\x00\x00\x00'
p342
tp343
Rp344
aa(lp345
g266
(g270
S'\x01\x00\x00\x00\x00\x00\x00\x00'
p346
tp347
Rp348
ag292
ag266
(g270
S'\x02\x00\x00\x00\x00\x00\x00\x00'
p349
tp350
Rp351
aa(lp352
g266
(g270
S'\x01\x00\x00\x00\x00\x00\x00\x00'
p353
tp354
Rp355
ag292
ag266
(g270
S'\x03\x00\x00\x00\x00\x00\x00\x00'
p356
tp357
Rp358
aa(lp359
g266
(g270
S'\x02\x00\x00\x00\x00\x00\x00\x00'
p360
tp361
Rp362
ag276
ag266
(g270
S'\x01\x00\x00\x00\x00\x00\x00\x00'
p363
tp364
Rp365
aa(lp366
g266
(g270
S'\x02\x00\x00\x00\x00\x00\x00\x00'
p367
tp368
Rp369
ag284
ag266
(g270
S'\x01\x00\x00\x00\x00\x00\x00\x00'
p370
tp371
Rp372
aa(lp373
g266
(g270
S'\x02\x00\x00\x00\x00\x00\x00\x00'
p374
tp375
Rp376
ag292
ag266
(g270
S'\x01\x00\x00\x00\x00\x00\x00\x00'
p377
tp378
Rp379
aa(lp380
g266
(g270
S'\x03\x00\x00\x00\x00\x00\x00\x00'
p381
tp382
Rp383
ag276
ag266
(g270
S'\x01\x00\x00\x00\x00\x00\x00\x00'
p384
tp385
Rp386
aa(lp387
g266
(g270
S'\x03\x00\x00\x00\x00\x00\x00\x00'
p388
tp389
Rp390
ag284
ag266
(g270
S'\x01\x00\x00\x00\x00\x00\x00\x00'
p391
tp392
Rp393
aa(lp394
g266
(g270
S'\x03\x00\x00\x00\x00\x00\x00\x00'
p395
tp396
Rp397
ag292
ag266
(g270
S'\x01\x00\x00\x00\x00\x00\x00\x00'
p398
tp399
Rp400
aaNaNaNaNaNaNaNaNaNaNaNaNaNaNaNaNaNaNaNaNaNaNaNaNaNaNaNaNaNaNaNaNaNaNaNaNasS'_formula_statement'
p401
g0
(cscisheets.core.helpers.formula_statement
FormulaStatement
p402
g2
Ntp403
Rp404
(dp405
S'_statement'
p406
Vsel = Eff > min_eff\u000agrouping_columns =   [\u000a    Treatment[sel],\u000a     RunType[sel], \u000a    BRpl[sel],      \u000a  ]\u000aGroups, groupedCt = groupBy(\u000a     grouping_columns, Ct[sel])\u000aGroups, groupedEff = groupBy(\u000a     grouping_columns, Eff[sel])\u000aGroups = [[g[0], g[1], g[2]] for g in Groups]\u000aGroupedCt = roundValues(groupedCt,2)\u000aGroupedEff = roundValues(groupedEff,2)
p407
sS'_name'
p408
VGroups
p409
sS'_isExpression'
p410
I00
sS'_isStatement'
p411
I00
sS'_formula'
p412
Vsel = Eff > min_eff\u000agrouping_columns =   [\u000a    Treatment[sel],\u000a     RunType[sel], \u000a    BRpl[sel],      \u000a  ]\u000aGroups, groupedCt = groupBy(\u000a     grouping_columns, Ct[sel])\u000aGroups, groupedEff = groupBy(\u000a     grouping_columns, Eff[sel])\u000aGroups = [[g[0], g[1], g[2]] for g in Groups]\u000aGroupedCt = roundValues(groupedCt,2)\u000aGroupedEff = roundValues(groupedEff,2)
p413
sbsS'_data_class'
p414
g0
(cscisheets.core.helpers.api_util
DataClass
p415
c__builtin__
tuple
p416
(cnumpy
ndarray
p417
cscisheets.core.helpers.api_util
makeArray
p418
tp419
tp420
Rp421
sg408
g409
sbag0
(g257
g2
Ntp422
Rp423
(dp424
g261
I00
sg262
g4
sg263
(lp425
(lp426
F0.92
aF0.91
aF0.91
aa(lp427
F0.83
aF0.83
aF0.85
aa(lp428
F0.82
aF0.85
aF0.82
aa(lp429
F0.85
aF0.84
aF0.85
aa(lp430
F0.87
aF0.78
aF0.85
aa(lp431
F0.84
aF0.84
aF0.77
aa(lp432
F0.92
aF0.98
aF0.9
aa(lp433
F0.9
aF0.83
aF0.84
aa(lp434
F0.87
aF0.85
aF0.83
aa(lp435
F0.79
aF0.84
aF0.86
aa(lp436
F0.83
aF0.82
aF0.83
aa(lp437
F0.81
aF0.82
aF0.8
aa(lp438
F0.84
aF0.79
aF0.81
aa(lp439
F0.77
aF0.87
aF0.81
aa(lp440
F0.78
aF0.77
aF0.79
aa(lp441
F0.88
aF0.86
aF0.89
aa(lp442
F0.87
aF0.9
aF0.86
aa(lp443
F0.82
aF0.82
aF0.79
aaNaNaNaNaNaNaNaNaNaNaNaNaNaNaNaNaNaNaNaNaNaNaNaNaNaNaNaNaNaNaNaNaNaNaNaNasg401
g0
(g402
g2
Ntp444
Rp445
(dp446
g406
NsS'_column'
p447
g423
sg410
I00
sg411
I00
sg412
Nsbsg414
g0
(g415
g416
(g417
g418
tp448
tp449
Rp450
sg408
VGroupedEff
p451
sbag0
(g257
g2
Ntp452
Rp453
(dp454
g261
I00
sg262
g4
sg263
(lp455
(lp456
F18.31
aF18.29
aF18.15
aa(lp457
F18.24
aF18.22
aF18.36
aa(lp458
F19.72
aF19.75
aF20.01
aa(lp459
F22.42
aF22.5
aF22.44
aa(lp460
F21.92
aF22.03
aF21.94
aa(lp461
F23.4
aF23.47
aF23.41
aa(lp462
F19.92
aF19.85
aF20.0
aa(lp463
F21.86
aF22.09
aF21.84
aa(lp464
F23.89
aF23.54
aF24.27
aa(lp465
F22.18
aF21.71
aF21.75
aa(lp466
F23.88
aF23.42
aF23.63
aa(lp467
F24.59
aF24.61
aF24.34
aa(lp468
F23.48
aF23.31
aF23.45
aa(lp469
F23.22
aF23.8
aF23.49
aa(lp470
F26.37
aF26.36
aF26.17
aa(lp471
F18.82
aF18.97
aF18.92
aa(lp472
F18.91
aF18.78
aF18.8
aa(lp473
F20.5
aF20.47
aF20.28
aaNaNaNaNaNaNaNaNaNaNaNaNaNaNaNaNaNaNaNaNaNaNaNaNaNaNaNaNaNaNaNaNaNaNaNaNasg401
g0
(g402
g2
Ntp474
Rp475
(dp476
g406
Nsg447
g453
sg410
I00
sg411
I00
sg412
Nsbsg414
g0
(g415
g416
(g417
g418
tp477
tp478
Rp479
sg408
VGroupedCt
p480
sbag0
(g257
g2
Ntp481
Rp482
(dp483
g261
I00
sg262
g4
sg263
(lp484
(lp485
F18.3
aF18.3
aF18.1
aa(lp486
F18.2
aF18.2
aF18.4
aa(lp487
F19.7
aF19.8
aF20.0
aa(lp488
F22.4
aF22.5
aF22.4
aa(lp489
F21.9
aF22.0
aF21.9
aa(lp490
F23.4
aF23.5
aF23.4
aa(lp491
F19.9
aF19.9
aF20.0
aa(lp492
F21.9
aF22.1
aF21.8
aa(lp493
F23.9
aF23.5
aF24.3
aa(lp494
F22.2
aF21.7
aF21.8
aa(lp495
F23.9
aF23.4
aF23.6
aa(lp496
F24.6
aF24.6
aF24.3
aa(lp497
F23.5
aF23.3
aF23.4
aa(lp498
F23.2
aF23.8
aF23.5
aa(lp499
F26.4
aF26.4
aF26.2
aa(lp500
F18.8
aF19.0
aF18.9
aa(lp501
F18.9
aF18.8
aF18.8
aa(lp502
F20.5
aF20.5
aF20.3
aaNaNaNaNaNaNaNaNaNaNaNaNaNaNaNaNaNaNaNaNaNaNaNaNaNaNaNaNaNaNaNaNaNaNaNaNasg401
g0
(g402
g2
Ntp503
Rp504
(dp505
g406
Vlength = len(Groups)\u000aStdFilteredGroupedCt = roundValues([filterExtremes(g, max_std, 2) for g in pruneNulls(GroupedCt,    required_length=length)])\u000a 
p506
sg408
VStdFilteredGroupedCt
p507
sg410
I00
sg411
I00
sg412
Vlength = len(Groups)\u000aStdFilteredGroupedCt = roundValues([filterExtremes(g, max_std, 2) for g in pruneNulls(GroupedCt,    required_length=length)])\u000a 
p508
sbsg414
g0
(g415
g416
(g417
g418
tp509
tp510
Rp511
sg408
g507
sbag0
(g257
g2
Ntp512
Rp513
(dp514
g261
I00
sg262
g4
sg263
(lp515
F18.2
aF18.3
aF19.8
aF22.4
aF21.9
aF23.4
aF19.9
aF21.9
aF23.9
aF21.9
aF23.6
aF24.5
aF23.4
aF23.5
aF26.3
aF18.9
aF18.8
aF20.4
aFnan
aFnan
aFnan
aFnan
aFnan
aFnan
aFnan
aFnan
aFnan
aFnan
aFnan
aFnan
aFnan
aFnan
aFnan
aFnan
aFnan
aFnan
aFnan
aFnan
aFnan
aFnan
aFnan
aFnan
aFnan
aFnan
aFnan
aFnan
aFnan
aFnan
aFnan
aFnan
aFnan
aFnan
aFnan
aFnan
asg401
g0
(g402
g2
Ntp516
Rp517
(dp518
g406
VMeanCt = [np.mean(g) for g in StdFilteredGroupedCt]\u000aMeanCt = roundValues(MeanCt,1)\u000aStdCt = [np.std(g, ddof=1) for g in StdFilteredGroupedCt]\u000aStdCt = roundValues(StdCt,3)
p519
sg408
VMeanCt
p520
sg410
I00
sg411
I00
sg412
VMeanCt = [np.mean(g) for g in StdFilteredGroupedCt]\u000aMeanCt = roundValues(MeanCt,1)\u000aStdCt = [np.std(g, ddof=1) for g in StdFilteredGroupedCt]\u000aStdCt = roundValues(StdCt,3)
p521
sbsg414
g0
(g415
g416
(g417
g418
tp522
tp523
Rp524
sg408
g520
sbag0
(g257
g2
Ntp525
Rp526
(dp527
g261
I00
sg262
g4
sg263
(lp528
F0.115
aF0.115
aF0.153
aF0.058
aF0.058
aF0.058
aF0.058
aF0.153
aF0.4
aF0.265
aF0.252
aF0.173
aF0.1
aF0.3
aF0.115
aF0.1
aF0.058
aF0.115
aFnan
aFnan
aFnan
aFnan
aFnan
aFnan
aFnan
aFnan
aFnan
aFnan
aFnan
aFnan
aFnan
aFnan
aFnan
aFnan
aFnan
aFnan
aFnan
aFnan
aFnan
aFnan
aFnan
aFnan
aFnan
aFnan
aFnan
aFnan
aFnan
aFnan
aFnan
aFnan
aFnan
aFnan
aFnan
aFnan
asg401
g0
(g402
g2
Ntp529
Rp530
(dp531
g406
Nsg447
g526
sg410
I00
sg411
I00
sg412
Nsbsg414
g0
(g415
g416
(g417
g418
tp532
tp533
Rp534
sg408
VStdCt
p535
sbag0
(g257
g2
Ntp536
Rp537
(dp538
g261
I00
sg262
g4
sg263
(lp539
(lp540
g266
(g270
S'\x00\x00\x00\x00\x00\x00\x00\x00'
p541
tp542
Rp543
ag266
(g270
S'\x01\x00\x00\x00\x00\x00\x00\x00'
p544
tp545
Rp546
aa(lp547
g266
(g270
S'\x01\x00\x00\x00\x00\x00\x00\x00'
p548
tp549
Rp550
ag266
(g270
S'\x01\x00\x00\x00\x00\x00\x00\x00'
p551
tp552
Rp553
aa(lp554
g266
(g270
S'\x01\x00\x00\x00\x00\x00\x00\x00'
p555
tp556
Rp557
ag266
(g270
S'\x02\x00\x00\x00\x00\x00\x00\x00'
p558
tp559
Rp560
aa(lp561
g266
(g270
S'\x01\x00\x00\x00\x00\x00\x00\x00'
p562
tp563
Rp564
ag266
(g270
S'\x03\x00\x00\x00\x00\x00\x00\x00'
p565
tp566
Rp567
aa(lp568
g266
(g270
S'\x02\x00\x00\x00\x00\x00\x00\x00'
p569
tp570
Rp571
ag266
(g270
S'\x01\x00\x00\x00\x00\x00\x00\x00'
p572
tp573
Rp574
aa(lp575
g266
(g270
S'\x03\x00\x00\x00\x00\x00\x00\x00'
p576
tp577
Rp578
ag266
(g270
S'\x01\x00\x00\x00\x00\x00\x00\x00'
p579
tp580
Rp581
aaNaNaNaNaNaNaNaNaNaNaNaNaNaNaNaNaNaNaNaNaNaNaNaNaNaNaNaNaNaNaNaNaNaNaNaNaNaNaNaNaNaNaNaNaNaNaNaNasg401
g0
(g402
g2
Ntp582
Rp583
(dp584
g406
Vdummy = tabularize(s, 'Groups', 1, 'MeanCt', \u000a          new_category_colnm='BioRuns',\u000a          values_colnm_prefix='Gene_')
p585
sg408
VBioRuns
p586
sg410
I00
sg411
I00
sg412
Vdummy = tabularize(s, 'Groups', 1, 'MeanCt', \u000a          new_category_colnm='BioRuns',\u000a          values_colnm_prefix='Gene_')
p587
sbsg414
g0
(g415
g416
(g417
g418
tp588
tp589
Rp590
sg408
g586
sbag0
(g257
g2
Ntp591
Rp592
(dp593
g261
I00
sg262
g4
sg263
(lp594
F18.2
aF22.4
aF21.9
aF23.4
aF23.4
aF18.9
aFnan
aFnan
aFnan
aFnan
aFnan
aFnan
aFnan
aFnan
aFnan
aFnan
aFnan
aFnan
aFnan
aFnan
aFnan
aFnan
aFnan
aFnan
aFnan
aFnan
aFnan
aFnan
aFnan
aFnan
aFnan
aFnan
aFnan
aFnan
aFnan
aFnan
aFnan
aFnan
aFnan
aFnan
aFnan
aFnan
aFnan
aFnan
aFnan
aFnan
aFnan
aFnan
aFnan
aFnan
aFnan
aFnan
aFnan
aFnan
asg401
g0
(g402
g2
Ntp595
Rp596
(dp597
g406
Nsg447
g592
sg410
I00
sg411
I00
sg412
Nsbsg414
g0
(g415
g416
(g417
g418
tp598
tp599
Rp600
sg408
S'Gene_I'
p601
sbag0
(g257
g2
Ntp602
Rp603
(dp604
g261
I00
sg262
g4
sg263
(lp605
F18.3
aF19.9
aF21.9
aF23.9
aF23.5
aF18.8
aFnan
aFnan
aFnan
aFnan
aFnan
aFnan
aFnan
aFnan
aFnan
aFnan
aFnan
aFnan
aFnan
aFnan
aFnan
aFnan
aFnan
aFnan
aFnan
aFnan
aFnan
aFnan
aFnan
aFnan
aFnan
aFnan
aFnan
aFnan
aFnan
aFnan
aFnan
aFnan
aFnan
aFnan
aFnan
aFnan
aFnan
aFnan
aFnan
aFnan
aFnan
aFnan
aFnan
aFnan
aFnan
aFnan
aFnan
aFnan
asg401
g0
(g402
g2
Ntp606
Rp607
(dp608
g406
Nsg447
g603
sg410
I00
sg411
I00
sg412
Nsbsg414
g600
sg408
S'Gene_R1'
p609
sbag0
(g257
g2
Ntp610
Rp611
(dp612
g261
I00
sg262
g4
sg263
(lp613
F19.8
aF21.9
aF23.6
aF24.5
aF26.3
aF20.4
aFnan
aFnan
aFnan
aFnan
aFnan
aFnan
aFnan
aFnan
aFnan
aFnan
aFnan
aFnan
aFnan
aFnan
aFnan
aFnan
aFnan
aFnan
aFnan
aFnan
aFnan
aFnan
aFnan
aFnan
aFnan
aFnan
aFnan
aFnan
aFnan
aFnan
aFnan
aFnan
aFnan
aFnan
aFnan
aFnan
aFnan
aFnan
aFnan
aFnan
aFnan
aFnan
aFnan
aFnan
aFnan
aFnan
aFnan
aFnan
asg401
g0
(g402
g2
Ntp614
Rp615
(dp616
g406
Nsg447
g611
sg410
I00
sg411
I00
sg412
Nsbsg414
g600
sg408
S'Gene_R2'
p617
sbag0
(g257
g2
Ntp618
Rp619
(dp620
g261
I00
sg262
g4
sg263
(lp621
F1.07177
aF0.17678
aF1.0
aF1.41421
aF1.07177
aF0.93303
aFnan
aFnan
aFnan
aFnan
aFnan
aFnan
aFnan
aFnan
aFnan
aFnan
aFnan
aFnan
aFnan
aFnan
aFnan
aFnan
aFnan
aFnan
aFnan
aFnan
aFnan
aFnan
aFnan
aFnan
aFnan
aFnan
aFnan
aFnan
aFnan
aFnan
aFnan
aFnan
aFnan
aFnan
aFnan
aFnan
aFnan
aFnan
aFnan
aFnan
aFnan
aFnan
aFnan
aFnan
aFnan
aFnan
aFnan
aFnan
asg401
g0
(g402
g2
Ntp622
Rp623
(dp624
g406
VExprR1 = roundValues(2**(Gene_R1 - Gene_I),5)
p625
sg408
VExprR1
p626
sg410
I01
sg411
I00
sg412
VroundValues(2**(Gene_R1 - Gene_I),5)
p627
sbsg414
g0
(g415
g416
(g417
g418
tp628
tp629
Rp630
sg408
g626
sbag0
(g257
g2
Ntp631
Rp632
(dp633
g261
I00
sg262
g4
sg263
(lp634
F3.03143
aF0.70711
aF3.24901
aF2.14355
aF7.46426
aF2.82843
aFnan
aFnan
aFnan
aFnan
aFnan
aFnan
aFnan
aFnan
aFnan
aFnan
aFnan
aFnan
aFnan
aFnan
aFnan
aFnan
aFnan
aFnan
aFnan
aFnan
aFnan
aFnan
aFnan
aFnan
aFnan
aFnan
aFnan
aFnan
aFnan
aFnan
aFnan
aFnan
aFnan
aFnan
aFnan
aFnan
aFnan
aFnan
aFnan
aFnan
aFnan
aFnan
aFnan
aFnan
aFnan
aFnan
aFnan
aFnan
asg401
g0
(g402
g2
Ntp635
Rp636
(dp637
g406
VExprR2 = roundValues(2**(Gene_R2 - Gene_I),5)
p638
sg408
VExprR2
p639
sg410
I01
sg411
I00
sg412
VroundValues(2**(Gene_R2 - Gene_I),5)
p640
sbsg414
g0
(g415
g416
(g417
g418
tp641
tp642
Rp643
sg408
g639
sbag0
(g257
g2
Ntp644
Rp645
(dp646
g261
I00
sg262
g4
sg263
(lp647
F1.802
aF0.354
aF1.803
aF1.741
aF2.828
aF1.625
aFnan
aFnan
aFnan
aFnan
aFnan
aFnan
aFnan
aFnan
aFnan
aFnan
aFnan
aFnan
aFnan
aFnan
aFnan
aFnan
aFnan
aFnan
aFnan
aFnan
aFnan
aFnan
aFnan
aFnan
aFnan
aFnan
aFnan
aFnan
aFnan
aFnan
aFnan
aFnan
aFnan
aFnan
aFnan
aFnan
aFnan
aFnan
aFnan
aFnan
aFnan
aFnan
aFnan
aFnan
aFnan
aFnan
aFnan
aFnan
asg401
g0
(g402
g2
Ntp648
Rp649
(dp650
g406
VGeoMean = roundValues(np.sqrt(ExprR1*ExprR2), 3)
p651
sg408
VGeoMean
p652
sg410
I01
sg411
I00
sg412
VroundValues(np.sqrt(ExprR1*ExprR2), 3)
p653
sbsg414
g0
(g415
g416
(g417
g418
tp654
tp655
Rp656
sg408
g652
sbag0
(g257
g2
Ntp657
Rp658
(dp659
g261
I00
sg262
g4
sg263
(lp660
I1
aI1
aI1
aI1
aI1
aI1
aI1
aI1
aI1
aI1
aI1
aI1
aI2
aI2
aI2
aI3
aI3
aI3
aI1
aI1
aI1
aI2
aI2
aI2
aI3
aI3
aI3
aI1
aI1
aI1
aI2
aI2
aI2
aI3
aI3
aI3
aI1
aI1
aI1
aI1
aI1
aI1
aI1
aI1
aI1
aI1
aI1
aI1
aI1
aI1
aI1
aI1
aI1
aI1
asg401
g0
(g402
g2
Ntp661
Rp662
(dp663
g406
Nsg408
S'BRpl'
p664
sg410
I00
sg411
I00
sg412
Nsbsg414
g0
(g415
g416
(g417
g418
tp665
tp666
Rp667
sg408
g664
sbag0
(g257
g2
Ntp668
Rp669
(dp670
g261
I00
sg262
g4
sg263
(lp671
F18.31
aF18.29
aF18.15
aF18.24
aF18.22
aF18.36
aF19.72
aF19.75
aF20.01
aF22.42
aF22.5
aF22.44
aF21.92
aF22.03
aF21.94
aF23.4
aF23.47
aF23.41
aF19.92
aF19.85
aF20.0
aF21.86
aF22.09
aF21.84
aF23.89
aF23.54
aF24.27
aF22.18
aF21.71
aF21.75
aF23.88
aF23.42
aF23.63
aF24.59
aF24.61
aF24.34
aF23.48
aF23.31
aF23.45
aF23.22
aF23.8
aF23.49
aF26.37
aF26.36
aF26.17
aF18.82
aF18.97
aF18.92
aF18.91
aF18.78
aF18.8
aF20.5
aF20.47
aF20.28
asg401
g0
(g402
g2
Ntp672
Rp673
(dp674
g406
Nsg408
S'Ct'
p675
sg410
I00
sg411
I00
sg412
Nsbsg414
g667
sg408
g675
sbag0
(g257
g2
Ntp676
Rp677
(dp678
g261
I00
sg262
g4
sg263
(lp679
F0.919
aF0.9106
aF0.9129
aF0.8266
aF0.8343
aF0.8496
aF0.8157
aF0.8543
aF0.8208
aF0.8453
aF0.8426
aF0.8524
aF0.8658
aF0.7809
aF0.8512
aF0.8442
aF0.8357
aF0.7658
aF0.9179
aF0.9783
aF0.8971
aF0.8957
aF0.8287
aF0.8387
aF0.8746
aF0.8493
aF0.8349
aF0.7857
aF0.8427
aF0.8637
aF0.8281
aF0.8203
aF0.8288
aF0.8138
aF0.8242
aF0.804
aF0.8352
aF0.7886
aF0.8105
aF0.7701
aF0.8746
aF0.8139
aF0.7795
aF0.7676
aF0.7947
aF0.876
aF0.8597
aF0.8873
aF0.8715
aF0.8977
aF0.856
aF0.8179
aF0.8173
aF0.7894
asg401
g0
(g402
g2
Ntp680
Rp681
(dp682
g406
Nsg408
S'Eff'
p683
sg410
I00
sg411
I00
sg412
Nsbsg414
g667
sg408
g683
sbag0
(g257
g2
Ntp684
Rp685
(dp686
g261
I00
sg262
g4
sg263
(lp687
g276
ag276
ag276
aVR1
p688
aVR1
p689
aVR1
p690
aVR2
p691
aVR2
p692
aVR2
p693
ag276
ag276
ag276
ag276
ag276
ag276
ag276
ag276
ag276
aVR1
p694
aVR1
p695
aVR1
p696
aVR1
p697
aVR1
p698
aVR1
p699
aVR1
p700
aVR1
p701
aVR1
p702
aVR2
p703
aVR2
p704
aVR2
p705
aVR2
p706
aVR2
p707
aVR2
p708
aVR2
p709
aVR2
p710
aVR2
p711
ag276
ag276
ag276
aVR1
p712
aVR1
p713
aVR1
p714
aVR2
p715
aVR2
p716
aVR2
p717
ag276
ag276
ag276
aVR1
p718
aVR1
p719
aVR1
p720
aVR2
p721
aVR2
p722
aVR2
p723
asg401
g0
(g402
g2
Ntp724
Rp725
(dp726
g406
Nsg408
S'RunType'
p727
sg410
I00
sg411
I00
sg412
Nsbsg414
g667
sg408
g727
sbag0
(g257
g2
Ntp728
Rp729
(dp730
g261
I00
sg262
g4
sg263
(lp731
Va
p732
aVb
p733
aVc
p734
ag732
ag733
ag734
ag732
ag733
ag734
ag732
ag733
ag734
ag732
ag733
ag734
ag732
ag733
ag734
ag732
ag733
ag734
ag732
ag733
ag734
ag732
ag733
ag734
ag732
ag733
ag734
ag732
ag733
ag734
ag732
ag733
ag734
ag732
ag733
ag734
ag732
ag733
ag734
ag732
ag733
ag734
ag732
ag733
ag734
ag732
ag733
ag734
ag732
ag733
ag734
asg401
g0
(g402
g2
Ntp735
Rp736
(dp737
g406
Nsg408
S'TRpl'
p738
sg410
I00
sg411
I00
sg412
Nsbsg414
g667
sg408
g738
sbag0
(g257
g2
Ntp739
Rp740
(dp741
g261
I00
sg262
g4
sg263
(lp742
I0
aI0
aI0
aI0
aI0
aI0
aI0
aI0
aI0
aI1
aI1
aI1
aI1
aI1
aI1
aI1
aI1
aI1
aI1
aI1
aI1
aI1
aI1
aI1
aI1
aI1
aI1
aI1
aI1
aI1
aI1
aI1
aI1
aI1
aI1
aI1
aI2
aI2
aI2
aI2
aI2
aI2
aI2
aI2
aI2
aI3
aI3
aI3
aI3
aI3
aI3
aI3
aI3
aI3
asg401
g0
(g402
g2
Ntp743
Rp744
(dp745
g406
Nsg408
S'Treatment'
p746
sg410
I00
sg411
I00
sg412
Nsbsg414
g667
sg408
g746
sbasS'_is_evaluate_formulas'
p747
I01
sS'_prologue'
p748
g0
(g402
g2
Ntp749
Rp750
(dp751
g406
V# Prologue\u000aimport math as mt\u000aimport numpy as np\u000afrom os import listdir\u000afrom os.path import isfile, join\u000aimport pandas as pd\u000aimport scipy as sp\u000afrom numpy import nan  # Must follow sympy import \u000a\u000axlsx_path = '/mnt/hgfs/josephhellerstein/home/Technical/SciSheets/CaseStudies/Kristen/workbooks/data.xlsx'\u000agene = ParmValues[0]\u000arun = ParmValues[1] == 'True'\u000ashow_raw = ParmValues[2] == 'True'\u000ashow_block1 = ParmValues[3] == 'True'\u000ashow_block2 = ParmValues[4] == 'True'\u000ashow_block3 = ParmValues[5] == 'True'\u000ashow_params = ParmValues[8] == 'True'\u000a#show_params = True\u000amax_std  = float(ParmValues[6])\u000amin_eff = float(ParmValues[7])\u000aworksheet = gene + "-I"\u000as.getTable().setIsEvaluateFormulas(run)\u000as.setColumnVisibility()\u000as.setColumnVisibility(['Groups', 'GroupedEff', 'GroupedCt', 'StdFilteredGroupedCt', 'MeanCt', 'StdCt'], is_visible=show_block1)\u000as.setColumnVisibility(['BioRuns', 'Gene_I', 'Gene_R1', 'Gene_R2', 'ExprR1', 'ExprR2', 'GeoMean'], is_visible=show_block2)\u000as.setColumnVisibility(['GeoGroups', 'GroupedGeoMeans', 'NrmlGeoGroupedMeans', 'MeanNrmlGeoGroups', 'StdNrmlGeoGroups'], is_visible=show_block3)\u000aif False:\u000a  Groups = []\u000a  GroupedCt = []\u000a  GroupedEff = []\u000a  MeanCt = []\u000a  Imp = []\u000a  s.deleteColumn('Ct')\u000a  s.deleteColumn('RunType')\u000a  s.deleteColumn('BRpl')\u000a  s.deleteColumn('TRpl')\u000a  s.deleteColumn('Treatment')\u000a  s.deleteColumn('Eff')\u000aif run:\u000a  importExcelToTable(s, xlsx_path, worksheet=worksheet,\u000a      column_position='ParmValues',\u000a      names=['Treatment', 'RunType', 'BRpl', 'TRpl', 'Eff', 'Ct'])\u000as.setColumnVisibility(['BRpl', 'Ct', 'Eff', 'RunType', 'TRpl', 'Treatment'], is_visible=show_raw)\u000as.setColumnVisibility(['ParmNames', 'ParmValues'], show_params)
p752
sg408
VSingleGene
p753
sg410
I00
sg411
I00
sg412
V# Prologue\u000aimport math as mt\u000aimport numpy as np\u000afrom os import listdir\u000afrom os.path import isfile, join\u000aimport pandas as pd\u000aimport scipy as sp\u000afrom numpy import nan  # Must follow sympy import \u000a\u000axlsx_path = '/mnt/hgfs/josephhellerstein/home/Technical/SciSheets/CaseStudies/Kristen/workbooks/data.xlsx'\u000agene = ParmValues[0]\u000arun = ParmValues[1] == 'True'\u000ashow_raw = ParmValues[2] == 'True'\u000ashow_block1 = ParmValues[3] == 'True'\u000ashow_block2 = ParmValues[4] == 'True'\u000ashow_block3 = ParmValues[5] == 'True'\u000ashow_params = ParmValues[8] == 'True'\u000a#show_params = True\u000amax_std  = float(ParmValues[6])\u000amin_eff = float(ParmValues[7])\u000aworksheet = gene + "-I"\u000as.getTable().setIsEvaluateFormulas(run)\u000as.setColumnVisibility()\u000as.setColumnVisibility(['Groups', 'GroupedEff', 'GroupedCt', 'StdFilteredGroupedCt', 'MeanCt', 'StdCt'], is_visible=show_block1)\u000as.setColumnVisibility(['BioRuns', 'Gene_I', 'Gene_R1', 'Gene_R2', 'ExprR1', 'ExprR2', 'GeoMean'], is_visible=show_block2)\u000as.setColumnVisibility(['GeoGroups', 'GroupedGeoMeans', 'NrmlGeoGroupedMeans', 'MeanNrmlGeoGroups', 'StdNrmlGeoGroups'], is_visible=show_block3)\u000aif False:\u000a  Groups = []\u000a  GroupedCt = []\u000a  GroupedEff = []\u000a  MeanCt = []\u000a  Imp = []\u000a  s.deleteColumn('Ct')\u000a  s.deleteColumn('RunType')\u000a  s.deleteColumn('BRpl')\u000a  s.deleteColumn('TRpl')\u000a  s.deleteColumn('Treatment')\u000a  s.deleteColumn('Eff')\u000aif run:\u000a  importExcelToTable(s, xlsx_path, worksheet=worksheet,\u000a      column_position='ParmValues',\u000a      names=['Treatment', 'RunType', 'BRpl', 'TRpl', 'Eff', 'Ct'])\u000as.setColumnVisibility(['BRpl', 'Ct', 'Eff', 'RunType', 'TRpl', 'Treatment'], is_visible=show_raw)\u000as.setColumnVisibility(['ParmNames', 'ParmValues'], show_params)
p754
sbsS'_epilogue'
p755
g0
(g402
g2
Ntp756
Rp757
(dp758
g406
V# Epilogue\u000aif run:\u000a  worksheet = "%s-O" % gene\u000a  exportTableToExcel(s, xlsx_path, worksheet=worksheet, columns=['GeoGroups', 'MeanNrmlGeoGroups', 'StdNrmlGeoGroups'])\u000a
p759
sg408
g753
sg410
I00
sg411
I00
sg412
V# Epilogue\u000aif run:\u000a  worksheet = "%s-O" % gene\u000a  exportTableToExcel(s, xlsx_path, worksheet=worksheet, columns=['GeoGroups', 'MeanNrmlGeoGroups', 'StdNrmlGeoGroups'])\u000a
p760
sbsg408
g753
sS'_columns'
p761
(lp762
g0
(g257
g2
Ntp763
Rp764
(dp765
g261
I01
sg262
g4
sg263
(lp766
S'1'
p767
aS'2'
p768
aS'3'
p769
aS'4'
p770
aS'5'
p771
aS'6'
p772
aS'7'
p773
aS'8'
p774
aS'9'
p775
aS'10'
p776
aS'11'
p777
aS'12'
p778
aS'13'
p779
aS'14'
p780
aS'15'
p781
aS'16'
p782
aS'17'
p783
aS'18'
p784
aS'19'
p785
aS'20'
p786
aS'21'
p787
aS'22'
p788
aS'23'
p789
aS'24'
p790
aS'25'
p791
aS'26'
p792
aS'27'
p793
aS'28'
p794
aS'29'
p795
aS'30'
p796
aS'31'
p797
aS'32'
p798
aS'33'
p799
aS'34'
p800
aS'35'
p801
aS'36'
p802
aS'37'
p803
aS'38'
p804
aS'39'
p805
aS'40'
p806
aS'41'
p807
aS'42'
p808
aS'43'
p809
aS'44'
p810
aS'45'
p811
aS'46'
p812
aS'47'
p813
aS'48'
p814
aS'49'
p815
aS'50'
p816
aS'51'
p817
aS'52'
p818
aS'53'
p819
aS'54'
p820
asg401
g0
(g402
g2
Ntp821
Rp822
(dp823
g406
Nsg447
g764
sg410
I00
sg411
I00
sg412
Nsbsg414
g0
(g415
g416
(g417
g418
tp824
tp825
Rp826
sg408
S'row'
p827
sbag0
(g257
g2
Ntp828
Rp829
(dp830
g261
I00
sg262
g4
sg263
(lp831
Vgene
p832
aVrun
p833
aVshow_raw
p834
aVshow_block1
p835
aVshow_block2
p836
aVshow_block3
p837
aVmax_std
p838
aVmin_eff
p839
aVshow_params
p840
aVnan
p841
aVnan
p842
aVnan
p843
aVnan
p844
aVnan
p845
aVnan
p846
aVnan
p847
aVnan
p848
aVnan
p849
aVnan
p850
aVnan
p851
aVnan
p852
aVnan
p853
aVnan
p854
aVnan
p855
aVnan
p856
aVnan
p857
aVnan
p858
aVnan
p859
aVnan
p860
aVnan
p861
aVnan
p862
aVnan
p863
aVnan
p864
aVnan
p865
aVnan
p866
aVnan
p867
aVnan
p868
aVnan
p869
aVnan
p870
aVnan
p871
aVnan
p872
aVnan
p873
aVnan
p874
aVnan
p875
aVnan
p876
aVnan
p877
aVnan
p878
aVnan
p879
aVnan
p880
aVnan
p881
aVnan
p882
aVnan
p883
aVnan
p884
aVnan
p885
asg401
g0
(g402
g2
Ntp886
Rp887
(dp888
g406
Nsg447
g829
sg410
I00
sg411
I00
sg412
Nsbsg414
g0
(g415
g416
(g417
g418
tp889
tp890
Rp891
sg408
VParmNames
p892
sbag0
(g257
g2
Ntp893
Rp894
(dp895
g261
I00
sg262
g4
sg263
(lp896
VGene2
p897
aVTrue
p898
aVFalse
p899
aVFalse
p900
aVFalse
p901
aVTrue
p902
aV0.5
p903
aV0.7
p904
aVTrue
p905
aV
p906
aVnan
p907
aVnan
p908
aVnan
p909
aVnan
p910
aVnan
p911
aVnan
p912
aVnan
p913
aVnan
p914
aVnan
p915
aVnan
p916
aVnan
p917
aVnan
p918
aVnan
p919
aVnan
p920
aVnan
p921
aVnan
p922
aVnan
p923
aVnan
p924
aVnan
p925
aVnan
p926
aVnan
p927
aVnan
p928
aVnan
p929
aVnan
p930
aVnan
p931
aVnan
p932
aVnan
p933
aVnan
p934
aVnan
p935
aVnan
p936
aVnan
p937
aVnan
p938
aVnan
p939
aVnan
p940
aVnan
p941
aVnan
p942
aVnan
p943
aVnan
p944
aVnan
p945
aVnan
p946
aVnan
p947
aVnan
p948
aVnan
p949
aVnan
p950
asg401
g0
(g402
g2
Ntp951
Rp952
(dp953
g406
Nsg408
VParmValues
p954
sg410
I00
sg411
I00
sg412
Nsbsg414
g0
(g415
g416
(g417
g418
tp955
tp956
Rp957
sg408
g954
sbag740
ag685
ag658
ag729
ag677
ag669
ag259
ag423
ag453
ag482
ag513
ag526
ag537
ag592
ag603
ag611
ag619
ag632
ag645
ag0
(g257
g2
Ntp958
Rp959
(dp960
g261
I00
sg262
g4
sg263
(lp961
(lp962
g266
(g270
S'\x00\x00\x00\x00\x00\x00\x00\x00'
p963
tp964
Rp965
aa(lp966
g266
(g270
S'\x01\x00\x00\x00\x00\x00\x00\x00'
p967
tp968
Rp969
aa(lp970
g266
(g270
S'\x02\x00\x00\x00\x00\x00\x00\x00'
p971
tp972
Rp973
aa(lp974
g266
(g270
S'\x03\x00\x00\x00\x00\x00\x00\x00'
p975
tp976
Rp977
aaNaNaNaNaNaNaNaNaNaNaNaNaNaNaNaNaNaNaNaNaNaNaNaNaNaNaNaNaNaNaNaNaNaNaNaNaNaNaNaNaNaNaNaNaNaNaNaNaNaNasg401
g0
(g402
g2
Ntp978
Rp979
(dp980
g406
Vcat_vals = [br[0] for br in pruneNulls(BioRuns)]\u000aclean_geo = [x for x in GeoMean if x is not None]\u000aGeoGroups, groupedGeoMeans = groupBy(cat_vals, clean_geo)\u000aGroupedGeoMeans = roundValues(groupedGeoMeans, 3)\u000aGeoGroups = [[x] for x in GeoGroups]
p981
sg408
VGeoGroups
p982
sg410
I00
sg411
I00
sg412
Vcat_vals = [br[0] for br in pruneNulls(BioRuns)]\u000aclean_geo = [x for x in GeoMean if x is not None]\u000aGeoGroups, groupedGeoMeans = groupBy(cat_vals, clean_geo)\u000aGroupedGeoMeans = roundValues(groupedGeoMeans, 3)\u000aGeoGroups = [[x] for x in GeoGroups]
p983
sbsg414
g0
(g415
g416
(g417
g418
tp984
tp985
Rp986
sg408
g982
sbag0
(g257
g2
Ntp987
Rp988
(dp989
g261
I00
sg262
g4
sg263
(lp990
cnumpy.core.multiarray
_reconstruct
p991
(g417
(I0
tp992
S'b'
p993
tp994
Rp995
(I1
(I1
tp996
g267
(S'f8'
p997
I0
I1
tp998
Rp999
(I3
S'<'
p1000
NNNI-1
I-1
I0
tp1001
bI00
S'\xa2E\xb6\xf3\xfd\xd4\xfc?'
p1002
tp1003
bag991
(g417
(I0
tp1004
g993
tp1005
Rp1006
(I1
(I3
tp1007
g999
I00
S'\x0e-\xb2\x9d\xef\xa7\xd6?\x0c\x02+\x87\x16\xd9\xfc?B`\xe5\xd0"\xdb\xfb?'
p1008
tp1009
bag991
(g417
(I0
tp1010
g993
tp1011
Rp1012
(I1
(I1
tp1013
g999
I00
S'9\xb4\xc8v\xbe\x9f\x06@'
p1014
tp1015
bag991
(g417
(I0
tp1016
g993
tp1017
Rp1018
(I1
(I1
tp1019
g999
I00
S'\x00\x00\x00\x00\x00\x00\xfa?'
p1020
tp1021
baNaNaNaNaNaNaNaNaNaNaNaNaNaNaNaNaNaNaNaNaNaNaNaNaNaNaNaNaNaNaNaNaNaNaNaNaNaNaNaNaNaNaNaNaNaNaNaNaNaNasg401
g0
(g402
g2
Ntp1022
Rp1023
(dp1024
g406
Nsg447
g988
sg410
I00
sg411
I00
sg412
Nsbsg414
g0
(g415
g416
(g417
g418
tp1025
tp1026
Rp1027
sg408
VGroupedGeoMeans
p1028
sbag0
(g257
g2
Ntp1029
Rp1030
(dp1031
g261
I00
sg262
g4
sg263
(lp1032
g991
(g417
(I0
tp1033
g993
tp1034
Rp1035
(I1
(I1
tp1036
g999
I00
S'\x00\x00\x00\x00\x00\x00\xf0?'
p1037
tp1038
bag991
(g417
(I0
tp1039
g993
tp1040
Rp1041
(I1
(I3
tp1042
g999
I00
S'J\x0c\x02+\x87\x16\xc9?j\xbct\x93\x18\x04\xf0?\xb6\xf3\xfd\xd4x\xe9\xee?'
p1043
tp1044
bag991
(g417
(I0
tp1045
g993
tp1046
Rp1047
(I1
(I1
tp1048
g999
I00
S'\xb4\xc8v\xbe\x9f\x1a\xf9?'
p1049
tp1050
bag991
(g417
(I0
tp1051
g993
tp1052
Rp1053
(I1
(I1
tp1054
g999
I00
S'w\xbe\x9f\x1a/\xdd\xec?'
p1055
tp1056
baNaNaNaNaNaNaNaNaNaNaNaNaNaNaNaNaNaNaNaNaNaNaNaNaNaNaNaNaNaNaNaNaNaNaNaNaNaNaNaNaNaNaNaNaNaNaNaNaNaNasg401
g0
(g402
g2
Ntp1057
Rp1058
(dp1059
g406
Vref = np.mean(GroupedGeoMeans[0])\u000aNrmlGeoGroupedMeans = [ [x/ref for x in g] for g in GroupedGeoMeans if g is not None]  \u000aNrmlGeoGroupedMeans = roundValues(NrmlGeoGroupedMeans, 3)
p1060
sg408
VNrmlGeoGroupedMeans
p1061
sg410
I00
sg411
I00
sg412
Vref = np.mean(GroupedGeoMeans[0])\u000aNrmlGeoGroupedMeans = [ [x/ref for x in g] for g in GroupedGeoMeans if g is not None]  \u000aNrmlGeoGroupedMeans = roundValues(NrmlGeoGroupedMeans, 3)
p1062
sbsg414
g0
(g415
g416
(g417
g418
tp1063
tp1064
Rp1065
sg408
g1061
sbag0
(g257
g2
Ntp1066
Rp1067
(dp1068
g261
I00
sg262
g4
sg263
(lp1069
F1.0
aF0.721
aF1.569
aF0.902
aFnan
aFnan
aFnan
aFnan
aFnan
aFnan
aFnan
aFnan
aFnan
aFnan
aFnan
aFnan
aFnan
aFnan
aFnan
aFnan
aFnan
aFnan
aFnan
aFnan
aFnan
aFnan
aFnan
aFnan
aFnan
aFnan
aFnan
aFnan
aFnan
aFnan
aFnan
aFnan
aFnan
aFnan
aFnan
aFnan
aFnan
aFnan
aFnan
aFnan
aFnan
aFnan
aFnan
aFnan
aFnan
aFnan
aFnan
aFnan
aFnan
aFnan
asg401
g0
(g402
g2
Ntp1070
Rp1071
(dp1072
g406
VMeanNrmlGeoGroups = [round(np.mean(g), 3) for g in NrmlGeoGroupedMeans]
p1073
sg408
VMeanNrmlGeoGroups
p1074
sg410
I01
sg411
I00
sg412
V[round(np.mean(g), 3) for g in NrmlGeoGroupedMeans]
p1075
sbsg414
g0
(g415
g416
(g417
g418
tp1076
tp1077
Rp1078
sg408
g1074
sbag0
(g257
g2
Ntp1079
Rp1080
(dp1081
g261
I00
sg262
g4
sg263
(lp1082
Fnan
aF0.263
aFnan
aFnan
aFnan
aFnan
aFnan
aFnan
aFnan
aFnan
aFnan
aFnan
aFnan
aFnan
aFnan
aFnan
aFnan
aFnan
aFnan
aFnan
aFnan
aFnan
aFnan
aFnan
aFnan
aFnan
aFnan
aFnan
aFnan
aFnan
aFnan
aFnan
aFnan
aFnan
aFnan
aFnan
aFnan
aFnan
aFnan
aFnan
aFnan
aFnan
aFnan
aFnan
aFnan
aFnan
aFnan
aFnan
aFnan
aFnan
aFnan
aFnan
aFnan
aFnan
asg401
g0
(g402
g2
Ntp1083
Rp1084
(dp1085
g406
VStdNrmlGeoGroups = [round(np.std(g, ddof=1)/np.sqrt(len(g)), 3) for g in NrmlGeoGroupedMeans]\u000a
p1086
sg408
VStdNrmlGeoGroups
p1087
sg410
I01
sg411
I00
sg412
V[round(np.std(g, ddof=1)/np.sqrt(len(g)), 3) for g in NrmlGeoGroupedMeans]\u000a
p1088
sbsg414
g0
(g415
g416
(g417
g418
tp1089
tp1090
Rp1091
sg408
g1087
sbasg250
V/home/ubuntu/SciSheets/mysite/user/guest/tables/kristen_single_gene.pcl
p1092
sb.