ccopy_reg
_reconstructor
p0
(cscisheets.ui.dt_table
DTTable
p1
c__builtin__
object
p2
Ntp3
Rp4
(dp5
S'_versioned_file'
p6
g0
(cmysite.helpers.versioned_file
VersionedFile
p7
g2
Ntp8
Rp9
(dp10
S'_redo_stack'
p11
g0
(cmysite.helpers.file_stack
FileStack
p12
g2
Ntp13
Rp14
(dp15
S'_dirpath'
p16
S'/home/ubuntu/SciSheets/mysite/user/guest/tables/backup'
p17
sS'_max_depth'
p18
I5
sS'_filename_pfx'
p19
Vkristen_single_gene.r
p20
sbsS'_max_versions'
p21
I5
sS'_undo_stack'
p22
g0
(g12
g2
Ntp23
Rp24
(dp25
g16
g17
sg18
I5
sg19
Vkristen_single_gene.u
p26
sbsS'_checkpoint_history'
p27
(lp28
VCell/Update
p29
aVCell/Update
p30
aVCell/Update
p31
aVCell/Update
p32
aVCell/Update
p33
aVCell/Update
p34
aVCell/Update
p35
aVCell/Update
p36
aVCell/Update
p37
aVCell/Update
p38
aVCell/Update
p39
aVCell/Update
p40
aVColumn/Formula
p41
aVColumn/Formula
p42
aVColumn/Append
p43
aVColumn/Formula
p44
aVColumn/Delete
p45
aVCell/Update
p46
aVColumn/Formula
p47
aVCell/Update
p48
aVCell/Update
p49
aVColumn/Formula
p50
aVColumn/Formula
p51
aVCell/Update
p52
aVColumn/Formula
p53
aVColumn/Formula
p54
aVCell/Update
p55
aVCell/Update
p56
aVCell/Update
p57
aVCell/Update
p58
aVColumn/Formula
p59
aVCell/Update
p60
aVCell/Update
p61
aVCell/Update
p62
aVColumn/Formula
p63
aVCell/Update
p64
aVColumn/Formula
p65
aVColumn/Formula
p66
aVCell/Update
p67
aVCell/Update
p68
aVCell/Update
p69
aVCell/Update
p70
aVCell/Update
p71
aVCell/Update
p72
aVCell/Update
p73
aVCell/Update
p74
aVCell/Update
p75
aVColumn/Formula
p76
aVCell/Update
p77
aVCell/Update
p78
aVCell/Update
p79
aVCell/Update
p80
aVCell/Update
p81
aVCell/Update
p82
aVCell/Update
p83
aVCell/Update
p84
aVCell/Update
p85
aVCell/Update
p86
aVCell/Update
p87
aVCell/Update
p88
aVColumn/Formula
p89
aVColumn/Formula
p90
aVColumn/Formula
p91
aVCell/Update
p92
aVCell/Update
p93
aVCell/Update
p94
aVCell/Update
p95
aVCell/Update
p96
aVColumn/Formula
p97
aVCell/Update
p98
aVCell/Update
p99
aVCell/Update
p100
aVCell/Update
p101
aVCell/Update
p102
aVCell/Update
p103
aVCell/Update
p104
aVColumn/Formula
p105
aVColumn/Formula
p106
aVColumn/Formula
p107
aVCell/Update
p108
aVCell/Update
p109
aVColumn/Formula
p110
aVCell/Update
p111
aVCell/Update
p112
aVCell/Update
p113
aVCell/Update
p114
aVCell/Update
p115
aVCell/Update
p116
aVCell/Update
p117
aVCell/Update
p118
aVColumn/Formula
p119
aVCell/Update
p120
aVColumn/Formula
p121
aVColumn/Formula
p122
aVColumn/Formula
p123
aVCell/Update
p124
aVCell/Update
p125
aVColumn/Formula
p126
aVColumn/Formula
p127
aVColumn/Formula
p128
aVColumn/Formula
p129
aVCell/Update
p130
aVColumn/Formula
p131
aVColumn/Formula
p132
aVColumn/Formula
p133
aVCell/Update
p134
aVCell/Update
p135
aVCell/Update
p136
aVCell/Update
p137
aVCell/Update
p138
aVCell/Update
p139
aVCell/Update
p140
aVCell/Update
p141
aVCell/Update
p142
aVCell/Update
p143
aVColumn/Formula
p144
aVColumn/Formula
p145
aVColumn/Formula
p146
aVColumn/Formula
p147
aVCell/Update
p148
aVCell/Update
p149
aVColumn/Formula
p150
aVCell/Update
p151
aVCell/Update
p152
aVCell/Update
p153
aVCell/Update
p154
aVCell/Update
p155
aVCell/Update
p156
aVCell/Update
p157
aVCell/Update
p158
aVCell/Update
p159
aVCell/Update
p160
aVCell/Update
p161
aVCell/Update
p162
aVCell/Update
p163
aVColumn/Formula
p164
aVColumn/Formula
p165
aVCell/Update
p166
aVCell/Update
p167
aVCell/Update
p168
aVColumn/Formula
p169
aVCell/Update
p170
aVCell/Update
p171
aVCell/Update
p172
aVCell/Update
p173
aVColumn/Formula
p174
aVColumn/Formula
p175
aVColumn/Formula
p176
aVColumn/Formula
p177
aVCell/Update
p178
aVColumn/Formula
p179
aVCell/Update
p180
aVCell/Update
p181
aVCell/Update
p182
aVCell/Update
p183
aVCell/Update
p184
aVCell/Update
p185
aVCell/Update
p186
aVCell/Update
p187
aVCell/Update
p188
aVColumn/Formula
p189
aVCell/Update
p190
aVCell/Update
p191
aVCell/Update
p192
aVCell/Update
p193
aVCell/Update
p194
aVCell/Update
p195
aVCell/Update
p196
aVCell/Update
p197
aVCell/Update
p198
aVCell/Update
p199
aVCell/Update
p200
aVCell/Update
p201
aVCell/Update
p202
aVCell/Update
p203
aVCell/Update
p204
aVCell/Update
p205
aVCell/Update
p206
aVCell/Update
p207
aVCell/Update
p208
aVCell/Update
p209
aVCell/Update
p210
aVCell/Update
p211
aVCell/Update
p212
aVCell/Update
p213
aVCell/Update
p214
aVCell/Update
p215
aVCell/Update
p216
aVCell/Update
p217
aVCell/Update
p218
aVCell/Update
p219
aVCell/Update
p220
aVCell/Update
p221
aVCell/Update
p222
aVCell/Update
p223
aVCell/Update
p224
aVCell/Update
p225
aVCell/Update
p226
aVCell/Update
p227
aVCell/Update
p228
aVCell/Update
p229
aVCell/Update
p230
aVCell/Update
p231
aVCell/Update
p232
aVCell/Update
p233
aVCell/Update
p234
aVCell/Update
p235
aVCell/Update
p236
aVCell/Update
p237
aVCell/Update
p238
aVCell/Update
p239
aVCell/Update
p240
aVCell/Update
p241
aVCell/Update
p242
aVCell/Update
p243
aVCell/Update
p244
aVCell/Update
p245
aVCell/Update
p246
aVCell/Update
p247
aVCell/Update
p248
aVCell/Update
p249
aVCell/Update
p250
aVCell/Update
p251
aVCell/Update
p252
aVCell/Update
p253
aVCell/Update
p254
aVCell/Update
p255
aVCell/Update
p256
aVCell/Update
p257
aVCell/Update
p258
aVCell/Update
p259
aVCell/Update
p260
aVCell/Update
p261
aVCell/Update
p262
aVCell/Update
p263
aVCell/Update
p264
aVCell/Update
p265
aVCell/Update
p266
aVCell/Update
p267
aVCell/Update
p268
aVCell/Update
p269
aVCell/Update
p270
aVCell/Update
p271
aVColumn/Formula
p272
aVColumn/Formula
p273
aVCell/Update
p274
aVCell/Update
p275
aVCell/Update
p276
aVCell/Update
p277
aVColumn/Formula
p278
aVColumn/Formula
p279
aVColumn/Formula
p280
aVCell/Update
p281
aVCell/Update
p282
aVCell/Update
p283
aVCell/Update
p284
aVColumn/Formula
p285
aVColumn/Formula
p286
aVColumn/Formula
p287
aVCell/Update
p288
aVCell/Update
p289
aVColumn/Formula
p290
aVCell/Update
p291
aVCell/Update
p292
aVCell/Update
p293
aVCell/Update
p294
aVCell/Update
p295
aVCell/Update
p296
aVColumn/Formula
p297
aVCell/Update
p298
aVColumn/Formula
p299
aVCell/Update
p300
aVCell/Update
p301
aVColumn/Formula
p302
aVColumn/Formula
p303
aVCell/Update
p304
aVCell/Update
p305
asS'_filepath'
p306
V/home/ubuntu/SciSheets/mysite/user/guest/tables/kristen_single_gene.pcl
p307
sS'_backup_dir'
p308
g17
sbsS'_namespace'
p309
(dp310
sS'_hidden_columns'
p311
(lp312
g0
(cscisheets.core.column
Column
p313
g2
Ntp314
Rp315
(dp316
S'_asis'
p317
I00
sS'_owning_table'
p318
g4
sS'_cells'
p319
(lp320
(lp321
cnumpy.core.multiarray
scalar
p322
(cnumpy
dtype
p323
(S'f8'
p324
I0
I1
tp325
Rp326
(I3
S'<'
p327
NNNI-1
I-1
I0
tp328
bS'\x00\x00\x00\x00\x00\x00\x00\x00'
p329
tp330
Rp331
aVI
p332
ag322
(g326
S'\x00\x00\x00\x00\x00\x00\xf0?'
p333
tp334
Rp335
aa(lp336
g322
(g326
S'\x00\x00\x00\x00\x00\x00\x00\x00'
p337
tp338
Rp339
aVR1
p340
ag322
(g326
S'\x00\x00\x00\x00\x00\x00\xf0?'
p341
tp342
Rp343
aa(lp344
g322
(g326
S'\x00\x00\x00\x00\x00\x00\x00\x00'
p345
tp346
Rp347
aVR2
p348
ag322
(g326
S'\x00\x00\x00\x00\x00\x00\xf0?'
p349
tp350
Rp351
aa(lp352
g322
(g326
S'\x00\x00\x00\x00\x00\x00\xf0?'
p353
tp354
Rp355
ag332
ag322
(g326
S'\x00\x00\x00\x00\x00\x00\xf0?'
p356
tp357
Rp358
aa(lp359
g322
(g326
S'\x00\x00\x00\x00\x00\x00\xf0?'
p360
tp361
Rp362
ag332
ag322
(g326
S'\x00\x00\x00\x00\x00\x00\x00@'
p363
tp364
Rp365
aa(lp366
g322
(g326
S'\x00\x00\x00\x00\x00\x00\xf0?'
p367
tp368
Rp369
ag332
ag322
(g326
S'\x00\x00\x00\x00\x00\x00\x08@'
p370
tp371
Rp372
aa(lp373
g322
(g326
S'\x00\x00\x00\x00\x00\x00\xf0?'
p374
tp375
Rp376
ag340
ag322
(g326
S'\x00\x00\x00\x00\x00\x00\xf0?'
p377
tp378
Rp379
aa(lp380
g322
(g326
S'\x00\x00\x00\x00\x00\x00\xf0?'
p381
tp382
Rp383
ag340
ag322
(g326
S'\x00\x00\x00\x00\x00\x00\x00@'
p384
tp385
Rp386
aa(lp387
g322
(g326
S'\x00\x00\x00\x00\x00\x00\xf0?'
p388
tp389
Rp390
ag340
ag322
(g326
S'\x00\x00\x00\x00\x00\x00\x08@'
p391
tp392
Rp393
aa(lp394
g322
(g326
S'\x00\x00\x00\x00\x00\x00\xf0?'
p395
tp396
Rp397
ag348
ag322
(g326
S'\x00\x00\x00\x00\x00\x00\xf0?'
p398
tp399
Rp400
aa(lp401
g322
(g326
S'\x00\x00\x00\x00\x00\x00\xf0?'
p402
tp403
Rp404
ag348
ag322
(g326
S'\x00\x00\x00\x00\x00\x00\x00@'
p405
tp406
Rp407
aa(lp408
g322
(g326
S'\x00\x00\x00\x00\x00\x00\xf0?'
p409
tp410
Rp411
ag348
ag322
(g326
S'\x00\x00\x00\x00\x00\x00\x08@'
p412
tp413
Rp414
aa(lp415
g322
(g326
S'\x00\x00\x00\x00\x00\x00\x00@'
p416
tp417
Rp418
ag332
ag322
(g326
S'\x00\x00\x00\x00\x00\x00\xf0?'
p419
tp420
Rp421
aa(lp422
g322
(g326
S'\x00\x00\x00\x00\x00\x00\x00@'
p423
tp424
Rp425
ag340
ag322
(g326
S'\x00\x00\x00\x00\x00\x00\xf0?'
p426
tp427
Rp428
aa(lp429
g322
(g326
S'\x00\x00\x00\x00\x00\x00\x00@'
p430
tp431
Rp432
ag348
ag322
(g326
S'\x00\x00\x00\x00\x00\x00\xf0?'
p433
tp434
Rp435
aa(lp436
g322
(g326
S'\x00\x00\x00\x00\x00\x00\x08@'
p437
tp438
Rp439
ag332
ag322
(g326
S'\x00\x00\x00\x00\x00\x00\xf0?'
p440
tp441
Rp442
aa(lp443
g322
(g326
S'\x00\x00\x00\x00\x00\x00\x08@'
p444
tp445
Rp446
ag340
ag322
(g326
S'\x00\x00\x00\x00\x00\x00\xf0?'
p447
tp448
Rp449
aa(lp450
g322
(g326
S'\x00\x00\x00\x00\x00\x00\x08@'
p451
tp452
Rp453
ag348
ag322
(g326
S'\x00\x00\x00\x00\x00\x00\xf0?'
p454
tp455
Rp456
aaNaNaNaNaNaNaNaNaNaNaNaNaNaNaNaNaNaNaNaNaNaNaNaNaNaNaNaNaNaNaNaNaNaNaNaNaNaNaNaNaNaNaNaNaNaNasS'_formula_statement'
p457
g0
(cscisheets.core.helpers.formula_statement
FormulaStatement
p458
g2
Ntp459
Rp460
(dp461
S'_statement'
p462
Vsel = Eff > min_eff\u000agrouping_columns = [\u000a    Treatment[sel],\u000a     RunType[sel], \u000a    BRpl[sel],      \u000a  ]\u000aGroups, groupedCt = groupBy(\u000a     grouping_columns, Ct[sel])\u000aGroups, groupedEff = groupBy(\u000a     grouping_columns, Eff[sel])\u000aGroups = [[g[0], g[1], g[2]] for g in Groups]\u000aGroupedCt = roundValues(groupedCt,2)\u000aGroupedEff = roundValues(groupedEff,2)
p463
sS'_name'
p464
VGroups
p465
sS'_isExpression'
p466
I00
sS'_isStatement'
p467
I00
sS'_formula'
p468
Vsel = Eff > min_eff\u000agrouping_columns = [\u000a    Treatment[sel],\u000a     RunType[sel], \u000a    BRpl[sel],      \u000a  ]\u000aGroups, groupedCt = groupBy(\u000a     grouping_columns, Ct[sel])\u000aGroups, groupedEff = groupBy(\u000a     grouping_columns, Eff[sel])\u000aGroups = [[g[0], g[1], g[2]] for g in Groups]\u000aGroupedCt = roundValues(groupedCt,2)\u000aGroupedEff = roundValues(groupedEff,2)
p469
sbsS'_data_class'
p470
g0
(cscisheets.core.helpers.api_util
DataClass
p471
c__builtin__
tuple
p472
(cnumpy
ndarray
p473
cscisheets.core.helpers.api_util
makeArray
p474
tp475
tp476
Rp477
sg464
g465
sbag0
(g313
g2
Ntp478
Rp479
(dp480
g317
I00
sg318
g4
sg319
(lp481
(lp482
F0.92
aF0.91
aF0.91
aa(lp483
F0.83
aF0.83
aF0.85
aa(lp484
F0.82
aF0.85
aF0.82
aa(lp485
F0.85
aF0.84
aF0.85
aa(lp486
F0.87
aF0.78
aF0.85
aa(lp487
F0.84
aF0.84
aF0.77
aa(lp488
F0.92
aF0.98
aF0.9
aa(lp489
F0.9
aF0.83
aF0.84
aa(lp490
F0.87
aF0.85
aF0.83
aa(lp491
F0.79
aF0.84
aF0.86
aa(lp492
F0.83
aF0.82
aF0.83
aa(lp493
F0.81
aF0.82
aF0.8
aa(lp494
F0.84
aF0.79
aF0.81
aa(lp495
F0.77
aF0.87
aF0.81
aa(lp496
F0.78
aF0.77
aF0.79
aa(lp497
F0.88
aF0.86
aF0.89
aa(lp498
F0.87
aF0.9
aF0.86
aa(lp499
F0.82
aF0.82
aF0.79
aaNaNaNaNaNaNaNaNaNaNaNaNaNaNaNaNaNaNaNaNaNaNaNaNaNaNaNaNaNaNaNaNaNaNaNaNaNaNaNaNaNaNaNaNaNaNasg457
g0
(g458
g2
Ntp500
Rp501
(dp502
g462
NsS'_column'
p503
g479
sg466
I00
sg467
I00
sg468
Nsbsg470
g0
(g471
g472
(g473
g474
tp504
tp505
Rp506
sg464
VGroupedEff
p507
sbag0
(g313
g2
Ntp508
Rp509
(dp510
g317
I00
sg318
g4
sg319
(lp511
(lp512
F18.31
aF18.29
aF18.15
aa(lp513
F18.24
aF18.22
aF18.36
aa(lp514
F19.72
aF19.75
aF20.01
aa(lp515
F22.42
aF22.5
aF22.44
aa(lp516
F21.92
aF22.03
aF21.94
aa(lp517
F23.4
aF23.47
aF23.41
aa(lp518
F19.92
aF19.85
aF20.0
aa(lp519
F21.86
aF22.09
aF21.84
aa(lp520
F23.89
aF23.54
aF24.27
aa(lp521
F22.18
aF21.71
aF21.75
aa(lp522
F23.88
aF23.42
aF23.63
aa(lp523
F24.59
aF24.61
aF24.34
aa(lp524
F23.48
aF23.31
aF23.45
aa(lp525
F23.22
aF23.8
aF23.49
aa(lp526
F26.37
aF26.36
aF26.17
aa(lp527
F18.82
aF18.97
aF18.92
aa(lp528
F18.91
aF18.78
aF18.8
aa(lp529
F20.5
aF20.47
aF20.28
aaNaNaNaNaNaNaNaNaNaNaNaNaNaNaNaNaNaNaNaNaNaNaNaNaNaNaNaNaNaNaNaNaNaNaNaNaNaNaNaNaNaNaNaNaNaNasg457
g0
(g458
g2
Ntp530
Rp531
(dp532
g462
Nsg503
g509
sg466
I00
sg467
I00
sg468
Nsbsg470
g0
(g471
g472
(g473
g474
tp533
tp534
Rp535
sg464
VGroupedCt
p536
sbag0
(g313
g2
Ntp537
Rp538
(dp539
g317
I00
sg318
g4
sg319
(lp540
(lp541
F18.3
aF18.3
aF18.1
aa(lp542
F18.2
aF18.2
aF18.4
aa(lp543
F19.7
aF19.8
aF20.0
aa(lp544
F22.4
aF22.5
aF22.4
aa(lp545
F21.9
aF22.0
aF21.9
aa(lp546
F23.4
aF23.5
aF23.4
aa(lp547
F19.9
aF19.9
aF20.0
aa(lp548
F21.9
aF22.1
aF21.8
aa(lp549
F23.9
aF23.5
aF24.3
aa(lp550
F22.2
aF21.7
aF21.8
aa(lp551
F23.9
aF23.4
aF23.6
aa(lp552
F24.6
aF24.6
aF24.3
aa(lp553
F23.5
aF23.3
aF23.4
aa(lp554
F23.2
aF23.8
aF23.5
aa(lp555
F26.4
aF26.4
aF26.2
aa(lp556
F18.8
aF19.0
aF18.9
aa(lp557
F18.9
aF18.8
aF18.8
aa(lp558
F20.5
aF20.5
aF20.3
aaNaNaNaNaNaNaNaNaNaNaNaNaNaNaNaNaNaNaNaNaNaNaNaNaNaNaNaNaNaNaNaNaNaNaNaNaNaNaNaNaNaNaNaNaNaNasg457
g0
(g458
g2
Ntp559
Rp560
(dp561
g462
Vlength = len(Groups)\u000aStdFilteredGroupedCt = roundValues([filterExtremes(g, max_std, 2) for g in pruneNulls(GroupedCt,    required_length=length)])\u000a 
p562
sg464
VStdFilteredGroupedCt
p563
sg466
I00
sg467
I00
sg468
Vlength = len(Groups)\u000aStdFilteredGroupedCt = roundValues([filterExtremes(g, max_std, 2) for g in pruneNulls(GroupedCt,    required_length=length)])\u000a 
p564
sbsg470
g0
(g471
g472
(g473
g474
tp565
tp566
Rp567
sg464
g563
sbag0
(g313
g2
Ntp568
Rp569
(dp570
g317
I00
sg318
g4
sg319
(lp571
F18.2
aF18.3
aF19.8
aF22.4
aF21.9
aF23.4
aF19.9
aF21.9
aF23.9
aF21.9
aF23.6
aF24.5
aF23.4
aF23.5
aF26.3
aF18.9
aF18.8
aF20.4
aFnan
aFnan
aFnan
aFnan
aFnan
aFnan
aFnan
aFnan
aFnan
aFnan
aFnan
aFnan
aFnan
aFnan
aFnan
aFnan
aFnan
aFnan
aFnan
aFnan
aFnan
aFnan
aFnan
aFnan
aFnan
aFnan
aFnan
aFnan
aFnan
aFnan
aFnan
aFnan
aFnan
aFnan
aFnan
aFnan
aFnan
aFnan
aFnan
aFnan
aFnan
aFnan
aFnan
aFnan
aFnan
aFnan
asg457
g0
(g458
g2
Ntp572
Rp573
(dp574
g462
VMeanCt = [np.mean(g) for g in StdFilteredGroupedCt]\u000aMeanCt = roundValues(MeanCt,1)\u000aStdCt = [np.std(g, ddof=1) for g in StdFilteredGroupedCt]\u000aStdCt = roundValues(StdCt,3)
p575
sg464
VMeanCt
p576
sg466
I00
sg467
I00
sg468
VMeanCt = [np.mean(g) for g in StdFilteredGroupedCt]\u000aMeanCt = roundValues(MeanCt,1)\u000aStdCt = [np.std(g, ddof=1) for g in StdFilteredGroupedCt]\u000aStdCt = roundValues(StdCt,3)
p577
sbsg470
g0
(g471
g472
(g473
g474
tp578
tp579
Rp580
sg464
g576
sbag0
(g313
g2
Ntp581
Rp582
(dp583
g317
I00
sg318
g4
sg319
(lp584
F0.115
aF0.115
aF0.153
aF0.058
aF0.058
aF0.058
aF0.058
aF0.153
aF0.4
aF0.265
aF0.252
aF0.173
aF0.1
aF0.3
aF0.115
aF0.1
aF0.058
aF0.115
aFnan
aFnan
aFnan
aFnan
aFnan
aFnan
aFnan
aFnan
aFnan
aFnan
aFnan
aFnan
aFnan
aFnan
aFnan
aFnan
aFnan
aFnan
aFnan
aFnan
aFnan
aFnan
aFnan
aFnan
aFnan
aFnan
aFnan
aFnan
aFnan
aFnan
aFnan
aFnan
aFnan
aFnan
aFnan
aFnan
aFnan
aFnan
aFnan
aFnan
aFnan
aFnan
aFnan
aFnan
aFnan
aFnan
asg457
g0
(g458
g2
Ntp585
Rp586
(dp587
g462
Nsg503
g582
sg466
I00
sg467
I00
sg468
Nsbsg470
g0
(g471
g472
(g473
g474
tp588
tp589
Rp590
sg464
VStdCt
p591
sbag0
(g313
g2
Ntp592
Rp593
(dp594
g317
I00
sg318
g4
sg319
(lp595
(lp596
g322
(g326
S'\x00\x00\x00\x00\x00\x00\x00\x00'
p597
tp598
Rp599
ag322
(g326
S'\x00\x00\x00\x00\x00\x00\xf0?'
p600
tp601
Rp602
aa(lp603
g322
(g326
S'\x00\x00\x00\x00\x00\x00\xf0?'
p604
tp605
Rp606
ag322
(g326
S'\x00\x00\x00\x00\x00\x00\xf0?'
p607
tp608
Rp609
aa(lp610
g322
(g326
S'\x00\x00\x00\x00\x00\x00\xf0?'
p611
tp612
Rp613
ag322
(g326
S'\x00\x00\x00\x00\x00\x00\x00@'
p614
tp615
Rp616
aa(lp617
g322
(g326
S'\x00\x00\x00\x00\x00\x00\xf0?'
p618
tp619
Rp620
ag322
(g326
S'\x00\x00\x00\x00\x00\x00\x08@'
p621
tp622
Rp623
aa(lp624
g322
(g326
S'\x00\x00\x00\x00\x00\x00\x00@'
p625
tp626
Rp627
ag322
(g326
S'\x00\x00\x00\x00\x00\x00\xf0?'
p628
tp629
Rp630
aa(lp631
g322
(g326
S'\x00\x00\x00\x00\x00\x00\x08@'
p632
tp633
Rp634
ag322
(g326
S'\x00\x00\x00\x00\x00\x00\xf0?'
p635
tp636
Rp637
aaNaNaNaNaNaNaNaNaNaNaNaNaNaNaNaNaNaNaNaNaNaNaNaNaNaNaNaNaNaNaNaNaNaNaNaNaNaNaNaNaNaNaNaNaNaNaNaNaNaNaNaNaNaNaNaNaNaNasg457
g0
(g458
g2
Ntp638
Rp639
(dp640
g462
Vdummy = tabularize(s, 'Groups', 1, 'MeanCt', \u000a          new_category_colnm='BioRuns',\u000a          values_colnm_prefix='Gene_')
p641
sg464
VBioRuns
p642
sg466
I00
sg467
I00
sg468
Vdummy = tabularize(s, 'Groups', 1, 'MeanCt', \u000a          new_category_colnm='BioRuns',\u000a          values_colnm_prefix='Gene_')
p643
sbsg470
g0
(g471
g472
(g473
g474
tp644
tp645
Rp646
sg464
g642
sbag0
(g313
g2
Ntp647
Rp648
(dp649
g317
I00
sg318
g4
sg319
(lp650
F18.2
aF22.4
aF21.9
aF23.4
aF23.4
aF18.9
aFnan
aFnan
aFnan
aFnan
aFnan
aFnan
aFnan
aFnan
aFnan
aFnan
aFnan
aFnan
aFnan
aFnan
aFnan
aFnan
aFnan
aFnan
aFnan
aFnan
aFnan
aFnan
aFnan
aFnan
aFnan
aFnan
aFnan
aFnan
aFnan
aFnan
aFnan
aFnan
aFnan
aFnan
aFnan
aFnan
aFnan
aFnan
aFnan
aFnan
aFnan
aFnan
aFnan
aFnan
aFnan
aFnan
aFnan
aFnan
aFnan
aFnan
aFnan
aFnan
aFnan
aFnan
aFnan
aFnan
aFnan
aFnan
asg457
g0
(g458
g2
Ntp651
Rp652
(dp653
g462
Nsg503
g648
sg466
I00
sg467
I00
sg468
Nsbsg470
g0
(g471
g472
(g473
g474
tp654
tp655
Rp656
sg464
S'Gene_I'
p657
sbag0
(g313
g2
Ntp658
Rp659
(dp660
g317
I00
sg318
g4
sg319
(lp661
F18.3
aF19.9
aF21.9
aF23.9
aF23.5
aF18.8
aFnan
aFnan
aFnan
aFnan
aFnan
aFnan
aFnan
aFnan
aFnan
aFnan
aFnan
aFnan
aFnan
aFnan
aFnan
aFnan
aFnan
aFnan
aFnan
aFnan
aFnan
aFnan
aFnan
aFnan
aFnan
aFnan
aFnan
aFnan
aFnan
aFnan
aFnan
aFnan
aFnan
aFnan
aFnan
aFnan
aFnan
aFnan
aFnan
aFnan
aFnan
aFnan
aFnan
aFnan
aFnan
aFnan
aFnan
aFnan
aFnan
aFnan
aFnan
aFnan
aFnan
aFnan
aFnan
aFnan
aFnan
aFnan
asg457
g0
(g458
g2
Ntp662
Rp663
(dp664
g462
Nsg503
g659
sg466
I00
sg467
I00
sg468
Nsbsg470
g656
sg464
S'Gene_R1'
p665
sbag0
(g313
g2
Ntp666
Rp667
(dp668
g317
I00
sg318
g4
sg319
(lp669
F19.8
aF21.9
aF23.6
aF24.5
aF26.3
aF20.4
aFnan
aFnan
aFnan
aFnan
aFnan
aFnan
aFnan
aFnan
aFnan
aFnan
aFnan
aFnan
aFnan
aFnan
aFnan
aFnan
aFnan
aFnan
aFnan
aFnan
aFnan
aFnan
aFnan
aFnan
aFnan
aFnan
aFnan
aFnan
aFnan
aFnan
aFnan
aFnan
aFnan
aFnan
aFnan
aFnan
aFnan
aFnan
aFnan
aFnan
aFnan
aFnan
aFnan
aFnan
aFnan
aFnan
aFnan
aFnan
aFnan
aFnan
aFnan
aFnan
aFnan
aFnan
aFnan
aFnan
aFnan
aFnan
asg457
g0
(g458
g2
Ntp670
Rp671
(dp672
g462
Nsg503
g667
sg466
I00
sg467
I00
sg468
Nsbsg470
g656
sg464
S'Gene_R2'
p673
sbag0
(g313
g2
Ntp674
Rp675
(dp676
g317
I00
sg318
g4
sg319
(lp677
F1.07177
aF0.17678
aF1.0
aF1.41421
aF1.07177
aF0.93303
aFnan
aFnan
aFnan
aFnan
aFnan
aFnan
aFnan
aFnan
aFnan
aFnan
aFnan
aFnan
aFnan
aFnan
aFnan
aFnan
aFnan
aFnan
aFnan
aFnan
aFnan
aFnan
aFnan
aFnan
aFnan
aFnan
aFnan
aFnan
aFnan
aFnan
aFnan
aFnan
aFnan
aFnan
aFnan
aFnan
aFnan
aFnan
aFnan
aFnan
aFnan
aFnan
aFnan
aFnan
aFnan
aFnan
aFnan
aFnan
aFnan
aFnan
aFnan
aFnan
aFnan
aFnan
aFnan
aFnan
aFnan
aFnan
asg457
g0
(g458
g2
Ntp678
Rp679
(dp680
g462
VExprR1 = roundValues(2**(Gene_R1 - Gene_I),5)
p681
sg464
VExprR1
p682
sg466
I01
sg467
I00
sg468
VroundValues(2**(Gene_R1 - Gene_I),5)
p683
sbsg470
g0
(g471
g472
(g473
g474
tp684
tp685
Rp686
sg464
g682
sbag0
(g313
g2
Ntp687
Rp688
(dp689
g317
I00
sg318
g4
sg319
(lp690
F3.03143
aF0.70711
aF3.24901
aF2.14355
aF7.46426
aF2.82843
aFnan
aFnan
aFnan
aFnan
aFnan
aFnan
aFnan
aFnan
aFnan
aFnan
aFnan
aFnan
aFnan
aFnan
aFnan
aFnan
aFnan
aFnan
aFnan
aFnan
aFnan
aFnan
aFnan
aFnan
aFnan
aFnan
aFnan
aFnan
aFnan
aFnan
aFnan
aFnan
aFnan
aFnan
aFnan
aFnan
aFnan
aFnan
aFnan
aFnan
aFnan
aFnan
aFnan
aFnan
aFnan
aFnan
aFnan
aFnan
aFnan
aFnan
aFnan
aFnan
aFnan
aFnan
aFnan
aFnan
aFnan
aFnan
asg457
g0
(g458
g2
Ntp691
Rp692
(dp693
g462
VExprR2 = roundValues(2**(Gene_R2 - Gene_I),5)
p694
sg464
VExprR2
p695
sg466
I01
sg467
I00
sg468
VroundValues(2**(Gene_R2 - Gene_I),5)
p696
sbsg470
g0
(g471
g472
(g473
g474
tp697
tp698
Rp699
sg464
g695
sbag0
(g313
g2
Ntp700
Rp701
(dp702
g317
I00
sg318
g4
sg319
(lp703
F1.802
aF0.354
aF1.803
aF1.741
aF2.828
aF1.625
aFnan
aFnan
aFnan
aFnan
aFnan
aFnan
aFnan
aFnan
aFnan
aFnan
aFnan
aFnan
aFnan
aFnan
aFnan
aFnan
aFnan
aFnan
aFnan
aFnan
aFnan
aFnan
aFnan
aFnan
aFnan
aFnan
aFnan
aFnan
aFnan
aFnan
aFnan
aFnan
aFnan
aFnan
aFnan
aFnan
aFnan
aFnan
aFnan
aFnan
aFnan
aFnan
aFnan
aFnan
aFnan
aFnan
aFnan
aFnan
aFnan
aFnan
aFnan
aFnan
aFnan
aFnan
aFnan
aFnan
aFnan
aFnan
asg457
g0
(g458
g2
Ntp704
Rp705
(dp706
g462
VGeoMean = roundValues(np.sqrt(ExprR1*ExprR2), 3)
p707
sg464
VGeoMean
p708
sg466
I01
sg467
I00
sg468
VroundValues(np.sqrt(ExprR1*ExprR2), 3)
p709
sbsg470
g0
(g471
g472
(g473
g474
tp710
tp711
Rp712
sg464
g708
sbag0
(g313
g2
Ntp713
Rp714
(dp715
g317
I00
sg318
g4
sg319
(lp716
F1.0
aF1.0
aF1.0
aF1.0
aF1.0
aF1.0
aF1.0
aF1.0
aF1.0
aF1.0
aF1.0
aF1.0
aF2.0
aF2.0
aF2.0
aF3.0
aF3.0
aF3.0
aF1.0
aF1.0
aF1.0
aF2.0
aF2.0
aF2.0
aF3.0
aF3.0
aF3.0
aF1.0
aF1.0
aF1.0
aF2.0
aF2.0
aF2.0
aF3.0
aF3.0
aF3.0
aF1.0
aF1.0
aF1.0
aF1.0
aF1.0
aF1.0
aF1.0
aF1.0
aF1.0
aF1.0
aF1.0
aF1.0
aF1.0
aF1.0
aF1.0
aF1.0
aF1.0
aF1.0
aFnan
aFnan
aFnan
aFnan
aFnan
aFnan
aFnan
aFnan
aFnan
aFnan
asg457
g0
(g458
g2
Ntp717
Rp718
(dp719
g462
Nsg464
S'BRpl'
p720
sg466
I00
sg467
I00
sg468
Nsbsg470
g0
(g471
g472
(cscisheets.core.helpers.extended_array
ExtendedArray
p721
g474
tp722
tp723
Rp724
sg464
g720
sbag0
(g313
g2
Ntp725
Rp726
(dp727
g317
I00
sg318
g4
sg319
(lp728
F18.31
aF18.29
aF18.15
aF18.24
aF18.22
aF18.36
aF19.72
aF19.75
aF20.01
aF22.42
aF22.5
aF22.44
aF21.92
aF22.03
aF21.94
aF23.4
aF23.47
aF23.41
aF19.92
aF19.85
aF20.0
aF21.86
aF22.09
aF21.84
aF23.89
aF23.54
aF24.27
aF22.18
aF21.71
aF21.75
aF23.88
aF23.42
aF23.63
aF24.59
aF24.61
aF24.34
aF23.48
aF23.31
aF23.45
aF23.22
aF23.8
aF23.49
aF26.37
aF26.36
aF26.17
aF18.82
aF18.97
aF18.92
aF18.91
aF18.78
aF18.8
aF20.5
aF20.47
aF20.28
aFnan
aFnan
aFnan
aFnan
aFnan
aFnan
aFnan
aFnan
aFnan
aFnan
asg457
g0
(g458
g2
Ntp729
Rp730
(dp731
g462
Nsg464
S'Ct'
p732
sg466
I00
sg467
I00
sg468
Nsbsg470
g724
sg464
g732
sbag0
(g313
g2
Ntp733
Rp734
(dp735
g317
I00
sg318
g4
sg319
(lp736
F0.919
aF0.9106
aF0.9129
aF0.8266
aF0.8343
aF0.8496
aF0.8157
aF0.8543
aF0.8208
aF0.8453
aF0.8426
aF0.8524
aF0.8658
aF0.7809
aF0.8512
aF0.8442
aF0.8357
aF0.7658
aF0.9179
aF0.9783
aF0.8971
aF0.8957
aF0.8287
aF0.8387
aF0.8746
aF0.8493
aF0.8349
aF0.7857
aF0.8427
aF0.8637
aF0.8281
aF0.8203
aF0.8288
aF0.8138
aF0.8242
aF0.804
aF0.8352
aF0.7886
aF0.8105
aF0.7701
aF0.8746
aF0.8139
aF0.7795
aF0.7676
aF0.7947
aF0.876
aF0.8597
aF0.8873
aF0.8715
aF0.8977
aF0.856
aF0.8179
aF0.8173
aF0.7894
aFnan
aFnan
aFnan
aFnan
aFnan
aFnan
aFnan
aFnan
aFnan
aFnan
asg457
g0
(g458
g2
Ntp737
Rp738
(dp739
g462
Nsg464
S'Eff'
p740
sg466
I00
sg467
I00
sg468
Nsbsg470
g724
sg464
g740
sbag0
(g313
g2
Ntp741
Rp742
(dp743
g317
I00
sg318
g4
sg319
(lp744
g332
ag332
ag332
ag340
ag340
ag340
ag348
ag348
ag348
ag332
ag332
ag332
ag332
ag332
ag332
ag332
ag332
ag332
ag340
ag340
ag340
ag340
ag340
ag340
ag340
ag340
ag340
ag348
ag348
ag348
ag348
ag348
ag348
ag348
ag348
ag348
ag332
ag332
ag332
ag340
ag340
ag340
ag348
ag348
ag348
ag332
ag332
ag332
ag340
ag340
ag340
ag348
ag348
ag348
aNaNaNaNaNaNaNaNaNaNasg457
g0
(g458
g2
Ntp745
Rp746
(dp747
g462
Nsg464
S'RunType'
p748
sg466
I00
sg467
I00
sg468
Nsbsg470
g724
sg464
g748
sbag0
(g313
g2
Ntp749
Rp750
(dp751
g317
I00
sg318
g4
sg319
(lp752
Va
p753
aVb
p754
aVc
p755
ag753
ag754
ag755
ag753
ag754
ag755
ag753
ag754
ag755
ag753
ag754
ag755
ag753
ag754
ag755
ag753
ag754
ag755
ag753
ag754
ag755
ag753
ag754
ag755
ag753
ag754
ag755
ag753
ag754
ag755
ag753
ag754
ag755
ag753
ag754
ag755
ag753
ag754
ag755
ag753
ag754
ag755
ag753
ag754
ag755
ag753
ag754
ag755
ag753
ag754
ag755
aNaNaNaNaNaNaNaNaNaNasg457
g0
(g458
g2
Ntp756
Rp757
(dp758
g462
Nsg464
S'TRpl'
p759
sg466
I00
sg467
I00
sg468
Nsbsg470
g724
sg464
g759
sbag0
(g313
g2
Ntp760
Rp761
(dp762
g317
I00
sg318
g4
sg319
(lp763
F0.0
aF0.0
aF0.0
aF0.0
aF0.0
aF0.0
aF0.0
aF0.0
aF0.0
aF1.0
aF1.0
aF1.0
aF1.0
aF1.0
aF1.0
aF1.0
aF1.0
aF1.0
aF1.0
aF1.0
aF1.0
aF1.0
aF1.0
aF1.0
aF1.0
aF1.0
aF1.0
aF1.0
aF1.0
aF1.0
aF1.0
aF1.0
aF1.0
aF1.0
aF1.0
aF1.0
aF2.0
aF2.0
aF2.0
aF2.0
aF2.0
aF2.0
aF2.0
aF2.0
aF2.0
aF3.0
aF3.0
aF3.0
aF3.0
aF3.0
aF3.0
aF3.0
aF3.0
aF3.0
aFnan
aFnan
aFnan
aFnan
aFnan
aFnan
aFnan
aFnan
aFnan
aFnan
asg457
g0
(g458
g2
Ntp764
Rp765
(dp766
g462
Nsg464
S'Treatment'
p767
sg466
I00
sg467
I00
sg468
Nsbsg470
g724
sg464
g767
sbasS'_is_evaluate_formulas'
p768
I01
sS'_prologue'
p769
g0
(g458
g2
Ntp770
Rp771
(dp772
g462
V# Prologue\u000aimport math as mt\u000aimport numpy as np\u000afrom os import listdir\u000afrom os.path import isfile, join\u000aimport pandas as pd\u000aimport scipy as sp\u000afrom numpy import nan  # Must follow sympy import \u000a\u000axlsx_path =   '/mnt/hgfs/josephhellerstein/home/Technical/SciSheets/CaseStudies/Kristen/workbooks/data.xlsx'\u000agene = ParmValues[0]\u000arun = ParmValues[1] == 'True'\u000ashow_raw = ParmValues[2] == 'True'\u000ashow_block1 = ParmValues[3] == 'True'\u000ashow_block2 = ParmValues[4] == 'True'\u000ashow_block3 = ParmValues[5] == 'True'\u000ashow_params = ParmValues[8] == 'True'\u000a#show_params = True\u000amax_std  = float(ParmValues[6])\u000amin_eff = float(ParmValues[7])\u000aworksheet = gene + "-I"\u000as.getTable().setIsEvaluateFormulas(run)\u000as.setColumnVisibility()\u000as.setColumnVisibility(['Groups', 'GroupedEff', 'GroupedCt', 'StdFilteredGroupedCt', 'MeanCt',\u000a    'StdCt'], is_visible=show_block1)\u000as.setColumnVisibility(['BioRuns', 'Gene_I', 'Gene_R1', 'Gene_R2', 'ExprR1', 'ExprR2', \u000a    'GeoMean'], is_visible=show_block2)\u000as.setColumnVisibility(['GeoGroups', 'GroupedGeoMeans', 'NrmlGeoGroupedMeans', \u000a    'MeanNrmlGeoGroups', 'StdNrmlGeoGroups'], is_visible=show_block3)\u000aif run:\u000a  Groups = []\u000a  GroupedCt = []\u000a  GroupedEff = []\u000a  MeanCt = []\u000a  Imp = []\u000a  s.deleteColumn('Ct')\u000a  s.deleteColumn('RunType')\u000a  s.deleteColumn('BRpl')\u000a  s.deleteColumn('TRpl')\u000a  s.deleteColumn('Treatment')\u000a  s.deleteColumn('Eff')\u000aif run:\u000a  importExcelToTable(s, xlsx_path, worksheet=worksheet,\u000a      column_position='ParmValues',\u000a      names=['Treatment', 'RunType', 'BRpl', 'TRpl', 'Eff', 'Ct'])\u000as.setColumnVisibility(['BRpl', 'Ct', 'Eff', 'RunType', 'TRpl', 'Treatment'], is_visible=show_raw)\u000as.setColumnVisibility(['ParmNames', 'ParmValues'], show_params)
p773
sg464
VSingleGene
p774
sg466
I00
sg467
I00
sg468
V# Prologue\u000aimport math as mt\u000aimport numpy as np\u000afrom os import listdir\u000afrom os.path import isfile, join\u000aimport pandas as pd\u000aimport scipy as sp\u000afrom numpy import nan  # Must follow sympy import \u000a\u000axlsx_path =   '/mnt/hgfs/josephhellerstein/home/Technical/SciSheets/CaseStudies/Kristen/workbooks/data.xlsx'\u000agene = ParmValues[0]\u000arun = ParmValues[1] == 'True'\u000ashow_raw = ParmValues[2] == 'True'\u000ashow_block1 = ParmValues[3] == 'True'\u000ashow_block2 = ParmValues[4] == 'True'\u000ashow_block3 = ParmValues[5] == 'True'\u000ashow_params = ParmValues[8] == 'True'\u000a#show_params = True\u000amax_std  = float(ParmValues[6])\u000amin_eff = float(ParmValues[7])\u000aworksheet = gene + "-I"\u000as.getTable().setIsEvaluateFormulas(run)\u000as.setColumnVisibility()\u000as.setColumnVisibility(['Groups', 'GroupedEff', 'GroupedCt', 'StdFilteredGroupedCt', 'MeanCt',\u000a    'StdCt'], is_visible=show_block1)\u000as.setColumnVisibility(['BioRuns', 'Gene_I', 'Gene_R1', 'Gene_R2', 'ExprR1', 'ExprR2', \u000a    'GeoMean'], is_visible=show_block2)\u000as.setColumnVisibility(['GeoGroups', 'GroupedGeoMeans', 'NrmlGeoGroupedMeans', \u000a    'MeanNrmlGeoGroups', 'StdNrmlGeoGroups'], is_visible=show_block3)\u000aif run:\u000a  Groups = []\u000a  GroupedCt = []\u000a  GroupedEff = []\u000a  MeanCt = []\u000a  Imp = []\u000a  s.deleteColumn('Ct')\u000a  s.deleteColumn('RunType')\u000a  s.deleteColumn('BRpl')\u000a  s.deleteColumn('TRpl')\u000a  s.deleteColumn('Treatment')\u000a  s.deleteColumn('Eff')\u000aif run:\u000a  importExcelToTable(s, xlsx_path, worksheet=worksheet,\u000a      column_position='ParmValues',\u000a      names=['Treatment', 'RunType', 'BRpl', 'TRpl', 'Eff', 'Ct'])\u000as.setColumnVisibility(['BRpl', 'Ct', 'Eff', 'RunType', 'TRpl', 'Treatment'], is_visible=show_raw)\u000as.setColumnVisibility(['ParmNames', 'ParmValues'], show_params)
p775
sbsS'_epilogue'
p776
g0
(g458
g2
Ntp777
Rp778
(dp779
g462
V# Epilogue\u000aif run:\u000a  worksheet = "%s-O" % gene\u000a  exportTableToExcel(s, xlsx_path, worksheet=worksheet, columns=['GeoGroups',  \u000a      'MeanNrmlGeoGroups', 'StdNrmlGeoGroups'])\u000a
p780
sg464
g774
sg466
I00
sg467
I00
sg468
V# Epilogue\u000aif run:\u000a  worksheet = "%s-O" % gene\u000a  exportTableToExcel(s, xlsx_path, worksheet=worksheet, columns=['GeoGroups',  \u000a      'MeanNrmlGeoGroups', 'StdNrmlGeoGroups'])\u000a
p781
sbsg464
g774
sS'_columns'
p782
(lp783
g0
(g313
g2
Ntp784
Rp785
(dp786
g317
I01
sg318
g4
sg319
(lp787
S'1'
p788
aS'2'
p789
aS'3'
p790
aS'4'
p791
aS'5'
p792
aS'6'
p793
aS'7'
p794
aS'8'
p795
aS'9'
p796
aS'10'
p797
aS'11'
p798
aS'12'
p799
aS'13'
p800
aS'14'
p801
aS'15'
p802
aS'16'
p803
aS'17'
p804
aS'18'
p805
aS'19'
p806
aS'20'
p807
aS'21'
p808
aS'22'
p809
aS'23'
p810
aS'24'
p811
aS'25'
p812
aS'26'
p813
aS'27'
p814
aS'28'
p815
aS'29'
p816
aS'30'
p817
aS'31'
p818
aS'32'
p819
aS'33'
p820
aS'34'
p821
aS'35'
p822
aS'36'
p823
aS'37'
p824
aS'38'
p825
aS'39'
p826
aS'40'
p827
aS'41'
p828
aS'42'
p829
aS'43'
p830
aS'44'
p831
aS'45'
p832
aS'46'
p833
aS'47'
p834
aS'48'
p835
aS'49'
p836
aS'50'
p837
aS'51'
p838
aS'52'
p839
aS'53'
p840
aS'54'
p841
aS'55'
p842
aS'56'
p843
aS'57'
p844
aS'58'
p845
aS'59'
p846
aS'60'
p847
aS'61'
p848
aS'62'
p849
aS'63'
p850
aS'64'
p851
asg457
g0
(g458
g2
Ntp852
Rp853
(dp854
g462
Nsg503
g785
sg466
I00
sg467
I00
sg468
Nsbsg470
g0
(g471
g472
(g473
g474
tp855
tp856
Rp857
sg464
S'row'
p858
sbag0
(g313
g2
Ntp859
Rp860
(dp861
g317
I00
sg318
g4
sg319
(lp862
Vgene
p863
aVrun
p864
aVshow_raw
p865
aVshow_block1
p866
aVshow_block2
p867
aVshow_block3
p868
aVmax_std
p869
aVmin_eff
p870
aVshow_params
p871
aVnan
p872
aVnan
p873
aVnan
p874
aVnan
p875
aVnan
p876
aVnan
p877
aVnan
p878
aVnan
p879
aVnan
p880
aVnan
p881
aVnan
p882
aVnan
p883
aVnan
p884
aVnan
p885
aVnan
p886
aVnan
p887
aVnan
p888
aVnan
p889
aVnan
p890
aVnan
p891
aVnan
p892
aVnan
p893
aVnan
p894
aVnan
p895
aVnan
p896
aVnan
p897
aVnan
p898
aVnan
p899
aVnan
p900
aVnan
p901
aVnan
p902
aVnan
p903
aVnan
p904
aVnan
p905
aVnan
p906
aVnan
p907
aVnan
p908
aVnan
p909
aVnan
p910
aVnan
p911
aVnan
p912
aVnan
p913
aVnan
p914
aVnan
p915
aVnan
p916
aNaNaNaNaNaNaNaNaNaNasg457
g0
(g458
g2
Ntp917
Rp918
(dp919
g462
Nsg503
g860
sg466
I00
sg467
I00
sg468
Nsbsg470
g0
(g471
g472
(g473
g474
tp920
tp921
Rp922
sg464
VParmNames
p923
sbag0
(g313
g2
Ntp924
Rp925
(dp926
g317
I00
sg318
g4
sg319
(lp927
VGene2
p928
aVTrue
p929
aVFalse
p930
aVFalse
p931
aVFalse
p932
aVTrue
p933
aF0.5
aV0.7
p934
aVTrue
p935
aV
p936
aVnan
p937
aVnan
p938
aVnan
p939
aVnan
p940
aVnan
p941
aVnan
p942
aVnan
p943
aVnan
p944
aVnan
p945
aVnan
p946
aVnan
p947
aVnan
p948
aVnan
p949
aVnan
p950
aVnan
p951
aVnan
p952
aVnan
p953
aVnan
p954
aVnan
p955
aVnan
p956
aVnan
p957
aVnan
p958
aVnan
p959
aVnan
p960
aVnan
p961
aVnan
p962
aVnan
p963
aVnan
p964
aVnan
p965
aVnan
p966
aVnan
p967
aVnan
p968
aVnan
p969
aVnan
p970
aVnan
p971
aVnan
p972
aVnan
p973
aVnan
p974
aVnan
p975
aVnan
p976
aVnan
p977
aVnan
p978
aVnan
p979
aVnan
p980
aNaNaNaNaNaNaNaNaNaNasg457
g0
(g458
g2
Ntp981
Rp982
(dp983
g462
Nsg464
VParmValues
p984
sg466
I00
sg467
I00
sg468
Nsbsg470
g0
(g471
g472
(g473
g474
tp985
tp986
Rp987
sg464
g984
sbag761
ag742
ag714
ag750
ag734
ag726
ag315
ag479
ag509
ag538
ag569
ag582
ag593
ag648
ag659
ag667
ag675
ag688
ag701
ag0
(g313
g2
Ntp988
Rp989
(dp990
g317
I00
sg318
g4
sg319
(lp991
(lp992
g322
(g326
S'\x00\x00\x00\x00\x00\x00\x00\x00'
p993
tp994
Rp995
aa(lp996
g322
(g326
S'\x00\x00\x00\x00\x00\x00\xf0?'
p997
tp998
Rp999
aa(lp1000
g322
(g326
S'\x00\x00\x00\x00\x00\x00\x00@'
p1001
tp1002
Rp1003
aa(lp1004
g322
(g326
S'\x00\x00\x00\x00\x00\x00\x08@'
p1005
tp1006
Rp1007
aaNaNaNaNaNaNaNaNaNaNaNaNaNaNaNaNaNaNaNaNaNaNaNaNaNaNaNaNaNaNaNaNaNaNaNaNaNaNaNaNaNaNaNaNaNaNaNaNaNaNaNaNaNaNaNaNaNaNaNaNasg457
g0
(g458
g2
Ntp1008
Rp1009
(dp1010
g462
Vcat_vals = [br[0] for br in pruneNulls(BioRuns)]\u000aclean_geo = [x for x in GeoMean if x is not None]\u000aGeoGroups, groupedGeoMeans = groupBy(cat_vals, clean_geo)\u000aGroupedGeoMeans = roundValues(groupedGeoMeans, 3)\u000aGeoGroups = [[x] for x in GeoGroups]
p1011
sg464
VGeoGroups
p1012
sg466
I00
sg467
I00
sg468
Vcat_vals = [br[0] for br in pruneNulls(BioRuns)]\u000aclean_geo = [x for x in GeoMean if x is not None]\u000aGeoGroups, groupedGeoMeans = groupBy(cat_vals, clean_geo)\u000aGroupedGeoMeans = roundValues(groupedGeoMeans, 3)\u000aGeoGroups = [[x] for x in GeoGroups]
p1013
sbsg470
g0
(g471
g472
(g473
g474
tp1014
tp1015
Rp1016
sg464
g1012
sbag0
(g313
g2
Ntp1017
Rp1018
(dp1019
g317
I00
sg318
g4
sg319
(lp1020
cnumpy.core.multiarray
_reconstruct
p1021
(g473
(I0
tp1022
S'b'
p1023
tp1024
Rp1025
(I1
(I1
tp1026
g326
I00
S'\xa2E\xb6\xf3\xfd\xd4\xfc?'
p1027
tp1028
bag1021
(g473
(I0
tp1029
g1023
tp1030
Rp1031
(I1
(I3
tp1032
g326
I00
S'\x0e-\xb2\x9d\xef\xa7\xd6?\x0c\x02+\x87\x16\xd9\xfc?B`\xe5\xd0"\xdb\xfb?'
p1033
tp1034
bag1021
(g473
(I0
tp1035
g1023
tp1036
Rp1037
(I1
(I1
tp1038
g326
I00
S'9\xb4\xc8v\xbe\x9f\x06@'
p1039
tp1040
bag1021
(g473
(I0
tp1041
g1023
tp1042
Rp1043
(I1
(I1
tp1044
g326
I00
S'\x00\x00\x00\x00\x00\x00\xfa?'
p1045
tp1046
baNaNaNaNaNaNaNaNaNaNaNaNaNaNaNaNaNaNaNaNaNaNaNaNaNaNaNaNaNaNaNaNaNaNaNaNaNaNaNaNaNaNaNaNaNaNaNaNaNaNaNaNaNaNaNaNaNaNaNaNasg457
g0
(g458
g2
Ntp1047
Rp1048
(dp1049
g462
Nsg503
g1018
sg466
I00
sg467
I00
sg468
Nsbsg470
g0
(g471
g472
(g473
g474
tp1050
tp1051
Rp1052
sg464
VGroupedGeoMeans
p1053
sbag0
(g313
g2
Ntp1054
Rp1055
(dp1056
g317
I00
sg318
g4
sg319
(lp1057
g1021
(g473
(I0
tp1058
g1023
tp1059
Rp1060
(I1
(I1
tp1061
g326
I00
S'\x00\x00\x00\x00\x00\x00\xf0?'
p1062
tp1063
bag1021
(g473
(I0
tp1064
g1023
tp1065
Rp1066
(I1
(I3
tp1067
g326
I00
S'J\x0c\x02+\x87\x16\xc9?j\xbct\x93\x18\x04\xf0?\xb6\xf3\xfd\xd4x\xe9\xee?'
p1068
tp1069
bag1021
(g473
(I0
tp1070
g1023
tp1071
Rp1072
(I1
(I1
tp1073
g326
I00
S'\xb4\xc8v\xbe\x9f\x1a\xf9?'
p1074
tp1075
bag1021
(g473
(I0
tp1076
g1023
tp1077
Rp1078
(I1
(I1
tp1079
g326
I00
S'w\xbe\x9f\x1a/\xdd\xec?'
p1080
tp1081
baNaNaNaNaNaNaNaNaNaNaNaNaNaNaNaNaNaNaNaNaNaNaNaNaNaNaNaNaNaNaNaNaNaNaNaNaNaNaNaNaNaNaNaNaNaNaNaNaNaNaNaNaNaNaNaNaNaNaNaNasg457
g0
(g458
g2
Ntp1082
Rp1083
(dp1084
g462
Vref = np.mean(GroupedGeoMeans[0])\u000aNrmlGeoGroupedMeans = [ [x/ref for x in g] for g in GroupedGeoMeans if g is not None]  \u000aNrmlGeoGroupedMeans = roundValues(NrmlGeoGroupedMeans, 3)
p1085
sg464
VNrmlGeoGroupedMeans
p1086
sg466
I00
sg467
I00
sg468
Vref = np.mean(GroupedGeoMeans[0])\u000aNrmlGeoGroupedMeans = [ [x/ref for x in g] for g in GroupedGeoMeans if g is not None]  \u000aNrmlGeoGroupedMeans = roundValues(NrmlGeoGroupedMeans, 3)
p1087
sbsg470
g0
(g471
g472
(g473
g474
tp1088
tp1089
Rp1090
sg464
g1086
sbag0
(g313
g2
Ntp1091
Rp1092
(dp1093
g317
I00
sg318
g4
sg319
(lp1094
F1.0
aF0.721
aF1.569
aF0.902
aFnan
aFnan
aFnan
aFnan
aFnan
aFnan
aFnan
aFnan
aFnan
aFnan
aFnan
aFnan
aFnan
aFnan
aFnan
aFnan
aFnan
aFnan
aFnan
aFnan
aFnan
aFnan
aFnan
aFnan
aFnan
aFnan
aFnan
aFnan
aFnan
aFnan
aFnan
aFnan
aFnan
aFnan
aFnan
aFnan
aFnan
aFnan
aFnan
aFnan
aFnan
aFnan
aFnan
aFnan
aFnan
aFnan
aFnan
aFnan
aFnan
aFnan
aFnan
aFnan
aFnan
aFnan
aFnan
aFnan
aFnan
aFnan
aFnan
aFnan
asg457
g0
(g458
g2
Ntp1095
Rp1096
(dp1097
g462
VMeanNrmlGeoGroups = [round(np.mean(g), 3) for g in NrmlGeoGroupedMeans]
p1098
sg464
VMeanNrmlGeoGroups
p1099
sg466
I01
sg467
I00
sg468
V[round(np.mean(g), 3) for g in NrmlGeoGroupedMeans]
p1100
sbsg470
g0
(g471
g472
(g473
g474
tp1101
tp1102
Rp1103
sg464
g1099
sbag0
(g313
g2
Ntp1104
Rp1105
(dp1106
g317
I00
sg318
g4
sg319
(lp1107
Fnan
aF0.263
aFnan
aFnan
aFnan
aFnan
aFnan
aFnan
aFnan
aFnan
aFnan
aFnan
aFnan
aFnan
aFnan
aFnan
aFnan
aFnan
aFnan
aFnan
aFnan
aFnan
aFnan
aFnan
aFnan
aFnan
aFnan
aFnan
aFnan
aFnan
aFnan
aFnan
aFnan
aFnan
aFnan
aFnan
aFnan
aFnan
aFnan
aFnan
aFnan
aFnan
aFnan
aFnan
aFnan
aFnan
aFnan
aFnan
aFnan
aFnan
aFnan
aFnan
aFnan
aFnan
aFnan
aFnan
aFnan
aFnan
aFnan
aFnan
aFnan
aFnan
aFnan
aFnan
asg457
g0
(g458
g2
Ntp1108
Rp1109
(dp1110
g462
VStdNrmlGeoGroups = [round(np.std(g, ddof=1)/np.sqrt(len(g)), 3) for g in NrmlGeoGroupedMeans]\u000a
p1111
sg464
VStdNrmlGeoGroups
p1112
sg466
I01
sg467
I00
sg468
V[round(np.std(g, ddof=1)/np.sqrt(len(g)), 3) for g in NrmlGeoGroupedMeans]\u000a
p1113
sbsg470
g0
(g471
g472
(g473
g474
tp1114
tp1115
Rp1116
sg464
g1112
sbasg306
V/home/ubuntu/SciSheets/mysite/user/guest/tables/kristen_single_gene.pcl
p1117
sb.