ccopy_reg
_reconstructor
p0
(cscisheets.ui.dt_table
DTTable
p1
c__builtin__
object
p2
Ntp3
Rp4
(dp5
S'_columns'
p6
(lp7
g0
(cscisheets.core.column
Column
p8
g2
Ntp9
Rp10
(dp11
S'_asis'
p12
I01
sS'_owning_table'
p13
g4
sS'_cells'
p14
(lp15
S'1'
p16
aS'2'
p17
aS'3'
p18
aS'4'
p19
aS'5'
p20
aS'6'
p21
aS'7'
p22
aS'8'
p23
aS'9'
p24
aS'10'
p25
aS'11'
p26
aS'12'
p27
aS'13'
p28
aS'14'
p29
aS'15'
p30
asS'_formula_statement'
p31
g0
(cscisheets.core.column
FormulaStatement
p32
g2
Ntp33
Rp34
(dp35
S'_statement'
p36
NsS'_column'
p37
g10
sS'_isExpression'
p38
I00
sS'_isStatement'
p39
I00
sS'_formula'
p40
NsbsS'_data_class'
p41
g0
(cscisheets.core.helpers.api_util
DataClass
p42
c__builtin__
tuple
p43
(cnumpy
ndarray
p44
cscisheets.core.helpers.api_util
makeArray
p45
tp46
tp47
Rp48
sS'_name'
p49
S'row'
p50
sbag0
(g8
g2
Ntp51
Rp52
(dp53
g12
I00
sg13
g4
sg14
(lp54
I78
aI59
aI72
aI80
aI74
aI71
aI89
aI62
aI68
aI56
aI52
aI52
aI69
aI83
aI73
asg31
g0
(g32
g2
Ntp55
Rp56
(dp57
g36
Vimport random\u000aEffData = [random.randint(50, 100) for x in range(15)]
p58
sg37
g52
sg38
I00
sg39
I00
sg40
Vimport random\u000aEffData = [random.randint(50, 100) for x in range(15)]
p59
sbsg41
g0
(g42
g43
(g44
g45
tp60
tp61
Rp62
sg49
VEffData
p63
sbag0
(g8
g2
Ntp64
Rp65
(dp66
g12
I00
sg13
g4
sg14
(lp67
F3.0
aFnan
aFnan
aFnan
aFnan
aFnan
aFnan
aFnan
aFnan
aFnan
aFnan
aFnan
aFnan
aFnan
aFnan
asg31
g0
(g32
g2
Ntp68
Rp69
(dp70
g36
Vbatch_size = int(BatchSize[0])
p71
sg37
g65
sg38
I00
sg39
I00
sg40
g71
sbsg41
g0
(g42
g43
(g44
g45
tp72
tp73
Rp74
sg49
VBatchSize
p75
sbag0
(g8
g2
Ntp76
Rp77
(dp78
g12
I00
sg13
g4
sg14
(lp79
F70.0
aFnan
aFnan
aFnan
aFnan
aFnan
aFnan
aFnan
aFnan
aFnan
aFnan
aFnan
aFnan
aFnan
aFnan
asg31
g0
(g32
g2
Ntp80
Rp81
(dp82
g36
Nsg37
g77
sg38
I00
sg39
I00
sg40
Nsbsg41
g0
(g42
g43
(g44
g45
tp83
tp84
Rp85
sg49
VMinEff
p86
sbag0
(g8
g2
Ntp87
Rp88
(dp89
g12
I00
sg13
g4
sg14
(lp90
(lp91
I78
aI59
aI72
aa(lp92
I80
aI74
aI71
aa(lp93
I89
aI62
aI68
aa(lp94
I56
aI52
aI52
aa(lp95
I69
aI83
aI73
aaNaNaNaNaNaNaNaNaNaNasg31
g0
(g32
g2
Ntp96
Rp97
(dp98
g36
Vbatch_count = len(EffData)/batch_size\u000aGroupedData = np.array(EffData).reshape(batch_count, batch_size)
p99
sg37
g88
sg38
I00
sg39
I00
sg40
Vbatch_count = len(EffData)/batch_size\u000aGroupedData = np.array(EffData).reshape(batch_count, batch_size)
p100
sbsg41
g0
(g42
g43
(g44
g45
tp101
tp102
Rp103
sg49
VGroupedData
p104
sbag0
(g8
g2
Ntp105
Rp106
(dp107
g12
I00
sg13
g4
sg14
(lp108
(lp109
cnumpy.core.multiarray
scalar
p110
(cnumpy
dtype
p111
(S'i8'
p112
I0
I1
tp113
Rp114
(I3
S'<'
p115
NNNI-1
I-1
I0
tp116
bS'N\x00\x00\x00\x00\x00\x00\x00'
p117
tp118
Rp119
ag110
(g114
S'H\x00\x00\x00\x00\x00\x00\x00'
p120
tp121
Rp122
aa(lp123
g110
(g114
S'P\x00\x00\x00\x00\x00\x00\x00'
p124
tp125
Rp126
ag110
(g114
S'J\x00\x00\x00\x00\x00\x00\x00'
p127
tp128
Rp129
ag110
(g114
S'G\x00\x00\x00\x00\x00\x00\x00'
p130
tp131
Rp132
aa(lp133
g110
(g114
S'Y\x00\x00\x00\x00\x00\x00\x00'
p134
tp135
Rp136
aa(lp137
a(lp138
g110
(g114
S'S\x00\x00\x00\x00\x00\x00\x00'
p139
tp140
Rp141
ag110
(g114
S'I\x00\x00\x00\x00\x00\x00\x00'
p142
tp143
Rp144
aaNaNaNaNaNaNaNaNaNaNasg31
g0
(g32
g2
Ntp145
Rp146
(dp147
g36
VGroupedPrunedData = []\u000afor data in GroupedData:\u000a  new_data = []\u000a  for d in data:\u000a    if d >= MinEff[0]:\u000a      new_data.append(d)\u000a  GroupedPrunedData.append(new_data)
p148
sg37
g106
sg38
I00
sg39
I00
sg40
VGroupedPrunedData = []\u000afor data in GroupedData:\u000a  new_data = []\u000a  for d in data:\u000a    if d >= MinEff[0]:\u000a      new_data.append(d)\u000a  GroupedPrunedData.append(new_data)
p149
sbsg41
g0
(g42
g43
(g44
g45
tp150
tp151
Rp152
sg49
VGroupedPrunedData
p153
sbag0
(g8
g2
Ntp154
Rp155
(dp156
g12
I00
sg13
g4
sg14
(lp157
F75.0
aF75.0
aF89.0
aFnan
aF78.0
aFnan
aFnan
aFnan
aFnan
aFnan
aFnan
aFnan
aFnan
aFnan
aFnan
asg31
g0
(g32
g2
Ntp158
Rp159
(dp160
g36
VMean = []\u000afor data in GroupedPrunedData:\u000a  Mean.append(np.average(data))
p161
sg37
g155
sg38
I00
sg39
I00
sg40
VMean = []\u000afor data in GroupedPrunedData:\u000a  Mean.append(np.average(data))
p162
sbsg41
g0
(g42
g43
(g44
g45
tp163
tp164
Rp165
sg49
VMean
p166
sbag0
(g8
g2
Ntp167
Rp168
(dp169
g12
I00
sg13
g4
sg14
(lp170
F3.0
aF3.7416573867739413
aF0.0
aFnan
aF5.0
aFnan
aFnan
aFnan
aFnan
aFnan
aFnan
aFnan
aFnan
aFnan
aFnan
asg31
g0
(g32
g2
Ntp171
Rp172
(dp173
g36
VStd = []\u000afor data in GroupedPrunedData:\u000a  Std.append(np.std(data))
p174
sg37
g168
sg38
I00
sg39
I00
sg40
VStd = []\u000afor data in GroupedPrunedData:\u000a  Std.append(np.std(data))
p175
sbsg41
g0
(g42
g43
(g44
g45
tp176
tp177
Rp178
sg49
VStd
p179
sbag0
(g8
g2
Ntp180
Rp181
(dp182
g12
I00
sg13
g4
sg14
(lp183
Fnan
aFnan
aFnan
aFnan
aFnan
aFnan
aFnan
aFnan
aFnan
aFnan
aFnan
aFnan
aFnan
aFnan
aFnan
asg31
g0
(g32
g2
Ntp184
Rp185
(dp186
g36
Nsg37
g181
sg38
I00
sg39
I00
sg40
Nsbsg41
g0
(g42
g43
(g44
g45
tp187
tp188
Rp189
sg49
VzScore
p190
sbasS'_filepath'
p191
V/home/ubuntu/SciSheets/mysite/user/guest/tables/kristen_gene_table.pcl
p192
sg49
VGeneTable
p193
sb.