ccopy_reg
_reconstructor
p0
(cscisheets.ui.dt_table
DTTable
p1
c__builtin__
object
p2
Ntp3
Rp4
(dp5
S'_versioned_file'
p6
g0
(cmysite.helpers.versioned_file
VersionedFile
p7
g2
Ntp8
Rp9
(dp10
S'_redo_stack'
p11
g0
(cmysite.helpers.file_stack
FileStack
p12
g2
Ntp13
Rp14
(dp15
S'_dirpath'
p16
S'/home/ubuntu/SciSheets/mysite/user/guest/tables/backup'
p17
sS'_max_depth'
p18
I5
sS'_filename_pfx'
p19
Vkristen_single_gene.r
p20
sbsS'_max_versions'
p21
I5
sS'_undo_stack'
p22
g0
(g12
g2
Ntp23
Rp24
(dp25
g16
g17
sg18
I5
sg19
Vkristen_single_gene.u
p26
sbsS'_checkpoint_history'
p27
(lp28
VCell/Update
p29
aVCell/Update
p30
aVCell/Update
p31
aVCell/Update
p32
aVCell/Update
p33
aVCell/Update
p34
aVCell/Update
p35
aVCell/Update
p36
aVCell/Update
p37
aVCell/Update
p38
aVCell/Update
p39
aVCell/Update
p40
aVColumn/Formula
p41
aVColumn/Formula
p42
aVColumn/Append
p43
aVColumn/Formula
p44
aVColumn/Delete
p45
aVCell/Update
p46
aVColumn/Formula
p47
aVCell/Update
p48
aVCell/Update
p49
aVColumn/Formula
p50
aVColumn/Formula
p51
aVCell/Update
p52
aVColumn/Formula
p53
aVColumn/Formula
p54
aVCell/Update
p55
aVCell/Update
p56
aVCell/Update
p57
aVCell/Update
p58
aVColumn/Formula
p59
aVCell/Update
p60
aVCell/Update
p61
aVCell/Update
p62
aVColumn/Formula
p63
aVCell/Update
p64
aVColumn/Formula
p65
aVColumn/Formula
p66
aVCell/Update
p67
aVCell/Update
p68
aVCell/Update
p69
aVCell/Update
p70
aVCell/Update
p71
aVCell/Update
p72
aVCell/Update
p73
aVCell/Update
p74
aVCell/Update
p75
aVColumn/Formula
p76
aVCell/Update
p77
aVCell/Update
p78
aVCell/Update
p79
aVCell/Update
p80
aVCell/Update
p81
aVCell/Update
p82
aVCell/Update
p83
aVCell/Update
p84
aVCell/Update
p85
aVCell/Update
p86
aVCell/Update
p87
aVCell/Update
p88
aVColumn/Formula
p89
aVColumn/Formula
p90
aVColumn/Formula
p91
aVCell/Update
p92
aVCell/Update
p93
aVCell/Update
p94
aVCell/Update
p95
aVCell/Update
p96
aVColumn/Formula
p97
aVCell/Update
p98
aVCell/Update
p99
aVCell/Update
p100
aVCell/Update
p101
aVCell/Update
p102
aVCell/Update
p103
aVCell/Update
p104
aVColumn/Formula
p105
aVColumn/Formula
p106
aVColumn/Formula
p107
aVCell/Update
p108
aVCell/Update
p109
aVColumn/Formula
p110
aVCell/Update
p111
aVCell/Update
p112
aVCell/Update
p113
aVCell/Update
p114
aVCell/Update
p115
aVCell/Update
p116
aVCell/Update
p117
aVCell/Update
p118
aVColumn/Formula
p119
aVCell/Update
p120
aVColumn/Formula
p121
aVColumn/Formula
p122
aVColumn/Formula
p123
aVCell/Update
p124
aVCell/Update
p125
aVColumn/Formula
p126
aVColumn/Formula
p127
aVColumn/Formula
p128
aVColumn/Formula
p129
aVCell/Update
p130
aVColumn/Formula
p131
aVColumn/Formula
p132
aVColumn/Formula
p133
aVCell/Update
p134
aVCell/Update
p135
aVCell/Update
p136
aVCell/Update
p137
aVCell/Update
p138
aVCell/Update
p139
aVCell/Update
p140
aVCell/Update
p141
aVCell/Update
p142
aVCell/Update
p143
aVColumn/Formula
p144
aVColumn/Formula
p145
aVColumn/Formula
p146
aVColumn/Formula
p147
aVCell/Update
p148
aVCell/Update
p149
aVColumn/Formula
p150
aVCell/Update
p151
aVCell/Update
p152
aVCell/Update
p153
aVCell/Update
p154
aVCell/Update
p155
aVCell/Update
p156
aVCell/Update
p157
aVCell/Update
p158
aVCell/Update
p159
aVCell/Update
p160
aVCell/Update
p161
aVCell/Update
p162
aVCell/Update
p163
aVColumn/Formula
p164
aVColumn/Formula
p165
aVCell/Update
p166
aVCell/Update
p167
aVCell/Update
p168
aVColumn/Formula
p169
aVCell/Update
p170
aVCell/Update
p171
aVCell/Update
p172
aVCell/Update
p173
aVColumn/Formula
p174
aVColumn/Formula
p175
aVColumn/Formula
p176
aVColumn/Formula
p177
aVCell/Update
p178
aVColumn/Formula
p179
aVCell/Update
p180
aVCell/Update
p181
aVCell/Update
p182
aVCell/Update
p183
aVCell/Update
p184
aVCell/Update
p185
aVCell/Update
p186
aVCell/Update
p187
aVCell/Update
p188
aVColumn/Formula
p189
aVCell/Update
p190
aVCell/Update
p191
aVCell/Update
p192
aVCell/Update
p193
aVCell/Update
p194
aVCell/Update
p195
aVCell/Update
p196
aVCell/Update
p197
aVCell/Update
p198
aVCell/Update
p199
aVCell/Update
p200
aVCell/Update
p201
aVCell/Update
p202
aVCell/Update
p203
aVCell/Update
p204
aVCell/Update
p205
aVCell/Update
p206
aVCell/Update
p207
aVCell/Update
p208
aVCell/Update
p209
aVCell/Update
p210
aVCell/Update
p211
aVCell/Update
p212
aVCell/Update
p213
aVCell/Update
p214
aVCell/Update
p215
aVCell/Update
p216
aVCell/Update
p217
aVCell/Update
p218
aVCell/Update
p219
aVCell/Update
p220
aVCell/Update
p221
aVCell/Update
p222
aVCell/Update
p223
aVCell/Update
p224
aVCell/Update
p225
aVCell/Update
p226
aVCell/Update
p227
aVCell/Update
p228
aVCell/Update
p229
aVCell/Update
p230
aVCell/Update
p231
aVCell/Update
p232
aVCell/Update
p233
aVCell/Update
p234
aVCell/Update
p235
aVCell/Update
p236
aVCell/Update
p237
aVCell/Update
p238
aVCell/Update
p239
aVCell/Update
p240
aVCell/Update
p241
aVCell/Update
p242
aVCell/Update
p243
aVCell/Update
p244
aVCell/Update
p245
aVCell/Update
p246
aVCell/Update
p247
aVCell/Update
p248
aVCell/Update
p249
aVCell/Update
p250
aVCell/Update
p251
aVCell/Update
p252
aVCell/Update
p253
aVCell/Update
p254
aVCell/Update
p255
aVCell/Update
p256
aVCell/Update
p257
aVCell/Update
p258
aVCell/Update
p259
aVCell/Update
p260
aVCell/Update
p261
aVCell/Update
p262
aVCell/Update
p263
aVCell/Update
p264
aVCell/Update
p265
aVCell/Update
p266
aVCell/Update
p267
aVCell/Update
p268
aVCell/Update
p269
aVCell/Update
p270
aVCell/Update
p271
aVColumn/Formula
p272
aVColumn/Formula
p273
aVCell/Update
p274
aVCell/Update
p275
aVCell/Update
p276
aVCell/Update
p277
aVColumn/Formula
p278
aVColumn/Formula
p279
aVColumn/Formula
p280
aVCell/Update
p281
aVCell/Update
p282
aVCell/Update
p283
aVCell/Update
p284
aVColumn/Formula
p285
aVColumn/Formula
p286
aVColumn/Formula
p287
aVCell/Update
p288
aVCell/Update
p289
aVColumn/Formula
p290
aVCell/Update
p291
aVCell/Update
p292
aVCell/Update
p293
aVCell/Update
p294
aVCell/Update
p295
aVCell/Update
p296
aVColumn/Formula
p297
aVCell/Update
p298
aVColumn/Formula
p299
aVCell/Update
p300
aVCell/Update
p301
aVColumn/Formula
p302
aVColumn/Formula
p303
aVCell/Update
p304
aVCell/Update
p305
aVCell/Update
p306
aVCell/Update
p307
aVColumn/Formula
p308
aVColumn/Formula
p309
aVColumn/Formula
p310
aVColumn/Formula
p311
aVColumn/Formula
p312
aVCell/Update
p313
aVCell/Update
p314
aVColumn/Formula
p315
aVCell/Update
p316
aVColumn/Formula
p317
aVColumn/Formula
p318
aVCell/Update
p319
aVCell/Update
p320
aVCell/Update
p321
aVColumn/Formula
p322
aVColumn/Formula
p323
aVColumn/Formula
p324
aVCell/Update
p325
aVColumn/Formula
p326
aVCell/Update
p327
aVColumn/Formula
p328
aVColumn/Formula
p329
aVColumn/Formula
p330
aVColumn/Formula
p331
aVColumn/Formula
p332
aVColumn/Formula
p333
aVCell/Update
p334
aVColumn/Formula
p335
aVCell/Update
p336
aVCell/Update
p337
aVCell/Update
p338
aVColumn/Formula
p339
aVColumn/Formula
p340
aVColumn/Formula
p341
aVColumn/Formula
p342
aVColumn/Formula
p343
aVCell/Update
p344
aVCell/Update
p345
aVCell/Update
p346
aVColumn/Formula
p347
aVCell/Update
p348
aVCell/Update
p349
aVColumn/Formula
p350
aVColumn/Formula
p351
aVColumn/Formula
p352
aVColumn/Formula
p353
aVColumn/Formula
p354
aVColumn/Formula
p355
aVCell/Update
p356
aVColumn/Formula
p357
aVColumn/Formula
p358
aVColumn/Formula
p359
aVCell/Update
p360
aVCell/Update
p361
aVCell/Update
p362
aVColumn/Formula
p363
aVColumn/Formula
p364
aVCell/Update
p365
aVColumn/Formula
p366
aVColumn/Formula
p367
aVColumn/Formula
p368
aVColumn/Formula
p369
aVColumn/Formula
p370
aVColumn/Formula
p371
aVCell/Update
p372
aVCell/Update
p373
aVColumn/Formula
p374
aVCell/Update
p375
aVColumn/Formula
p376
aVColumn/Formula
p377
aVCell/Update
p378
aVCell/Update
p379
aVCell/Update
p380
aVCell/Update
p381
aVCell/Update
p382
aVColumn/Formula
p383
aVCell/Update
p384
aVCell/Update
p385
aVColumn/Formula
p386
aVColumn/Formula
p387
aVCell/Update
p388
aVCell/Update
p389
aVColumn/Formula
p390
aVColumn/Formula
p391
aVCell/Update
p392
asS'_filepath'
p393
V/home/ubuntu/SciSheets/mysite/user/guest/tables/kristen_single_gene.pcl
p394
sS'_backup_dir'
p395
g17
sbsS'_namespace'
p396
(dp397
sS'_hidden_columns'
p398
(lp399
g0
(cscisheets.core.column
Column
p400
g2
Ntp401
Rp402
(dp403
S'_asis'
p404
I00
sS'_owning_table'
p405
g4
sS'_cells'
p406
(lp407
(lp408
cnumpy.core.multiarray
scalar
p409
(cnumpy
dtype
p410
(S'i8'
p411
I0
I1
tp412
Rp413
(I3
S'<'
p414
NNNI-1
I-1
I0
tp415
bS'\x00\x00\x00\x00\x00\x00\x00\x00'
p416
tp417
Rp418
ag409
(g410
(S'U1'
p419
I0
I1
tp420
Rp421
(I3
S'<'
p422
NNNI4
I4
I8
tp423
bS'I\x00\x00\x00'
p424
tp425
Rp426
ag409
(g413
S'\x01\x00\x00\x00\x00\x00\x00\x00'
p427
tp428
Rp429
aa(lp430
g409
(g413
S'\x00\x00\x00\x00\x00\x00\x00\x00'
p431
tp432
Rp433
ag409
(g410
(S'U2'
p434
I0
I1
tp435
Rp436
(I3
S'<'
p437
NNNI8
I4
I8
tp438
bS'R\x00\x00\x001\x00\x00\x00'
p439
tp440
Rp441
ag409
(g413
S'\x01\x00\x00\x00\x00\x00\x00\x00'
p442
tp443
Rp444
aa(lp445
g409
(g413
S'\x00\x00\x00\x00\x00\x00\x00\x00'
p446
tp447
Rp448
ag409
(g410
(S'U2'
p449
I0
I1
tp450
Rp451
(I3
S'<'
p452
NNNI8
I4
I8
tp453
bS'R\x00\x00\x002\x00\x00\x00'
p454
tp455
Rp456
ag409
(g413
S'\x01\x00\x00\x00\x00\x00\x00\x00'
p457
tp458
Rp459
aa(lp460
g409
(g413
S'\x01\x00\x00\x00\x00\x00\x00\x00'
p461
tp462
Rp463
ag426
ag409
(g413
S'\x01\x00\x00\x00\x00\x00\x00\x00'
p464
tp465
Rp466
aa(lp467
g409
(g413
S'\x01\x00\x00\x00\x00\x00\x00\x00'
p468
tp469
Rp470
ag426
ag409
(g413
S'\x02\x00\x00\x00\x00\x00\x00\x00'
p471
tp472
Rp473
aa(lp474
g409
(g413
S'\x01\x00\x00\x00\x00\x00\x00\x00'
p475
tp476
Rp477
ag426
ag409
(g413
S'\x03\x00\x00\x00\x00\x00\x00\x00'
p478
tp479
Rp480
aa(lp481
g409
(g413
S'\x01\x00\x00\x00\x00\x00\x00\x00'
p482
tp483
Rp484
ag441
ag409
(g413
S'\x01\x00\x00\x00\x00\x00\x00\x00'
p485
tp486
Rp487
aa(lp488
g409
(g413
S'\x01\x00\x00\x00\x00\x00\x00\x00'
p489
tp490
Rp491
ag441
ag409
(g413
S'\x02\x00\x00\x00\x00\x00\x00\x00'
p492
tp493
Rp494
aa(lp495
g409
(g413
S'\x01\x00\x00\x00\x00\x00\x00\x00'
p496
tp497
Rp498
ag441
ag409
(g413
S'\x03\x00\x00\x00\x00\x00\x00\x00'
p499
tp500
Rp501
aa(lp502
g409
(g413
S'\x01\x00\x00\x00\x00\x00\x00\x00'
p503
tp504
Rp505
ag456
ag409
(g413
S'\x01\x00\x00\x00\x00\x00\x00\x00'
p506
tp507
Rp508
aa(lp509
g409
(g413
S'\x01\x00\x00\x00\x00\x00\x00\x00'
p510
tp511
Rp512
ag456
ag409
(g413
S'\x02\x00\x00\x00\x00\x00\x00\x00'
p513
tp514
Rp515
aa(lp516
g409
(g413
S'\x01\x00\x00\x00\x00\x00\x00\x00'
p517
tp518
Rp519
ag456
ag409
(g413
S'\x03\x00\x00\x00\x00\x00\x00\x00'
p520
tp521
Rp522
aa(lp523
g409
(g413
S'\x02\x00\x00\x00\x00\x00\x00\x00'
p524
tp525
Rp526
ag426
ag409
(g413
S'\x01\x00\x00\x00\x00\x00\x00\x00'
p527
tp528
Rp529
aa(lp530
g409
(g413
S'\x02\x00\x00\x00\x00\x00\x00\x00'
p531
tp532
Rp533
ag441
ag409
(g413
S'\x01\x00\x00\x00\x00\x00\x00\x00'
p534
tp535
Rp536
aa(lp537
g409
(g413
S'\x02\x00\x00\x00\x00\x00\x00\x00'
p538
tp539
Rp540
ag456
ag409
(g413
S'\x01\x00\x00\x00\x00\x00\x00\x00'
p541
tp542
Rp543
aa(lp544
g409
(g413
S'\x03\x00\x00\x00\x00\x00\x00\x00'
p545
tp546
Rp547
ag426
ag409
(g413
S'\x01\x00\x00\x00\x00\x00\x00\x00'
p548
tp549
Rp550
aa(lp551
g409
(g413
S'\x03\x00\x00\x00\x00\x00\x00\x00'
p552
tp553
Rp554
ag441
ag409
(g413
S'\x01\x00\x00\x00\x00\x00\x00\x00'
p555
tp556
Rp557
aa(lp558
g409
(g413
S'\x03\x00\x00\x00\x00\x00\x00\x00'
p559
tp560
Rp561
ag456
ag409
(g413
S'\x01\x00\x00\x00\x00\x00\x00\x00'
p562
tp563
Rp564
aa(lp565
g409
(g413
S'\x04\x00\x00\x00\x00\x00\x00\x00'
p566
tp567
Rp568
ag426
ag409
(g413
S'\x01\x00\x00\x00\x00\x00\x00\x00'
p569
tp570
Rp571
aa(lp572
g409
(g413
S'\x04\x00\x00\x00\x00\x00\x00\x00'
p573
tp574
Rp575
ag441
ag409
(g413
S'\x01\x00\x00\x00\x00\x00\x00\x00'
p576
tp577
Rp578
aa(lp579
g409
(g413
S'\x04\x00\x00\x00\x00\x00\x00\x00'
p580
tp581
Rp582
ag456
ag409
(g413
S'\x01\x00\x00\x00\x00\x00\x00\x00'
p583
tp584
Rp585
aaNaNaNaNaNaNaNaNaNaNaNaNaNaNaNaNaNaNaNaNaNaNaNaNaNaNaNaNaNaNaNaNaNaNaNaNaNaNaNaNaNaNaNasS'_formula_statement'
p586
g0
(cscisheets.core.helpers.formula_statement
FormulaStatement
p587
g2
Ntp588
Rp589
(dp590
S'_statement'
p591
Vsel = [e > min_eff for e in Eff]\u000apairs = zip(range(len(sel)), sel)\u000apTreatment = [Treatment[i] for i,b in pairs if b]\u000apRunType = [RunType[i] for i,b in pairs if b]\u000apBRpl = [BRpl[i] for i,b in pairs if b]\u000agrouping_columns = [pTreatment, pRunType, pBRpl]\u000apCt = [Ct[i] for i,b in pairs if b]\u000apEff = [Eff[i] for i,b in pairs if b]\u000aGroups, groupedCt = groupBy(\u000a     grouping_columns, pCt)\u000aGroups, groupedEff = groupBy(\u000a     grouping_columns, pEff)\u000aGroups = [[g[0], g[1], g[2]] for g in Groups]\u000aGroupedCt = roundValues(groupedCt,2)\u000aGroupedEff = roundValues(groupedEff,2)
p592
sS'_name'
p593
VGroups
p594
sS'_isExpression'
p595
I00
sS'_isStatement'
p596
I00
sS'_formula'
p597
Vsel = [e > min_eff for e in Eff]\u000apairs = zip(range(len(sel)), sel)\u000apTreatment = [Treatment[i] for i,b in pairs if b]\u000apRunType = [RunType[i] for i,b in pairs if b]\u000apBRpl = [BRpl[i] for i,b in pairs if b]\u000agrouping_columns = [pTreatment, pRunType, pBRpl]\u000apCt = [Ct[i] for i,b in pairs if b]\u000apEff = [Eff[i] for i,b in pairs if b]\u000aGroups, groupedCt = groupBy(\u000a     grouping_columns, pCt)\u000aGroups, groupedEff = groupBy(\u000a     grouping_columns, pEff)\u000aGroups = [[g[0], g[1], g[2]] for g in Groups]\u000aGroupedCt = roundValues(groupedCt,2)\u000aGroupedEff = roundValues(groupedEff,2)
p598
sbsS'_data_class'
p599
g0
(cscisheets.core.helpers.api_util
DataClass
p600
c__builtin__
tuple
p601
(cnumpy
ndarray
p602
cscisheets.core.helpers.api_util
makeArray
p603
tp604
tp605
Rp606
sg593
g594
sbag0
(g400
g2
Ntp607
Rp608
(dp609
g404
I00
sg405
g4
sg406
(lp610
cnumpy.core.multiarray
_reconstruct
p611
(g602
(I0
tp612
S'b'
p613
tp614
Rp615
(I1
(I4
tp616
g410
(S'f8'
p617
I0
I1
tp618
Rp619
(I3
S'<'
p620
NNNI-1
I-1
I0
tp621
bI00
S'\xe1z\x14\xaeG\xe1\xea?{\x14\xaeG\xe1z\xec?\xcd\xcc\xcc\xcc\xcc\xcc\xec?\xd7\xa3p=\n\xd7\xeb?'
p622
tp623
bag611
(g602
(I0
tp624
g613
tp625
Rp626
(I1
(I3
tp627
g619
I00
S'\x8f\xc2\xf5(\\\x8f\xea?\x8f\xc2\xf5(\\\x8f\xea?333333\xeb?'
p628
tp629
bag611
(g602
(I0
tp630
g613
tp631
Rp632
(I1
(I3
tp633
g619
I00
S'=\n\xd7\xa3p=\xea?333333\xeb?=\n\xd7\xa3p=\xea?'
p634
tp635
bag611
(g602
(I0
tp636
g613
tp637
Rp638
(I1
(I3
tp639
g619
I00
S'\x14\xaeG\xe1z\x14\xee?\x8f\xc2\xf5(\\\x8f\xea?\xe1z\x14\xaeG\xe1\xea?'
p640
tp641
bag611
(g602
(I0
tp642
g613
tp643
Rp644
(I1
(I3
tp645
g619
I00
S'\x9a\x99\x99\x99\x99\x99\xe9?\xe1z\x14\xaeG\xe1\xea?H\xe1z\x14\xaeG\xe9?'
p646
tp647
bag611
(g602
(I0
tp648
g613
tp649
Rp650
(I1
(I3
tp651
g619
I00
S'\x8f\xc2\xf5(\\\x8f\xea?\x9a\x99\x99\x99\x99\x99\xe9?\x8f\xc2\xf5(\\\x8f\xea?'
p652
tp653
bag611
(g602
(I0
tp654
g613
tp655
Rp656
(I1
(I3
tp657
g619
I00
S'q=\n\xd7\xa3p\xed?\\\x8f\xc2\xf5(\\\xef?\xcd\xcc\xcc\xcc\xcc\xcc\xec?'
p658
tp659
bag611
(g602
(I0
tp660
g613
tp661
Rp662
(I1
(I3
tp663
g619
I00
S'\xcd\xcc\xcc\xcc\xcc\xcc\xec?\x8f\xc2\xf5(\\\x8f\xea?\xe1z\x14\xaeG\xe1\xea?'
p664
tp665
bag611
(g602
(I0
tp666
g613
tp667
Rp668
(I1
(I3
tp669
g619
I00
S'\xd7\xa3p=\n\xd7\xeb?333333\xeb?\x8f\xc2\xf5(\\\x8f\xea?'
p670
tp671
bag611
(g602
(I0
tp672
g613
tp673
Rp674
(I1
(I3
tp675
g619
I00
S'H\xe1z\x14\xaeG\xe9?\xe1z\x14\xaeG\xe1\xea?\x85\xebQ\xb8\x1e\x85\xeb?'
p676
tp677
bag611
(g602
(I0
tp678
g613
tp679
Rp680
(I1
(I3
tp681
g619
I00
S'\x8f\xc2\xf5(\\\x8f\xea?=\n\xd7\xa3p=\xea?\x8f\xc2\xf5(\\\x8f\xea?'
p682
tp683
bag611
(g602
(I0
tp684
g613
tp685
Rp686
(I1
(I3
tp687
g619
I00
S'\xecQ\xb8\x1e\x85\xeb\xe9?=\n\xd7\xa3p=\xea?\x9a\x99\x99\x99\x99\x99\xe9?'
p688
tp689
bag611
(g602
(I0
tp690
g613
tp691
Rp692
(I1
(I3
tp693
g619
I00
S'\xe1z\x14\xaeG\xe1\xea?\x9a\x99\x99\x99\x99\x99\xe9?\xecQ\xb8\x1e\x85\xeb\xe9?'
p694
tp695
bag611
(g602
(I0
tp696
g613
tp697
Rp698
(I1
(I3
tp699
g619
I00
S'\xa4p=\n\xd7\xa3\xe8?\xd7\xa3p=\n\xd7\xeb?\xecQ\xb8\x1e\x85\xeb\xe9?'
p700
tp701
bag611
(g602
(I0
tp702
g613
tp703
Rp704
(I1
(I3
tp705
g619
I00
S'\xf6(\\\x8f\xc2\xf5\xe8?\xa4p=\n\xd7\xa3\xe8?H\xe1z\x14\xaeG\xe9?'
p706
tp707
bag611
(g602
(I0
tp708
g613
tp709
Rp710
(I1
(I3
tp711
g619
I00
S'333333\xeb?333333\xeb?\xe1z\x14\xaeG\xe1\xea?'
p712
tp713
bag611
(g602
(I0
tp714
g613
tp715
Rp716
(I1
(I3
tp717
g619
I00
S'\xd7\xa3p=\n\xd7\xeb?\xcd\xcc\xcc\xcc\xcc\xcc\xec?\x85\xebQ\xb8\x1e\x85\xeb?'
p718
tp719
bag611
(g602
(I0
tp720
g613
tp721
Rp722
(I1
(I3
tp723
g619
I00
S'=\n\xd7\xa3p=\xea?=\n\xd7\xa3p=\xea?H\xe1z\x14\xaeG\xe9?'
p724
tp725
bag611
(g602
(I0
tp726
g613
tp727
Rp728
(I1
(I3
tp729
g619
I00
S'333333\xeb?333333\xeb?\xe1z\x14\xaeG\xe1\xea?'
p730
tp731
bag611
(g602
(I0
tp732
g613
tp733
Rp734
(I1
(I3
tp735
g619
I00
S'\xd7\xa3p=\n\xd7\xeb?\xcd\xcc\xcc\xcc\xcc\xcc\xec?\x85\xebQ\xb8\x1e\x85\xeb?'
p736
tp737
bag611
(g602
(I0
tp738
g613
tp739
Rp740
(I1
(I3
tp741
g619
I00
S'=\n\xd7\xa3p=\xea?=\n\xd7\xa3p=\xea?H\xe1z\x14\xaeG\xe9?'
p742
tp743
baNaNaNaNaNaNaNaNaNaNaNaNaNaNaNaNaNaNaNaNaNaNaNaNaNaNaNaNaNaNaNaNaNaNaNaNaNaNaNaNaNaNaNasg586
g0
(g587
g2
Ntp744
Rp745
(dp746
g591
NsS'_column'
p747
g608
sg595
I00
sg596
I00
sg597
Nsbsg599
g0
(g600
g601
(g602
g603
tp748
tp749
Rp750
sg593
VGroupedEff
p751
sbag0
(g400
g2
Ntp752
Rp753
(dp754
g404
I00
sg405
g4
sg406
(lp755
g611
(g602
(I0
tp756
g613
tp757
Rp758
(I1
(I4
tp759
g619
I00
S'\x00\x00\x00\x00\x00\x007@\\\x8f\xc2\xf5(\xdc6@\xcd\xcc\xcc\xcc\xcc\xcc6@\x00\x00\x00\x00\x00\x007@'
p760
tp761
bag611
(g602
(I0
tp762
g613
tp763
Rp764
(I1
(I3
tp765
g619
I00
S'=\n\xd7\xa3p=2@\xb8\x1e\x85\xebQ82@\\\x8f\xc2\xf5(\\2@'
p766
tp767
bag611
(g602
(I0
tp768
g613
tp769
Rp770
(I1
(I3
tp771
g619
I00
S'\xb8\x1e\x85\xebQ\xb83@\x00\x00\x00\x00\x00\xc03@\xc3\xf5(\\\x8f\x024@'
p772
tp773
bag611
(g602
(I0
tp774
g613
tp775
Rp776
(I1
(I3
tp777
g619
I00
S'\xaeG\xe1z\x14\xae:@\xe1z\x14\xaeG!;@\xf6(\\\x8f\xc25;@'
p778
tp779
bag611
(g602
(I0
tp780
g613
tp781
Rp782
(I1
(I3
tp783
g619
I00
S'\xc3\xf5(\\\x8f\xc2:@\xf6(\\\x8f\xc2\xb5:@q=\n\xd7\xa30:@'
p784
tp785
bag611
(g602
(I0
tp786
g613
tp787
Rp788
(I1
(I3
tp789
g619
I00
S'{\x14\xaeG\xe1\xfa=@\x1f\x85\xebQ\xb8\x1e>@)\\\x8f\xc2\xf5h=@'
p790
tp791
bag611
(g602
(I0
tp792
g613
tp793
Rp794
(I1
(I3
tp795
g619
I00
S'\xecQ\xb8\x1e\x85\xeb3@\x9a\x99\x99\x99\x99\xd93@\x00\x00\x00\x00\x00\x004@'
p796
tp797
bag611
(g602
(I0
tp798
g613
tp799
Rp800
(I1
(I3
tp801
g619
I00
S'\\\x8f\xc2\xf5(\xdc5@\xd7\xa3p=\n\x176@\xd7\xa3p=\n\xd75@'
p802
tp803
bag611
(g602
(I0
tp804
g613
tp805
Rp806
(I1
(I3
tp807
g619
I00
S'\xa4p=\n\xd7\xe37@\n\xd7\xa3p=\x8a7@\x85\xebQ\xb8\x1eE8@'
p808
tp809
bag611
(g602
(I0
tp810
g613
tp811
Rp812
(I1
(I3
tp813
g619
I00
S'\xaeG\xe1z\x14.6@\xf6(\\\x8f\xc2\xb55@\x00\x00\x00\x00\x00\xc05@'
p814
tp815
bag611
(g602
(I0
tp816
g613
tp817
Rp818
(I1
(I3
tp819
g619
I00
S'\xe1z\x14\xaeG\xe17@\xecQ\xb8\x1e\x85k7@\xe1z\x14\xaeG\xa17@'
p820
tp821
bag611
(g602
(I0
tp822
g613
tp823
Rp824
(I1
(I3
tp825
g619
I00
S'\xd7\xa3p=\n\x978@\\\x8f\xc2\xf5(\x9c8@\xd7\xa3p=\nW8@'
p826
tp827
bag611
(g602
(I0
tp828
g613
tp829
Rp830
(I1
(I3
tp831
g619
I00
S'33333\xf3=@33333s>@\xe1z\x14\xaeG\xe1=@'
p832
tp833
bag611
(g602
(I0
tp834
g613
tp835
Rp836
(I1
(I3
tp837
g619
I00
S'\xb8\x1e\x85\xebQ87@\xcd\xcc\xcc\xcc\xcc\xcc7@=\n\xd7\xa3p}7@'
p838
tp839
bag611
(g602
(I0
tp840
g613
tp841
Rp842
(I1
(I3
tp843
g619
I00
S'\x1f\x85\xebQ\xb8^:@\\\x8f\xc2\xf5(\\:@\xecQ\xb8\x1e\x85+:@'
p844
tp845
bag611
(g602
(I0
tp846
g613
tp847
Rp848
(I1
(I3
tp849
g619
I00
S'\xcd\xcc\xcc\xcc\xcc\xcc8@\xb8\x1e\x85\xebQ\xf88@\xe1z\x14\xaeG\xa18@'
p850
tp851
bag611
(g602
(I0
tp852
g613
tp853
Rp854
(I1
(I3
tp855
g619
I00
S')\\\x8f\xc2\xf5\xe82@H\xe1z\x14\xae\xc72@\xcd\xcc\xcc\xcc\xcc\xcc2@'
p856
tp857
bag611
(g602
(I0
tp858
g613
tp859
Rp860
(I1
(I3
tp861
g619
I00
S'\x00\x00\x00\x00\x00\x804@\xb8\x1e\x85\xebQx4@H\xe1z\x14\xaeG4@'
p862
tp863
bag611
(g602
(I0
tp864
g613
tp865
Rp866
(I1
(I3
tp867
g619
I00
S'\xcd\xcc\xcc\xcc\xcc\xcc8@\xb8\x1e\x85\xebQ\xf88@\xe1z\x14\xaeG\xa18@'
p868
tp869
bag611
(g602
(I0
tp870
g613
tp871
Rp872
(I1
(I3
tp873
g619
I00
S')\\\x8f\xc2\xf5\xe82@H\xe1z\x14\xae\xc72@\xcd\xcc\xcc\xcc\xcc\xcc2@'
p874
tp875
bag611
(g602
(I0
tp876
g613
tp877
Rp878
(I1
(I3
tp879
g619
I00
S'\x00\x00\x00\x00\x00\x804@\xb8\x1e\x85\xebQx4@H\xe1z\x14\xaeG4@'
p880
tp881
baNaNaNaNaNaNaNaNaNaNaNaNaNaNaNaNaNaNaNaNaNaNaNaNaNaNaNaNaNaNaNaNaNaNaNaNaNaNaNaNaNaNaNasg586
g0
(g587
g2
Ntp882
Rp883
(dp884
g591
Nsg747
g753
sg595
I00
sg596
I00
sg597
Nsbsg599
g0
(g600
g601
(g602
g603
tp885
tp886
Rp887
sg593
VGroupedCt
p888
sbag0
(g400
g2
Ntp889
Rp890
(dp891
g404
I00
sg405
g4
sg406
(lp892
g611
(g602
(I0
tp893
g613
tp894
Rp895
(I1
(I4
tp896
g619
I00
S'\x00\x00\x00\x00\x00\x007@fffff\xe66@\xcd\xcc\xcc\xcc\xcc\xcc6@\x00\x00\x00\x00\x00\x007@'
p897
tp898
bag611
(g602
(I0
tp899
g613
tp900
Rp901
(I1
(I3
tp902
g619
I00
S'3333332@3333332@ffffff2@'
p903
tp904
bag611
(g602
(I0
tp905
g613
tp906
Rp907
(I1
(I3
tp908
g619
I00
S'33333\xb33@\xcd\xcc\xcc\xcc\xcc\xcc3@\x00\x00\x00\x00\x00\x004@'
p909
tp910
bag611
(g602
(I0
tp911
g613
tp912
Rp913
(I1
(I3
tp914
g619
I00
S'33333\xb3:@\x9a\x99\x99\x99\x99\x19;@333333;@'
p915
tp916
bag611
(g602
(I0
tp917
g613
tp918
Rp919
(I1
(I3
tp920
g619
I00
S'\xcd\xcc\xcc\xcc\xcc\xcc:@33333\xb3:@333333:@'
p921
tp922
bag611
(g602
(I0
tp923
g613
tp924
Rp925
(I1
(I3
tp926
g619
I00
S'\x00\x00\x00\x00\x00\x00>@\x9a\x99\x99\x99\x99\x19>@ffffff=@'
p927
tp928
bag611
(g602
(I0
tp929
g613
tp930
Rp931
(I1
(I3
tp932
g619
I00
S'fffff\xe63@fffff\xe63@\x00\x00\x00\x00\x00\x004@'
p933
tp934
bag611
(g602
(I0
tp935
g613
tp936
Rp937
(I1
(I3
tp938
g619
I00
S'fffff\xe65@\x9a\x99\x99\x99\x99\x196@\xcd\xcc\xcc\xcc\xcc\xcc5@'
p939
tp940
bag611
(g602
(I0
tp941
g613
tp942
Rp943
(I1
(I3
tp944
g619
I00
S'fffff\xe67@\x00\x00\x00\x00\x00\x807@\xcd\xcc\xcc\xcc\xccL8@'
p945
tp946
bag611
(g602
(I0
tp947
g613
tp948
Rp949
(I1
(I3
tp950
g619
I00
S'3333336@33333\xb35@\xcd\xcc\xcc\xcc\xcc\xcc5@'
p951
tp952
bag611
(g602
(I0
tp953
g613
tp954
Rp955
(I1
(I3
tp956
g619
I00
S'fffff\xe67@ffffff7@\x9a\x99\x99\x99\x99\x997@'
p957
tp958
bag611
(g602
(I0
tp959
g613
tp960
Rp961
(I1
(I3
tp962
g619
I00
S'\x9a\x99\x99\x99\x99\x998@\x9a\x99\x99\x99\x99\x998@\xcd\xcc\xcc\xcc\xccL8@'
p963
tp964
bag611
(g602
(I0
tp965
g613
tp966
Rp967
(I1
(I3
tp968
g619
I00
S'fffff\xe6=@ffffff>@fffff\xe6=@'
p969
tp970
bag611
(g602
(I0
tp971
g613
tp972
Rp973
(I1
(I3
tp974
g619
I00
S'3333337@\xcd\xcc\xcc\xcc\xcc\xcc7@\x00\x00\x00\x00\x00\x807@'
p975
tp976
bag611
(g602
(I0
tp977
g613
tp978
Rp979
(I1
(I3
tp980
g619
I00
S'ffffff:@ffffff:@333333:@'
p981
tp982
bag611
(g602
(I0
tp983
g613
tp984
Rp985
(I1
(I3
tp986
g619
I00
S'\xcd\xcc\xcc\xcc\xcc\xcc8@\x00\x00\x00\x00\x00\x009@\x9a\x99\x99\x99\x99\x998@'
p987
tp988
bag611
(g602
(I0
tp989
g613
tp990
Rp991
(I1
(I3
tp992
g619
I00
S'fffff\xe62@\xcd\xcc\xcc\xcc\xcc\xcc2@\xcd\xcc\xcc\xcc\xcc\xcc2@'
p993
tp994
bag611
(g602
(I0
tp995
g613
tp996
Rp997
(I1
(I3
tp998
g619
I00
S'\x00\x00\x00\x00\x00\x804@\x00\x00\x00\x00\x00\x804@\xcd\xcc\xcc\xcc\xccL4@'
p999
tp1000
bag611
(g602
(I0
tp1001
g613
tp1002
Rp1003
(I1
(I3
tp1004
g619
I00
S'\xcd\xcc\xcc\xcc\xcc\xcc8@\x00\x00\x00\x00\x00\x009@\x9a\x99\x99\x99\x99\x998@'
p1005
tp1006
bag611
(g602
(I0
tp1007
g613
tp1008
Rp1009
(I1
(I3
tp1010
g619
I00
S'fffff\xe62@\xcd\xcc\xcc\xcc\xcc\xcc2@\xcd\xcc\xcc\xcc\xcc\xcc2@'
p1011
tp1012
bag611
(g602
(I0
tp1013
g613
tp1014
Rp1015
(I1
(I3
tp1016
g619
I00
S'\x00\x00\x00\x00\x00\x804@\x00\x00\x00\x00\x00\x804@\xcd\xcc\xcc\xcc\xccL4@'
p1017
tp1018
baNaNaNaNaNaNaNaNaNaNaNaNaNaNaNaNaNaNaNaNaNaNaNaNaNaNaNaNaNaNaNaNaNaNaNaNaNaNaNaNaNaNaNasg586
g0
(g587
g2
Ntp1019
Rp1020
(dp1021
g591
Vlength = len(Groups)\u000aStdFilteredGroupedCt = roundValues([filterExtremes(g, max_std, 2) for g in pruneNulls(GroupedCt)])\u000a 
p1022
sg593
VStdFilteredGroupedCt
p1023
sg595
I00
sg596
I00
sg597
Vlength = len(Groups)\u000aStdFilteredGroupedCt = roundValues([filterExtremes(g, max_std, 2) for g in pruneNulls(GroupedCt)])\u000a 
p1024
sbsg599
g0
(g600
g601
(g602
g603
tp1025
tp1026
Rp1027
sg593
g1023
sbag0
(g400
g2
Ntp1028
Rp1029
(dp1030
g404
I00
sg405
g4
sg406
(lp1031
F22.9
aF18.3
aF19.8
aF27.0
aF26.6
aF29.8
aF19.9
aF21.9
aF23.9
aF21.9
aF23.6
aF24.5
aF30.1
aF23.5
aF26.3
aF24.8
aF18.8
aF20.4
aF24.8
aF18.8
aF20.4
aFnan
aFnan
aFnan
aFnan
aFnan
aFnan
aFnan
aFnan
aFnan
aFnan
aFnan
aFnan
aFnan
aFnan
aFnan
aFnan
aFnan
aFnan
aFnan
aFnan
aFnan
aFnan
aFnan
aFnan
aFnan
aFnan
aFnan
aFnan
aFnan
aFnan
aFnan
aFnan
aFnan
aFnan
aFnan
aFnan
aFnan
aFnan
aFnan
aFnan
aFnan
aFnan
aFnan
asg586
g0
(g587
g2
Ntp1032
Rp1033
(dp1034
g591
VMeanCt = [np.mean(g) for g in StdFilteredGroupedCt]\u000aMeanCt = roundValues(MeanCt,1)\u000aStdCt = [np.std(g, ddof=1) for g in StdFilteredGroupedCt]\u000aStdCt = roundValues(StdCt,3)
p1035
sg593
VMeanCt
p1036
sg595
I00
sg596
I00
sg597
VMeanCt = [np.mean(g) for g in StdFilteredGroupedCt]\u000aMeanCt = roundValues(MeanCt,1)\u000aStdCt = [np.std(g, ddof=1) for g in StdFilteredGroupedCt]\u000aStdCt = roundValues(StdCt,3)
p1037
sbsg599
g0
(g600
g601
(g602
g603
tp1038
tp1039
Rp1040
sg593
g1036
sbag0
(g400
g2
Ntp1041
Rp1042
(dp1043
g404
I00
sg405
g4
sg406
(lp1044
F0.096
aF0.115
aF0.153
aF0.265
aF0.321
aF0.379
aF0.058
aF0.153
aF0.4
aF0.265
aF0.252
aF0.173
aF0.289
aF0.3
aF0.115
aF0.2
aF0.058
aF0.115
aF0.2
aF0.058
aF0.115
aFnan
aFnan
aFnan
aFnan
aFnan
aFnan
aFnan
aFnan
aFnan
aFnan
aFnan
aFnan
aFnan
aFnan
aFnan
aFnan
aFnan
aFnan
aFnan
aFnan
aFnan
aFnan
aFnan
aFnan
aFnan
aFnan
aFnan
aFnan
aFnan
aFnan
aFnan
aFnan
aFnan
aFnan
aFnan
aFnan
aFnan
aFnan
aFnan
aFnan
aFnan
aFnan
aFnan
asg586
g0
(g587
g2
Ntp1045
Rp1046
(dp1047
g591
Nsg747
g1042
sg595
I00
sg596
I00
sg597
Nsbsg599
g0
(g600
g601
(g602
g603
tp1048
tp1049
Rp1050
sg593
VStdCt
p1051
sbag0
(g400
g2
Ntp1052
Rp1053
(dp1054
g404
I00
sg405
g4
sg406
(lp1055
(lp1056
g409
(g410
(S'U1'
p1057
I0
I1
tp1058
Rp1059
(I3
S'<'
p1060
NNNI4
I4
I8
tp1061
bS'0\x00\x00\x00'
p1062
tp1063
Rp1064
ag409
(g410
(S'U1'
p1065
I0
I1
tp1066
Rp1067
(I3
S'<'
p1068
NNNI4
I4
I8
tp1069
bS'1\x00\x00\x00'
p1070
tp1071
Rp1072
aa(lp1073
g409
(g410
(S'U1'
p1074
I0
I1
tp1075
Rp1076
(I3
S'<'
p1077
NNNI4
I4
I8
tp1078
bS'1\x00\x00\x00'
p1079
tp1080
Rp1081
ag409
(g410
(S'U1'
p1082
I0
I1
tp1083
Rp1084
(I3
S'<'
p1085
NNNI4
I4
I8
tp1086
bS'1\x00\x00\x00'
p1087
tp1088
Rp1089
aa(lp1090
g409
(g410
(S'U1'
p1091
I0
I1
tp1092
Rp1093
(I3
S'<'
p1094
NNNI4
I4
I8
tp1095
bS'1\x00\x00\x00'
p1096
tp1097
Rp1098
ag409
(g410
(S'U1'
p1099
I0
I1
tp1100
Rp1101
(I3
S'<'
p1102
NNNI4
I4
I8
tp1103
bS'2\x00\x00\x00'
p1104
tp1105
Rp1106
aa(lp1107
g409
(g410
(S'U1'
p1108
I0
I1
tp1109
Rp1110
(I3
S'<'
p1111
NNNI4
I4
I8
tp1112
bS'1\x00\x00\x00'
p1113
tp1114
Rp1115
ag409
(g410
(S'U1'
p1116
I0
I1
tp1117
Rp1118
(I3
S'<'
p1119
NNNI4
I4
I8
tp1120
bS'3\x00\x00\x00'
p1121
tp1122
Rp1123
aa(lp1124
g409
(g410
(S'U1'
p1125
I0
I1
tp1126
Rp1127
(I3
S'<'
p1128
NNNI4
I4
I8
tp1129
bS'2\x00\x00\x00'
p1130
tp1131
Rp1132
ag409
(g410
(S'U1'
p1133
I0
I1
tp1134
Rp1135
(I3
S'<'
p1136
NNNI4
I4
I8
tp1137
bS'1\x00\x00\x00'
p1138
tp1139
Rp1140
aa(lp1141
g409
(g410
(S'U1'
p1142
I0
I1
tp1143
Rp1144
(I3
S'<'
p1145
NNNI4
I4
I8
tp1146
bS'3\x00\x00\x00'
p1147
tp1148
Rp1149
ag409
(g410
(S'U1'
p1150
I0
I1
tp1151
Rp1152
(I3
S'<'
p1153
NNNI4
I4
I8
tp1154
bS'1\x00\x00\x00'
p1155
tp1156
Rp1157
aa(lp1158
g409
(g410
(S'U1'
p1159
I0
I1
tp1160
Rp1161
(I3
S'<'
p1162
NNNI4
I4
I8
tp1163
bS'4\x00\x00\x00'
p1164
tp1165
Rp1166
ag409
(g410
(S'U1'
p1167
I0
I1
tp1168
Rp1169
(I3
S'<'
p1170
NNNI4
I4
I8
tp1171
bS'1\x00\x00\x00'
p1172
tp1173
Rp1174
aaNaNaNaNaNaNaNaNaNaNaNaNaNaNaNaNaNaNaNaNaNaNaNaNaNaNaNaNaNaNaNaNaNaNaNaNaNaNaNaNaNaNaNaNaNaNaNaNaNaNaNaNaNaNaNaNaNasg586
g0
(g587
g2
Ntp1175
Rp1176
(dp1177
g591
Vdummy = tabularize(s, 'Groups', 1, 'MeanCt', \u000a          new_category_colnm='BioRuns',\u000a          values_colnm_prefix='Gene_')
p1178
sg593
VBioRuns
p1179
sg595
I00
sg596
I00
sg597
Vdummy = tabularize(s, 'Groups', 1, 'MeanCt', \u000a          new_category_colnm='BioRuns',\u000a          values_colnm_prefix='Gene_')
p1180
sbsg599
g0
(g600
g601
(g602
g603
tp1181
tp1182
Rp1183
sg593
g1179
sbag0
(g400
g2
Ntp1184
Rp1185
(dp1186
g404
I00
sg405
g4
sg406
(lp1187
F22.9
aF27.0
aF26.6
aF29.8
aF30.1
aF24.8
aF24.8
aFnan
aFnan
aFnan
aFnan
aFnan
aFnan
aFnan
aFnan
aFnan
aFnan
aFnan
aFnan
aFnan
aFnan
aFnan
aFnan
aFnan
aFnan
aFnan
aFnan
aFnan
aFnan
aFnan
aFnan
aFnan
aFnan
aFnan
aFnan
aFnan
aFnan
aFnan
aFnan
aFnan
aFnan
aFnan
aFnan
aFnan
aFnan
aFnan
aFnan
aFnan
aFnan
aFnan
aFnan
aFnan
aFnan
aFnan
aFnan
aFnan
aFnan
aFnan
aFnan
aFnan
aFnan
aFnan
aFnan
aFnan
asg586
g0
(g587
g2
Ntp1188
Rp1189
(dp1190
g591
Nsg747
g1185
sg595
I00
sg596
I00
sg597
Nsbsg599
g0
(g600
g601
(g602
g603
tp1191
tp1192
Rp1193
sg593
S'Gene_I'
p1194
sbag0
(g400
g2
Ntp1195
Rp1196
(dp1197
g404
I00
sg405
g4
sg406
(lp1198
F18.3
aF19.9
aF21.9
aF23.9
aF23.5
aF18.8
aF18.8
aFnan
aFnan
aFnan
aFnan
aFnan
aFnan
aFnan
aFnan
aFnan
aFnan
aFnan
aFnan
aFnan
aFnan
aFnan
aFnan
aFnan
aFnan
aFnan
aFnan
aFnan
aFnan
aFnan
aFnan
aFnan
aFnan
aFnan
aFnan
aFnan
aFnan
aFnan
aFnan
aFnan
aFnan
aFnan
aFnan
aFnan
aFnan
aFnan
aFnan
aFnan
aFnan
aFnan
aFnan
aFnan
aFnan
aFnan
aFnan
aFnan
aFnan
aFnan
aFnan
aFnan
aFnan
aFnan
aFnan
aFnan
asg586
g0
(g587
g2
Ntp1199
Rp1200
(dp1201
g591
Nsg747
g1196
sg595
I00
sg596
I00
sg597
Nsbsg599
g1193
sg593
S'Gene_R1'
p1202
sbag0
(g400
g2
Ntp1203
Rp1204
(dp1205
g404
I00
sg405
g4
sg406
(lp1206
F19.8
aF21.9
aF23.6
aF24.5
aF26.3
aF20.4
aF20.4
aFnan
aFnan
aFnan
aFnan
aFnan
aFnan
aFnan
aFnan
aFnan
aFnan
aFnan
aFnan
aFnan
aFnan
aFnan
aFnan
aFnan
aFnan
aFnan
aFnan
aFnan
aFnan
aFnan
aFnan
aFnan
aFnan
aFnan
aFnan
aFnan
aFnan
aFnan
aFnan
aFnan
aFnan
aFnan
aFnan
aFnan
aFnan
aFnan
aFnan
aFnan
aFnan
aFnan
aFnan
aFnan
aFnan
aFnan
aFnan
aFnan
aFnan
aFnan
aFnan
aFnan
aFnan
aFnan
aFnan
aFnan
asg586
g0
(g587
g2
Ntp1207
Rp1208
(dp1209
g591
Nsg747
g1204
sg595
I00
sg596
I00
sg597
Nsbsg599
g1193
sg593
S'Gene_R2'
p1210
sbag0
(g400
g2
Ntp1211
Rp1212
(dp1213
g404
I00
sg405
g4
sg406
(lp1214
F0.04123
aF0.00729
aF0.03847
aF0.01675
aF0.01031
aF0.01563
aF0.01563
aFnan
aFnan
aFnan
aFnan
aFnan
aFnan
aFnan
aFnan
aFnan
aFnan
aFnan
aFnan
aFnan
aFnan
aFnan
aFnan
aFnan
aFnan
aFnan
aFnan
aFnan
aFnan
aFnan
aFnan
aFnan
aFnan
aFnan
aFnan
aFnan
aFnan
aFnan
aFnan
aFnan
aFnan
aFnan
aFnan
aFnan
aFnan
aFnan
aFnan
aFnan
aFnan
aFnan
aFnan
aFnan
aFnan
aFnan
aFnan
aFnan
aFnan
aFnan
aFnan
aFnan
aFnan
aFnan
aFnan
aFnan
asg586
g0
(g587
g2
Ntp1215
Rp1216
(dp1217
g591
VExprR1 = roundValues(2**(Gene_R1 - Gene_I),5)
p1218
sg593
VExprR1
p1219
sg595
I01
sg596
I00
sg597
VroundValues(2**(Gene_R1 - Gene_I),5)
p1220
sbsg599
g0
(g600
g601
(g602
g603
tp1221
tp1222
Rp1223
sg593
g1219
sbag0
(g400
g2
Ntp1224
Rp1225
(dp1226
g404
I00
sg405
g4
sg406
(lp1227
F0.11663
aF0.02916
aF0.125
aF0.02538
aF0.07179
aF0.04737
aF0.04737
aFnan
aFnan
aFnan
aFnan
aFnan
aFnan
aFnan
aFnan
aFnan
aFnan
aFnan
aFnan
aFnan
aFnan
aFnan
aFnan
aFnan
aFnan
aFnan
aFnan
aFnan
aFnan
aFnan
aFnan
aFnan
aFnan
aFnan
aFnan
aFnan
aFnan
aFnan
aFnan
aFnan
aFnan
aFnan
aFnan
aFnan
aFnan
aFnan
aFnan
aFnan
aFnan
aFnan
aFnan
aFnan
aFnan
aFnan
aFnan
aFnan
aFnan
aFnan
aFnan
aFnan
aFnan
aFnan
aFnan
aFnan
asg586
g0
(g587
g2
Ntp1228
Rp1229
(dp1230
g591
VExprR2 = roundValues(2**(Gene_R2 - Gene_I),5)
p1231
sg593
VExprR2
p1232
sg595
I01
sg596
I00
sg597
VroundValues(2**(Gene_R2 - Gene_I),5)
p1233
sbsg599
g0
(g600
g601
(g602
g603
tp1234
tp1235
Rp1236
sg593
g1232
sbag0
(g400
g2
Ntp1237
Rp1238
(dp1239
g404
I00
sg405
g4
sg406
(lp1240
F0.069
aF0.015
aF0.069
aF0.021
aF0.027
aF0.027
aF0.027
aFnan
aFnan
aFnan
aFnan
aFnan
aFnan
aFnan
aFnan
aFnan
aFnan
aFnan
aFnan
aFnan
aFnan
aFnan
aFnan
aFnan
aFnan
aFnan
aFnan
aFnan
aFnan
aFnan
aFnan
aFnan
aFnan
aFnan
aFnan
aFnan
aFnan
aFnan
aFnan
aFnan
aFnan
aFnan
aFnan
aFnan
aFnan
aFnan
aFnan
aFnan
aFnan
aFnan
aFnan
aFnan
aFnan
aFnan
aFnan
aFnan
aFnan
aFnan
aFnan
aFnan
aFnan
aFnan
aFnan
aFnan
asg586
g0
(g587
g2
Ntp1241
Rp1242
(dp1243
g591
VGeoMean = roundValues(np.sqrt(ExprR1*ExprR2), 3)
p1244
sg593
VGeoMean
p1245
sg595
I01
sg596
I00
sg597
VroundValues(np.sqrt(ExprR1*ExprR2), 3)
p1246
sbsg599
g0
(g600
g601
(g602
g603
tp1247
tp1248
Rp1249
sg593
g1245
sbasS'_is_evaluate_formulas'
p1250
I01
sS'_prologue'
p1251
g0
(g587
g2
Ntp1252
Rp1253
(dp1254
g591
V# Prologue\u000aimport math as mt\u000aimport numpy as np\u000afrom os import listdir\u000afrom os.path import isfile, join\u000aimport pandas as pd\u000aimport scipy as sp\u000afrom numpy import nan  # Must follow sympy import \u000a\u000axlsx_path =   '/mnt/hgfs/josephhellerstein/home/Technical/SciSheets/CaseStudies/Kristen/workbooks/data.xlsx'\u000agene = ParmValues[0]\u000arun = ParmValues[1] == 'True'\u000ashow_raw = ParmValues[2] == 'True'\u000ashow_block1 = ParmValues[3] == 'True'\u000ashow_block2 = ParmValues[4] == 'True'\u000ashow_block3 = ParmValues[5] == 'True'\u000ashow_params = ParmValues[8] == 'True'\u000a#show_params = True\u000amax_std  = float(ParmValues[6])\u000amin_eff = float(ParmValues[7])\u000aworksheet = gene + "-I"\u000as.getTable().setIsEvaluateFormulas(run)\u000as.setColumnVisibility()\u000as.setColumnVisibility(['Groups', 'GroupedEff', 'GroupedCt', 'StdFilteredGroupedCt', 'MeanCt',\u000a    'StdCt'], is_visible=show_block1)\u000as.setColumnVisibility(['BioRuns', 'Gene_I', 'Gene_R1', 'Gene_R2', 'ExprR1', 'ExprR2', \u000a    'GeoMean'], is_visible=show_block2)\u000as.setColumnVisibility(['GeoGroups', 'GroupedGeoMeans', 'NrmlGeoGroupedMeans', \u000a    'MeanNrmlGeoGroups', 'StdNrmlGeoGroups'], is_visible=show_block3)\u000aif run:\u000a  Groups = []\u000a  GroupedCt = []\u000a  GroupedEff = []\u000a  MeanCt = []\u000a  Imp = []\u000a  s.deleteColumn('Ct')\u000a  s.deleteColumn('RunType')\u000a  s.deleteColumn('BRpl')\u000a  s.deleteColumn('TRpl')\u000a  s.deleteColumn('Treatment')\u000a  s.deleteColumn('Eff')\u000aif run:\u000a  importExcelToTable(s, xlsx_path, worksheet=worksheet,\u000a      column_position='ParmValues',\u000a      names=['Treatment', 'RunType', 'BRpl', 'TRpl', 'Eff', 'Ct'])\u000a#s.setColumnVisibility(['BRpl', 'Ct', 'Eff', 'RunType', 'TRpl', 'Treatment'], is_visible=show_raw)\u000a#s.setColumnVisibility(['ParmNames', 'ParmValues'], show_params)
p1255
sg593
VSingleGene
p1256
sg595
I00
sg596
I00
sg597
V# Prologue\u000aimport math as mt\u000aimport numpy as np\u000afrom os import listdir\u000afrom os.path import isfile, join\u000aimport pandas as pd\u000aimport scipy as sp\u000afrom numpy import nan  # Must follow sympy import \u000a\u000axlsx_path =   '/mnt/hgfs/josephhellerstein/home/Technical/SciSheets/CaseStudies/Kristen/workbooks/data.xlsx'\u000agene = ParmValues[0]\u000arun = ParmValues[1] == 'True'\u000ashow_raw = ParmValues[2] == 'True'\u000ashow_block1 = ParmValues[3] == 'True'\u000ashow_block2 = ParmValues[4] == 'True'\u000ashow_block3 = ParmValues[5] == 'True'\u000ashow_params = ParmValues[8] == 'True'\u000a#show_params = True\u000amax_std  = float(ParmValues[6])\u000amin_eff = float(ParmValues[7])\u000aworksheet = gene + "-I"\u000as.getTable().setIsEvaluateFormulas(run)\u000as.setColumnVisibility()\u000as.setColumnVisibility(['Groups', 'GroupedEff', 'GroupedCt', 'StdFilteredGroupedCt', 'MeanCt',\u000a    'StdCt'], is_visible=show_block1)\u000as.setColumnVisibility(['BioRuns', 'Gene_I', 'Gene_R1', 'Gene_R2', 'ExprR1', 'ExprR2', \u000a    'GeoMean'], is_visible=show_block2)\u000as.setColumnVisibility(['GeoGroups', 'GroupedGeoMeans', 'NrmlGeoGroupedMeans', \u000a    'MeanNrmlGeoGroups', 'StdNrmlGeoGroups'], is_visible=show_block3)\u000aif run:\u000a  Groups = []\u000a  GroupedCt = []\u000a  GroupedEff = []\u000a  MeanCt = []\u000a  Imp = []\u000a  s.deleteColumn('Ct')\u000a  s.deleteColumn('RunType')\u000a  s.deleteColumn('BRpl')\u000a  s.deleteColumn('TRpl')\u000a  s.deleteColumn('Treatment')\u000a  s.deleteColumn('Eff')\u000aif run:\u000a  importExcelToTable(s, xlsx_path, worksheet=worksheet,\u000a      column_position='ParmValues',\u000a      names=['Treatment', 'RunType', 'BRpl', 'TRpl', 'Eff', 'Ct'])\u000a#s.setColumnVisibility(['BRpl', 'Ct', 'Eff', 'RunType', 'TRpl', 'Treatment'], is_visible=show_raw)\u000a#s.setColumnVisibility(['ParmNames', 'ParmValues'], show_params)
p1257
sbsS'_epilogue'
p1258
g0
(g587
g2
Ntp1259
Rp1260
(dp1261
g591
V# Epilogue\u000aif run:\u000a  worksheet = "%s-O" % gene\u000a  exportTableToExcel(s, xlsx_path, worksheet=worksheet, columns=['GeoGroups',  \u000a      'MeanNrmlGeoGroups', 'StdNrmlGeoGroups'])\u000a
p1262
sg593
g1256
sg595
I00
sg596
I00
sg597
V# Epilogue\u000aif run:\u000a  worksheet = "%s-O" % gene\u000a  exportTableToExcel(s, xlsx_path, worksheet=worksheet, columns=['GeoGroups',  \u000a      'MeanNrmlGeoGroups', 'StdNrmlGeoGroups'])\u000a
p1263
sbsg593
g1256
sS'_columns'
p1264
(lp1265
g0
(g400
g2
Ntp1266
Rp1267
(dp1268
g404
I01
sg405
g4
sg406
(lp1269
S'1'
p1270
aS'2'
p1271
aS'3'
p1272
aS'4'
p1273
aS'5'
p1274
aS'6'
p1275
aS'7'
p1276
aS'8'
p1277
aS'9'
p1278
aS'10'
p1279
aS'11'
p1280
aS'12'
p1281
aS'13'
p1282
aS'14'
p1283
aS'15'
p1284
aS'16'
p1285
aS'17'
p1286
aS'18'
p1287
aS'19'
p1288
aS'20'
p1289
aS'21'
p1290
aS'22'
p1291
aS'23'
p1292
aS'24'
p1293
aS'25'
p1294
aS'26'
p1295
aS'27'
p1296
aS'28'
p1297
aS'29'
p1298
aS'30'
p1299
aS'31'
p1300
aS'32'
p1301
aS'33'
p1302
aS'34'
p1303
aS'35'
p1304
aS'36'
p1305
aS'37'
p1306
aS'38'
p1307
aS'39'
p1308
aS'40'
p1309
aS'41'
p1310
aS'42'
p1311
aS'43'
p1312
aS'44'
p1313
aS'45'
p1314
aS'46'
p1315
aS'47'
p1316
aS'48'
p1317
aS'49'
p1318
aS'50'
p1319
aS'51'
p1320
aS'52'
p1321
aS'53'
p1322
aS'54'
p1323
aS'55'
p1324
aS'56'
p1325
aS'57'
p1326
aS'58'
p1327
aS'59'
p1328
aS'60'
p1329
aS'61'
p1330
aS'62'
p1331
aS'63'
p1332
aS'64'
p1333
asg586
g0
(g587
g2
Ntp1334
Rp1335
(dp1336
g591
Nsg747
g1267
sg595
I00
sg596
I00
sg597
Nsbsg599
g0
(g600
g601
(g602
g603
tp1337
tp1338
Rp1339
sg593
S'row'
p1340
sbag0
(g400
g2
Ntp1341
Rp1342
(dp1343
g404
I00
sg405
g4
sg406
(lp1344
Vgene
p1345
aVrun
p1346
aVshow_raw
p1347
aVshow_block1
p1348
aVshow_block2
p1349
aVshow_block3
p1350
aVmax_std
p1351
aVmin_eff
p1352
aVshow_params
p1353
aVnan
p1354
aVnan
p1355
aVnan
p1356
aVnan
p1357
aVnan
p1358
aVnan
p1359
aVnan
p1360
aVnan
p1361
aVnan
p1362
aVnan
p1363
aVnan
p1364
aVnan
p1365
aVnan
p1366
aVnan
p1367
aVnan
p1368
aVnan
p1369
aVnan
p1370
aVnan
p1371
aVnan
p1372
aVnan
p1373
aVnan
p1374
aVnan
p1375
aVnan
p1376
aVnan
p1377
aVnan
p1378
aVnan
p1379
aVnan
p1380
aVnan
p1381
aVnan
p1382
aVnan
p1383
aVnan
p1384
aVnan
p1385
aVnan
p1386
aVnan
p1387
aVnan
p1388
aVnan
p1389
aVnan
p1390
aVnan
p1391
aVnan
p1392
aVnan
p1393
aVnan
p1394
aVnan
p1395
aVnan
p1396
aVnan
p1397
aVnan
p1398
aNaNaNaNaNaNaNaNaNaNasg586
g0
(g587
g2
Ntp1399
Rp1400
(dp1401
g591
Nsg747
g1342
sg595
I00
sg596
I00
sg597
Nsbsg599
g0
(g600
g601
(g602
g603
tp1402
tp1403
Rp1404
sg593
VParmNames
p1405
sbag0
(g400
g2
Ntp1406
Rp1407
(dp1408
g404
I00
sg405
g4
sg406
(lp1409
VGene1
p1410
aVTrue
p1411
aVFalse
p1412
aVFalse
p1413
aVFalse
p1414
aVTrue
p1415
aF0.5
aV0.7
p1416
aVTrue
p1417
aV
p1418
aVnan
p1419
aVnan
p1420
aVnan
p1421
aVnan
p1422
aVnan
p1423
aVnan
p1424
aVnan
p1425
aVnan
p1426
aVnan
p1427
aVnan
p1428
aVnan
p1429
aVnan
p1430
aVnan
p1431
aVnan
p1432
aVnan
p1433
aVnan
p1434
aVnan
p1435
aVnan
p1436
aVnan
p1437
aVnan
p1438
aVnan
p1439
aVnan
p1440
aVnan
p1441
aVnan
p1442
aVnan
p1443
aVnan
p1444
aVnan
p1445
aVnan
p1446
aVnan
p1447
aVnan
p1448
aVnan
p1449
aVnan
p1450
aVnan
p1451
aVnan
p1452
aVnan
p1453
aVnan
p1454
aVnan
p1455
aVnan
p1456
aVnan
p1457
aVnan
p1458
aVnan
p1459
aVnan
p1460
aVnan
p1461
aVnan
p1462
aNaNaNaNaNaNaNaNaNaNasg586
g0
(g587
g2
Ntp1463
Rp1464
(dp1465
g591
Nsg593
VParmValues
p1466
sg595
I00
sg596
I00
sg597
Nsbsg599
g0
(g600
g601
(g602
g603
tp1467
tp1468
Rp1469
sg593
g1466
sbag0
(g400
g2
Ntp1470
Rp1471
(dp1472
g404
I00
sg405
g4
sg406
(lp1473
I0
aI0
aI0
aI0
aI0
aI0
aI0
aI0
aI0
aI0
aI1
aI1
aI1
aI1
aI1
aI1
aI1
aI1
aI1
aI1
aI1
aI1
aI1
aI1
aI1
aI1
aI1
aI1
aI1
aI1
aI1
aI1
aI1
aI1
aI1
aI1
aI1
aI2
aI2
aI2
aI2
aI2
aI2
aI2
aI2
aI2
aI3
aI3
aI3
aI3
aI3
aI3
aI3
aI3
aI3
aI4
aI4
aI4
aI4
aI4
aI4
aI4
aI4
aI4
asg586
g0
(g587
g2
Ntp1474
Rp1475
(dp1476
g591
Nsg593
S'Treatment'
p1477
sg595
I00
sg596
I00
sg597
Nsbsg599
g0
(g600
g601
(cscisheets.core.helpers.extended_array
ExtendedArray
p1478
g603
tp1479
tp1480
Rp1481
sg593
g1477
sbag0
(g400
g2
Ntp1482
Rp1483
(dp1484
g404
I00
sg405
g4
sg406
(lp1485
VI
p1486
ag1486
ag1486
ag1486
aVR1
p1487
aVR1
p1488
aVR1
p1489
aVR2
p1490
aVR2
p1491
aVR2
p1492
ag1486
ag1486
ag1486
ag1486
ag1486
ag1486
ag1486
ag1486
ag1486
aVR1
p1493
aVR1
p1494
aVR1
p1495
aVR1
p1496
aVR1
p1497
aVR1
p1498
aVR1
p1499
aVR1
p1500
aVR1
p1501
aVR2
p1502
aVR2
p1503
aVR2
p1504
aVR2
p1505
aVR2
p1506
aVR2
p1507
aVR2
p1508
aVR2
p1509
aVR2
p1510
ag1486
ag1486
ag1486
aVR1
p1511
aVR1
p1512
aVR1
p1513
aVR2
p1514
aVR2
p1515
aVR2
p1516
ag1486
ag1486
ag1486
aVR1
p1517
aVR1
p1518
aVR1
p1519
aVR2
p1520
aVR2
p1521
aVR2
p1522
ag1486
ag1486
ag1486
aVR1
p1523
aVR1
p1524
aVR1
p1525
aVR2
p1526
aVR2
p1527
aVR2
p1528
asg586
g0
(g587
g2
Ntp1529
Rp1530
(dp1531
g591
Nsg593
S'RunType'
p1532
sg595
I00
sg596
I00
sg597
Nsbsg599
g1481
sg593
g1532
sbag0
(g400
g2
Ntp1533
Rp1534
(dp1535
g404
I00
sg405
g4
sg406
(lp1536
I1
aI1
aI1
aI1
aI1
aI1
aI1
aI1
aI1
aI1
aI1
aI1
aI1
aI2
aI2
aI2
aI3
aI3
aI3
aI1
aI1
aI1
aI2
aI2
aI2
aI3
aI3
aI3
aI1
aI1
aI1
aI2
aI2
aI2
aI3
aI3
aI3
aI1
aI1
aI1
aI1
aI1
aI1
aI1
aI1
aI1
aI1
aI1
aI1
aI1
aI1
aI1
aI1
aI1
aI1
aI1
aI1
aI1
aI1
aI1
aI1
aI1
aI1
aI1
asg586
g0
(g587
g2
Ntp1537
Rp1538
(dp1539
g591
Nsg593
S'BRpl'
p1540
sg595
I00
sg596
I00
sg597
Nsbsg599
g1481
sg593
g1540
sbag0
(g400
g2
Ntp1541
Rp1542
(dp1543
g404
I00
sg405
g4
sg406
(lp1544
Va
p1545
aVb
p1546
aVc
p1547
aVd
p1548
ag1545
ag1546
ag1547
ag1545
ag1546
ag1547
ag1545
ag1546
ag1547
ag1545
ag1546
ag1547
ag1545
ag1546
ag1547
ag1545
ag1546
ag1547
ag1545
ag1546
ag1547
ag1545
ag1546
ag1547
ag1545
ag1546
ag1547
ag1545
ag1546
ag1547
ag1545
ag1546
ag1547
ag1545
ag1546
ag1547
ag1545
ag1546
ag1547
ag1545
ag1546
ag1547
ag1545
ag1546
ag1547
ag1545
ag1546
ag1547
ag1545
ag1546
ag1547
ag1545
ag1546
ag1547
ag1545
ag1546
ag1547
ag1545
ag1546
ag1547
asg586
g0
(g587
g2
Ntp1549
Rp1550
(dp1551
g591
Nsg593
S'TRpl'
p1552
sg595
I00
sg596
I00
sg597
Nsbsg599
g1481
sg593
g1552
sbag0
(g400
g2
Ntp1553
Rp1554
(dp1555
g404
I00
sg405
g4
sg406
(lp1556
F0.8371
aF0.891
aF0.8956
aF0.8671
aF0.8266
aF0.8343
aF0.8496
aF0.8157
aF0.8543
aF0.8208
aF0.9399
aF0.8296
aF0.8361
aF0.8039
aF0.8399
aF0.7935
aF0.8264
aF0.7974
aF0.8252
aF0.9179
aF0.9783
aF0.8971
aF0.8957
aF0.8287
aF0.8387
aF0.8746
aF0.8493
aF0.8349
aF0.7857
aF0.8427
aF0.8637
aF0.8281
aF0.8203
aF0.8288
aF0.8138
aF0.8242
aF0.804
aF0.8418
aF0.7959
aF0.8071
aF0.7701
aF0.8746
aF0.8139
aF0.7795
aF0.7676
aF0.7947
aF0.8513
aF0.8485
aF0.8401
aF0.8715
aF0.8977
aF0.856
aF0.8179
aF0.8173
aF0.7894
aF0.8513
aF0.8485
aF0.8401
aF0.8715
aF0.8977
aF0.856
aF0.8179
aF0.8173
aF0.7894
asg586
g0
(g587
g2
Ntp1557
Rp1558
(dp1559
g591
Nsg593
S'Eff'
p1560
sg595
I00
sg596
I00
sg597
Nsbsg599
g1481
sg593
g1560
sbag0
(g400
g2
Ntp1561
Rp1562
(dp1563
g404
I00
sg405
g4
sg406
(lp1564
F23.0
aF22.86
aF22.8
aF23.0
aF18.24
aF18.22
aF18.36
aF19.72
aF19.75
aF20.01
aF26.68
aF27.13
aF27.21
aF26.76
aF26.71
aF26.19
aF29.98
aF30.12
aF29.41
aF19.92
aF19.85
aF20.0
aF21.86
aF22.09
aF21.84
aF23.89
aF23.54
aF24.27
aF22.18
aF21.71
aF21.75
aF23.88
aF23.42
aF23.63
aF24.59
aF24.61
aF24.34
aF29.95
aF30.45
aF29.88
aF23.22
aF23.8
aF23.49
aF26.37
aF26.36
aF26.17
aF24.8
aF24.97
aF24.63
aF18.91
aF18.78
aF18.8
aF20.5
aF20.47
aF20.28
aF24.8
aF24.97
aF24.63
aF18.91
aF18.78
aF18.8
aF20.5
aF20.47
aF20.28
asg586
g0
(g587
g2
Ntp1565
Rp1566
(dp1567
g591
Nsg593
S'Ct'
p1568
sg595
I00
sg596
I00
sg597
Nsbsg599
g1481
sg593
g1568
sbag402
ag608
ag753
ag890
ag1029
ag1042
ag1053
ag1185
ag1196
ag1204
ag1212
ag1225
ag1238
ag0
(g400
g2
Ntp1569
Rp1570
(dp1571
g404
I00
sg405
g4
sg406
(lp1572
(lp1573
g1064
aa(lp1574
g1081
aa(lp1575
g1132
aa(lp1576
g1149
aa(lp1577
g1166
aasg586
g0
(g587
g2
Ntp1578
Rp1579
(dp1580
g591
Vcat_vals = [br[0] for br in pruneNulls(BioRuns)]\u000aclean_geo = [x for x in GeoMean if x is not None]\u000aGeoGroups, groupedGeoMeans = groupBy(cat_vals, clean_geo)\u000aGroupedGeoMeans = roundValues(groupedGeoMeans, 3)\u000aGeoGroups = [[x] for x in GeoGroups]
p1581
sg593
VGeoGroups
p1582
sg595
I00
sg596
I00
sg597
Vcat_vals = [br[0] for br in pruneNulls(BioRuns)]\u000aclean_geo = [x for x in GeoMean if x is not None]\u000aGeoGroups, groupedGeoMeans = groupBy(cat_vals, clean_geo)\u000aGroupedGeoMeans = roundValues(groupedGeoMeans, 3)\u000aGeoGroups = [[x] for x in GeoGroups]
p1583
sbsg599
g0
(g600
g601
(g602
g603
tp1584
tp1585
Rp1586
sg593
g1582
sbag0
(g400
g2
Ntp1587
Rp1588
(dp1589
g404
I00
sg405
g4
sg406
(lp1590
g611
(g602
(I0
tp1591
g613
tp1592
Rp1593
(I1
(I1
tp1594
g619
I00
S'D\x8bl\xe7\xfb\xa9\xb1?'
p1595
tp1596
bag611
(g602
(I0
tp1597
g613
tp1598
Rp1599
(I1
(I3
tp1600
g619
I00
S'\xb8\x1e\x85\xebQ\xb8\x8e?D\x8bl\xe7\xfb\xa9\xb1?\x1b/\xdd$\x06\x81\x95?'
p1601
tp1602
bag611
(g602
(I0
tp1603
g613
tp1604
Rp1605
(I1
(I1
tp1606
g619
I00
S'\xd9\xce\xf7S\xe3\xa5\x9b?'
p1607
tp1608
bag611
(g602
(I0
tp1609
g613
tp1610
Rp1611
(I1
(I1
tp1612
g619
I00
S'\xd9\xce\xf7S\xe3\xa5\x9b?'
p1613
tp1614
bag611
(g602
(I0
tp1615
g613
tp1616
Rp1617
(I1
(I1
tp1618
g619
I00
S'\xd9\xce\xf7S\xe3\xa5\x9b?'
p1619
tp1620
basg586
g0
(g587
g2
Ntp1621
Rp1622
(dp1623
g591
Nsg747
g1588
sg595
I00
sg596
I00
sg597
Nsbsg599
g0
(g600
g601
(g602
g603
tp1624
tp1625
Rp1626
sg593
VGroupedGeoMeans
p1627
sbag0
(g400
g2
Ntp1628
Rp1629
(dp1630
g404
I00
sg405
g4
sg406
(lp1631
g611
(g602
(I0
tp1632
g613
tp1633
Rp1634
(I1
(I1
tp1635
g619
I00
S'\x00\x00\x00\x00\x00\x00\xf0?'
p1636
tp1637
bag611
(g602
(I0
tp1638
g613
tp1639
Rp1640
(I1
(I3
tp1641
g619
I00
S'-\xb2\x9d\xef\xa7\xc6\xcb?\x00\x00\x00\x00\x00\x00\xf0?\xdb\xf9~j\xbct\xd3?'
p1642
tp1643
bag611
(g602
(I0
tp1644
g613
tp1645
Rp1646
(I1
(I1
tp1647
g619
I00
S'\xa0\x1a/\xdd$\x06\xd9?'
p1648
tp1649
bag611
(g602
(I0
tp1650
g613
tp1651
Rp1652
(I1
(I1
tp1653
g619
I00
S'\xa0\x1a/\xdd$\x06\xd9?'
p1654
tp1655
bag611
(g602
(I0
tp1656
g613
tp1657
Rp1658
(I1
(I1
tp1659
g619
I00
S'\xa0\x1a/\xdd$\x06\xd9?'
p1660
tp1661
basg586
g0
(g587
g2
Ntp1662
Rp1663
(dp1664
g591
Vref = np.mean(GroupedGeoMeans[0])\u000aNrmlGeoGroupedMeans = [ [x/ref for x in g] for g in GroupedGeoMeans if g is not None]  \u000aNrmlGeoGroupedMeans = roundValues(NrmlGeoGroupedMeans, 3)
p1665
sg593
VNrmlGeoGroupedMeans
p1666
sg595
I00
sg596
I00
sg597
Vref = np.mean(GroupedGeoMeans[0])\u000aNrmlGeoGroupedMeans = [ [x/ref for x in g] for g in GroupedGeoMeans if g is not None]  \u000aNrmlGeoGroupedMeans = roundValues(NrmlGeoGroupedMeans, 3)
p1667
sbsg599
g0
(g600
g601
(g602
g603
tp1668
tp1669
Rp1670
sg593
g1666
sbag0
(g400
g2
Ntp1671
Rp1672
(dp1673
g404
I00
sg405
g4
sg406
(lp1674
F1.0
aF0.507
aF0.391
aF0.391
aF0.391
asg586
g0
(g587
g2
Ntp1675
Rp1676
(dp1677
g591
VMeanNrmlGeoGroups = [round(np.mean(g), 3) for g in NrmlGeoGroupedMeans]
p1678
sg593
VMeanNrmlGeoGroups
p1679
sg595
I01
sg596
I00
sg597
V[round(np.mean(g), 3) for g in NrmlGeoGroupedMeans]
p1680
sbsg599
g0
(g600
g601
(g602
g603
tp1681
tp1682
Rp1683
sg593
g1679
sbag0
(g400
g2
Ntp1684
Rp1685
(dp1686
g404
I00
sg405
g4
sg406
(lp1687
F0.248
asg586
g0
(g587
g2
Ntp1688
Rp1689
(dp1690
g591
VStdNrmlGeoGroups = []\u000afor grp in NrmlGeoGroupedMeans:\u000a  if len(grp) > 1:\u000a    val = np.std(grp, ddof=1)/np.sqrt(len(grp))\u000a    val = round(val, 3)\u000a    StdNrmlGeoGroups.append(val)\u000a
p1691
sg593
VStdNrmlGeoGroups
p1692
sg595
I00
sg596
I00
sg597
VStdNrmlGeoGroups = []\u000afor grp in NrmlGeoGroupedMeans:\u000a  if len(grp) > 1:\u000a    val = np.std(grp, ddof=1)/np.sqrt(len(grp))\u000a    val = round(val, 3)\u000a    StdNrmlGeoGroups.append(val)\u000a
p1693
sbsg599
g0
(g600
g601
(g602
g603
tp1694
tp1695
Rp1696
sg593
g1692
sbasg393
V/home/ubuntu/SciSheets/mysite/user/guest/tables/kristen_single_gene.pcl
p1697
sb.