ccopy_reg
_reconstructor
p0
(cscisheets.ui.dt_table
DTTable
p1
c__builtin__
object
p2
Ntp3
Rp4
(dp5
S'_versioned_file'
p6
g0
(cmysite.helpers.versioned_file
VersionedFile
p7
g2
Ntp8
Rp9
(dp10
S'_redo_stack'
p11
g0
(cmysite.helpers.file_stack
FileStack
p12
g2
Ntp13
Rp14
(dp15
S'_dirpath'
p16
S'/home/ubuntu/SciSheets/mysite/user/guest/tables/backup'
p17
sS'_max_depth'
p18
I5
sS'_filename_pfx'
p19
Vkristen_single_gene.r
p20
sbsS'_max_versions'
p21
I5
sS'_undo_stack'
p22
g0
(g12
g2
Ntp23
Rp24
(dp25
g16
g17
sg18
I5
sg19
Vkristen_single_gene.u
p26
sbsS'_checkpoint_history'
p27
(lp28
VCell/Update
p29
aVCell/Update
p30
aVCell/Update
p31
aVCell/Update
p32
aVCell/Update
p33
aVCell/Update
p34
aVCell/Update
p35
aVCell/Update
p36
aVCell/Update
p37
aVCell/Update
p38
aVCell/Update
p39
aVCell/Update
p40
aVColumn/Formula
p41
aVColumn/Formula
p42
aVColumn/Append
p43
aVColumn/Formula
p44
aVColumn/Delete
p45
aVCell/Update
p46
aVColumn/Formula
p47
aVCell/Update
p48
aVCell/Update
p49
aVColumn/Formula
p50
aVColumn/Formula
p51
aVCell/Update
p52
aVColumn/Formula
p53
aVColumn/Formula
p54
aVCell/Update
p55
aVCell/Update
p56
aVCell/Update
p57
aVCell/Update
p58
aVColumn/Formula
p59
aVCell/Update
p60
aVCell/Update
p61
aVCell/Update
p62
aVColumn/Formula
p63
aVCell/Update
p64
aVColumn/Formula
p65
aVColumn/Formula
p66
aVCell/Update
p67
aVCell/Update
p68
aVCell/Update
p69
aVCell/Update
p70
aVCell/Update
p71
aVCell/Update
p72
aVCell/Update
p73
aVCell/Update
p74
aVCell/Update
p75
aVColumn/Formula
p76
aVCell/Update
p77
aVCell/Update
p78
aVCell/Update
p79
aVCell/Update
p80
aVCell/Update
p81
aVCell/Update
p82
aVCell/Update
p83
aVCell/Update
p84
aVCell/Update
p85
aVCell/Update
p86
aVCell/Update
p87
aVCell/Update
p88
aVColumn/Formula
p89
aVColumn/Formula
p90
aVColumn/Formula
p91
aVCell/Update
p92
aVCell/Update
p93
aVCell/Update
p94
aVCell/Update
p95
aVCell/Update
p96
aVColumn/Formula
p97
aVCell/Update
p98
aVCell/Update
p99
aVCell/Update
p100
aVCell/Update
p101
aVCell/Update
p102
aVCell/Update
p103
aVCell/Update
p104
aVColumn/Formula
p105
aVColumn/Formula
p106
aVColumn/Formula
p107
aVCell/Update
p108
aVCell/Update
p109
aVColumn/Formula
p110
aVCell/Update
p111
aVCell/Update
p112
aVCell/Update
p113
aVCell/Update
p114
aVCell/Update
p115
aVCell/Update
p116
aVCell/Update
p117
aVCell/Update
p118
aVColumn/Formula
p119
aVCell/Update
p120
aVColumn/Formula
p121
aVColumn/Formula
p122
aVColumn/Formula
p123
aVCell/Update
p124
aVCell/Update
p125
aVColumn/Formula
p126
aVColumn/Formula
p127
aVColumn/Formula
p128
aVColumn/Formula
p129
aVCell/Update
p130
aVColumn/Formula
p131
aVColumn/Formula
p132
aVColumn/Formula
p133
aVCell/Update
p134
aVCell/Update
p135
aVCell/Update
p136
aVCell/Update
p137
aVCell/Update
p138
aVCell/Update
p139
aVCell/Update
p140
aVCell/Update
p141
aVCell/Update
p142
aVCell/Update
p143
aVColumn/Formula
p144
aVColumn/Formula
p145
aVColumn/Formula
p146
aVColumn/Formula
p147
aVCell/Update
p148
aVCell/Update
p149
aVColumn/Formula
p150
aVCell/Update
p151
aVCell/Update
p152
aVCell/Update
p153
aVCell/Update
p154
aVCell/Update
p155
aVCell/Update
p156
aVCell/Update
p157
aVCell/Update
p158
aVCell/Update
p159
aVCell/Update
p160
aVCell/Update
p161
aVCell/Update
p162
aVCell/Update
p163
aVColumn/Formula
p164
aVColumn/Formula
p165
aVCell/Update
p166
aVCell/Update
p167
aVCell/Update
p168
aVColumn/Formula
p169
aVCell/Update
p170
aVCell/Update
p171
aVCell/Update
p172
aVCell/Update
p173
aVColumn/Formula
p174
aVColumn/Formula
p175
aVColumn/Formula
p176
aVColumn/Formula
p177
aVCell/Update
p178
aVColumn/Formula
p179
aVCell/Update
p180
aVCell/Update
p181
aVCell/Update
p182
aVCell/Update
p183
aVCell/Update
p184
aVCell/Update
p185
aVCell/Update
p186
aVCell/Update
p187
aVCell/Update
p188
aVColumn/Formula
p189
aVCell/Update
p190
aVCell/Update
p191
aVCell/Update
p192
aVCell/Update
p193
aVCell/Update
p194
aVCell/Update
p195
aVCell/Update
p196
aVCell/Update
p197
aVCell/Update
p198
aVCell/Update
p199
aVCell/Update
p200
aVCell/Update
p201
aVCell/Update
p202
aVCell/Update
p203
aVCell/Update
p204
aVCell/Update
p205
aVCell/Update
p206
aVCell/Update
p207
aVCell/Update
p208
aVCell/Update
p209
aVCell/Update
p210
aVCell/Update
p211
aVCell/Update
p212
aVCell/Update
p213
aVCell/Update
p214
aVCell/Update
p215
aVCell/Update
p216
aVCell/Update
p217
aVCell/Update
p218
aVCell/Update
p219
aVCell/Update
p220
aVCell/Update
p221
aVCell/Update
p222
aVCell/Update
p223
aVCell/Update
p224
aVCell/Update
p225
aVCell/Update
p226
aVCell/Update
p227
aVCell/Update
p228
aVCell/Update
p229
aVCell/Update
p230
aVCell/Update
p231
aVCell/Update
p232
aVCell/Update
p233
aVCell/Update
p234
aVCell/Update
p235
aVCell/Update
p236
aVCell/Update
p237
aVCell/Update
p238
aVCell/Update
p239
aVCell/Update
p240
aVCell/Update
p241
aVCell/Update
p242
aVCell/Update
p243
aVCell/Update
p244
aVCell/Update
p245
aVCell/Update
p246
aVCell/Update
p247
aVCell/Update
p248
aVCell/Update
p249
aVCell/Update
p250
aVCell/Update
p251
aVCell/Update
p252
aVCell/Update
p253
aVCell/Update
p254
aVCell/Update
p255
aVCell/Update
p256
aVCell/Update
p257
aVCell/Update
p258
aVCell/Update
p259
aVCell/Update
p260
aVCell/Update
p261
aVCell/Update
p262
aVCell/Update
p263
aVCell/Update
p264
aVCell/Update
p265
aVCell/Update
p266
aVCell/Update
p267
aVCell/Update
p268
aVCell/Update
p269
aVCell/Update
p270
aVCell/Update
p271
aVColumn/Formula
p272
aVColumn/Formula
p273
aVCell/Update
p274
aVCell/Update
p275
aVCell/Update
p276
aVCell/Update
p277
aVColumn/Formula
p278
aVColumn/Formula
p279
aVColumn/Formula
p280
aVCell/Update
p281
aVCell/Update
p282
aVCell/Update
p283
aVCell/Update
p284
aVColumn/Formula
p285
aVColumn/Formula
p286
aVColumn/Formula
p287
aVCell/Update
p288
aVCell/Update
p289
aVColumn/Formula
p290
aVCell/Update
p291
aVCell/Update
p292
aVCell/Update
p293
aVCell/Update
p294
aVCell/Update
p295
aVCell/Update
p296
aVColumn/Formula
p297
aVCell/Update
p298
aVColumn/Formula
p299
aVCell/Update
p300
aVCell/Update
p301
aVColumn/Formula
p302
aVColumn/Formula
p303
aVCell/Update
p304
aVCell/Update
p305
aVCell/Update
p306
aVCell/Update
p307
aVColumn/Formula
p308
aVColumn/Formula
p309
aVColumn/Formula
p310
aVColumn/Formula
p311
aVColumn/Formula
p312
aVCell/Update
p313
aVCell/Update
p314
aVColumn/Formula
p315
aVCell/Update
p316
aVColumn/Formula
p317
aVColumn/Formula
p318
aVCell/Update
p319
aVCell/Update
p320
aVCell/Update
p321
aVColumn/Formula
p322
aVColumn/Formula
p323
aVColumn/Formula
p324
aVCell/Update
p325
aVColumn/Formula
p326
aVCell/Update
p327
aVColumn/Formula
p328
aVColumn/Formula
p329
aVColumn/Formula
p330
aVColumn/Formula
p331
aVColumn/Formula
p332
aVColumn/Formula
p333
aVCell/Update
p334
aVColumn/Formula
p335
aVCell/Update
p336
aVCell/Update
p337
aVCell/Update
p338
aVColumn/Formula
p339
aVColumn/Formula
p340
aVColumn/Formula
p341
aVColumn/Formula
p342
aVColumn/Formula
p343
aVCell/Update
p344
aVCell/Update
p345
aVCell/Update
p346
aVColumn/Formula
p347
aVCell/Update
p348
aVCell/Update
p349
aVColumn/Formula
p350
aVColumn/Formula
p351
aVColumn/Formula
p352
aVColumn/Formula
p353
aVColumn/Formula
p354
aVColumn/Formula
p355
aVCell/Update
p356
aVColumn/Formula
p357
aVColumn/Formula
p358
aVColumn/Formula
p359
aVCell/Update
p360
aVCell/Update
p361
aVCell/Update
p362
aVColumn/Formula
p363
aVColumn/Formula
p364
aVCell/Update
p365
aVColumn/Formula
p366
aVColumn/Formula
p367
aVColumn/Formula
p368
aVColumn/Formula
p369
aVColumn/Formula
p370
aVColumn/Formula
p371
aVCell/Update
p372
aVCell/Update
p373
aVColumn/Formula
p374
aVCell/Update
p375
aVColumn/Formula
p376
aVColumn/Formula
p377
aVCell/Update
p378
aVCell/Update
p379
aVCell/Update
p380
aVCell/Update
p381
aVCell/Update
p382
aVColumn/Formula
p383
aVCell/Update
p384
aVCell/Update
p385
aVColumn/Formula
p386
aVColumn/Formula
p387
aVCell/Update
p388
aVCell/Update
p389
aVColumn/Formula
p390
aVColumn/Formula
p391
aVCell/Update
p392
aVCell/Update
p393
aVCell/Update
p394
aVCell/Update
p395
aVCell/Update
p396
aVCell/Update
p397
aVColumn/Formula
p398
aVCell/Update
p399
aVColumn/Formula
p400
aVCell/Update
p401
aVCell/Update
p402
aVColumn/Formula
p403
aVCell/Update
p404
aVColumn/Formula
p405
aVCell/Update
p406
aVColumn/Formula
p407
aVColumn/Formula
p408
aVCell/Update
p409
aVCell/Update
p410
aVCell/Update
p411
aVColumn/Formula
p412
aVColumn/Formula
p413
aVColumn/Formula
p414
aVCell/Update
p415
aVCell/Update
p416
aVColumn/Formula
p417
aVCell/Update
p418
aVColumn/Formula
p419
aVCell/Update
p420
aVCell/Update
p421
aVCell/Update
p422
aVCell/Update
p423
aVCell/Update
p424
aVCell/Update
p425
aVCell/Update
p426
aVCell/Update
p427
aVCell/Update
p428
aVCell/Update
p429
aVCell/Update
p430
asS'_filepath'
p431
V/home/ubuntu/SciSheets/mysite/user/guest/tables/kristen_single_gene.pcl
p432
sS'_backup_dir'
p433
g17
sbsS'_namespace'
p434
(dp435
sS'_hidden_columns'
p436
(lp437
g0
(cscisheets.core.column
Column
p438
g2
Ntp439
Rp440
(dp441
S'_asis'
p442
I00
sS'_owning_table'
p443
g4
sS'_cells'
p444
(lp445
(lp446
cnumpy.core.multiarray
scalar
p447
(cnumpy
dtype
p448
(S'f8'
p449
I0
I1
tp450
Rp451
(I3
S'<'
p452
NNNI-1
I-1
I0
tp453
bS'\x00\x00\x00\x00\x00\x00\x00\x00'
p454
tp455
Rp456
aVI
p457
ag447
(g451
S'\x00\x00\x00\x00\x00\x00\xf0?'
p458
tp459
Rp460
aa(lp461
g447
(g451
S'\x00\x00\x00\x00\x00\x00\x00\x00'
p462
tp463
Rp464
aVR1
p465
ag447
(g451
S'\x00\x00\x00\x00\x00\x00\xf0?'
p466
tp467
Rp468
aa(lp469
g447
(g451
S'\x00\x00\x00\x00\x00\x00\x00\x00'
p470
tp471
Rp472
aVR2
p473
ag447
(g451
S'\x00\x00\x00\x00\x00\x00\xf0?'
p474
tp475
Rp476
aa(lp477
g447
(g451
S'\x00\x00\x00\x00\x00\x00\xf0?'
p478
tp479
Rp480
ag457
ag447
(g451
S'\x00\x00\x00\x00\x00\x00\xf0?'
p481
tp482
Rp483
aa(lp484
g447
(g451
S'\x00\x00\x00\x00\x00\x00\xf0?'
p485
tp486
Rp487
ag457
ag447
(g451
S'\x00\x00\x00\x00\x00\x00\x00@'
p488
tp489
Rp490
aa(lp491
g447
(g451
S'\x00\x00\x00\x00\x00\x00\xf0?'
p492
tp493
Rp494
ag457
ag447
(g451
S'\x00\x00\x00\x00\x00\x00\x08@'
p495
tp496
Rp497
aa(lp498
g447
(g451
S'\x00\x00\x00\x00\x00\x00\xf0?'
p499
tp500
Rp501
ag465
ag447
(g451
S'\x00\x00\x00\x00\x00\x00\xf0?'
p502
tp503
Rp504
aa(lp505
g447
(g451
S'\x00\x00\x00\x00\x00\x00\xf0?'
p506
tp507
Rp508
ag465
ag447
(g451
S'\x00\x00\x00\x00\x00\x00\x00@'
p509
tp510
Rp511
aa(lp512
g447
(g451
S'\x00\x00\x00\x00\x00\x00\xf0?'
p513
tp514
Rp515
ag465
ag447
(g451
S'\x00\x00\x00\x00\x00\x00\x08@'
p516
tp517
Rp518
aa(lp519
g447
(g451
S'\x00\x00\x00\x00\x00\x00\xf0?'
p520
tp521
Rp522
ag473
ag447
(g451
S'\x00\x00\x00\x00\x00\x00\xf0?'
p523
tp524
Rp525
aa(lp526
g447
(g451
S'\x00\x00\x00\x00\x00\x00\xf0?'
p527
tp528
Rp529
ag473
ag447
(g451
S'\x00\x00\x00\x00\x00\x00\x00@'
p530
tp531
Rp532
aa(lp533
g447
(g451
S'\x00\x00\x00\x00\x00\x00\xf0?'
p534
tp535
Rp536
ag473
ag447
(g451
S'\x00\x00\x00\x00\x00\x00\x08@'
p537
tp538
Rp539
aa(lp540
g447
(g451
S'\x00\x00\x00\x00\x00\x00\x00@'
p541
tp542
Rp543
ag457
ag447
(g451
S'\x00\x00\x00\x00\x00\x00\xf0?'
p544
tp545
Rp546
aa(lp547
g447
(g451
S'\x00\x00\x00\x00\x00\x00\x00@'
p548
tp549
Rp550
ag465
ag447
(g451
S'\x00\x00\x00\x00\x00\x00\xf0?'
p551
tp552
Rp553
aa(lp554
g447
(g451
S'\x00\x00\x00\x00\x00\x00\x00@'
p555
tp556
Rp557
ag473
ag447
(g451
S'\x00\x00\x00\x00\x00\x00\xf0?'
p558
tp559
Rp560
aa(lp561
g447
(g451
S'\x00\x00\x00\x00\x00\x00\x08@'
p562
tp563
Rp564
ag457
ag447
(g451
S'\x00\x00\x00\x00\x00\x00\xf0?'
p565
tp566
Rp567
aa(lp568
g447
(g451
S'\x00\x00\x00\x00\x00\x00\x08@'
p569
tp570
Rp571
ag465
ag447
(g451
S'\x00\x00\x00\x00\x00\x00\xf0?'
p572
tp573
Rp574
aa(lp575
g447
(g451
S'\x00\x00\x00\x00\x00\x00\x08@'
p576
tp577
Rp578
ag473
ag447
(g451
S'\x00\x00\x00\x00\x00\x00\xf0?'
p579
tp580
Rp581
aaNaNaNaNaNaNaNaNaNaNaNaNaNaNaNaNaNaNaNaNaNaNaNaNaNaNaNaNaNaNaNaNaNaNaNaNaNaNaNaNaNaNaNaNaNaNasS'_formula_statement'
p582
g0
(cscisheets.core.helpers.formula_statement
FormulaStatement
p583
g2
Ntp584
Rp585
(dp586
S'_statement'
p587
Vsel = [e > min_eff for e in Eff]\u000apairs = zip(range(len(sel)), sel)\u000apTreatment = [Treatment[i] for i,b in pairs if b]\u000apRunType = [RunType[i] for i,b in pairs if b]\u000apBRpl = [BRpl[i] for i,b in pairs if b]\u000agrouping_columns = [pTreatment, pRunType, pBRpl]\u000apCt = [Ct[i] for i,b in pairs if b]\u000apEff = [Eff[i] for i,b in pairs if b]\u000aGroups, groupedCt = groupBy(\u000a     grouping_columns, pCt)\u000aGroups, groupedEff = groupBy(\u000a     grouping_columns, pEff)\u000aGroups = [[g[0], g[1], g[2]] for g in Groups]\u000aGroupedCt = roundValues(groupedCt,2)\u000aGroupedEff = roundValues(groupedEff,2)
p588
sS'_name'
p589
VGroups
p590
sS'_isExpression'
p591
I00
sS'_isStatement'
p592
I00
sS'_formula'
p593
Vsel = [e > min_eff for e in Eff]\u000apairs = zip(range(len(sel)), sel)\u000apTreatment = [Treatment[i] for i,b in pairs if b]\u000apRunType = [RunType[i] for i,b in pairs if b]\u000apBRpl = [BRpl[i] for i,b in pairs if b]\u000agrouping_columns = [pTreatment, pRunType, pBRpl]\u000apCt = [Ct[i] for i,b in pairs if b]\u000apEff = [Eff[i] for i,b in pairs if b]\u000aGroups, groupedCt = groupBy(\u000a     grouping_columns, pCt)\u000aGroups, groupedEff = groupBy(\u000a     grouping_columns, pEff)\u000aGroups = [[g[0], g[1], g[2]] for g in Groups]\u000aGroupedCt = roundValues(groupedCt,2)\u000aGroupedEff = roundValues(groupedEff,2)
p594
sbsS'_data_class'
p595
g0
(cscisheets.core.helpers.api_util
DataClass
p596
c__builtin__
tuple
p597
(cnumpy
ndarray
p598
cscisheets.core.helpers.api_util
makeArray
p599
tp600
tp601
Rp602
sg589
g590
sbag0
(g438
g2
Ntp603
Rp604
(dp605
g442
I00
sg443
g4
sg444
(lp606
(lp607
F0.92
aF0.91
aF0.91
aa(lp608
F0.83
aF0.83
aF0.85
aa(lp609
F0.82
aF0.85
aF0.82
aa(lp610
F0.85
aF0.84
aF0.85
aa(lp611
F0.87
aF0.78
aF0.85
aa(lp612
F0.84
aF0.84
aF0.77
aa(lp613
F0.92
aF0.98
aF0.9
aa(lp614
F0.9
aF0.83
aF0.84
aa(lp615
F0.87
aF0.85
aF0.83
aa(lp616
F0.79
aF0.84
aF0.86
aa(lp617
F0.83
aF0.82
aF0.83
aa(lp618
F0.81
aF0.82
aF0.8
aa(lp619
F0.84
aF0.79
aF0.81
aa(lp620
F0.77
aF0.87
aF0.81
aa(lp621
F0.78
aF0.77
aF0.79
aa(lp622
F0.88
aF0.86
aF0.89
aa(lp623
F0.87
aF0.9
aF0.86
aa(lp624
F0.82
aF0.82
aF0.79
aaNaNaNaNaNaNaNaNaNaNaNaNaNaNaNaNaNaNaNaNaNaNaNaNaNaNaNaNaNaNaNaNaNaNaNaNaNaNaNaNaNaNaNaNaNaNasg582
g0
(g583
g2
Ntp625
Rp626
(dp627
g587
NsS'_column'
p628
g604
sg591
I00
sg592
I00
sg593
Nsbsg595
g0
(g596
g597
(g598
g599
tp629
tp630
Rp631
sg589
VGroupedEff
p632
sbag0
(g438
g2
Ntp633
Rp634
(dp635
g442
I00
sg443
g4
sg444
(lp636
(lp637
F18.31
aF18.29
aF18.15
aa(lp638
F18.24
aF18.22
aF18.36
aa(lp639
F19.72
aF19.75
aF20.01
aa(lp640
F22.42
aF22.5
aF22.44
aa(lp641
F21.92
aF22.03
aF21.94
aa(lp642
F23.4
aF23.47
aF23.41
aa(lp643
F19.92
aF19.85
aF20.0
aa(lp644
F21.86
aF22.09
aF21.84
aa(lp645
F23.89
aF23.54
aF24.27
aa(lp646
F22.18
aF21.71
aF21.75
aa(lp647
F23.88
aF23.42
aF23.63
aa(lp648
F24.59
aF24.61
aF24.34
aa(lp649
F23.48
aF23.31
aF23.45
aa(lp650
F23.22
aF23.8
aF23.49
aa(lp651
F26.37
aF26.36
aF26.17
aa(lp652
F18.82
aF18.97
aF18.92
aa(lp653
F18.91
aF18.78
aF18.8
aa(lp654
F20.5
aF20.47
aF20.28
aaNaNaNaNaNaNaNaNaNaNaNaNaNaNaNaNaNaNaNaNaNaNaNaNaNaNaNaNaNaNaNaNaNaNaNaNaNaNaNaNaNaNaNaNaNaNasg582
g0
(g583
g2
Ntp655
Rp656
(dp657
g587
Nsg628
g634
sg591
I00
sg592
I00
sg593
Nsbsg595
g0
(g596
g597
(g598
g599
tp658
tp659
Rp660
sg589
VGroupedCt
p661
sbag0
(g438
g2
Ntp662
Rp663
(dp664
g442
I00
sg443
g4
sg444
(lp665
(lp666
F18.3
aF18.3
aF18.1
aa(lp667
F18.2
aF18.2
aF18.4
aa(lp668
F19.7
aF19.8
aF20.0
aa(lp669
F22.4
aF22.5
aF22.4
aa(lp670
F21.9
aF22.0
aF21.9
aa(lp671
F23.4
aF23.5
aF23.4
aa(lp672
F19.9
aF19.9
aF20.0
aa(lp673
F21.9
aF22.1
aF21.8
aa(lp674
F23.9
aF23.5
aF24.3
aa(lp675
F22.2
aF21.7
aF21.8
aa(lp676
F23.9
aF23.4
aF23.6
aa(lp677
F24.6
aF24.6
aF24.3
aa(lp678
F23.5
aF23.3
aF23.4
aa(lp679
F23.2
aF23.8
aF23.5
aa(lp680
F26.4
aF26.4
aF26.2
aa(lp681
F18.8
aF19.0
aF18.9
aa(lp682
F18.9
aF18.8
aF18.8
aa(lp683
F20.5
aF20.5
aF20.3
aaNaNaNaNaNaNaNaNaNaNaNaNaNaNaNaNaNaNaNaNaNaNaNaNaNaNaNaNaNaNaNaNaNaNaNaNaNaNaNaNaNaNaNaNaNaNasg582
g0
(g583
g2
Ntp684
Rp685
(dp686
g587
Vlength = len(Groups)\u000aStdFilteredGroupedCt = roundValues([filterExtremes(g, max_std, 2) for g in pruneNulls(GroupedCt)])\u000a 
p687
sg589
VStdFilteredGroupedCt
p688
sg591
I00
sg592
I00
sg593
Vlength = len(Groups)\u000aStdFilteredGroupedCt = roundValues([filterExtremes(g, max_std, 2) for g in pruneNulls(GroupedCt)])\u000a 
p689
sbsg595
g0
(g596
g597
(g598
g599
tp690
tp691
Rp692
sg589
g688
sbag0
(g438
g2
Ntp693
Rp694
(dp695
g442
I00
sg443
g4
sg444
(lp696
F18.2
aF18.3
aF19.8
aF22.4
aF21.9
aF23.4
aF19.9
aF21.9
aF23.9
aF21.9
aF23.6
aF24.5
aF23.4
aF23.5
aF26.3
aF18.9
aF18.8
aF20.4
aFnan
aFnan
aFnan
aFnan
aFnan
aFnan
aFnan
aFnan
aFnan
aFnan
aFnan
aFnan
aFnan
aFnan
aFnan
aFnan
aFnan
aFnan
aFnan
aFnan
aFnan
aFnan
aFnan
aFnan
aFnan
aFnan
aFnan
aFnan
aFnan
aFnan
aFnan
aFnan
aFnan
aFnan
aFnan
aFnan
aFnan
aFnan
aFnan
aFnan
aFnan
aFnan
aFnan
aFnan
aFnan
aFnan
asg582
g0
(g583
g2
Ntp697
Rp698
(dp699
g587
VMeanCt = [np.mean(g) for g in StdFilteredGroupedCt]\u000aMeanCt = roundValues(MeanCt,1)\u000aStdCt = [np.std(g, ddof=1) for g in StdFilteredGroupedCt]\u000aStdCt = roundValues(StdCt,3)
p700
sg589
VMeanCt
p701
sg591
I00
sg592
I00
sg593
VMeanCt = [np.mean(g) for g in StdFilteredGroupedCt]\u000aMeanCt = roundValues(MeanCt,1)\u000aStdCt = [np.std(g, ddof=1) for g in StdFilteredGroupedCt]\u000aStdCt = roundValues(StdCt,3)
p702
sbsg595
g0
(g596
g597
(g598
g599
tp703
tp704
Rp705
sg589
g701
sbag0
(g438
g2
Ntp706
Rp707
(dp708
g442
I00
sg443
g4
sg444
(lp709
F0.115
aF0.115
aF0.153
aF0.058
aF0.058
aF0.058
aF0.058
aF0.153
aF0.4
aF0.265
aF0.252
aF0.173
aF0.1
aF0.3
aF0.115
aF0.1
aF0.058
aF0.115
aFnan
aFnan
aFnan
aFnan
aFnan
aFnan
aFnan
aFnan
aFnan
aFnan
aFnan
aFnan
aFnan
aFnan
aFnan
aFnan
aFnan
aFnan
aFnan
aFnan
aFnan
aFnan
aFnan
aFnan
aFnan
aFnan
aFnan
aFnan
aFnan
aFnan
aFnan
aFnan
aFnan
aFnan
aFnan
aFnan
aFnan
aFnan
aFnan
aFnan
aFnan
aFnan
aFnan
aFnan
aFnan
aFnan
asg582
g0
(g583
g2
Ntp710
Rp711
(dp712
g587
Nsg628
g707
sg591
I00
sg592
I00
sg593
Nsbsg595
g0
(g596
g597
(g598
g599
tp713
tp714
Rp715
sg589
VStdCt
p716
sbag0
(g438
g2
Ntp717
Rp718
(dp719
g442
I00
sg443
g4
sg444
(lp720
F1.0
aF1.0
aF1.0
aF1.0
aF1.0
aF1.0
aF1.0
aF1.0
aF1.0
aF1.0
aF1.0
aF1.0
aF2.0
aF2.0
aF2.0
aF3.0
aF3.0
aF3.0
aF1.0
aF1.0
aF1.0
aF2.0
aF2.0
aF2.0
aF3.0
aF3.0
aF3.0
aF1.0
aF1.0
aF1.0
aF2.0
aF2.0
aF2.0
aF3.0
aF3.0
aF3.0
aF1.0
aF1.0
aF1.0
aF1.0
aF1.0
aF1.0
aF1.0
aF1.0
aF1.0
aF1.0
aF1.0
aF1.0
aF1.0
aF1.0
aF1.0
aF1.0
aF1.0
aF1.0
aFnan
aFnan
aFnan
aFnan
aFnan
aFnan
aFnan
aFnan
aFnan
aFnan
asg582
g0
(g583
g2
Ntp721
Rp722
(dp723
g587
Nsg589
S'BRpl'
p724
sg591
I00
sg592
I00
sg593
Nsbsg595
g0
(g596
g597
(cscisheets.core.helpers.extended_array
ExtendedArray
p725
g599
tp726
tp727
Rp728
sg589
g724
sbag0
(g438
g2
Ntp729
Rp730
(dp731
g442
I00
sg443
g4
sg444
(lp732
F18.31
aF18.29
aF18.15
aF18.24
aF18.22
aF18.36
aF19.72
aF19.75
aF20.01
aF22.42
aF22.5
aF22.44
aF21.92
aF22.03
aF21.94
aF23.4
aF23.47
aF23.41
aF19.92
aF19.85
aF20.0
aF21.86
aF22.09
aF21.84
aF23.89
aF23.54
aF24.27
aF22.18
aF21.71
aF21.75
aF23.88
aF23.42
aF23.63
aF24.59
aF24.61
aF24.34
aF23.48
aF23.31
aF23.45
aF23.22
aF23.8
aF23.49
aF26.37
aF26.36
aF26.17
aF18.82
aF18.97
aF18.92
aF18.91
aF18.78
aF18.8
aF20.5
aF20.47
aF20.28
aFnan
aFnan
aFnan
aFnan
aFnan
aFnan
aFnan
aFnan
aFnan
aFnan
asg582
g0
(g583
g2
Ntp733
Rp734
(dp735
g587
Nsg589
S'Ct'
p736
sg591
I00
sg592
I00
sg593
Nsbsg595
g728
sg589
g736
sbag0
(g438
g2
Ntp737
Rp738
(dp739
g442
I00
sg443
g4
sg444
(lp740
F0.919
aF0.9106
aF0.9129
aF0.8266
aF0.8343
aF0.8496
aF0.8157
aF0.8543
aF0.8208
aF0.8453
aF0.8426
aF0.8524
aF0.8658
aF0.7809
aF0.8512
aF0.8442
aF0.8357
aF0.7658
aF0.9179
aF0.9783
aF0.8971
aF0.8957
aF0.8287
aF0.8387
aF0.8746
aF0.8493
aF0.8349
aF0.7857
aF0.8427
aF0.8637
aF0.8281
aF0.8203
aF0.8288
aF0.8138
aF0.8242
aF0.804
aF0.8352
aF0.7886
aF0.8105
aF0.7701
aF0.8746
aF0.8139
aF0.7795
aF0.7676
aF0.7947
aF0.876
aF0.8597
aF0.8873
aF0.8715
aF0.8977
aF0.856
aF0.8179
aF0.8173
aF0.7894
aFnan
aFnan
aFnan
aFnan
aFnan
aFnan
aFnan
aFnan
aFnan
aFnan
asg582
g0
(g583
g2
Ntp741
Rp742
(dp743
g587
Nsg589
S'Eff'
p744
sg591
I00
sg592
I00
sg593
Nsbsg595
g728
sg589
g744
sbag0
(g438
g2
Ntp745
Rp746
(dp747
g442
I00
sg443
g4
sg444
(lp748
VI
p749
ag749
ag749
aVR1
p750
ag750
ag750
aVR2
p751
ag751
ag751
ag749
ag749
ag749
ag749
ag749
ag749
ag749
ag749
ag749
ag750
ag750
ag750
ag750
ag750
ag750
ag750
ag750
ag750
ag751
ag751
ag751
ag751
ag751
ag751
ag751
ag751
ag751
ag749
ag749
ag749
ag750
ag750
ag750
ag751
ag751
ag751
ag749
ag749
ag749
ag750
ag750
ag750
ag751
ag751
ag751
aNaNaNaNaNaNaNaNaNaNasg582
g0
(g583
g2
Ntp752
Rp753
(dp754
g587
Nsg589
S'RunType'
p755
sg591
I00
sg592
I00
sg593
Nsbsg595
g728
sg589
g755
sbag0
(g438
g2
Ntp756
Rp757
(dp758
g442
I00
sg443
g4
sg444
(lp759
Va
p760
aVb
p761
aVc
p762
ag760
ag761
ag762
ag760
ag761
ag762
ag760
ag761
ag762
ag760
ag761
ag762
ag760
ag761
ag762
ag760
ag761
ag762
ag760
ag761
ag762
ag760
ag761
ag762
ag760
ag761
ag762
ag760
ag761
ag762
ag760
ag761
ag762
ag760
ag761
ag762
ag760
ag761
ag762
ag760
ag761
ag762
ag760
ag761
ag762
ag760
ag761
ag762
ag760
ag761
ag762
aNaNaNaNaNaNaNaNaNaNasg582
g0
(g583
g2
Ntp763
Rp764
(dp765
g587
Nsg589
S'TRpl'
p766
sg591
I00
sg592
I00
sg593
Nsbsg595
g728
sg589
g766
sbag0
(g438
g2
Ntp767
Rp768
(dp769
g442
I00
sg443
g4
sg444
(lp770
F0.0
aF0.0
aF0.0
aF0.0
aF0.0
aF0.0
aF0.0
aF0.0
aF0.0
aF1.0
aF1.0
aF1.0
aF1.0
aF1.0
aF1.0
aF1.0
aF1.0
aF1.0
aF1.0
aF1.0
aF1.0
aF1.0
aF1.0
aF1.0
aF1.0
aF1.0
aF1.0
aF1.0
aF1.0
aF1.0
aF1.0
aF1.0
aF1.0
aF1.0
aF1.0
aF1.0
aF2.0
aF2.0
aF2.0
aF2.0
aF2.0
aF2.0
aF2.0
aF2.0
aF2.0
aF3.0
aF3.0
aF3.0
aF3.0
aF3.0
aF3.0
aF3.0
aF3.0
aF3.0
aFnan
aFnan
aFnan
aFnan
aFnan
aFnan
aFnan
aFnan
aFnan
aFnan
asg582
g0
(g583
g2
Ntp771
Rp772
(dp773
g587
Nsg589
S'Treatment'
p774
sg591
I00
sg592
I00
sg593
Nsbsg595
g728
sg589
g774
sbasS'_is_evaluate_formulas'
p775
I01
sS'_prologue'
p776
g0
(g583
g2
Ntp777
Rp778
(dp779
g587
V# Prologue\u000aimport math as mt\u000aimport numpy as np\u000afrom os import listdir\u000afrom os.path import isfile, join\u000aimport pandas as pd\u000aimport scipy as sp\u000afrom numpy import nan  # Must follow sympy import \u000a\u000axlsx_path =   '/mnt/hgfs/josephhellerstein/home/Technical/SciSheets/CaseStudies/Kristen/workbooks/data.xlsx'\u000agene = ParmValues[0]\u000arun = ParmValues[1] == 'True'\u000ashow_raw = ParmValues[2] == 'True'\u000ashow_block1 = ParmValues[3] == 'True'\u000ashow_block2 = ParmValues[4] == 'True'\u000ashow_block3 = ParmValues[5] == 'True'\u000ashow_params = ParmValues[8] == 'True'\u000a#show_params = True\u000amax_std  = float(ParmValues[6])\u000amin_eff = float(ParmValues[7])\u000aworksheet = gene + "-I"\u000as.getTable().setIsEvaluateFormulas(run)\u000as.setColumnVisibility()\u000as.setColumnVisibility(['Groups', 'GroupedEff', 'GroupedCt', 'StdFilteredGroupedCt', 'MeanCt',\u000a    'StdCt'], is_visible=show_block1)\u000as.setColumnVisibility(['BioRuns', 'Gene_I', 'Gene_R1', 'Gene_R2', 'ExprR1', 'ExprR2', \u000a    'GeoMean'], is_visible=show_block2)\u000as.setColumnVisibility(['GeoGroups', 'GroupedGeoMeans', 'NrmlGeoGroupedMeans', \u000a    'MeanNrmlGeoGroups', 'StdNrmlGeoGroups'], is_visible=show_block3)\u000aif run:\u000a  Groups = []\u000a  GroupedCt = []\u000a  GroupedEff = []\u000a  MeanCt = []\u000a  Imp = []\u000a  s.deleteColumn('Ct')\u000a  s.deleteColumn('RunType')\u000a  s.deleteColumn('BRpl')\u000a  s.deleteColumn('TRpl')\u000a  s.deleteColumn('Treatment')\u000a  s.deleteColumn('Eff')\u000aif run:\u000a  importExcelToTable(s, xlsx_path, worksheet=worksheet,\u000a      column_position='ParmValues',\u000a      names=['Treatment', 'RunType', 'BRpl', 'TRpl', 'Eff', 'Ct'])\u000as.setColumnVisibility(['BRpl', 'Ct', 'Eff', 'RunType', 'TRpl', 'Treatment'], is_visible=show_raw)\u000as.setColumnVisibility(['ParmNames', 'ParmValues'], show_params)
p780
sg589
VSingleGene
p781
sg591
I00
sg592
I00
sg593
V# Prologue\u000aimport math as mt\u000aimport numpy as np\u000afrom os import listdir\u000afrom os.path import isfile, join\u000aimport pandas as pd\u000aimport scipy as sp\u000afrom numpy import nan  # Must follow sympy import \u000a\u000axlsx_path =   '/mnt/hgfs/josephhellerstein/home/Technical/SciSheets/CaseStudies/Kristen/workbooks/data.xlsx'\u000agene = ParmValues[0]\u000arun = ParmValues[1] == 'True'\u000ashow_raw = ParmValues[2] == 'True'\u000ashow_block1 = ParmValues[3] == 'True'\u000ashow_block2 = ParmValues[4] == 'True'\u000ashow_block3 = ParmValues[5] == 'True'\u000ashow_params = ParmValues[8] == 'True'\u000a#show_params = True\u000amax_std  = float(ParmValues[6])\u000amin_eff = float(ParmValues[7])\u000aworksheet = gene + "-I"\u000as.getTable().setIsEvaluateFormulas(run)\u000as.setColumnVisibility()\u000as.setColumnVisibility(['Groups', 'GroupedEff', 'GroupedCt', 'StdFilteredGroupedCt', 'MeanCt',\u000a    'StdCt'], is_visible=show_block1)\u000as.setColumnVisibility(['BioRuns', 'Gene_I', 'Gene_R1', 'Gene_R2', 'ExprR1', 'ExprR2', \u000a    'GeoMean'], is_visible=show_block2)\u000as.setColumnVisibility(['GeoGroups', 'GroupedGeoMeans', 'NrmlGeoGroupedMeans', \u000a    'MeanNrmlGeoGroups', 'StdNrmlGeoGroups'], is_visible=show_block3)\u000aif run:\u000a  Groups = []\u000a  GroupedCt = []\u000a  GroupedEff = []\u000a  MeanCt = []\u000a  Imp = []\u000a  s.deleteColumn('Ct')\u000a  s.deleteColumn('RunType')\u000a  s.deleteColumn('BRpl')\u000a  s.deleteColumn('TRpl')\u000a  s.deleteColumn('Treatment')\u000a  s.deleteColumn('Eff')\u000aif run:\u000a  importExcelToTable(s, xlsx_path, worksheet=worksheet,\u000a      column_position='ParmValues',\u000a      names=['Treatment', 'RunType', 'BRpl', 'TRpl', 'Eff', 'Ct'])\u000as.setColumnVisibility(['BRpl', 'Ct', 'Eff', 'RunType', 'TRpl', 'Treatment'], is_visible=show_raw)\u000as.setColumnVisibility(['ParmNames', 'ParmValues'], show_params)
p782
sbsS'_epilogue'
p783
g0
(g583
g2
Ntp784
Rp785
(dp786
g587
V# Epilogue\u000aif run:\u000a  worksheet = "%s-O" % gene\u000a  exportTableToExcel(s, xlsx_path, worksheet=worksheet, columns=['GeoGroups',  \u000a      'MeanNrmlGeoGroups', 'StdNrmlGeoGroups'])\u000a
p787
sg589
g781
sg591
I00
sg592
I00
sg593
V# Epilogue\u000aif run:\u000a  worksheet = "%s-O" % gene\u000a  exportTableToExcel(s, xlsx_path, worksheet=worksheet, columns=['GeoGroups',  \u000a      'MeanNrmlGeoGroups', 'StdNrmlGeoGroups'])\u000a
p788
sbsg589
g781
sS'_columns'
p789
(lp790
g0
(g438
g2
Ntp791
Rp792
(dp793
g442
I01
sg443
g4
sg444
(lp794
S'1'
p795
aS'2'
p796
aS'3'
p797
aS'4'
p798
aS'5'
p799
aS'6'
p800
aS'7'
p801
aS'8'
p802
aS'9'
p803
aS'10'
p804
aS'11'
p805
aS'12'
p806
aS'13'
p807
aS'14'
p808
aS'15'
p809
aS'16'
p810
aS'17'
p811
aS'18'
p812
aS'19'
p813
aS'20'
p814
aS'21'
p815
aS'22'
p816
aS'23'
p817
aS'24'
p818
aS'25'
p819
aS'26'
p820
aS'27'
p821
aS'28'
p822
aS'29'
p823
aS'30'
p824
aS'31'
p825
aS'32'
p826
aS'33'
p827
aS'34'
p828
aS'35'
p829
aS'36'
p830
aS'37'
p831
aS'38'
p832
aS'39'
p833
aS'40'
p834
aS'41'
p835
aS'42'
p836
aS'43'
p837
aS'44'
p838
aS'45'
p839
aS'46'
p840
aS'47'
p841
aS'48'
p842
aS'49'
p843
aS'50'
p844
aS'51'
p845
aS'52'
p846
aS'53'
p847
aS'54'
p848
aS'55'
p849
aS'56'
p850
aS'57'
p851
aS'58'
p852
aS'59'
p853
aS'60'
p854
aS'61'
p855
aS'62'
p856
aS'63'
p857
aS'64'
p858
asg582
g0
(g583
g2
Ntp859
Rp860
(dp861
g587
Nsg628
g792
sg591
I00
sg592
I00
sg593
Nsbsg595
g0
(g596
g597
(g598
g599
tp862
tp863
Rp864
sg589
S'row'
p865
sbag0
(g438
g2
Ntp866
Rp867
(dp868
g442
I00
sg443
g4
sg444
(lp869
Vgene
p870
aVrun
p871
aVshow_raw
p872
aVshow_block1
p873
aVshow_block2
p874
aVshow_block3
p875
aVmax_std
p876
aVmin_eff
p877
aVshow_params
p878
aVnan
p879
aVnan
p880
aVnan
p881
aVnan
p882
aVnan
p883
aVnan
p884
aVnan
p885
aVnan
p886
aVnan
p887
aVnan
p888
aVnan
p889
aVnan
p890
aVnan
p891
aVnan
p892
aVnan
p893
aVnan
p894
aVnan
p895
aVnan
p896
aVnan
p897
aVnan
p898
aVnan
p899
aVnan
p900
aVnan
p901
aVnan
p902
aVnan
p903
aVnan
p904
aVnan
p905
aVnan
p906
aVnan
p907
aVnan
p908
aVnan
p909
aVnan
p910
aVnan
p911
aVnan
p912
aVnan
p913
aVnan
p914
aVnan
p915
aVnan
p916
aVnan
p917
aVnan
p918
aVnan
p919
aVnan
p920
aVnan
p921
aVnan
p922
aVnan
p923
aNaNaNaNaNaNaNaNaNaNasg582
g0
(g583
g2
Ntp924
Rp925
(dp926
g587
Nsg628
g867
sg591
I00
sg592
I00
sg593
Nsbsg595
g0
(g596
g597
(g598
g599
tp927
tp928
Rp929
sg589
VParmNames
p930
sbag0
(g438
g2
Ntp931
Rp932
(dp933
g442
I00
sg443
g4
sg444
(lp934
VGene2
p935
aVTrue
p936
aVFalse
p937
aVFalse
p938
aVTrue
p939
aVTrue
p940
aF0.5
aV0.7
p941
aVTrue
p942
aV
p943
aVnan
p944
aVnan
p945
aVnan
p946
aVnan
p947
aVnan
p948
aVnan
p949
aVnan
p950
aVnan
p951
aVnan
p952
aVnan
p953
aVnan
p954
aVnan
p955
aVnan
p956
aVnan
p957
aVnan
p958
aVnan
p959
aVnan
p960
aVnan
p961
aVnan
p962
aVnan
p963
aVnan
p964
aVnan
p965
aVnan
p966
aVnan
p967
aVnan
p968
aVnan
p969
aVnan
p970
aVnan
p971
aVnan
p972
aVnan
p973
aVnan
p974
aVnan
p975
aVnan
p976
aVnan
p977
aVnan
p978
aVnan
p979
aVnan
p980
aVnan
p981
aVnan
p982
aVnan
p983
aVnan
p984
aVnan
p985
aVnan
p986
aVnan
p987
aNaNaNaNaNaNaNaNaNaNasg582
g0
(g583
g2
Ntp988
Rp989
(dp990
g587
Nsg589
VParmValues
p991
sg591
I00
sg592
I00
sg593
Nsbsg595
g0
(g596
g597
(g598
g599
tp992
tp993
Rp994
sg589
g991
sbag768
ag746
ag718
ag757
ag738
ag730
ag440
ag604
ag634
ag663
ag694
ag707
ag0
(g438
g2
Ntp995
Rp996
(dp997
g442
I00
sg443
g4
sg444
(lp998
(lp999
g456
ag460
aa(lp1000
g480
ag483
aa(lp1001
g487
ag490
aa(lp1002
g494
ag497
aa(lp1003
g543
ag546
aa(lp1004
g564
ag567
aaNaNaNaNaNaNaNaNaNaNaNaNaNaNaNaNaNaNaNaNaNaNaNaNaNaNaNaNaNaNaNaNaNaNaNaNaNaNaNaNaNaNaNaNaNaNaNaNaNaNaNaNaNaNaNaNaNaNasg582
g0
(g583
g2
Ntp1005
Rp1006
(dp1007
g587
Vdummy = tabularize(s, 'Groups', 1, 'MeanCt', \u000a          new_category_colnm='BioRuns',\u000a          values_colnm_prefix='Gene_')
p1008
sg589
VBioRuns
p1009
sg591
I00
sg592
I00
sg593
Vdummy = tabularize(s, 'Groups', 1, 'MeanCt', \u000a          new_category_colnm='BioRuns',\u000a          values_colnm_prefix='Gene_')
p1010
sbsg595
g0
(g596
g597
(g598
g599
tp1011
tp1012
Rp1013
sg589
g1009
sbag0
(g438
g2
Ntp1014
Rp1015
(dp1016
g442
I00
sg443
g4
sg444
(lp1017
F18.2
aF22.4
aF21.9
aF23.4
aF23.4
aF18.9
aFnan
aFnan
aFnan
aFnan
aFnan
aFnan
aFnan
aFnan
aFnan
aFnan
aFnan
aFnan
aFnan
aFnan
aFnan
aFnan
aFnan
aFnan
aFnan
aFnan
aFnan
aFnan
aFnan
aFnan
aFnan
aFnan
aFnan
aFnan
aFnan
aFnan
aFnan
aFnan
aFnan
aFnan
aFnan
aFnan
aFnan
aFnan
aFnan
aFnan
aFnan
aFnan
aFnan
aFnan
aFnan
aFnan
aFnan
aFnan
aFnan
aFnan
aFnan
aFnan
aFnan
aFnan
aFnan
aFnan
aFnan
aFnan
asg582
g0
(g583
g2
Ntp1018
Rp1019
(dp1020
g587
Nsg628
g1015
sg591
I00
sg592
I00
sg593
Nsbsg595
g0
(g596
g597
(g598
g599
tp1021
tp1022
Rp1023
sg589
S'Gene_I'
p1024
sbag0
(g438
g2
Ntp1025
Rp1026
(dp1027
g442
I00
sg443
g4
sg444
(lp1028
F18.3
aF19.9
aF21.9
aF23.9
aF23.5
aF18.8
aFnan
aFnan
aFnan
aFnan
aFnan
aFnan
aFnan
aFnan
aFnan
aFnan
aFnan
aFnan
aFnan
aFnan
aFnan
aFnan
aFnan
aFnan
aFnan
aFnan
aFnan
aFnan
aFnan
aFnan
aFnan
aFnan
aFnan
aFnan
aFnan
aFnan
aFnan
aFnan
aFnan
aFnan
aFnan
aFnan
aFnan
aFnan
aFnan
aFnan
aFnan
aFnan
aFnan
aFnan
aFnan
aFnan
aFnan
aFnan
aFnan
aFnan
aFnan
aFnan
aFnan
aFnan
aFnan
aFnan
aFnan
aFnan
asg582
g0
(g583
g2
Ntp1029
Rp1030
(dp1031
g587
Nsg628
g1026
sg591
I00
sg592
I00
sg593
Nsbsg595
g1023
sg589
S'Gene_R1'
p1032
sbag0
(g438
g2
Ntp1033
Rp1034
(dp1035
g442
I00
sg443
g4
sg444
(lp1036
F19.8
aF21.9
aF23.6
aF24.5
aF26.3
aF20.4
aFnan
aFnan
aFnan
aFnan
aFnan
aFnan
aFnan
aFnan
aFnan
aFnan
aFnan
aFnan
aFnan
aFnan
aFnan
aFnan
aFnan
aFnan
aFnan
aFnan
aFnan
aFnan
aFnan
aFnan
aFnan
aFnan
aFnan
aFnan
aFnan
aFnan
aFnan
aFnan
aFnan
aFnan
aFnan
aFnan
aFnan
aFnan
aFnan
aFnan
aFnan
aFnan
aFnan
aFnan
aFnan
aFnan
aFnan
aFnan
aFnan
aFnan
aFnan
aFnan
aFnan
aFnan
aFnan
aFnan
aFnan
aFnan
asg582
g0
(g583
g2
Ntp1037
Rp1038
(dp1039
g587
Nsg628
g1034
sg591
I00
sg592
I00
sg593
Nsbsg595
g1023
sg589
S'Gene_R2'
p1040
sbag0
(g438
g2
Ntp1041
Rp1042
(dp1043
g442
I00
sg443
g4
sg444
(lp1044
F1.07177
aF0.17678
aF1.0
aF1.41421
aF1.07177
aF0.93303
aFnan
aFnan
aFnan
aFnan
aFnan
aFnan
aFnan
aFnan
aFnan
aFnan
aFnan
aFnan
aFnan
aFnan
aFnan
aFnan
aFnan
aFnan
aFnan
aFnan
aFnan
aFnan
aFnan
aFnan
aFnan
aFnan
aFnan
aFnan
aFnan
aFnan
aFnan
aFnan
aFnan
aFnan
aFnan
aFnan
aFnan
aFnan
aFnan
aFnan
aFnan
aFnan
aFnan
aFnan
aFnan
aFnan
aFnan
aFnan
aFnan
aFnan
aFnan
aFnan
aFnan
aFnan
aFnan
aFnan
aFnan
aFnan
asg582
g0
(g583
g2
Ntp1045
Rp1046
(dp1047
g587
VExprR1 = roundValues(2**(Gene_R1 - Gene_I),5)
p1048
sg589
VExprR1
p1049
sg591
I01
sg592
I00
sg593
VroundValues(2**(Gene_R1 - Gene_I),5)
p1050
sbsg595
g0
(g596
g597
(g598
g599
tp1051
tp1052
Rp1053
sg589
g1049
sbag0
(g438
g2
Ntp1054
Rp1055
(dp1056
g442
I00
sg443
g4
sg444
(lp1057
F3.03143
aF0.70711
aF3.24901
aF2.14355
aF7.46426
aF2.82843
aFnan
aFnan
aFnan
aFnan
aFnan
aFnan
aFnan
aFnan
aFnan
aFnan
aFnan
aFnan
aFnan
aFnan
aFnan
aFnan
aFnan
aFnan
aFnan
aFnan
aFnan
aFnan
aFnan
aFnan
aFnan
aFnan
aFnan
aFnan
aFnan
aFnan
aFnan
aFnan
aFnan
aFnan
aFnan
aFnan
aFnan
aFnan
aFnan
aFnan
aFnan
aFnan
aFnan
aFnan
aFnan
aFnan
aFnan
aFnan
aFnan
aFnan
aFnan
aFnan
aFnan
aFnan
aFnan
aFnan
aFnan
aFnan
asg582
g0
(g583
g2
Ntp1058
Rp1059
(dp1060
g587
VExprR2 = roundValues(2**(Gene_R2 - Gene_I),5)
p1061
sg589
VExprR2
p1062
sg591
I01
sg592
I00
sg593
VroundValues(2**(Gene_R2 - Gene_I),5)
p1063
sbsg595
g0
(g596
g597
(g598
g599
tp1064
tp1065
Rp1066
sg589
g1062
sbag0
(g438
g2
Ntp1067
Rp1068
(dp1069
g442
I00
sg443
g4
sg444
(lp1070
F1.802
aF0.354
aF1.803
aF1.741
aF2.828
aF1.625
aFnan
aFnan
aFnan
aFnan
aFnan
aFnan
aFnan
aFnan
aFnan
aFnan
aFnan
aFnan
aFnan
aFnan
aFnan
aFnan
aFnan
aFnan
aFnan
aFnan
aFnan
aFnan
aFnan
aFnan
aFnan
aFnan
aFnan
aFnan
aFnan
aFnan
aFnan
aFnan
aFnan
aFnan
aFnan
aFnan
aFnan
aFnan
aFnan
aFnan
aFnan
aFnan
aFnan
aFnan
aFnan
aFnan
aFnan
aFnan
aFnan
aFnan
aFnan
aFnan
aFnan
aFnan
aFnan
aFnan
aFnan
aFnan
asg582
g0
(g583
g2
Ntp1071
Rp1072
(dp1073
g587
VGeoMean = roundValues(np.sqrt(ExprR1*ExprR2), 3)
p1074
sg589
VGeoMean
p1075
sg591
I01
sg592
I00
sg593
VroundValues(np.sqrt(ExprR1*ExprR2), 3)
p1076
sbsg595
g0
(g596
g597
(g598
g599
tp1077
tp1078
Rp1079
sg589
g1075
sbag0
(g438
g2
Ntp1080
Rp1081
(dp1082
g442
I00
sg443
g4
sg444
(lp1083
(lp1084
g447
(g448
(S'U3'
p1085
I0
I1
tp1086
Rp1087
(I3
S'<'
p1088
NNNI12
I4
I8
tp1089
bS'0\x00\x00\x00.\x00\x00\x000\x00\x00\x00'
p1090
tp1091
Rp1092
aa(lp1093
g447
(g448
(S'U3'
p1094
I0
I1
tp1095
Rp1096
(I3
S'<'
p1097
NNNI12
I4
I8
tp1098
bS'1\x00\x00\x00.\x00\x00\x000\x00\x00\x00'
p1099
tp1100
Rp1101
aa(lp1102
g447
(g448
(S'U3'
p1103
I0
I1
tp1104
Rp1105
(I3
S'<'
p1106
NNNI12
I4
I8
tp1107
bS'2\x00\x00\x00.\x00\x00\x000\x00\x00\x00'
p1108
tp1109
Rp1110
aa(lp1111
g447
(g448
(S'U3'
p1112
I0
I1
tp1113
Rp1114
(I3
S'<'
p1115
NNNI12
I4
I8
tp1116
bS'3\x00\x00\x00.\x00\x00\x000\x00\x00\x00'
p1117
tp1118
Rp1119
aaNaNaNaNaNaNaNaNaNaNaNaNaNaNaNaNaNaNaNaNaNaNaNaNaNaNaNaNaNaNaNaNaNaNaNaNaNaNaNaNaNaNaNaNaNaNaNaNaNaNaNaNaNaNaNaNaNaNaNaNasg582
g0
(g583
g2
Ntp1120
Rp1121
(dp1122
g587
Vcat_vals = [br[0] for br in pruneNulls(BioRuns)]\u000aclean_geo = [x for x in GeoMean if x is not None]\u000aGeoGroups, groupedGeoMeans = groupBy(cat_vals, clean_geo)\u000aGroupedGeoMeans = roundValues(groupedGeoMeans, 3)\u000aGeoGroups = [[x] for x in GeoGroups]
p1123
sg589
VGeoGroups
p1124
sg591
I00
sg592
I00
sg593
Vcat_vals = [br[0] for br in pruneNulls(BioRuns)]\u000aclean_geo = [x for x in GeoMean if x is not None]\u000aGeoGroups, groupedGeoMeans = groupBy(cat_vals, clean_geo)\u000aGroupedGeoMeans = roundValues(groupedGeoMeans, 3)\u000aGeoGroups = [[x] for x in GeoGroups]
p1125
sbsg595
g0
(g596
g597
(g598
g599
tp1126
tp1127
Rp1128
sg589
g1124
sbag0
(g438
g2
Ntp1129
Rp1130
(dp1131
g442
I00
sg443
g4
sg444
(lp1132
cnumpy.core.multiarray
_reconstruct
p1133
(g598
(I0
tp1134
S'b'
p1135
tp1136
Rp1137
(I1
(I1
tp1138
g448
(S'f8'
p1139
I0
I1
tp1140
Rp1141
(I3
S'<'
p1142
NNNI-1
I-1
I0
tp1143
bI00
S'\xa2E\xb6\xf3\xfd\xd4\xfc?'
p1144
tp1145
bag1133
(g598
(I0
tp1146
g1135
tp1147
Rp1148
(I1
(I3
tp1149
g1141
I00
S'\x0e-\xb2\x9d\xef\xa7\xd6?\x0c\x02+\x87\x16\xd9\xfc?B`\xe5\xd0"\xdb\xfb?'
p1150
tp1151
bag1133
(g598
(I0
tp1152
g1135
tp1153
Rp1154
(I1
(I1
tp1155
g1141
I00
S'9\xb4\xc8v\xbe\x9f\x06@'
p1156
tp1157
bag1133
(g598
(I0
tp1158
g1135
tp1159
Rp1160
(I1
(I1
tp1161
g1141
I00
S'\x00\x00\x00\x00\x00\x00\xfa?'
p1162
tp1163
baNaNaNaNaNaNaNaNaNaNaNaNaNaNaNaNaNaNaNaNaNaNaNaNaNaNaNaNaNaNaNaNaNaNaNaNaNaNaNaNaNaNaNaNaNaNaNaNaNaNaNaNaNaNaNaNaNaNaNaNasg582
g0
(g583
g2
Ntp1164
Rp1165
(dp1166
g587
Nsg628
g1130
sg591
I00
sg592
I00
sg593
Nsbsg595
g0
(g596
g597
(g598
g599
tp1167
tp1168
Rp1169
sg589
VGroupedGeoMeans
p1170
sbag0
(g438
g2
Ntp1171
Rp1172
(dp1173
g442
I00
sg443
g4
sg444
(lp1174
g1133
(g598
(I0
tp1175
g1135
tp1176
Rp1177
(I1
(I1
tp1178
g1141
I00
S'\x00\x00\x00\x00\x00\x00\xf0?'
p1179
tp1180
bag1133
(g598
(I0
tp1181
g1135
tp1182
Rp1183
(I1
(I3
tp1184
g1141
I00
S'J\x0c\x02+\x87\x16\xc9?j\xbct\x93\x18\x04\xf0?\xb6\xf3\xfd\xd4x\xe9\xee?'
p1185
tp1186
bag1133
(g598
(I0
tp1187
g1135
tp1188
Rp1189
(I1
(I1
tp1190
g1141
I00
S'\xb4\xc8v\xbe\x9f\x1a\xf9?'
p1191
tp1192
bag1133
(g598
(I0
tp1193
g1135
tp1194
Rp1195
(I1
(I1
tp1196
g1141
I00
S'w\xbe\x9f\x1a/\xdd\xec?'
p1197
tp1198
baNaNaNaNaNaNaNaNaNaNaNaNaNaNaNaNaNaNaNaNaNaNaNaNaNaNaNaNaNaNaNaNaNaNaNaNaNaNaNaNaNaNaNaNaNaNaNaNaNaNaNaNaNaNaNaNaNaNaNaNasg582
g0
(g583
g2
Ntp1199
Rp1200
(dp1201
g587
Vref = np.mean(GroupedGeoMeans[0])\u000aNrmlGeoGroupedMeans = [ [x/ref for x in g] for g in GroupedGeoMeans if g is not None]  \u000aNrmlGeoGroupedMeans = roundValues(NrmlGeoGroupedMeans, 3)
p1202
sg589
VNrmlGeoGroupedMeans
p1203
sg591
I00
sg592
I00
sg593
Vref = np.mean(GroupedGeoMeans[0])\u000aNrmlGeoGroupedMeans = [ [x/ref for x in g] for g in GroupedGeoMeans if g is not None]  \u000aNrmlGeoGroupedMeans = roundValues(NrmlGeoGroupedMeans, 3)
p1204
sbsg595
g0
(g596
g597
(g598
g599
tp1205
tp1206
Rp1207
sg589
g1203
sbag0
(g438
g2
Ntp1208
Rp1209
(dp1210
g442
I00
sg443
g4
sg444
(lp1211
F1.0
aF0.721
aF1.569
aF0.902
aFnan
aFnan
aFnan
aFnan
aFnan
aFnan
aFnan
aFnan
aFnan
aFnan
aFnan
aFnan
aFnan
aFnan
aFnan
aFnan
aFnan
aFnan
aFnan
aFnan
aFnan
aFnan
aFnan
aFnan
aFnan
aFnan
aFnan
aFnan
aFnan
aFnan
aFnan
aFnan
aFnan
aFnan
aFnan
aFnan
aFnan
aFnan
aFnan
aFnan
aFnan
aFnan
aFnan
aFnan
aFnan
aFnan
aFnan
aFnan
aFnan
aFnan
aFnan
aFnan
aFnan
aFnan
aFnan
aFnan
aFnan
aFnan
aFnan
aFnan
asg582
g0
(g583
g2
Ntp1212
Rp1213
(dp1214
g587
VMeanNrmlGeoGroups = [round(np.mean(g), 3) for g in NrmlGeoGroupedMeans]
p1215
sg589
VMeanNrmlGeoGroups
p1216
sg591
I01
sg592
I00
sg593
V[round(np.mean(g), 3) for g in NrmlGeoGroupedMeans]
p1217
sbsg595
g0
(g596
g597
(g598
g599
tp1218
tp1219
Rp1220
sg589
g1216
sbag0
(g438
g2
Ntp1221
Rp1222
(dp1223
g442
I00
sg443
g4
sg444
(lp1224
F0.263
aFnan
aFnan
aFnan
aFnan
aFnan
aFnan
aFnan
aFnan
aFnan
aFnan
aFnan
aFnan
aFnan
aFnan
aFnan
aFnan
aFnan
aFnan
aFnan
aFnan
aFnan
aFnan
aFnan
aFnan
aFnan
aFnan
aFnan
aFnan
aFnan
aFnan
aFnan
aFnan
aFnan
aFnan
aFnan
aFnan
aFnan
aFnan
aFnan
aFnan
aFnan
aFnan
aFnan
aFnan
aFnan
aFnan
aFnan
aFnan
aFnan
aFnan
aFnan
aFnan
aFnan
aFnan
aFnan
aFnan
aFnan
aFnan
aFnan
aFnan
aFnan
aFnan
aFnan
asg582
g0
(g583
g2
Ntp1225
Rp1226
(dp1227
g587
VStdNrmlGeoGroups = []\u000afor grp in NrmlGeoGroupedMeans:\u000a  if len(grp) > 1:\u000a    val = np.std(grp, ddof=1)/np.sqrt(len(grp))\u000a    val = round(val, 3)\u000a    StdNrmlGeoGroups.append(val)\u000a
p1228
sg589
VStdNrmlGeoGroups
p1229
sg591
I00
sg592
I00
sg593
VStdNrmlGeoGroups = []\u000afor grp in NrmlGeoGroupedMeans:\u000a  if len(grp) > 1:\u000a    val = np.std(grp, ddof=1)/np.sqrt(len(grp))\u000a    val = round(val, 3)\u000a    StdNrmlGeoGroups.append(val)\u000a
p1230
sbsg595
g0
(g596
g597
(g598
g599
tp1231
tp1232
Rp1233
sg589
g1229
sbasg431
V/home/ubuntu/SciSheets/mysite/user/guest/tables/kristen_single_gene.pcl
p1234
sb.