ccopy_reg
_reconstructor
p0
(cscisheets.ui.dt_table
DTTable
p1
c__builtin__
object
p2
Ntp3
Rp4
(dp5
S'_hidden_columns'
p6
(lp7
g0
(cscisheets.core.column
Column
p8
g2
Ntp9
Rp10
(dp11
S'_asis'
p12
I00
sS'_owning_table'
p13
g4
sS'_cells'
p14
(lp15
VSEP1 2012 P17F4 3a
p16
aVSEP1 2012 P17F4 b
p17
aVSEP1 2012 P17F4 c
p18
aVSEP1 2012 P17F5 a
p19
aVSEP1 2012 P17F5 b
p20
aVSEP1 2012 P17F5 c
p21
aVSEP1 2012 P1F3 SEP1a
p22
aVSEP1 2012 P1F3 SEP1b
p23
aVSEP1 2012 P1F3 SEP1c
p24
aVSEP1-2 2012 P11aF2 a
p25
aVSEP1-2 2012 P11aF2 b
p26
aVSEP1-2 2012 P11aF2 c
p27
aVSEP1-3 2012 P15F2 a
p28
aVSEP1-3 2012 P15F2 b
p29
aVSEP1-3 2012 P15F2 c
p30
aVuntreated 2012 P12F1 SEP3-3 1:2a
p31
aVuntreated 2012 P12F1 SEP3-3 1:2b
p32
aVuntreated 2012 P12F1 SEP3-3 1:2c
p33
aVSEP1 2012 P17F4 ACTa
p34
aVSEP1 2012 P17F4 ACTb
p35
aVSEP1 2012 P17F4 ACTc
p36
aVSEP1 2012 P17F5 ACTa
p37
aVSEP1 2012 P17F5 ACTb
p38
aVSEP1 2012 P17F5 ACTc
p39
aVSEP1 2012 P1F3 ACTa
p40
aVSEP1 2012 P1F3 ACTb
p41
aVSEP1 2012 P1F3 ACTc
p42
aVSEP1-2 2012 P11aF2 ACTa
p43
aVSEP1-2 2012 P11aF2 ACTb
p44
aVSEP1-2 2012 P11aF2 ACTc
p45
aVSEP1-3 2012 P15F2 ACTa
p46
aVSEP1-3 2012 P15F2 ACTb
p47
aVSEP1-3 2012 P15F2 ACTc
p48
aVuntreated 2012 P12F1 ACTa
p49
aVuntreated 2012 P12F1 ACTb
p50
aVuntreated 2012 P12F1 ACTc
p51
aVSEP1 2012 P17F4 EEF1a
p52
aVSEP1 2012 P17F4 EEF1b
p53
aVSEP1 2012 P17F4 EEF1c
p54
aVSEP1 2012 P17F5 EEF1a
p55
aVSEP1 2012 P17F5 EEF1b
p56
aVSEP1 2012 P17F5 EEF1c
p57
aVSEP1 2012 P1F3 EEF1a
p58
aVSEP1 2012 P1F3 EEF1b
p59
aVSEP1 2012 P1F3 EEF1c
p60
aVSEP1-2 2012 P11aF2 EEF1a
p61
aVSEP1-2 2012 P11aF2 EEF1b
p62
aVSEP1-2 2012 P11aF2 EEF1c
p63
aVSEP1-3 2012 P15F2 EEF1a
p64
aVSEP1-3 2012 P15F2 EEF1b
p65
aVSEP1-3 2012 P15F2 EEF1c
p66
aVuntreated 2012 P12F1 EEF1a
p67
aVuntreated 2012 P12F1 EEF1b
p68
aVuntreated 2012 P12F1 EEF1c
p69
asS'_formula_statement'
p70
g0
(cscisheets.core.column
FormulaStatement
p71
g2
Ntp72
Rp73
(dp74
S'_statement'
p75
NsS'_column'
p76
g10
sS'_isExpression'
p77
I00
sS'_isStatement'
p78
I00
sS'_formula'
p79
NsbsS'_data_class'
p80
g0
(cscisheets.core.helpers.api_util
DataClass
p81
c__builtin__
tuple
p82
(cnumpy
ndarray
p83
cscisheets.core.helpers.api_util
makeArray
p84
tp85
tp86
Rp87
sS'_name'
p88
S'SmplName'
p89
sbag0
(g8
g2
Ntp90
Rp91
(dp92
g12
I00
sg13
g4
sg14
(lp93
(cnumpy.core.multiarray
scalar
p94
(cnumpy
dtype
p95
(S'i8'
p96
I0
I1
tp97
Rp98
(I3
S'<'
p99
NNNI-1
I-1
I0
tp100
bS'\x00\x00\x00\x00\x00\x00\x00\x00'
p101
tp102
Rp103
g94
(g95
(S'U1'
p104
I0
I1
tp105
Rp106
(I3
S'<'
p107
NNNI4
I4
I8
tp108
bS'I\x00\x00\x00'
p109
tp110
Rp111
g94
(g98
S'\x01\x00\x00\x00\x00\x00\x00\x00'
p112
tp113
Rp114
tp115
a(g94
(g98
S'\x00\x00\x00\x00\x00\x00\x00\x00'
p116
tp117
Rp118
g94
(g95
(S'U2'
p119
I0
I1
tp120
Rp121
(I3
S'<'
p122
NNNI8
I4
I8
tp123
bS'R\x00\x00\x001\x00\x00\x00'
p124
tp125
Rp126
g94
(g98
S'\x01\x00\x00\x00\x00\x00\x00\x00'
p127
tp128
Rp129
tp130
a(g94
(g98
S'\x00\x00\x00\x00\x00\x00\x00\x00'
p131
tp132
Rp133
g94
(g95
(S'U2'
p134
I0
I1
tp135
Rp136
(I3
S'<'
p137
NNNI8
I4
I8
tp138
bS'R\x00\x00\x002\x00\x00\x00'
p139
tp140
Rp141
g94
(g98
S'\x01\x00\x00\x00\x00\x00\x00\x00'
p142
tp143
Rp144
tp145
a(g94
(g98
S'\x01\x00\x00\x00\x00\x00\x00\x00'
p146
tp147
Rp148
g111
g94
(g98
S'\x01\x00\x00\x00\x00\x00\x00\x00'
p149
tp150
Rp151
tp152
a(g94
(g98
S'\x01\x00\x00\x00\x00\x00\x00\x00'
p153
tp154
Rp155
g111
g94
(g98
S'\x02\x00\x00\x00\x00\x00\x00\x00'
p156
tp157
Rp158
tp159
a(g94
(g98
S'\x01\x00\x00\x00\x00\x00\x00\x00'
p160
tp161
Rp162
g111
g94
(g98
S'\x03\x00\x00\x00\x00\x00\x00\x00'
p163
tp164
Rp165
tp166
a(g94
(g98
S'\x01\x00\x00\x00\x00\x00\x00\x00'
p167
tp168
Rp169
g126
g94
(g98
S'\x01\x00\x00\x00\x00\x00\x00\x00'
p170
tp171
Rp172
tp173
a(g94
(g98
S'\x01\x00\x00\x00\x00\x00\x00\x00'
p174
tp175
Rp176
g126
g94
(g98
S'\x02\x00\x00\x00\x00\x00\x00\x00'
p177
tp178
Rp179
tp180
a(g94
(g98
S'\x01\x00\x00\x00\x00\x00\x00\x00'
p181
tp182
Rp183
g126
g94
(g98
S'\x03\x00\x00\x00\x00\x00\x00\x00'
p184
tp185
Rp186
tp187
a(g94
(g98
S'\x01\x00\x00\x00\x00\x00\x00\x00'
p188
tp189
Rp190
g141
g94
(g98
S'\x01\x00\x00\x00\x00\x00\x00\x00'
p191
tp192
Rp193
tp194
a(g94
(g98
S'\x01\x00\x00\x00\x00\x00\x00\x00'
p195
tp196
Rp197
g141
g94
(g98
S'\x02\x00\x00\x00\x00\x00\x00\x00'
p198
tp199
Rp200
tp201
a(g94
(g98
S'\x01\x00\x00\x00\x00\x00\x00\x00'
p202
tp203
Rp204
g141
g94
(g98
S'\x03\x00\x00\x00\x00\x00\x00\x00'
p205
tp206
Rp207
tp208
a(g94
(g98
S'\x02\x00\x00\x00\x00\x00\x00\x00'
p209
tp210
Rp211
g111
g94
(g98
S'\x01\x00\x00\x00\x00\x00\x00\x00'
p212
tp213
Rp214
tp215
a(g94
(g98
S'\x02\x00\x00\x00\x00\x00\x00\x00'
p216
tp217
Rp218
g126
g94
(g98
S'\x01\x00\x00\x00\x00\x00\x00\x00'
p219
tp220
Rp221
tp222
a(g94
(g98
S'\x02\x00\x00\x00\x00\x00\x00\x00'
p223
tp224
Rp225
g141
g94
(g98
S'\x01\x00\x00\x00\x00\x00\x00\x00'
p226
tp227
Rp228
tp229
a(g94
(g98
S'\x03\x00\x00\x00\x00\x00\x00\x00'
p230
tp231
Rp232
g111
g94
(g98
S'\x01\x00\x00\x00\x00\x00\x00\x00'
p233
tp234
Rp235
tp236
a(g94
(g98
S'\x03\x00\x00\x00\x00\x00\x00\x00'
p237
tp238
Rp239
g126
g94
(g98
S'\x01\x00\x00\x00\x00\x00\x00\x00'
p240
tp241
Rp242
tp243
a(g94
(g98
S'\x03\x00\x00\x00\x00\x00\x00\x00'
p244
tp245
Rp246
g141
g94
(g98
S'\x01\x00\x00\x00\x00\x00\x00\x00'
p247
tp248
Rp249
tp250
aNaNaNaNaNaNaNaNaNaNaNaNaNaNaNaNaNaNaNaNaNaNaNaNaNaNaNaNaNaNaNaNaNaNaNaNasg70
g0
(g71
g2
Ntp251
Rp252
(dp253
g75
Vif run:\u000a  sel = Eff > min_eff\u000a  grouping_columns =   [\u000a      Treatment[sel],\u000a       RunType[sel], \u000a      BRpl[sel],      \u000a    ]\u000a  Groups, groupedCt = groupBy(\u000a    grouping_columns, Ct[sel])\u000a  Groups, groupedEff = groupBy(\u000a    grouping_columns, Eff[sel])\u000a  GroupedCt = roundValues(groupedCt,2)\u000a  GroupedEff = roundValues(groupedEff,2)
p254
sg76
g91
sg77
I00
sg78
I00
sg79
Vif run:\u000a  sel = Eff > min_eff\u000a  grouping_columns =   [\u000a      Treatment[sel],\u000a       RunType[sel], \u000a      BRpl[sel],      \u000a    ]\u000a  Groups, groupedCt = groupBy(\u000a    grouping_columns, Ct[sel])\u000a  Groups, groupedEff = groupBy(\u000a    grouping_columns, Eff[sel])\u000a  GroupedCt = roundValues(groupedCt,2)\u000a  GroupedEff = roundValues(groupedEff,2)
p255
sbsg80
g0
(g81
g82
(g83
g84
tp256
tp257
Rp258
sg88
VGroups
p259
sbag0
(g8
g2
Ntp260
Rp261
(dp262
g12
I00
sg13
g4
sg14
(lp263
(lp264
F0.84
aF0.89
aF0.9
aa(lp265
F0.83
aF0.83
aF0.85
aa(lp266
F0.82
aF0.85
aF0.82
aa(lp267
F0.94
aF0.83
aF0.84
aa(lp268
F0.8
aF0.84
aF0.79
aa(lp269
F0.83
aF0.8
aF0.83
aa(lp270
F0.92
aF0.98
aF0.9
aa(lp271
F0.9
aF0.83
aF0.84
aa(lp272
F0.87
aF0.85
aF0.83
aa(lp273
F0.79
aF0.84
aF0.86
aa(lp274
F0.83
aF0.82
aF0.83
aa(lp275
F0.81
aF0.82
aF0.8
aa(lp276
F0.84
aF0.8
aF0.81
aa(lp277
F0.77
aF0.87
aF0.81
aa(lp278
F0.78
aF0.77
aF0.79
aa(lp279
F0.85
aF0.85
aF0.84
aa(lp280
F0.87
aF0.9
aF0.86
aa(lp281
F0.82
aF0.82
aF0.79
aaNaNaNaNaNaNaNaNaNaNaNaNaNaNaNaNaNaNaNaNaNaNaNaNaNaNaNaNaNaNaNaNaNaNaNaNasg70
g0
(g71
g2
Ntp282
Rp283
(dp284
g75
Nsg76
g261
sg77
I00
sg78
I00
sg79
Nsbsg80
g0
(g81
g82
(g83
g84
tp285
tp286
Rp287
sg88
VGroupedEff
p288
sbag0
(g8
g2
Ntp289
Rp290
(dp291
g12
I00
sg13
g4
sg14
(lp292
(lp293
F23.0
aF22.86
aF22.8
aa(lp294
F18.24
aF18.22
aF18.36
aa(lp295
F19.72
aF19.75
aF20.01
aa(lp296
F26.68
aF27.13
aF27.21
aa(lp297
F26.76
aF26.71
aF26.19
aa(lp298
F29.98
aF30.12
aF29.41
aa(lp299
F19.92
aF19.85
aF20.0
aa(lp300
F21.86
aF22.09
aF21.84
aa(lp301
F23.89
aF23.54
aF24.27
aa(lp302
F22.18
aF21.71
aF21.75
aa(lp303
F23.88
aF23.42
aF23.63
aa(lp304
F24.59
aF24.61
aF24.34
aa(lp305
F29.95
aF30.45
aF29.88
aa(lp306
F23.22
aF23.8
aF23.49
aa(lp307
F26.37
aF26.36
aF26.17
aa(lp308
F24.8
aF24.97
aF24.63
aa(lp309
F18.91
aF18.78
aF18.8
aa(lp310
F20.5
aF20.47
aF20.28
aaNaNaNaNaNaNaNaNaNaNaNaNaNaNaNaNaNaNaNaNaNaNaNaNaNaNaNaNaNaNaNaNaNaNaNaNasg70
g0
(g71
g2
Ntp311
Rp312
(dp313
g75
Nsg76
g290
sg77
I00
sg78
I00
sg79
Nsbsg80
g0
(g81
g82
(g83
g84
tp314
tp315
Rp316
sg88
VGroupedCt
p317
sbag0
(g8
g2
Ntp318
Rp319
(dp320
g12
I00
sg13
g4
sg14
(lp321
(lp322
F23.0
aF22.9
aF22.8
aa(lp323
F18.2
aF18.2
aF18.4
aa(lp324
F19.7
aF19.8
aF20.0
aa(lp325
F26.7
aF27.1
aF27.2
aa(lp326
F26.8
aF26.7
aF26.2
aa(lp327
F30.0
aF30.1
aF29.4
aa(lp328
F19.9
aF19.9
aF20.0
aa(lp329
F21.9
aF22.1
aF21.8
aa(lp330
F23.9
aF23.5
aF24.3
aa(lp331
F22.2
aF21.7
aF21.8
aa(lp332
F23.9
aF23.4
aF23.6
aa(lp333
F24.6
aF24.6
aF24.3
aa(lp334
F29.9
aF30.4
aF29.9
aa(lp335
F23.2
aF23.8
aF23.5
aa(lp336
F26.4
aF26.4
aF26.2
aa(lp337
F24.8
aF25.0
aF24.6
aa(lp338
F18.9
aF18.8
aF18.8
aa(lp339
F20.5
aF20.5
aF20.3
aaNaNaNaNaNaNaNaNaNaNaNaNaNaNaNaNaNaNaNaNaNaNaNaNaNaNaNaNaNaNaNaNaNaNaNaNasg70
g0
(g71
g2
Ntp340
Rp341
(dp342
g75
Vif run:\u000a  StdFilteredGroupedCt = roundValues([filterExtremes(g, max_std, 2) for g in pruneNulls(GroupedCt)])
p343
sg76
g319
sg77
I00
sg78
I00
sg79
Vif run:\u000a  StdFilteredGroupedCt = roundValues([filterExtremes(g, max_std, 2) for g in pruneNulls(GroupedCt)])
p344
sbsg80
g0
(g81
g82
(g83
g84
tp345
tp346
Rp347
sg88
VStdFilteredGroupedCt
p348
sbag0
(g8
g2
Ntp349
Rp350
(dp351
g12
I00
sg13
g4
sg14
(lp352
F22.9
aF18.3
aF19.8
aF27.0
aF26.6
aF29.8
aF19.9
aF21.9
aF23.9
aF21.9
aF23.6
aF24.5
aF30.1
aF23.5
aF26.3
aF24.8
aF18.8
aF20.4
aFnan
aFnan
aFnan
aFnan
aFnan
aFnan
aFnan
aFnan
aFnan
aFnan
aFnan
aFnan
aFnan
aFnan
aFnan
aFnan
aFnan
aFnan
aFnan
aFnan
aFnan
aFnan
aFnan
aFnan
aFnan
aFnan
aFnan
aFnan
aFnan
aFnan
aFnan
aFnan
aFnan
aFnan
aFnan
aFnan
asg70
g0
(g71
g2
Ntp353
Rp354
(dp355
g75
Vif run:\u000a  MeanCt = [np.mean(g) for g in StdFilteredGroupedCt]\u000a  MeanCt = roundValues(MeanCt,1)\u000a  StdCt = [np.std(g, ddof=1) for g in StdFilteredGroupedCt]\u000a  StdCt = roundValues(StdCt,3)\u000as.setColumnVisibility(['Groups', 'GroupedEff', 'GroupedCt', 'StdFilteredGroupedCt', 'MeanCt', 'StdCt'], is_visible=show_block1)
p356
sg76
g350
sg77
I00
sg78
I00
sg79
Vif run:\u000a  MeanCt = [np.mean(g) for g in StdFilteredGroupedCt]\u000a  MeanCt = roundValues(MeanCt,1)\u000a  StdCt = [np.std(g, ddof=1) for g in StdFilteredGroupedCt]\u000a  StdCt = roundValues(StdCt,3)\u000as.setColumnVisibility(['Groups', 'GroupedEff', 'GroupedCt', 'StdFilteredGroupedCt', 'MeanCt', 'StdCt'], is_visible=show_block1)
p357
sbsg80
g0
(g81
g82
(g83
g84
tp358
tp359
Rp360
sg88
VMeanCt
p361
sbag0
(g8
g2
Ntp362
Rp363
(dp364
g12
I00
sg13
g4
sg14
(lp365
F0.1
aF0.115
aF0.153
aF0.265
aF0.321
aF0.379
aF0.058
aF0.153
aF0.4
aF0.265
aF0.252
aF0.173
aF0.289
aF0.3
aF0.115
aF0.2
aF0.058
aF0.115
aFnan
aFnan
aFnan
aFnan
aFnan
aFnan
aFnan
aFnan
aFnan
aFnan
aFnan
aFnan
aFnan
aFnan
aFnan
aFnan
aFnan
aFnan
aFnan
aFnan
aFnan
aFnan
aFnan
aFnan
aFnan
aFnan
aFnan
aFnan
aFnan
aFnan
aFnan
aFnan
aFnan
aFnan
aFnan
aFnan
asg70
g0
(g71
g2
Ntp366
Rp367
(dp368
g75
Nsg76
g363
sg77
I00
sg78
I00
sg79
Nsbsg80
g0
(g81
g82
(g83
g84
tp369
tp370
Rp371
sg88
VStdCt
p372
sbag0
(g8
g2
Ntp373
Rp374
(dp375
g12
I00
sg13
g4
sg14
(lp376
(lp377
g94
(g98
S'\x00\x00\x00\x00\x00\x00\x00\x00'
p378
tp379
Rp380
ag94
(g98
S'\x01\x00\x00\x00\x00\x00\x00\x00'
p381
tp382
Rp383
aa(lp384
g94
(g98
S'\x01\x00\x00\x00\x00\x00\x00\x00'
p385
tp386
Rp387
ag94
(g98
S'\x01\x00\x00\x00\x00\x00\x00\x00'
p388
tp389
Rp390
aa(lp391
g94
(g98
S'\x01\x00\x00\x00\x00\x00\x00\x00'
p392
tp393
Rp394
ag94
(g98
S'\x02\x00\x00\x00\x00\x00\x00\x00'
p395
tp396
Rp397
aa(lp398
g94
(g98
S'\x01\x00\x00\x00\x00\x00\x00\x00'
p399
tp400
Rp401
ag94
(g98
S'\x03\x00\x00\x00\x00\x00\x00\x00'
p402
tp403
Rp404
aa(lp405
g94
(g98
S'\x02\x00\x00\x00\x00\x00\x00\x00'
p406
tp407
Rp408
ag94
(g98
S'\x01\x00\x00\x00\x00\x00\x00\x00'
p409
tp410
Rp411
aa(lp412
g94
(g98
S'\x03\x00\x00\x00\x00\x00\x00\x00'
p413
tp414
Rp415
ag94
(g98
S'\x01\x00\x00\x00\x00\x00\x00\x00'
p416
tp417
Rp418
aaNaNaNaNaNaNaNaNaNaNaNaNaNaNaNaNaNaNaNaNaNaNaNaNaNaNaNaNaNaNaNaNaNaNaNaNaNaNaNaNaNaNaNaNaNaNaNaNasg70
g0
(g71
g2
Ntp419
Rp420
(dp421
g75
Vif run:\u000a  tabularize(s, 'Groups', 1, 'MeanCt', \u000a      new_category_colnm='BioRuns',\u000a      values_colnm_prefix='Gene_')\u000a  BioRuns = s.getColumnValues('BioRuns')\u000a  Gene_I = s.getColumnValues('Gene_I')\u000a  Gene_R1 = s.getColumnValues('Gene_R1')\u000a  Gene_R2 = s.getColumnValues('Gene_R2')\u000a 
p422
sg76
g374
sg77
I00
sg78
I00
sg79
Vif run:\u000a  tabularize(s, 'Groups', 1, 'MeanCt', \u000a      new_category_colnm='BioRuns',\u000a      values_colnm_prefix='Gene_')\u000a  BioRuns = s.getColumnValues('BioRuns')\u000a  Gene_I = s.getColumnValues('Gene_I')\u000a  Gene_R1 = s.getColumnValues('Gene_R1')\u000a  Gene_R2 = s.getColumnValues('Gene_R2')\u000a 
p423
sbsg80
g0
(g81
g82
(g83
g84
tp424
tp425
Rp426
sg88
VBioRuns
p427
sbag0
(g8
g2
Ntp428
Rp429
(dp430
g12
I00
sg13
g4
sg14
(lp431
F22.9
aF27.0
aF26.6
aF29.8
aF30.1
aF24.8
aFnan
aFnan
aFnan
aFnan
aFnan
aFnan
aFnan
aFnan
aFnan
aFnan
aFnan
aFnan
aFnan
aFnan
aFnan
aFnan
aFnan
aFnan
aFnan
aFnan
aFnan
aFnan
aFnan
aFnan
aFnan
aFnan
aFnan
aFnan
aFnan
aFnan
aFnan
aFnan
aFnan
aFnan
aFnan
aFnan
aFnan
aFnan
aFnan
aFnan
aFnan
aFnan
aFnan
aFnan
aFnan
aFnan
aFnan
aFnan
asg70
g0
(g71
g2
Ntp432
Rp433
(dp434
g75
Nsg76
g429
sg77
I00
sg78
I00
sg79
Nsbsg80
g0
(g81
g82
(g83
g84
tp435
tp436
Rp437
sg88
S'Gene_I'
p438
sbag0
(g8
g2
Ntp439
Rp440
(dp441
g12
I00
sg13
g4
sg14
(lp442
F18.3
aF19.9
aF21.9
aF23.9
aF23.5
aF18.8
aFnan
aFnan
aFnan
aFnan
aFnan
aFnan
aFnan
aFnan
aFnan
aFnan
aFnan
aFnan
aFnan
aFnan
aFnan
aFnan
aFnan
aFnan
aFnan
aFnan
aFnan
aFnan
aFnan
aFnan
aFnan
aFnan
aFnan
aFnan
aFnan
aFnan
aFnan
aFnan
aFnan
aFnan
aFnan
aFnan
aFnan
aFnan
aFnan
aFnan
aFnan
aFnan
aFnan
aFnan
aFnan
aFnan
aFnan
aFnan
asg70
g0
(g71
g2
Ntp443
Rp444
(dp445
g75
Nsg76
g440
sg77
I00
sg78
I00
sg79
Nsbsg80
g437
sg88
S'Gene_R1'
p446
sbag0
(g8
g2
Ntp447
Rp448
(dp449
g12
I00
sg13
g4
sg14
(lp450
F19.8
aF21.9
aF23.6
aF24.5
aF26.3
aF20.4
aFnan
aFnan
aFnan
aFnan
aFnan
aFnan
aFnan
aFnan
aFnan
aFnan
aFnan
aFnan
aFnan
aFnan
aFnan
aFnan
aFnan
aFnan
aFnan
aFnan
aFnan
aFnan
aFnan
aFnan
aFnan
aFnan
aFnan
aFnan
aFnan
aFnan
aFnan
aFnan
aFnan
aFnan
aFnan
aFnan
aFnan
aFnan
aFnan
aFnan
aFnan
aFnan
aFnan
aFnan
aFnan
aFnan
aFnan
aFnan
asg70
g0
(g71
g2
Ntp451
Rp452
(dp453
g75
Nsg76
g448
sg77
I00
sg78
I00
sg79
Nsbsg80
g437
sg88
S'Gene_R2'
p454
sbag0
(g8
g2
Ntp455
Rp456
(dp457
g12
I00
sg13
g4
sg14
(lp458
F0.04123
aF0.00729
aF0.03847
aF0.01675
aF0.01031
aF0.01563
aFnan
aFnan
aFnan
aFnan
aFnan
aFnan
aFnan
aFnan
aFnan
aFnan
aFnan
aFnan
aFnan
aFnan
aFnan
aFnan
aFnan
aFnan
aFnan
aFnan
aFnan
aFnan
aFnan
aFnan
aFnan
aFnan
aFnan
aFnan
aFnan
aFnan
aFnan
aFnan
aFnan
aFnan
aFnan
aFnan
aFnan
aFnan
aFnan
aFnan
aFnan
aFnan
aFnan
aFnan
aFnan
aFnan
aFnan
aFnan
asg70
g0
(g71
g2
Ntp459
Rp460
(dp461
g75
VExprR1 = roundValues(2**(Gene_R1 - Gene_I),5)
p462
sg76
g456
sg77
I01
sg78
I00
sg79
VroundValues(2**(Gene_R1 - Gene_I),5)
p463
sbsg80
g0
(g81
g82
(g83
g84
tp464
tp465
Rp466
sg88
VExprR1
p467
sbag0
(g8
g2
Ntp468
Rp469
(dp470
g12
I00
sg13
g4
sg14
(lp471
F0.11663
aF0.02916
aF0.125
aF0.02538
aF0.07179
aF0.04737
aFnan
aFnan
aFnan
aFnan
aFnan
aFnan
aFnan
aFnan
aFnan
aFnan
aFnan
aFnan
aFnan
aFnan
aFnan
aFnan
aFnan
aFnan
aFnan
aFnan
aFnan
aFnan
aFnan
aFnan
aFnan
aFnan
aFnan
aFnan
aFnan
aFnan
aFnan
aFnan
aFnan
aFnan
aFnan
aFnan
aFnan
aFnan
aFnan
aFnan
aFnan
aFnan
aFnan
aFnan
aFnan
aFnan
aFnan
aFnan
asg70
g0
(g71
g2
Ntp472
Rp473
(dp474
g75
VExprR2 = roundValues(2**(Gene_R2 - Gene_I),5)
p475
sg76
g469
sg77
I01
sg78
I00
sg79
VroundValues(2**(Gene_R2 - Gene_I),5)
p476
sbsg80
g0
(g81
g82
(g83
g84
tp477
tp478
Rp479
sg88
VExprR2
p480
sbag0
(g8
g2
Ntp481
Rp482
(dp483
g12
I00
sg13
g4
sg14
(lp484
F0.069
aF0.015
aF0.069
aF0.021
aF0.027
aF0.027
aFnan
aFnan
aFnan
aFnan
aFnan
aFnan
aFnan
aFnan
aFnan
aFnan
aFnan
aFnan
aFnan
aFnan
aFnan
aFnan
aFnan
aFnan
aFnan
aFnan
aFnan
aFnan
aFnan
aFnan
aFnan
aFnan
aFnan
aFnan
aFnan
aFnan
aFnan
aFnan
aFnan
aFnan
aFnan
aFnan
aFnan
aFnan
aFnan
aFnan
aFnan
aFnan
aFnan
aFnan
aFnan
aFnan
aFnan
aFnan
asg70
g0
(g71
g2
Ntp485
Rp486
(dp487
g75
Vif run:\u000a  GeoMean = roundValues(np.sqrt(ExprR1*ExprR2), 3)\u000as.setColumnVisibility(['BioRuns', 'Gene_I', 'Gene_R1', 'Gene_R2', 'ExprR1', 'ExprR2', 'GeoMean'], is_visible=show_block2)
p488
sg76
g482
sg77
I00
sg78
I00
sg79
Vif run:\u000a  GeoMean = roundValues(np.sqrt(ExprR1*ExprR2), 3)\u000as.setColumnVisibility(['BioRuns', 'Gene_I', 'Gene_R1', 'Gene_R2', 'ExprR1', 'ExprR2', 'GeoMean'], is_visible=show_block2)
p489
sbsg80
g0
(g81
g82
(g83
g84
tp490
tp491
Rp492
sg88
VGeoMean
p493
sbag0
(g8
g2
Ntp494
Rp495
(dp496
g12
I00
sg13
g4
sg14
(lp497
F0.0
aF1.0
aF2.0
aF3.0
aFnan
aFnan
aFnan
aFnan
aFnan
aFnan
aFnan
aFnan
aFnan
aFnan
aFnan
aFnan
aFnan
aFnan
aFnan
aFnan
aFnan
aFnan
aFnan
aFnan
aFnan
aFnan
aFnan
aFnan
aFnan
aFnan
aFnan
aFnan
aFnan
aFnan
aFnan
aFnan
aFnan
aFnan
aFnan
aFnan
aFnan
aFnan
aFnan
aFnan
aFnan
aFnan
aFnan
aFnan
aFnan
aFnan
aFnan
aFnan
aFnan
aFnan
asg70
g0
(g71
g2
Ntp498
Rp499
(dp500
g75
Vif run:\u000a  cat_vals = [br[0] for br in pruneNulls(BioRuns)]\u000a  clean_geo = pruneNulls(GeoMean)\u000a  GeoGroups, groupedGeoMeans = groupBy(cat_vals, clean_geo)\u000a  GroupedGeoMeans = roundValues(groupedGeoMeans, 3)
p501
sg76
g495
sg77
I00
sg78
I00
sg79
Vif run:\u000a  cat_vals = [br[0] for br in pruneNulls(BioRuns)]\u000a  clean_geo = pruneNulls(GeoMean)\u000a  GeoGroups, groupedGeoMeans = groupBy(cat_vals, clean_geo)\u000a  GroupedGeoMeans = roundValues(groupedGeoMeans, 3)
p502
sbsg80
g0
(g81
g82
(g83
g84
tp503
tp504
Rp505
sg88
VGeoGroups
p506
sbag0
(g8
g2
Ntp507
Rp508
(dp509
g12
I00
sg13
g4
sg14
(lp510
cnumpy.core.multiarray
_reconstruct
p511
(g83
(I0
tp512
S'b'
p513
tp514
Rp515
(I1
(I1
tp516
g95
(S'f8'
p517
I0
I1
tp518
Rp519
(I3
S'<'
p520
NNNI-1
I-1
I0
tp521
bI00
S'D\x8bl\xe7\xfb\xa9\xb1?'
p522
tp523
bag511
(g83
(I0
tp524
g513
tp525
Rp526
(I1
(I3
tp527
g519
I00
S'\xb8\x1e\x85\xebQ\xb8\x8e?D\x8bl\xe7\xfb\xa9\xb1?\x1b/\xdd$\x06\x81\x95?'
p528
tp529
bag511
(g83
(I0
tp530
g513
tp531
Rp532
(I1
(I1
tp533
g519
I00
S'\xd9\xce\xf7S\xe3\xa5\x9b?'
p534
tp535
bag511
(g83
(I0
tp536
g513
tp537
Rp538
(I1
(I1
tp539
g519
I00
S'\xd9\xce\xf7S\xe3\xa5\x9b?'
p540
tp541
baNaNaNaNaNaNaNaNaNaNaNaNaNaNaNaNaNaNaNaNaNaNaNaNaNaNaNaNaNaNaNaNaNaNaNaNaNaNaNaNaNaNaNaNaNaNaNaNaNaNasg70
g0
(g71
g2
Ntp542
Rp543
(dp544
g75
Nsg76
g508
sg77
I00
sg78
I00
sg79
Nsbsg80
g0
(g81
g82
(g83
g84
tp545
tp546
Rp547
sg88
VGroupedGeoMeans
p548
sbag0
(g8
g2
Ntp549
Rp550
(dp551
g12
I00
sg13
g4
sg14
(lp552
g511
(g83
(I0
tp553
g513
tp554
Rp555
(I1
(I1
tp556
g519
I00
S'\x00\x00\x00\x00\x00\x00\xf0?'
p557
tp558
bag511
(g83
(I0
tp559
g513
tp560
Rp561
(I1
(I3
tp562
g519
I00
S'-\xb2\x9d\xef\xa7\xc6\xcb?\x00\x00\x00\x00\x00\x00\xf0?\xdb\xf9~j\xbct\xd3?'
p563
tp564
bag511
(g83
(I0
tp565
g513
tp566
Rp567
(I1
(I1
tp568
g519
I00
S'\xa0\x1a/\xdd$\x06\xd9?'
p569
tp570
bag511
(g83
(I0
tp571
g513
tp572
Rp573
(I1
(I1
tp574
g519
I00
S'\xa0\x1a/\xdd$\x06\xd9?'
p575
tp576
baNaNaNaNaNaNaNaNaNaNaNaNaNaNaNaNaNaNaNaNaNaNaNaNaNaNaNaNaNaNaNaNaNaNaNaNaNaNaNaNaNaNaNaNaNaNaNaNaNaNasg70
g0
(g71
g2
Ntp577
Rp578
(dp579
g75
Vif run:\u000a  ref = np.mean(GroupedGeoMeans[0])\u000a  NrmlGeoGroupedMeans = []\u000a  truncated_group = [g for g in GroupedGeoMeans if g is not None]\u000a  for g in truncated_group:\u000a    new_g = [x/ref for x in g]\u000a    NrmlGeoGroupedMeans.append(new_g)\u000a  NrmlGeoGroupedMeans = roundValues(NrmlGeoGroupedMeans, 3)
p580
sg76
g550
sg77
I00
sg78
I00
sg79
Vif run:\u000a  ref = np.mean(GroupedGeoMeans[0])\u000a  NrmlGeoGroupedMeans = []\u000a  truncated_group = [g for g in GroupedGeoMeans if g is not None]\u000a  for g in truncated_group:\u000a    new_g = [x/ref for x in g]\u000a    NrmlGeoGroupedMeans.append(new_g)\u000a  NrmlGeoGroupedMeans = roundValues(NrmlGeoGroupedMeans, 3)
p581
sbsg80
g0
(g81
g82
(g83
g84
tp582
tp583
Rp584
sg88
VNrmlGeoGroupedMeans
p585
sbag0
(g8
g2
Ntp586
Rp587
(dp588
g12
I00
sg13
g4
sg14
(lp589
F1.0
aF0.507
aF0.391
aF0.391
aFnan
aFnan
aFnan
aFnan
aFnan
aFnan
aFnan
aFnan
aFnan
aFnan
aFnan
aFnan
aFnan
aFnan
aFnan
aFnan
aFnan
aFnan
aFnan
aFnan
aFnan
aFnan
aFnan
aFnan
aFnan
aFnan
aFnan
aFnan
aFnan
aFnan
aFnan
aFnan
aFnan
aFnan
aFnan
aFnan
aFnan
aFnan
aFnan
aFnan
aFnan
aFnan
aFnan
aFnan
aFnan
aFnan
aFnan
aFnan
aFnan
aFnan
asg70
g0
(g71
g2
Ntp590
Rp591
(dp592
g75
Vif run:\u000a  MeanNrmlGeoGroups = [round(np.mean(g), 3) for g in NrmlGeoGroupedMeans]
p593
sg76
g587
sg77
I00
sg78
I00
sg79
Vif run:\u000a  MeanNrmlGeoGroups = [round(np.mean(g), 3) for g in NrmlGeoGroupedMeans]
p594
sbsg80
g0
(g81
g82
(g83
g84
tp595
tp596
Rp597
sg88
VMeanNrmlGeoGroups
p598
sbag0
(g8
g2
Ntp599
Rp600
(dp601
g12
I00
sg13
g4
sg14
(lp602
Fnan
aF0.429
aFnan
aFnan
aFnan
aFnan
aFnan
aFnan
aFnan
aFnan
aFnan
aFnan
aFnan
aFnan
aFnan
aFnan
aFnan
aFnan
aFnan
aFnan
aFnan
aFnan
aFnan
aFnan
aFnan
aFnan
aFnan
aFnan
aFnan
aFnan
aFnan
aFnan
aFnan
aFnan
aFnan
aFnan
aFnan
aFnan
aFnan
aFnan
aFnan
aFnan
aFnan
aFnan
aFnan
aFnan
aFnan
aFnan
aFnan
aFnan
aFnan
aFnan
aFnan
aFnan
asg70
g0
(g71
g2
Ntp603
Rp604
(dp605
g75
Vif run:\u000a  StdNrmlGeoGroups = [round(np.std(g, ddof=1), 3) for g in NrmlGeoGroupedMeans]\u000as.setColumnVisibility(['GeoGroups', 'GroupedGeoMeans', 'NrmlGeoGroupedMeans', 'MeanNrmlGeoGroups', 'StdNrmlGeoGroups'], is_visible=show_block3)
p606
sg76
g600
sg77
I00
sg78
I00
sg79
Vif run:\u000a  StdNrmlGeoGroups = [round(np.std(g, ddof=1), 3) for g in NrmlGeoGroupedMeans]\u000as.setColumnVisibility(['GeoGroups', 'GroupedGeoMeans', 'NrmlGeoGroupedMeans', 'MeanNrmlGeoGroups', 'StdNrmlGeoGroups'], is_visible=show_block3)
p607
sbsg80
g0
(g81
g82
(g83
g84
tp608
tp609
Rp610
sg88
VStdNrmlGeoGroups
p611
sbasS'_columns'
p612
(lp613
g0
(g8
g2
Ntp614
Rp615
(dp616
g12
I01
sg13
g4
sg14
(lp617
S'1'
p618
aS'2'
p619
aS'3'
p620
aS'4'
p621
aS'5'
p622
aS'6'
p623
aS'7'
p624
aS'8'
p625
aS'9'
p626
aS'10'
p627
aS'11'
p628
aS'12'
p629
aS'13'
p630
aS'14'
p631
aS'15'
p632
aS'16'
p633
aS'17'
p634
aS'18'
p635
aS'19'
p636
aS'20'
p637
aS'21'
p638
aS'22'
p639
aS'23'
p640
aS'24'
p641
aS'25'
p642
aS'26'
p643
aS'27'
p644
aS'28'
p645
aS'29'
p646
aS'30'
p647
aS'31'
p648
aS'32'
p649
aS'33'
p650
aS'34'
p651
aS'35'
p652
aS'36'
p653
aS'37'
p654
aS'38'
p655
aS'39'
p656
aS'40'
p657
aS'41'
p658
aS'42'
p659
aS'43'
p660
aS'44'
p661
aS'45'
p662
aS'46'
p663
aS'47'
p664
aS'48'
p665
aS'49'
p666
aS'50'
p667
aS'51'
p668
aS'52'
p669
aS'53'
p670
aS'54'
p671
asg70
g0
(g71
g2
Ntp672
Rp673
(dp674
g75
Nsg76
g615
sg77
I00
sg78
I00
sg79
Nsbsg80
g0
(g81
g82
(g83
g84
tp675
tp676
Rp677
sg88
S'row'
p678
sbag0
(g8
g2
Ntp679
Rp680
(dp681
g12
I00
sg13
g4
sg14
(lp682
Vgene
p683
aVrun
p684
aVshow_raw
p685
aVshow_block1
p686
aVshow_block2
p687
aVshow_block3
p688
aVmax_std
p689
aVmin_eff
p690
aVnan
p691
aVnan
p692
aVnan
p693
aVnan
p694
aVnan
p695
aVnan
p696
aVnan
p697
aVnan
p698
aVnan
p699
aVnan
p700
aVnan
p701
aVnan
p702
aVnan
p703
aVnan
p704
aVnan
p705
aVnan
p706
aVnan
p707
aVnan
p708
aVnan
p709
aVnan
p710
aVnan
p711
aVnan
p712
aVnan
p713
aVnan
p714
aVnan
p715
aVnan
p716
aVnan
p717
aVnan
p718
aVnan
p719
aVnan
p720
aVnan
p721
aVnan
p722
aVnan
p723
aVnan
p724
aVnan
p725
aVnan
p726
aVnan
p727
aVnan
p728
aVnan
p729
aVnan
p730
aVnan
p731
aVnan
p732
aVnan
p733
aVnan
p734
aVnan
p735
aVnan
p736
asg70
g0
(g71
g2
Ntp737
Rp738
(dp739
g75
Nsg76
g680
sg77
I00
sg78
I00
sg79
Nsbsg80
g0
(g81
g82
(g83
g84
tp740
tp741
Rp742
sg88
VParmNames
p743
sbag0
(g8
g2
Ntp744
Rp745
(dp746
g12
I00
sg13
g4
sg14
(lp747
VGene1
p748
aVTrue
p749
aVTrue
p750
aVFalse
p751
aVFalse
p752
aVFalse
p753
aV0.5
p754
aV0.7
p755
aVnan
p756
aVnan
p757
aVnan
p758
aVnan
p759
aVnan
p760
aVnan
p761
aVnan
p762
aVnan
p763
aVnan
p764
aVnan
p765
aVnan
p766
aVnan
p767
aVnan
p768
aVnan
p769
aVnan
p770
aVnan
p771
aVnan
p772
aVnan
p773
aVnan
p774
aVnan
p775
aVnan
p776
aVnan
p777
aVnan
p778
aVnan
p779
aVnan
p780
aVnan
p781
aVnan
p782
aVnan
p783
aVnan
p784
aVnan
p785
aVnan
p786
aVnan
p787
aVnan
p788
aVnan
p789
aVnan
p790
aVnan
p791
aVnan
p792
aVnan
p793
aVnan
p794
aVnan
p795
aVnan
p796
aVnan
p797
aVnan
p798
aVnan
p799
aVnan
p800
aVnan
p801
asg70
g0
(g71
g2
Ntp802
Rp803
(dp804
g75
Vxlsx_path = '/mnt/hgfs/josephhellerstein/home/Technical/SciSheets/CaseStudies/Kristen/workbooks/data.xlsx'\u000as.setColumnVisibility()\u000agene = ParmValues[0]\u000arun = ParmValues[1] == 'True'\u000ashow_raw = ParmValues[2] == 'True'\u000ashow_block1 = ParmValues[3] == 'True'\u000ashow_block2 = ParmValues[4] == 'True'\u000ashow_block3 = ParmValues[5] == 'True'\u000amax_std  = float(ParmValues[6])\u000amin_eff = float(ParmValues[7])\u000aworksheet = gene + "-I"\u000aif False:\u000a  Groups = []\u000a  GroupedCt = []\u000a  GroupedEff = []\u000a  MeanCt = []\u000a  Imp = []\u000a  s.deleteColumn('Ct')\u000a  s.deleteColumn('RunType')\u000a  s.deleteColumn('BRpl')\u000a  s.deleteColumn('TRpl')\u000a  s.deleteColumn('Treatment')\u000a  s.deleteColumn('SmplName')\u000a  s.deleteColumn('Eff')\u000aif run:\u000a  importExcelToTable(s, xlsx_path, worksheet=worksheet)\u000a  BRpl = s.getColumnValues('BRpl')\u000a  Ct = s.getColumnValues('Ct')\u000a  Eff = s.getColumnValues('Eff')\u000a  RunType = s.getColumnValues('RunType')\u000a  TRpl = s.getColumnValues('TRpl')\u000a  Treatment = s.getColumnValues('Treatment')\u000as.setColumnVisibility(['SmplName'], False)\u000as.setColumnVisibility(['BRpl', 'Ct', 'Eff', 'RunType', 'TRpl', 'Treatment'], is_visible=show_raw)
p805
sg76
g745
sg77
I00
sg78
I00
sg79
Vxlsx_path = '/mnt/hgfs/josephhellerstein/home/Technical/SciSheets/CaseStudies/Kristen/workbooks/data.xlsx'\u000as.setColumnVisibility()\u000agene = ParmValues[0]\u000arun = ParmValues[1] == 'True'\u000ashow_raw = ParmValues[2] == 'True'\u000ashow_block1 = ParmValues[3] == 'True'\u000ashow_block2 = ParmValues[4] == 'True'\u000ashow_block3 = ParmValues[5] == 'True'\u000amax_std  = float(ParmValues[6])\u000amin_eff = float(ParmValues[7])\u000aworksheet = gene + "-I"\u000aif False:\u000a  Groups = []\u000a  GroupedCt = []\u000a  GroupedEff = []\u000a  MeanCt = []\u000a  Imp = []\u000a  s.deleteColumn('Ct')\u000a  s.deleteColumn('RunType')\u000a  s.deleteColumn('BRpl')\u000a  s.deleteColumn('TRpl')\u000a  s.deleteColumn('Treatment')\u000a  s.deleteColumn('SmplName')\u000a  s.deleteColumn('Eff')\u000aif run:\u000a  importExcelToTable(s, xlsx_path, worksheet=worksheet)\u000a  BRpl = s.getColumnValues('BRpl')\u000a  Ct = s.getColumnValues('Ct')\u000a  Eff = s.getColumnValues('Eff')\u000a  RunType = s.getColumnValues('RunType')\u000a  TRpl = s.getColumnValues('TRpl')\u000a  Treatment = s.getColumnValues('Treatment')\u000as.setColumnVisibility(['SmplName'], False)\u000as.setColumnVisibility(['BRpl', 'Ct', 'Eff', 'RunType', 'TRpl', 'Treatment'], is_visible=show_raw)
p806
sbsg80
g0
(g81
g82
(g83
g84
tp807
tp808
Rp809
sg88
VParmValues
p810
sbag91
ag261
ag290
ag319
ag350
ag363
ag374
ag429
ag440
ag448
ag456
ag469
ag482
ag495
ag508
ag550
ag587
ag600
ag0
(g8
g2
Ntp811
Rp812
(dp813
g12
I00
sg13
g4
sg14
(lp814
I1
aI1
aI1
aI2
aI2
aI2
aI3
aI3
aI3
aI1
aI1
aI1
aI1
aI1
aI1
aI1
aI1
aI1
aI1
aI1
aI1
aI2
aI2
aI2
aI3
aI3
aI3
aI1
aI1
aI1
aI1
aI1
aI1
aI1
aI1
aI1
aI1
aI1
aI1
aI2
aI2
aI2
aI3
aI3
aI3
aI1
aI1
aI1
aI1
aI1
aI1
aI1
aI1
aI1
asg70
g0
(g71
g2
Ntp815
Rp816
(dp817
g75
Nsg76
g812
sg77
I00
sg78
I00
sg79
Nsbsg80
g87
sg88
S'BRpl'
p818
sbag0
(g8
g2
Ntp819
Rp820
(dp821
g12
I00
sg13
g4
sg14
(lp822
F26.68
aF27.13
aF27.21
aF26.76
aF26.71
aF26.19
aF29.98
aF30.12
aF29.41
aF29.95
aF30.45
aF29.88
aF24.8
aF24.97
aF24.63
aF23.0
aF22.86
aF22.8
aF19.92
aF19.85
aF20.0
aF21.86
aF22.09
aF21.84
aF23.89
aF23.54
aF24.27
aF23.22
aF23.8
aF23.49
aF18.91
aF18.78
aF18.8
aF18.24
aF18.22
aF18.36
aF22.18
aF21.71
aF21.75
aF23.88
aF23.42
aF23.63
aF24.59
aF24.61
aF24.34
aF26.37
aF26.36
aF26.17
aF20.5
aF20.47
aF20.28
aF19.72
aF19.75
aF20.01
asg70
g0
(g71
g2
Ntp823
Rp824
(dp825
g75
Nsg76
g820
sg77
I00
sg78
I00
sg79
Nsbsg80
g87
sg88
S'Ct'
p826
sbag0
(g8
g2
Ntp827
Rp828
(dp829
g12
I00
sg13
g4
sg14
(lp830
F0.9399
aF0.8296
aF0.8361
aF0.8039
aF0.8399
aF0.7935
aF0.8264
aF0.7974
aF0.8252
aF0.8418
aF0.7959
aF0.8071
aF0.8513
aF0.8485
aF0.8401
aF0.8371
aF0.891
aF0.8956
aF0.9179
aF0.9783
aF0.8971
aF0.8957
aF0.8287
aF0.8387
aF0.8746
aF0.8493
aF0.8349
aF0.7701
aF0.8746
aF0.8139
aF0.8715
aF0.8977
aF0.856
aF0.8266
aF0.8343
aF0.8496
aF0.7857
aF0.8427
aF0.8637
aF0.8281
aF0.8203
aF0.8288
aF0.8138
aF0.8242
aF0.804
aF0.7795
aF0.7676
aF0.7947
aF0.8179
aF0.8173
aF0.7894
aF0.8157
aF0.8543
aF0.8208
asg70
g0
(g71
g2
Ntp831
Rp832
(dp833
g75
Nsg76
g828
sg77
I00
sg78
I00
sg79
Nsbsg80
g87
sg88
S'Eff'
p834
sbag0
(g8
g2
Ntp835
Rp836
(dp837
g12
I00
sg13
g4
sg14
(lp838
VI
p839
ag839
ag839
ag839
ag839
ag839
ag839
ag839
ag839
ag839
ag839
ag839
ag839
ag839
ag839
ag839
ag839
ag839
aVR1
p840
aVR1
p841
aVR1
p842
aVR1
p843
aVR1
p844
aVR1
p845
aVR1
p846
aVR1
p847
aVR1
p848
aVR1
p849
aVR1
p850
aVR1
p851
aVR1
p852
aVR1
p853
aVR1
p854
aVR1
p855
aVR1
p856
aVR1
p857
aVR2
p858
aVR2
p859
aVR2
p860
aVR2
p861
aVR2
p862
aVR2
p863
aVR2
p864
aVR2
p865
aVR2
p866
aVR2
p867
aVR2
p868
aVR2
p869
aVR2
p870
aVR2
p871
aVR2
p872
aVR2
p873
aVR2
p874
aVR2
p875
asg70
g0
(g71
g2
Ntp876
Rp877
(dp878
g75
Nsg76
g836
sg77
I00
sg78
I00
sg79
Nsbsg80
g87
sg88
S'RunType'
p879
sbag10
ag0
(g8
g2
Ntp880
Rp881
(dp882
g12
I00
sg13
g4
sg14
(lp883
Va
p884
aVb
p885
aVc
p886
ag884
ag885
ag886
ag884
ag885
ag886
ag884
ag885
ag886
ag884
ag885
ag886
ag884
ag885
ag886
ag884
ag885
ag886
ag884
ag885
ag886
ag884
ag885
ag886
ag884
ag885
ag886
ag884
ag885
ag886
ag884
ag885
ag886
ag884
ag885
ag886
ag884
ag885
ag886
ag884
ag885
ag886
ag884
ag885
ag886
ag884
ag885
ag886
ag884
ag885
ag886
asg70
g0
(g71
g2
Ntp887
Rp888
(dp889
g75
Nsg76
g881
sg77
I00
sg78
I00
sg79
Nsbsg80
g87
sg88
S'TRpl'
p890
sbag0
(g8
g2
Ntp891
Rp892
(dp893
g12
I00
sg13
g4
sg14
(lp894
I1
aI1
aI1
aI1
aI1
aI1
aI1
aI1
aI1
aI2
aI2
aI2
aI3
aI3
aI3
aI0
aI0
aI0
aI1
aI1
aI1
aI1
aI1
aI1
aI1
aI1
aI1
aI2
aI2
aI2
aI3
aI3
aI3
aI0
aI0
aI0
aI1
aI1
aI1
aI1
aI1
aI1
aI1
aI1
aI1
aI2
aI2
aI2
aI3
aI3
aI3
aI0
aI0
aI0
asg70
g0
(g71
g2
Ntp895
Rp896
(dp897
g75
Nsg76
g892
sg77
I00
sg78
I00
sg79
Nsbsg80
g87
sg88
S'Treatment'
p898
sbasS'_filepath'
p899
V/home/ubuntu/SciSheets/mysite/user/guest/tables/kristen_single_gene.pcl
p900
sg88
VSingleGene
p901
sb.