ccopy_reg
_reconstructor
p0
(cscisheets.ui.dt_table
DTTable
p1
c__builtin__
object
p2
Ntp3
Rp4
(dp5
S'_versioned_file'
p6
g0
(cmysite.helpers.versioned_file
VersionedFile
p7
g2
Ntp8
Rp9
(dp10
S'_redo_stack'
p11
g0
(cmysite.helpers.file_stack
FileStack
p12
g2
Ntp13
Rp14
(dp15
S'_dirpath'
p16
S'/home/ubuntu/SciSheets/mysite/user/guest/tables/backup'
p17
sS'_max_depth'
p18
I5
sS'_filename_pfx'
p19
Vkristen_single_gene.r
p20
sbsS'_max_versions'
p21
I5
sS'_undo_stack'
p22
g0
(g12
g2
Ntp23
Rp24
(dp25
g16
g17
sg18
I5
sg19
Vkristen_single_gene.u
p26
sbsS'_checkpoint_history'
p27
(lp28
VCell/Update
p29
aVCell/Update
p30
aVCell/Update
p31
aVCell/Update
p32
aVCell/Update
p33
aVCell/Update
p34
aVCell/Update
p35
aVCell/Update
p36
aVCell/Update
p37
aVCell/Update
p38
aVCell/Update
p39
aVCell/Update
p40
aVColumn/Formula
p41
aVColumn/Formula
p42
aVColumn/Append
p43
aVColumn/Formula
p44
aVColumn/Delete
p45
aVCell/Update
p46
aVColumn/Formula
p47
aVCell/Update
p48
aVCell/Update
p49
aVColumn/Formula
p50
aVColumn/Formula
p51
aVCell/Update
p52
aVColumn/Formula
p53
aVColumn/Formula
p54
aVCell/Update
p55
aVCell/Update
p56
aVCell/Update
p57
aVCell/Update
p58
aVColumn/Formula
p59
aVCell/Update
p60
aVCell/Update
p61
aVCell/Update
p62
aVColumn/Formula
p63
aVCell/Update
p64
aVColumn/Formula
p65
aVColumn/Formula
p66
aVCell/Update
p67
aVCell/Update
p68
aVCell/Update
p69
aVCell/Update
p70
aVCell/Update
p71
aVCell/Update
p72
aVCell/Update
p73
aVCell/Update
p74
aVCell/Update
p75
aVColumn/Formula
p76
aVCell/Update
p77
aVCell/Update
p78
aVCell/Update
p79
aVCell/Update
p80
aVCell/Update
p81
aVCell/Update
p82
aVCell/Update
p83
aVCell/Update
p84
aVCell/Update
p85
aVCell/Update
p86
aVCell/Update
p87
aVCell/Update
p88
aVColumn/Formula
p89
aVColumn/Formula
p90
aVColumn/Formula
p91
aVCell/Update
p92
aVCell/Update
p93
aVCell/Update
p94
aVCell/Update
p95
aVCell/Update
p96
aVColumn/Formula
p97
aVCell/Update
p98
aVCell/Update
p99
aVCell/Update
p100
aVCell/Update
p101
aVCell/Update
p102
aVCell/Update
p103
aVCell/Update
p104
aVColumn/Formula
p105
aVColumn/Formula
p106
aVColumn/Formula
p107
aVCell/Update
p108
aVCell/Update
p109
aVColumn/Formula
p110
aVCell/Update
p111
aVCell/Update
p112
aVCell/Update
p113
aVCell/Update
p114
aVCell/Update
p115
aVCell/Update
p116
aVCell/Update
p117
aVCell/Update
p118
aVColumn/Formula
p119
aVCell/Update
p120
aVColumn/Formula
p121
aVColumn/Formula
p122
aVColumn/Formula
p123
aVCell/Update
p124
aVCell/Update
p125
aVColumn/Formula
p126
aVColumn/Formula
p127
aVColumn/Formula
p128
aVColumn/Formula
p129
aVCell/Update
p130
aVColumn/Formula
p131
aVColumn/Formula
p132
aVColumn/Formula
p133
aVCell/Update
p134
aVCell/Update
p135
aVCell/Update
p136
aVCell/Update
p137
aVCell/Update
p138
aVCell/Update
p139
aVCell/Update
p140
aVCell/Update
p141
aVCell/Update
p142
aVCell/Update
p143
aVColumn/Formula
p144
aVColumn/Formula
p145
aVColumn/Formula
p146
aVColumn/Formula
p147
aVCell/Update
p148
aVCell/Update
p149
aVColumn/Formula
p150
aVCell/Update
p151
aVCell/Update
p152
aVCell/Update
p153
aVCell/Update
p154
aVCell/Update
p155
aVCell/Update
p156
aVCell/Update
p157
aVCell/Update
p158
aVCell/Update
p159
aVCell/Update
p160
aVCell/Update
p161
aVCell/Update
p162
aVCell/Update
p163
aVColumn/Formula
p164
aVColumn/Formula
p165
aVCell/Update
p166
aVCell/Update
p167
aVCell/Update
p168
aVColumn/Formula
p169
aVCell/Update
p170
aVCell/Update
p171
aVCell/Update
p172
aVCell/Update
p173
aVColumn/Formula
p174
aVColumn/Formula
p175
aVColumn/Formula
p176
aVColumn/Formula
p177
aVCell/Update
p178
aVColumn/Formula
p179
aVCell/Update
p180
aVCell/Update
p181
aVCell/Update
p182
aVCell/Update
p183
aVCell/Update
p184
aVCell/Update
p185
aVCell/Update
p186
aVCell/Update
p187
aVCell/Update
p188
aVColumn/Formula
p189
aVCell/Update
p190
aVCell/Update
p191
aVCell/Update
p192
aVCell/Update
p193
aVCell/Update
p194
aVCell/Update
p195
aVCell/Update
p196
aVCell/Update
p197
aVCell/Update
p198
aVCell/Update
p199
aVCell/Update
p200
aVCell/Update
p201
aVCell/Update
p202
aVCell/Update
p203
aVCell/Update
p204
aVCell/Update
p205
aVCell/Update
p206
aVCell/Update
p207
aVCell/Update
p208
aVCell/Update
p209
aVCell/Update
p210
aVCell/Update
p211
aVCell/Update
p212
aVCell/Update
p213
aVCell/Update
p214
aVCell/Update
p215
aVCell/Update
p216
aVCell/Update
p217
aVCell/Update
p218
aVCell/Update
p219
aVCell/Update
p220
aVCell/Update
p221
aVCell/Update
p222
aVCell/Update
p223
aVCell/Update
p224
aVCell/Update
p225
aVCell/Update
p226
aVCell/Update
p227
aVCell/Update
p228
aVCell/Update
p229
aVCell/Update
p230
aVCell/Update
p231
aVCell/Update
p232
aVCell/Update
p233
aVCell/Update
p234
aVCell/Update
p235
aVCell/Update
p236
aVCell/Update
p237
aVCell/Update
p238
aVCell/Update
p239
aVCell/Update
p240
aVCell/Update
p241
aVCell/Update
p242
aVCell/Update
p243
aVCell/Update
p244
aVCell/Update
p245
aVCell/Update
p246
aVCell/Update
p247
aVCell/Update
p248
aVCell/Update
p249
aVCell/Update
p250
aVCell/Update
p251
aVCell/Update
p252
aVCell/Update
p253
aVCell/Update
p254
aVCell/Update
p255
aVCell/Update
p256
aVCell/Update
p257
aVCell/Update
p258
aVCell/Update
p259
aVCell/Update
p260
aVCell/Update
p261
aVCell/Update
p262
aVCell/Update
p263
aVCell/Update
p264
aVCell/Update
p265
aVCell/Update
p266
aVCell/Update
p267
aVCell/Update
p268
aVCell/Update
p269
aVCell/Update
p270
aVCell/Update
p271
aVColumn/Formula
p272
aVColumn/Formula
p273
aVCell/Update
p274
aVCell/Update
p275
aVCell/Update
p276
aVCell/Update
p277
aVColumn/Formula
p278
aVColumn/Formula
p279
aVColumn/Formula
p280
aVCell/Update
p281
aVCell/Update
p282
aVCell/Update
p283
aVCell/Update
p284
aVColumn/Formula
p285
aVColumn/Formula
p286
aVColumn/Formula
p287
aVCell/Update
p288
aVCell/Update
p289
aVColumn/Formula
p290
aVCell/Update
p291
aVCell/Update
p292
aVCell/Update
p293
aVCell/Update
p294
aVCell/Update
p295
aVCell/Update
p296
aVColumn/Formula
p297
aVCell/Update
p298
aVColumn/Formula
p299
aVCell/Update
p300
aVCell/Update
p301
aVColumn/Formula
p302
aVColumn/Formula
p303
aVCell/Update
p304
aVCell/Update
p305
aVCell/Update
p306
aVCell/Update
p307
aVColumn/Formula
p308
aVColumn/Formula
p309
aVColumn/Formula
p310
aVColumn/Formula
p311
aVColumn/Formula
p312
aVCell/Update
p313
aVCell/Update
p314
aVColumn/Formula
p315
aVCell/Update
p316
aVColumn/Formula
p317
aVColumn/Formula
p318
aVCell/Update
p319
aVCell/Update
p320
aVCell/Update
p321
aVColumn/Formula
p322
aVColumn/Formula
p323
aVColumn/Formula
p324
aVCell/Update
p325
aVColumn/Formula
p326
aVCell/Update
p327
aVColumn/Formula
p328
aVColumn/Formula
p329
aVColumn/Formula
p330
aVColumn/Formula
p331
aVColumn/Formula
p332
aVColumn/Formula
p333
aVCell/Update
p334
aVColumn/Formula
p335
aVCell/Update
p336
aVCell/Update
p337
aVCell/Update
p338
aVColumn/Formula
p339
aVColumn/Formula
p340
aVColumn/Formula
p341
aVColumn/Formula
p342
aVColumn/Formula
p343
aVCell/Update
p344
aVCell/Update
p345
aVCell/Update
p346
aVColumn/Formula
p347
aVCell/Update
p348
aVCell/Update
p349
aVColumn/Formula
p350
aVColumn/Formula
p351
aVColumn/Formula
p352
aVColumn/Formula
p353
aVColumn/Formula
p354
aVColumn/Formula
p355
aVCell/Update
p356
aVColumn/Formula
p357
aVColumn/Formula
p358
aVColumn/Formula
p359
aVCell/Update
p360
aVCell/Update
p361
aVCell/Update
p362
aVColumn/Formula
p363
aVColumn/Formula
p364
aVCell/Update
p365
aVColumn/Formula
p366
aVColumn/Formula
p367
aVColumn/Formula
p368
aVColumn/Formula
p369
aVColumn/Formula
p370
aVColumn/Formula
p371
aVCell/Update
p372
aVCell/Update
p373
aVColumn/Formula
p374
aVCell/Update
p375
aVColumn/Formula
p376
aVColumn/Formula
p377
aVCell/Update
p378
aVCell/Update
p379
aVCell/Update
p380
aVCell/Update
p381
aVCell/Update
p382
aVColumn/Formula
p383
aVCell/Update
p384
aVCell/Update
p385
aVColumn/Formula
p386
aVColumn/Formula
p387
aVCell/Update
p388
aVCell/Update
p389
aVColumn/Formula
p390
aVColumn/Formula
p391
aVCell/Update
p392
aVCell/Update
p393
aVCell/Update
p394
aVCell/Update
p395
aVCell/Update
p396
aVCell/Update
p397
aVColumn/Formula
p398
aVCell/Update
p399
aVColumn/Formula
p400
aVCell/Update
p401
aVCell/Update
p402
aVColumn/Formula
p403
aVCell/Update
p404
aVColumn/Formula
p405
aVCell/Update
p406
aVColumn/Formula
p407
aVColumn/Formula
p408
aVCell/Update
p409
aVCell/Update
p410
aVCell/Update
p411
aVColumn/Formula
p412
aVColumn/Formula
p413
aVColumn/Formula
p414
aVCell/Update
p415
aVCell/Update
p416
aVColumn/Formula
p417
aVCell/Update
p418
aVColumn/Formula
p419
aVCell/Update
p420
aVCell/Update
p421
aVCell/Update
p422
aVCell/Update
p423
aVCell/Update
p424
aVCell/Update
p425
aVCell/Update
p426
aVCell/Update
p427
aVCell/Update
p428
aVCell/Update
p429
aVCell/Update
p430
aVCell/Update
p431
aVCell/Update
p432
aVCell/Update
p433
aVCell/Update
p434
aVCell/Update
p435
aVCell/Update
p436
aVCell/Update
p437
aVCell/Update
p438
aVCell/Update
p439
aVCell/Update
p440
aVCell/Update
p441
aVCell/Update
p442
aVColumn/Formula
p443
aVCell/Update
p444
aVColumn/Formula
p445
aVCell/Update
p446
aVCell/Update
p447
aVCell/Update
p448
aVCell/Update
p449
aVCell/Update
p450
aVCell/Update
p451
aVCell/Update
p452
aVCell/Update
p453
aVCell/Update
p454
aVCell/Update
p455
aVCell/Update
p456
aVCell/Update
p457
aVCell/Update
p458
aVColumn/Formula
p459
aVCell/Update
p460
aVCell/Update
p461
aVCell/Update
p462
aVCell/Update
p463
aVColumn/Formula
p464
aVCell/Update
p465
aVCell/Update
p466
aVCell/Update
p467
aVCell/Update
p468
aVCell/Update
p469
aVCell/Update
p470
aVCell/Update
p471
aVColumn/Formula
p472
aVColumn/Formula
p473
aVCell/Update
p474
aVCell/Update
p475
aVColumn/Formula
p476
aVCell/Update
p477
aVCell/Update
p478
aVCell/Update
p479
aVCell/Update
p480
aVCell/Update
p481
aVCell/Update
p482
aVColumn/Formula
p483
aVColumn/Formula
p484
aVColumn/Formula
p485
aVColumn/Formula
p486
aVColumn/Formula
p487
aVColumn/Formula
p488
aVColumn/Formula
p489
aVCell/Update
p490
aVCell/Update
p491
aVCell/Update
p492
aVColumn/Formula
p493
aVColumn/Formula
p494
aVColumn/Formula
p495
aVCell/Update
p496
aVCell/Update
p497
aVCell/Update
p498
aVCell/Update
p499
aVCell/Update
p500
aVColumn/Formula
p501
aVCell/Update
p502
aVColumn/Formula
p503
aVCell/Update
p504
asS'_filepath'
p505
V/home/ubuntu/SciSheets/mysite/user/guest/tables/kristen_single_gene.pcl
p506
sS'_backup_dir'
p507
g17
sbsS'_namespace'
p508
(dp509
sS'_hidden_columns'
p510
(lp511
g0
(cscisheets.core.column
Column
p512
g2
Ntp513
Rp514
(dp515
S'_asis'
p516
I00
sS'_owning_table'
p517
g4
sS'_cells'
p518
(lp519
(lp520
V0.0
p521
aV1.0
p522
aa(lp523
V1.0
p524
aV1.0
p525
aa(lp526
V1.0
p527
aV2.0
p528
aa(lp529
V1.0
p530
aV3.0
p531
aa(lp532
V2.0
p533
aV1.0
p534
aa(lp535
V3.0
p536
aV1.0
p537
aaNaNaNaNaNaNaNaNaNaNaNaNaNaNaNaNaNaNaNaNaNaNaNaNaNaNaNaNaNaNaNaNaNaNaNaNaNaNaNaNaNaNaNaNaNaNaNaNaNaNaNaNaNaNaNaNaNaNasS'_formula_statement'
p538
g0
(cscisheets.core.helpers.formula_statement
FormulaStatement
p539
g2
Ntp540
Rp541
(dp542
S'_statement'
p543
Vdummy = tabularize(s, 'Groups', 1, 'MeanCt', \u000a          new_category_colnm='BioRuns',\u000a          values_colnm_prefix='Gene_')
p544
sS'_name'
p545
VBioRuns
p546
sS'_isExpression'
p547
I00
sS'_isStatement'
p548
I00
sS'_formula'
p549
Vdummy = tabularize(s, 'Groups', 1, 'MeanCt', \u000a          new_category_colnm='BioRuns',\u000a          values_colnm_prefix='Gene_')
p550
sbsS'_data_class'
p551
g0
(cscisheets.core.helpers.api_util
DataClass
p552
c__builtin__
tuple
p553
(cnumpy
ndarray
p554
cscisheets.core.helpers.api_util
makeArray
p555
tp556
tp557
Rp558
sg545
g546
sbag0
(g512
g2
Ntp559
Rp560
(dp561
g516
I00
sg517
g4
sg518
(lp562
F22.9
aF27.0
aF26.6
aF29.8
aF30.1
aF24.8
aFnan
aFnan
aFnan
aFnan
aFnan
aFnan
aFnan
aFnan
aFnan
aFnan
aFnan
aFnan
aFnan
aFnan
aFnan
aFnan
aFnan
aFnan
aFnan
aFnan
aFnan
aFnan
aFnan
aFnan
aFnan
aFnan
aFnan
aFnan
aFnan
aFnan
aFnan
aFnan
aFnan
aFnan
aFnan
aFnan
aFnan
aFnan
aFnan
aFnan
aFnan
aFnan
aFnan
aFnan
aFnan
aFnan
aFnan
aFnan
aFnan
aFnan
aFnan
aFnan
aFnan
aFnan
aFnan
aFnan
aFnan
aFnan
asg538
g0
(g539
g2
Ntp563
Rp564
(dp565
g543
NsS'_column'
p566
g560
sg547
I00
sg548
I00
sg549
Nsbsg551
g0
(g552
g553
(g554
g555
tp567
tp568
Rp569
sg545
S'Gene_I'
p570
sbag0
(g512
g2
Ntp571
Rp572
(dp573
g516
I00
sg517
g4
sg518
(lp574
F18.3
aF19.9
aF21.9
aF23.9
aF23.5
aF18.8
aFnan
aFnan
aFnan
aFnan
aFnan
aFnan
aFnan
aFnan
aFnan
aFnan
aFnan
aFnan
aFnan
aFnan
aFnan
aFnan
aFnan
aFnan
aFnan
aFnan
aFnan
aFnan
aFnan
aFnan
aFnan
aFnan
aFnan
aFnan
aFnan
aFnan
aFnan
aFnan
aFnan
aFnan
aFnan
aFnan
aFnan
aFnan
aFnan
aFnan
aFnan
aFnan
aFnan
aFnan
aFnan
aFnan
aFnan
aFnan
aFnan
aFnan
aFnan
aFnan
aFnan
aFnan
aFnan
aFnan
aFnan
aFnan
asg538
g0
(g539
g2
Ntp575
Rp576
(dp577
g543
Nsg566
g572
sg547
I00
sg548
I00
sg549
Nsbsg551
g569
sg545
S'Gene_R1'
p578
sbag0
(g512
g2
Ntp579
Rp580
(dp581
g516
I00
sg517
g4
sg518
(lp582
F19.8
aF21.9
aF23.6
aF24.5
aF26.3
aF20.4
aFnan
aFnan
aFnan
aFnan
aFnan
aFnan
aFnan
aFnan
aFnan
aFnan
aFnan
aFnan
aFnan
aFnan
aFnan
aFnan
aFnan
aFnan
aFnan
aFnan
aFnan
aFnan
aFnan
aFnan
aFnan
aFnan
aFnan
aFnan
aFnan
aFnan
aFnan
aFnan
aFnan
aFnan
aFnan
aFnan
aFnan
aFnan
aFnan
aFnan
aFnan
aFnan
aFnan
aFnan
aFnan
aFnan
aFnan
aFnan
aFnan
aFnan
aFnan
aFnan
aFnan
aFnan
aFnan
aFnan
aFnan
aFnan
asg538
g0
(g539
g2
Ntp583
Rp584
(dp585
g543
Nsg566
g580
sg547
I00
sg548
I00
sg549
Nsbsg551
g569
sg545
S'Gene_R2'
p586
sbag0
(g512
g2
Ntp587
Rp588
(dp589
g516
I00
sg517
g4
sg518
(lp590
F0.04123
aF0.00729
aF0.03847
aF0.01675
aF0.01031
aF0.01563
aFnan
aFnan
aFnan
aFnan
aFnan
aFnan
aFnan
aFnan
aFnan
aFnan
aFnan
aFnan
aFnan
aFnan
aFnan
aFnan
aFnan
aFnan
aFnan
aFnan
aFnan
aFnan
aFnan
aFnan
aFnan
aFnan
aFnan
aFnan
aFnan
aFnan
aFnan
aFnan
aFnan
aFnan
aFnan
aFnan
aFnan
aFnan
aFnan
aFnan
aFnan
aFnan
aFnan
aFnan
aFnan
aFnan
aFnan
aFnan
aFnan
aFnan
aFnan
aFnan
aFnan
aFnan
aFnan
aFnan
aFnan
aFnan
asg538
g0
(g539
g2
Ntp591
Rp592
(dp593
g543
VExprR1 = roundValues(2**(Gene_R1 - Gene_I),5)
p594
sg545
VExprR1
p595
sg547
I01
sg548
I00
sg549
VroundValues(2**(Gene_R1 - Gene_I),5)
p596
sbsg551
g0
(g552
g553
(g554
g555
tp597
tp598
Rp599
sg545
g595
sbag0
(g512
g2
Ntp600
Rp601
(dp602
g516
I00
sg517
g4
sg518
(lp603
F0.11663
aF0.02916
aF0.125
aF0.02538
aF0.07179
aF0.04737
aFnan
aFnan
aFnan
aFnan
aFnan
aFnan
aFnan
aFnan
aFnan
aFnan
aFnan
aFnan
aFnan
aFnan
aFnan
aFnan
aFnan
aFnan
aFnan
aFnan
aFnan
aFnan
aFnan
aFnan
aFnan
aFnan
aFnan
aFnan
aFnan
aFnan
aFnan
aFnan
aFnan
aFnan
aFnan
aFnan
aFnan
aFnan
aFnan
aFnan
aFnan
aFnan
aFnan
aFnan
aFnan
aFnan
aFnan
aFnan
aFnan
aFnan
aFnan
aFnan
aFnan
aFnan
aFnan
aFnan
aFnan
aFnan
asg538
g0
(g539
g2
Ntp604
Rp605
(dp606
g543
VExprR2 = roundValues(2**(Gene_R2 - Gene_I),5)
p607
sg545
VExprR2
p608
sg547
I01
sg548
I00
sg549
VroundValues(2**(Gene_R2 - Gene_I),5)
p609
sbsg551
g0
(g552
g553
(g554
g555
tp610
tp611
Rp612
sg545
g608
sbag0
(g512
g2
Ntp613
Rp614
(dp615
g516
I00
sg517
g4
sg518
(lp616
F0.069
aF0.015
aF0.069
aF0.021
aF0.027
aF0.027
aFnan
aFnan
aFnan
aFnan
aFnan
aFnan
aFnan
aFnan
aFnan
aFnan
aFnan
aFnan
aFnan
aFnan
aFnan
aFnan
aFnan
aFnan
aFnan
aFnan
aFnan
aFnan
aFnan
aFnan
aFnan
aFnan
aFnan
aFnan
aFnan
aFnan
aFnan
aFnan
aFnan
aFnan
aFnan
aFnan
aFnan
aFnan
aFnan
aFnan
aFnan
aFnan
aFnan
aFnan
aFnan
aFnan
aFnan
aFnan
aFnan
aFnan
aFnan
aFnan
aFnan
aFnan
aFnan
aFnan
aFnan
aFnan
asg538
g0
(g539
g2
Ntp617
Rp618
(dp619
g543
VGeoMean = roundValues(np.sqrt(ExprR1*ExprR2), 3)
p620
sg545
VGeoMean
p621
sg547
I01
sg548
I00
sg549
VroundValues(np.sqrt(ExprR1*ExprR2), 3)
p622
sbsg551
g0
(g552
g553
(g554
g555
tp623
tp624
Rp625
sg545
g621
sbag0
(g512
g2
Ntp626
Rp627
(dp628
g516
I00
sg517
g4
sg518
(lp629
I1
aI1
aI1
aI1
aI1
aI1
aI1
aI1
aI1
aI1
aI1
aI1
aI1
aI2
aI2
aI2
aI3
aI3
aI3
aI1
aI1
aI1
aI2
aI2
aI2
aI3
aI3
aI3
aI1
aI1
aI1
aI2
aI2
aI2
aI3
aI3
aI3
aI1
aI1
aI1
aI1
aI1
aI1
aI1
aI1
aI1
aI1
aI1
aI1
aI1
aI1
aI1
aI1
aI1
aI1
aI1
aI1
aI1
aI1
aI1
aI1
aI1
aI1
aI1
asg538
g0
(g539
g2
Ntp630
Rp631
(dp632
g543
Nsg545
S'BRpl'
p633
sg547
I00
sg548
I00
sg549
Nsbsg551
g0
(g552
g553
(cscisheets.core.helpers.extended_array
ExtendedArray
p634
g555
tp635
tp636
Rp637
sg545
g633
sbag0
(g512
g2
Ntp638
Rp639
(dp640
g516
I00
sg517
g4
sg518
(lp641
F23.0
aF22.86
aF22.8
aF23.0
aF18.24
aF18.22
aF18.36
aF19.72
aF19.75
aF20.01
aF26.68
aF27.13
aF27.21
aF26.76
aF26.71
aF26.19
aF29.98
aF30.12
aF29.41
aF19.92
aF19.85
aF20.0
aF21.86
aF22.09
aF21.84
aF23.89
aF23.54
aF24.27
aF22.18
aF21.71
aF21.75
aF23.88
aF23.42
aF23.63
aF24.59
aF24.61
aF24.34
aF29.95
aF30.45
aF29.88
aF23.22
aF23.8
aF23.49
aF26.37
aF26.36
aF26.17
aF24.8
aF24.97
aF24.63
aF18.91
aF18.78
aF18.8
aF20.5
aF20.47
aF20.28
aF24.8
aF24.97
aF24.63
aF18.91
aF18.78
aF18.8
aF20.5
aF20.47
aF20.28
asg538
g0
(g539
g2
Ntp642
Rp643
(dp644
g543
Nsg545
S'Ct'
p645
sg547
I00
sg548
I00
sg549
Nsbsg551
g637
sg545
g645
sbag0
(g512
g2
Ntp646
Rp647
(dp648
g516
I00
sg517
g4
sg518
(lp649
F0.8371
aF0.891
aF0.8956
aF0.8671
aF0.8266
aF0.8343
aF0.8496
aF0.8157
aF0.8543
aF0.8208
aF0.9399
aF0.8296
aF0.8361
aF0.8039
aF0.8399
aF0.7935
aF0.8264
aF0.7974
aF0.8252
aF0.9179
aF0.9783
aF0.8971
aF0.8957
aF0.8287
aF0.8387
aF0.8746
aF0.8493
aF0.8349
aF0.7857
aF0.8427
aF0.8637
aF0.8281
aF0.8203
aF0.8288
aF0.8138
aF0.8242
aF0.804
aF0.8418
aF0.7959
aF0.8071
aF0.7701
aF0.8746
aF0.8139
aF0.7795
aF0.7676
aF0.7947
aF0.8513
aF0.8485
aF0.8401
aF0.8715
aF0.8977
aF0.856
aF0.8179
aF0.8173
aF0.7894
aF0.8513
aF0.8485
aF0.8401
aF0.8715
aF0.8977
aF0.856
aF0.8179
aF0.8173
aF0.7894
asg538
g0
(g539
g2
Ntp650
Rp651
(dp652
g543
Nsg545
S'Eff'
p653
sg547
I00
sg548
I00
sg549
Nsbsg551
g637
sg545
g653
sbag0
(g512
g2
Ntp654
Rp655
(dp656
g516
I00
sg517
g4
sg518
(lp657
VI
p658
ag658
ag658
ag658
aVR1
p659
ag659
ag659
aVR2
p660
ag660
ag660
ag658
ag658
ag658
ag658
ag658
ag658
ag658
ag658
ag658
ag659
ag659
ag659
ag659
ag659
ag659
ag659
ag659
ag659
ag660
ag660
ag660
ag660
ag660
ag660
ag660
ag660
ag660
ag658
ag658
ag658
ag659
ag659
ag659
ag660
ag660
ag660
ag658
ag658
ag658
ag659
ag659
ag659
ag660
ag660
ag660
ag658
ag658
ag658
ag659
ag659
ag659
ag660
ag660
ag660
asg538
g0
(g539
g2
Ntp661
Rp662
(dp663
g543
Nsg545
S'RunType'
p664
sg547
I00
sg548
I00
sg549
Nsbsg551
g637
sg545
g664
sbag0
(g512
g2
Ntp665
Rp666
(dp667
g516
I00
sg517
g4
sg518
(lp668
Va
p669
aVb
p670
aVc
p671
aVd
p672
ag669
ag670
ag671
ag669
ag670
ag671
ag669
ag670
ag671
ag669
ag670
ag671
ag669
ag670
ag671
ag669
ag670
ag671
ag669
ag670
ag671
ag669
ag670
ag671
ag669
ag670
ag671
ag669
ag670
ag671
ag669
ag670
ag671
ag669
ag670
ag671
ag669
ag670
ag671
ag669
ag670
ag671
ag669
ag670
ag671
ag669
ag670
ag671
ag669
ag670
ag671
ag669
ag670
ag671
ag669
ag670
ag671
ag669
ag670
ag671
asg538
g0
(g539
g2
Ntp673
Rp674
(dp675
g543
Nsg545
S'TRpl'
p676
sg547
I00
sg548
I00
sg549
Nsbsg551
g637
sg545
g676
sbag0
(g512
g2
Ntp677
Rp678
(dp679
g516
I00
sg517
g4
sg518
(lp680
I0
aI0
aI0
aI0
aI0
aI0
aI0
aI0
aI0
aI0
aI1
aI1
aI1
aI1
aI1
aI1
aI1
aI1
aI1
aI1
aI1
aI1
aI1
aI1
aI1
aI1
aI1
aI1
aI1
aI1
aI1
aI1
aI1
aI1
aI1
aI1
aI1
aI2
aI2
aI2
aI2
aI2
aI2
aI2
aI2
aI2
aI3
aI3
aI3
aI3
aI3
aI3
aI3
aI3
aI3
aI4
aI4
aI4
aI4
aI4
aI4
aI4
aI4
aI4
asg538
g0
(g539
g2
Ntp681
Rp682
(dp683
g543
Nsg545
S'Treatment'
p684
sg547
I00
sg548
I00
sg549
Nsbsg551
g637
sg545
g684
sbasS'_is_evaluate_formulas'
p685
I01
sS'_prologue'
p686
g0
(g539
g2
Ntp687
Rp688
(dp689
g543
V# Prologue\u000aimport math as mt\u000aimport numpy as np\u000afrom os import listdir\u000afrom os.path import isfile, join\u000aimport pandas as pd\u000aimport scipy as sp\u000afrom numpy import nan  # Must follow sympy import \u000a\u000axlsx_path =   '/mnt/hgfs/josephhellerstein/home/Technical/SciSheets/CaseStudies/Kristen/workbooks/data.xlsx'\u000agene = ParmValues[0]\u000arun = ParmValues[1] == 'True'\u000ashow_raw = ParmValues[2] == 'True'\u000ashow_block1 = ParmValues[3] == 'True'\u000ashow_block2 = ParmValues[4] == 'True'\u000ashow_block3 = ParmValues[5] == 'True'\u000ashow_params = ParmValues[8] == 'True'\u000a#show_params = True\u000amax_std  = float(ParmValues[6])\u000amin_eff = float(ParmValues[7])\u000aworksheet = gene + "-I"\u000as.getTable().setIsEvaluateFormulas(run)\u000as.setColumnVisibility()\u000as.setColumnVisibility(['Groups', 'GroupedEff', 'GroupedCt', 'StdFilteredGroupedCt', 'MeanCt',\u000a    'StdCt'], is_visible=show_block1)\u000as.setColumnVisibility(['BioRuns', 'Gene_I', 'Gene_R1', 'Gene_R2', 'ExprR1', 'ExprR2', \u000a    'GeoMean'], is_visible=show_block2)\u000as.setColumnVisibility(['GeoGroups', 'GroupedGeoMeans', 'NrmlGeoGroupedMeans', \u000a    'MeanNrmlGeoGroups', 'StdNrmlGeoGroups'], is_visible=show_block3)\u000aif run:\u000a  Groups = []\u000a  GroupedCt = []\u000a  GroupedEff = []\u000a  MeanCt = []\u000a  Imp = []\u000a  s.deleteColumn('Ct')\u000a  s.deleteColumn('RunType')\u000a  s.deleteColumn('BRpl')\u000a  s.deleteColumn('TRpl')\u000a  s.deleteColumn('Treatment')\u000a  s.deleteColumn('Eff')\u000aif run:\u000a  importExcelToTable(s, xlsx_path, worksheet=worksheet,\u000a      column_position='ParmValues',\u000a      names=['Treatment', 'RunType', 'BRpl', 'TRpl', 'Eff', 'Ct'])\u000as.setColumnVisibility(['BRpl', 'Ct', 'Eff', 'RunType', 'TRpl', 'Treatment'], is_visible=show_raw)\u000as.setColumnVisibility(['ParmNames', 'ParmValues'], show_params)
p690
sg545
VSingleGene
p691
sg547
I00
sg548
I00
sg549
V# Prologue\u000aimport math as mt\u000aimport numpy as np\u000afrom os import listdir\u000afrom os.path import isfile, join\u000aimport pandas as pd\u000aimport scipy as sp\u000afrom numpy import nan  # Must follow sympy import \u000a\u000axlsx_path =   '/mnt/hgfs/josephhellerstein/home/Technical/SciSheets/CaseStudies/Kristen/workbooks/data.xlsx'\u000agene = ParmValues[0]\u000arun = ParmValues[1] == 'True'\u000ashow_raw = ParmValues[2] == 'True'\u000ashow_block1 = ParmValues[3] == 'True'\u000ashow_block2 = ParmValues[4] == 'True'\u000ashow_block3 = ParmValues[5] == 'True'\u000ashow_params = ParmValues[8] == 'True'\u000a#show_params = True\u000amax_std  = float(ParmValues[6])\u000amin_eff = float(ParmValues[7])\u000aworksheet = gene + "-I"\u000as.getTable().setIsEvaluateFormulas(run)\u000as.setColumnVisibility()\u000as.setColumnVisibility(['Groups', 'GroupedEff', 'GroupedCt', 'StdFilteredGroupedCt', 'MeanCt',\u000a    'StdCt'], is_visible=show_block1)\u000as.setColumnVisibility(['BioRuns', 'Gene_I', 'Gene_R1', 'Gene_R2', 'ExprR1', 'ExprR2', \u000a    'GeoMean'], is_visible=show_block2)\u000as.setColumnVisibility(['GeoGroups', 'GroupedGeoMeans', 'NrmlGeoGroupedMeans', \u000a    'MeanNrmlGeoGroups', 'StdNrmlGeoGroups'], is_visible=show_block3)\u000aif run:\u000a  Groups = []\u000a  GroupedCt = []\u000a  GroupedEff = []\u000a  MeanCt = []\u000a  Imp = []\u000a  s.deleteColumn('Ct')\u000a  s.deleteColumn('RunType')\u000a  s.deleteColumn('BRpl')\u000a  s.deleteColumn('TRpl')\u000a  s.deleteColumn('Treatment')\u000a  s.deleteColumn('Eff')\u000aif run:\u000a  importExcelToTable(s, xlsx_path, worksheet=worksheet,\u000a      column_position='ParmValues',\u000a      names=['Treatment', 'RunType', 'BRpl', 'TRpl', 'Eff', 'Ct'])\u000as.setColumnVisibility(['BRpl', 'Ct', 'Eff', 'RunType', 'TRpl', 'Treatment'], is_visible=show_raw)\u000as.setColumnVisibility(['ParmNames', 'ParmValues'], show_params)
p692
sbsS'_epilogue'
p693
g0
(g539
g2
Ntp694
Rp695
(dp696
g543
V# Epilogue\u000aif run:\u000a  worksheet = "%s-O" % gene\u000a  exportTableToExcel(s, xlsx_path, worksheet=worksheet, columns=['GeoGroups',  \u000a      'MeanNrmlGeoGroups', 'StdNrmlGeoGroups'])\u000a
p697
sg545
g691
sg547
I00
sg548
I00
sg549
V# Epilogue\u000aif run:\u000a  worksheet = "%s-O" % gene\u000a  exportTableToExcel(s, xlsx_path, worksheet=worksheet, columns=['GeoGroups',  \u000a      'MeanNrmlGeoGroups', 'StdNrmlGeoGroups'])\u000a
p698
sbsg545
g691
sS'_columns'
p699
(lp700
g0
(g512
g2
Ntp701
Rp702
(dp703
g516
I01
sg517
g4
sg518
(lp704
S'1'
p705
aS'2'
p706
aS'3'
p707
aS'4'
p708
aS'5'
p709
aS'6'
p710
aS'7'
p711
aS'8'
p712
aS'9'
p713
aS'10'
p714
aS'11'
p715
aS'12'
p716
aS'13'
p717
aS'14'
p718
aS'15'
p719
aS'16'
p720
aS'17'
p721
aS'18'
p722
aS'19'
p723
aS'20'
p724
aS'21'
p725
aS'22'
p726
aS'23'
p727
aS'24'
p728
aS'25'
p729
aS'26'
p730
aS'27'
p731
aS'28'
p732
aS'29'
p733
aS'30'
p734
aS'31'
p735
aS'32'
p736
aS'33'
p737
aS'34'
p738
aS'35'
p739
aS'36'
p740
aS'37'
p741
aS'38'
p742
aS'39'
p743
aS'40'
p744
aS'41'
p745
aS'42'
p746
aS'43'
p747
aS'44'
p748
aS'45'
p749
aS'46'
p750
aS'47'
p751
aS'48'
p752
aS'49'
p753
aS'50'
p754
aS'51'
p755
aS'52'
p756
aS'53'
p757
aS'54'
p758
aS'55'
p759
aS'56'
p760
aS'57'
p761
aS'58'
p762
aS'59'
p763
aS'60'
p764
aS'61'
p765
aS'62'
p766
aS'63'
p767
aS'64'
p768
asg538
g0
(g539
g2
Ntp769
Rp770
(dp771
g543
Nsg566
g702
sg547
I00
sg548
I00
sg549
Nsbsg551
g0
(g552
g553
(g554
g555
tp772
tp773
Rp774
sg545
S'row'
p775
sbag0
(g512
g2
Ntp776
Rp777
(dp778
g516
I00
sg517
g4
sg518
(lp779
Vgene
p780
aVrun
p781
aVshow_raw
p782
aVshow_block1
p783
aVshow_block2
p784
aVshow_block3
p785
aVmax_std
p786
aVmin_eff
p787
aVshow_params
p788
aVnan
p789
aVnan
p790
aVnan
p791
aVnan
p792
aVnan
p793
aVnan
p794
aVnan
p795
aVnan
p796
aVnan
p797
aVnan
p798
aVnan
p799
aVnan
p800
aVnan
p801
aVnan
p802
aVnan
p803
aVnan
p804
aVnan
p805
aVnan
p806
aVnan
p807
aVnan
p808
aVnan
p809
aVnan
p810
aVnan
p811
aVnan
p812
aVnan
p813
aVnan
p814
aVnan
p815
aVnan
p816
aVnan
p817
aVnan
p818
aVnan
p819
aVnan
p820
aVnan
p821
aVnan
p822
aVnan
p823
aVnan
p824
aVnan
p825
aVnan
p826
aVnan
p827
aVnan
p828
aVnan
p829
aVnan
p830
aVnan
p831
aVnan
p832
aVnan
p833
aNaNaNaNaNaNaNaNaNaNasg538
g0
(g539
g2
Ntp834
Rp835
(dp836
g543
Nsg566
g777
sg547
I00
sg548
I00
sg549
Nsbsg551
g0
(g552
g553
(g554
g555
tp837
tp838
Rp839
sg545
VParmNames
p840
sbag0
(g512
g2
Ntp841
Rp842
(dp843
g516
I00
sg517
g4
sg518
(lp844
VGene1
p845
aVTrue
p846
aVFalse
p847
aVTrue
p848
aVFalse
p849
aVTrue
p850
aF0.5
aF0.7
aVTrue
p851
aV
p852
aVnan
p853
aVnan
p854
aVnan
p855
aVnan
p856
aVnan
p857
aVnan
p858
aVnan
p859
aVnan
p860
aVnan
p861
aVnan
p862
aVnan
p863
aVnan
p864
aVnan
p865
aVnan
p866
aVnan
p867
aVnan
p868
aVnan
p869
aVnan
p870
aVnan
p871
aVnan
p872
aVnan
p873
aVnan
p874
aVnan
p875
aVnan
p876
aVnan
p877
aVnan
p878
aVnan
p879
aVnan
p880
aVnan
p881
aVnan
p882
aVnan
p883
aVnan
p884
aVnan
p885
aVnan
p886
aVnan
p887
aVnan
p888
aVnan
p889
aVnan
p890
aVnan
p891
aVnan
p892
aVnan
p893
aVnan
p894
aVnan
p895
aVnan
p896
aNaNaNaNaNaNaNaNaNaNasg538
g0
(g539
g2
Ntp897
Rp898
(dp899
g543
Nsg545
VParmValues
p900
sg547
I00
sg548
I00
sg549
Nsbsg551
g0
(g552
g553
(g554
g555
tp901
tp902
Rp903
sg545
g900
sbag678
ag655
ag627
ag666
ag647
ag639
ag0
(g512
g2
Ntp904
Rp905
(dp906
g516
I00
sg517
g4
sg518
(lp907
(lp908
cnumpy.core.multiarray
scalar
p909
(cnumpy
dtype
p910
(S'i8'
p911
I0
I1
tp912
Rp913
(I3
S'<'
p914
NNNI-1
I-1
I0
tp915
bS'\x00\x00\x00\x00\x00\x00\x00\x00'
p916
tp917
Rp918
ag909
(g910
(S'U1'
p919
I0
I1
tp920
Rp921
(I3
S'<'
p922
NNNI4
I4
I8
tp923
bS'I\x00\x00\x00'
p924
tp925
Rp926
ag909
(g913
S'\x01\x00\x00\x00\x00\x00\x00\x00'
p927
tp928
Rp929
aa(lp930
g909
(g913
S'\x00\x00\x00\x00\x00\x00\x00\x00'
p931
tp932
Rp933
ag909
(g910
(S'U2'
p934
I0
I1
tp935
Rp936
(I3
S'<'
p937
NNNI8
I4
I8
tp938
bS'R\x00\x00\x001\x00\x00\x00'
p939
tp940
Rp941
ag909
(g913
S'\x01\x00\x00\x00\x00\x00\x00\x00'
p942
tp943
Rp944
aa(lp945
g909
(g913
S'\x00\x00\x00\x00\x00\x00\x00\x00'
p946
tp947
Rp948
ag909
(g910
(S'U2'
p949
I0
I1
tp950
Rp951
(I3
S'<'
p952
NNNI8
I4
I8
tp953
bS'R\x00\x00\x002\x00\x00\x00'
p954
tp955
Rp956
ag909
(g913
S'\x01\x00\x00\x00\x00\x00\x00\x00'
p957
tp958
Rp959
aa(lp960
g909
(g913
S'\x01\x00\x00\x00\x00\x00\x00\x00'
p961
tp962
Rp963
ag926
ag909
(g913
S'\x01\x00\x00\x00\x00\x00\x00\x00'
p964
tp965
Rp966
aa(lp967
g909
(g913
S'\x01\x00\x00\x00\x00\x00\x00\x00'
p968
tp969
Rp970
ag926
ag909
(g913
S'\x02\x00\x00\x00\x00\x00\x00\x00'
p971
tp972
Rp973
aa(lp974
g909
(g913
S'\x01\x00\x00\x00\x00\x00\x00\x00'
p975
tp976
Rp977
ag926
ag909
(g913
S'\x03\x00\x00\x00\x00\x00\x00\x00'
p978
tp979
Rp980
aa(lp981
g909
(g913
S'\x01\x00\x00\x00\x00\x00\x00\x00'
p982
tp983
Rp984
ag941
ag909
(g913
S'\x01\x00\x00\x00\x00\x00\x00\x00'
p985
tp986
Rp987
aa(lp988
g909
(g913
S'\x01\x00\x00\x00\x00\x00\x00\x00'
p989
tp990
Rp991
ag941
ag909
(g913
S'\x02\x00\x00\x00\x00\x00\x00\x00'
p992
tp993
Rp994
aa(lp995
g909
(g913
S'\x01\x00\x00\x00\x00\x00\x00\x00'
p996
tp997
Rp998
ag941
ag909
(g913
S'\x03\x00\x00\x00\x00\x00\x00\x00'
p999
tp1000
Rp1001
aa(lp1002
g909
(g913
S'\x01\x00\x00\x00\x00\x00\x00\x00'
p1003
tp1004
Rp1005
ag956
ag909
(g913
S'\x01\x00\x00\x00\x00\x00\x00\x00'
p1006
tp1007
Rp1008
aa(lp1009
g909
(g913
S'\x01\x00\x00\x00\x00\x00\x00\x00'
p1010
tp1011
Rp1012
ag956
ag909
(g913
S'\x02\x00\x00\x00\x00\x00\x00\x00'
p1013
tp1014
Rp1015
aa(lp1016
g909
(g913
S'\x01\x00\x00\x00\x00\x00\x00\x00'
p1017
tp1018
Rp1019
ag956
ag909
(g913
S'\x03\x00\x00\x00\x00\x00\x00\x00'
p1020
tp1021
Rp1022
aa(lp1023
g909
(g913
S'\x02\x00\x00\x00\x00\x00\x00\x00'
p1024
tp1025
Rp1026
ag926
ag909
(g913
S'\x01\x00\x00\x00\x00\x00\x00\x00'
p1027
tp1028
Rp1029
aa(lp1030
g909
(g913
S'\x02\x00\x00\x00\x00\x00\x00\x00'
p1031
tp1032
Rp1033
ag941
ag909
(g913
S'\x01\x00\x00\x00\x00\x00\x00\x00'
p1034
tp1035
Rp1036
aa(lp1037
g909
(g913
S'\x02\x00\x00\x00\x00\x00\x00\x00'
p1038
tp1039
Rp1040
ag956
ag909
(g913
S'\x01\x00\x00\x00\x00\x00\x00\x00'
p1041
tp1042
Rp1043
aa(lp1044
g909
(g913
S'\x03\x00\x00\x00\x00\x00\x00\x00'
p1045
tp1046
Rp1047
ag926
ag909
(g913
S'\x01\x00\x00\x00\x00\x00\x00\x00'
p1048
tp1049
Rp1050
aa(lp1051
g909
(g913
S'\x03\x00\x00\x00\x00\x00\x00\x00'
p1052
tp1053
Rp1054
ag941
ag909
(g913
S'\x01\x00\x00\x00\x00\x00\x00\x00'
p1055
tp1056
Rp1057
aa(lp1058
g909
(g913
S'\x03\x00\x00\x00\x00\x00\x00\x00'
p1059
tp1060
Rp1061
ag956
ag909
(g913
S'\x01\x00\x00\x00\x00\x00\x00\x00'
p1062
tp1063
Rp1064
aa(lp1065
g909
(g913
S'\x04\x00\x00\x00\x00\x00\x00\x00'
p1066
tp1067
Rp1068
ag926
ag909
(g913
S'\x01\x00\x00\x00\x00\x00\x00\x00'
p1069
tp1070
Rp1071
aa(lp1072
g909
(g913
S'\x04\x00\x00\x00\x00\x00\x00\x00'
p1073
tp1074
Rp1075
ag941
ag909
(g913
S'\x01\x00\x00\x00\x00\x00\x00\x00'
p1076
tp1077
Rp1078
aa(lp1079
g909
(g913
S'\x04\x00\x00\x00\x00\x00\x00\x00'
p1080
tp1081
Rp1082
ag956
ag909
(g913
S'\x01\x00\x00\x00\x00\x00\x00\x00'
p1083
tp1084
Rp1085
aasg538
g0
(g539
g2
Ntp1086
Rp1087
(dp1088
g543
Vsel = [e > min_eff for e in Eff]\u000apairs = zip(range(len(sel)), sel)\u000apTreatment = [Treatment[i] for i,b in pairs if b]\u000apRunType = [RunType[i] for i,b in pairs if b]\u000apBRpl = [BRpl[i] for i,b in pairs if b]\u000agrouping_columns = [pTreatment, pRunType, pBRpl]\u000apCt = [Ct[i] for i,b in pairs if b]\u000apEff = [Eff[i] for i,b in pairs if b]\u000aGroups, groupedCt = groupBy(\u000a     grouping_columns, pCt)\u000aGroups, groupedEff = groupBy(\u000a     grouping_columns, pEff)\u000aGroups = [[g[0], g[1], g[2]] for g in Groups]\u000aGroupedCt = roundValues(groupedCt,2)\u000aGroupedEff = roundValues(groupedEff,2)
p1089
sg545
VGroups
p1090
sg547
I00
sg548
I00
sg549
Vsel = [e > min_eff for e in Eff]\u000apairs = zip(range(len(sel)), sel)\u000apTreatment = [Treatment[i] for i,b in pairs if b]\u000apRunType = [RunType[i] for i,b in pairs if b]\u000apBRpl = [BRpl[i] for i,b in pairs if b]\u000agrouping_columns = [pTreatment, pRunType, pBRpl]\u000apCt = [Ct[i] for i,b in pairs if b]\u000apEff = [Eff[i] for i,b in pairs if b]\u000aGroups, groupedCt = groupBy(\u000a     grouping_columns, pCt)\u000aGroups, groupedEff = groupBy(\u000a     grouping_columns, pEff)\u000aGroups = [[g[0], g[1], g[2]] for g in Groups]\u000aGroupedCt = roundValues(groupedCt,2)\u000aGroupedEff = roundValues(groupedEff,2)
p1091
sbsg551
g0
(g552
g553
(g554
g555
tp1092
tp1093
Rp1094
sg545
g1090
sbag0
(g512
g2
Ntp1095
Rp1096
(dp1097
g516
I00
sg517
g4
sg518
(lp1098
cnumpy.core.multiarray
_reconstruct
p1099
(g554
(I0
tp1100
S'b'
p1101
tp1102
Rp1103
(I1
(I4
tp1104
g910
(S'f8'
p1105
I0
I1
tp1106
Rp1107
(I3
S'<'
p1108
NNNI-1
I-1
I0
tp1109
bI00
S'\xe1z\x14\xaeG\xe1\xea?{\x14\xaeG\xe1z\xec?\xcd\xcc\xcc\xcc\xcc\xcc\xec?\xd7\xa3p=\n\xd7\xeb?'
p1110
tp1111
bag1099
(g554
(I0
tp1112
g1101
tp1113
Rp1114
(I1
(I3
tp1115
g1107
I00
S'\x8f\xc2\xf5(\\\x8f\xea?\x8f\xc2\xf5(\\\x8f\xea?333333\xeb?'
p1116
tp1117
bag1099
(g554
(I0
tp1118
g1101
tp1119
Rp1120
(I1
(I3
tp1121
g1107
I00
S'=\n\xd7\xa3p=\xea?333333\xeb?=\n\xd7\xa3p=\xea?'
p1122
tp1123
bag1099
(g554
(I0
tp1124
g1101
tp1125
Rp1126
(I1
(I3
tp1127
g1107
I00
S'\x14\xaeG\xe1z\x14\xee?\x8f\xc2\xf5(\\\x8f\xea?\xe1z\x14\xaeG\xe1\xea?'
p1128
tp1129
bag1099
(g554
(I0
tp1130
g1101
tp1131
Rp1132
(I1
(I3
tp1133
g1107
I00
S'\x9a\x99\x99\x99\x99\x99\xe9?\xe1z\x14\xaeG\xe1\xea?H\xe1z\x14\xaeG\xe9?'
p1134
tp1135
bag1099
(g554
(I0
tp1136
g1101
tp1137
Rp1138
(I1
(I3
tp1139
g1107
I00
S'\x8f\xc2\xf5(\\\x8f\xea?\x9a\x99\x99\x99\x99\x99\xe9?\x8f\xc2\xf5(\\\x8f\xea?'
p1140
tp1141
bag1099
(g554
(I0
tp1142
g1101
tp1143
Rp1144
(I1
(I3
tp1145
g1107
I00
S'q=\n\xd7\xa3p\xed?\\\x8f\xc2\xf5(\\\xef?\xcd\xcc\xcc\xcc\xcc\xcc\xec?'
p1146
tp1147
bag1099
(g554
(I0
tp1148
g1101
tp1149
Rp1150
(I1
(I3
tp1151
g1107
I00
S'\xcd\xcc\xcc\xcc\xcc\xcc\xec?\x8f\xc2\xf5(\\\x8f\xea?\xe1z\x14\xaeG\xe1\xea?'
p1152
tp1153
bag1099
(g554
(I0
tp1154
g1101
tp1155
Rp1156
(I1
(I3
tp1157
g1107
I00
S'\xd7\xa3p=\n\xd7\xeb?333333\xeb?\x8f\xc2\xf5(\\\x8f\xea?'
p1158
tp1159
bag1099
(g554
(I0
tp1160
g1101
tp1161
Rp1162
(I1
(I3
tp1163
g1107
I00
S'H\xe1z\x14\xaeG\xe9?\xe1z\x14\xaeG\xe1\xea?\x85\xebQ\xb8\x1e\x85\xeb?'
p1164
tp1165
bag1099
(g554
(I0
tp1166
g1101
tp1167
Rp1168
(I1
(I3
tp1169
g1107
I00
S'\x8f\xc2\xf5(\\\x8f\xea?=\n\xd7\xa3p=\xea?\x8f\xc2\xf5(\\\x8f\xea?'
p1170
tp1171
bag1099
(g554
(I0
tp1172
g1101
tp1173
Rp1174
(I1
(I3
tp1175
g1107
I00
S'\xecQ\xb8\x1e\x85\xeb\xe9?=\n\xd7\xa3p=\xea?\x9a\x99\x99\x99\x99\x99\xe9?'
p1176
tp1177
bag1099
(g554
(I0
tp1178
g1101
tp1179
Rp1180
(I1
(I3
tp1181
g1107
I00
S'\xe1z\x14\xaeG\xe1\xea?\x9a\x99\x99\x99\x99\x99\xe9?\xecQ\xb8\x1e\x85\xeb\xe9?'
p1182
tp1183
bag1099
(g554
(I0
tp1184
g1101
tp1185
Rp1186
(I1
(I3
tp1187
g1107
I00
S'\xa4p=\n\xd7\xa3\xe8?\xd7\xa3p=\n\xd7\xeb?\xecQ\xb8\x1e\x85\xeb\xe9?'
p1188
tp1189
bag1099
(g554
(I0
tp1190
g1101
tp1191
Rp1192
(I1
(I3
tp1193
g1107
I00
S'\xf6(\\\x8f\xc2\xf5\xe8?\xa4p=\n\xd7\xa3\xe8?H\xe1z\x14\xaeG\xe9?'
p1194
tp1195
bag1099
(g554
(I0
tp1196
g1101
tp1197
Rp1198
(I1
(I3
tp1199
g1107
I00
S'333333\xeb?333333\xeb?\xe1z\x14\xaeG\xe1\xea?'
p1200
tp1201
bag1099
(g554
(I0
tp1202
g1101
tp1203
Rp1204
(I1
(I3
tp1205
g1107
I00
S'\xd7\xa3p=\n\xd7\xeb?\xcd\xcc\xcc\xcc\xcc\xcc\xec?\x85\xebQ\xb8\x1e\x85\xeb?'
p1206
tp1207
bag1099
(g554
(I0
tp1208
g1101
tp1209
Rp1210
(I1
(I3
tp1211
g1107
I00
S'=\n\xd7\xa3p=\xea?=\n\xd7\xa3p=\xea?H\xe1z\x14\xaeG\xe9?'
p1212
tp1213
bag1099
(g554
(I0
tp1214
g1101
tp1215
Rp1216
(I1
(I3
tp1217
g1107
I00
S'333333\xeb?333333\xeb?\xe1z\x14\xaeG\xe1\xea?'
p1218
tp1219
bag1099
(g554
(I0
tp1220
g1101
tp1221
Rp1222
(I1
(I3
tp1223
g1107
I00
S'\xd7\xa3p=\n\xd7\xeb?\xcd\xcc\xcc\xcc\xcc\xcc\xec?\x85\xebQ\xb8\x1e\x85\xeb?'
p1224
tp1225
bag1099
(g554
(I0
tp1226
g1101
tp1227
Rp1228
(I1
(I3
tp1229
g1107
I00
S'=\n\xd7\xa3p=\xea?=\n\xd7\xa3p=\xea?H\xe1z\x14\xaeG\xe9?'
p1230
tp1231
basg538
g0
(g539
g2
Ntp1232
Rp1233
(dp1234
g543
Nsg566
g1096
sg547
I00
sg548
I00
sg549
Nsbsg551
g0
(g552
g553
(g554
g555
tp1235
tp1236
Rp1237
sg545
VGroupedEff
p1238
sbag0
(g512
g2
Ntp1239
Rp1240
(dp1241
g516
I00
sg517
g4
sg518
(lp1242
g1099
(g554
(I0
tp1243
g1101
tp1244
Rp1245
(I1
(I4
tp1246
g1107
I00
S'\x00\x00\x00\x00\x00\x007@\\\x8f\xc2\xf5(\xdc6@\xcd\xcc\xcc\xcc\xcc\xcc6@\x00\x00\x00\x00\x00\x007@'
p1247
tp1248
bag1099
(g554
(I0
tp1249
g1101
tp1250
Rp1251
(I1
(I3
tp1252
g1107
I00
S'=\n\xd7\xa3p=2@\xb8\x1e\x85\xebQ82@\\\x8f\xc2\xf5(\\2@'
p1253
tp1254
bag1099
(g554
(I0
tp1255
g1101
tp1256
Rp1257
(I1
(I3
tp1258
g1107
I00
S'\xb8\x1e\x85\xebQ\xb83@\x00\x00\x00\x00\x00\xc03@\xc3\xf5(\\\x8f\x024@'
p1259
tp1260
bag1099
(g554
(I0
tp1261
g1101
tp1262
Rp1263
(I1
(I3
tp1264
g1107
I00
S'\xaeG\xe1z\x14\xae:@\xe1z\x14\xaeG!;@\xf6(\\\x8f\xc25;@'
p1265
tp1266
bag1099
(g554
(I0
tp1267
g1101
tp1268
Rp1269
(I1
(I3
tp1270
g1107
I00
S'\xc3\xf5(\\\x8f\xc2:@\xf6(\\\x8f\xc2\xb5:@q=\n\xd7\xa30:@'
p1271
tp1272
bag1099
(g554
(I0
tp1273
g1101
tp1274
Rp1275
(I1
(I3
tp1276
g1107
I00
S'{\x14\xaeG\xe1\xfa=@\x1f\x85\xebQ\xb8\x1e>@)\\\x8f\xc2\xf5h=@'
p1277
tp1278
bag1099
(g554
(I0
tp1279
g1101
tp1280
Rp1281
(I1
(I3
tp1282
g1107
I00
S'\xecQ\xb8\x1e\x85\xeb3@\x9a\x99\x99\x99\x99\xd93@\x00\x00\x00\x00\x00\x004@'
p1283
tp1284
bag1099
(g554
(I0
tp1285
g1101
tp1286
Rp1287
(I1
(I3
tp1288
g1107
I00
S'\\\x8f\xc2\xf5(\xdc5@\xd7\xa3p=\n\x176@\xd7\xa3p=\n\xd75@'
p1289
tp1290
bag1099
(g554
(I0
tp1291
g1101
tp1292
Rp1293
(I1
(I3
tp1294
g1107
I00
S'\xa4p=\n\xd7\xe37@\n\xd7\xa3p=\x8a7@\x85\xebQ\xb8\x1eE8@'
p1295
tp1296
bag1099
(g554
(I0
tp1297
g1101
tp1298
Rp1299
(I1
(I3
tp1300
g1107
I00
S'\xaeG\xe1z\x14.6@\xf6(\\\x8f\xc2\xb55@\x00\x00\x00\x00\x00\xc05@'
p1301
tp1302
bag1099
(g554
(I0
tp1303
g1101
tp1304
Rp1305
(I1
(I3
tp1306
g1107
I00
S'\xe1z\x14\xaeG\xe17@\xecQ\xb8\x1e\x85k7@\xe1z\x14\xaeG\xa17@'
p1307
tp1308
bag1099
(g554
(I0
tp1309
g1101
tp1310
Rp1311
(I1
(I3
tp1312
g1107
I00
S'\xd7\xa3p=\n\x978@\\\x8f\xc2\xf5(\x9c8@\xd7\xa3p=\nW8@'
p1313
tp1314
bag1099
(g554
(I0
tp1315
g1101
tp1316
Rp1317
(I1
(I3
tp1318
g1107
I00
S'33333\xf3=@33333s>@\xe1z\x14\xaeG\xe1=@'
p1319
tp1320
bag1099
(g554
(I0
tp1321
g1101
tp1322
Rp1323
(I1
(I3
tp1324
g1107
I00
S'\xb8\x1e\x85\xebQ87@\xcd\xcc\xcc\xcc\xcc\xcc7@=\n\xd7\xa3p}7@'
p1325
tp1326
bag1099
(g554
(I0
tp1327
g1101
tp1328
Rp1329
(I1
(I3
tp1330
g1107
I00
S'\x1f\x85\xebQ\xb8^:@\\\x8f\xc2\xf5(\\:@\xecQ\xb8\x1e\x85+:@'
p1331
tp1332
bag1099
(g554
(I0
tp1333
g1101
tp1334
Rp1335
(I1
(I3
tp1336
g1107
I00
S'\xcd\xcc\xcc\xcc\xcc\xcc8@\xb8\x1e\x85\xebQ\xf88@\xe1z\x14\xaeG\xa18@'
p1337
tp1338
bag1099
(g554
(I0
tp1339
g1101
tp1340
Rp1341
(I1
(I3
tp1342
g1107
I00
S')\\\x8f\xc2\xf5\xe82@H\xe1z\x14\xae\xc72@\xcd\xcc\xcc\xcc\xcc\xcc2@'
p1343
tp1344
bag1099
(g554
(I0
tp1345
g1101
tp1346
Rp1347
(I1
(I3
tp1348
g1107
I00
S'\x00\x00\x00\x00\x00\x804@\xb8\x1e\x85\xebQx4@H\xe1z\x14\xaeG4@'
p1349
tp1350
bag1099
(g554
(I0
tp1351
g1101
tp1352
Rp1353
(I1
(I3
tp1354
g1107
I00
S'\xcd\xcc\xcc\xcc\xcc\xcc8@\xb8\x1e\x85\xebQ\xf88@\xe1z\x14\xaeG\xa18@'
p1355
tp1356
bag1099
(g554
(I0
tp1357
g1101
tp1358
Rp1359
(I1
(I3
tp1360
g1107
I00
S')\\\x8f\xc2\xf5\xe82@H\xe1z\x14\xae\xc72@\xcd\xcc\xcc\xcc\xcc\xcc2@'
p1361
tp1362
bag1099
(g554
(I0
tp1363
g1101
tp1364
Rp1365
(I1
(I3
tp1366
g1107
I00
S'\x00\x00\x00\x00\x00\x804@\xb8\x1e\x85\xebQx4@H\xe1z\x14\xaeG4@'
p1367
tp1368
basg538
g0
(g539
g2
Ntp1369
Rp1370
(dp1371
g543
Nsg566
g1240
sg547
I00
sg548
I00
sg549
Nsbsg551
g0
(g552
g553
(g554
g555
tp1372
tp1373
Rp1374
sg545
VGroupedCt
p1375
sbag0
(g512
g2
Ntp1376
Rp1377
(dp1378
g516
I00
sg517
g4
sg518
(lp1379
g1099
(g554
(I0
tp1380
g1101
tp1381
Rp1382
(I1
(I4
tp1383
g1107
I00
S'\x00\x00\x00\x00\x00\x007@fffff\xe66@\xcd\xcc\xcc\xcc\xcc\xcc6@\x00\x00\x00\x00\x00\x007@'
p1384
tp1385
bag1099
(g554
(I0
tp1386
g1101
tp1387
Rp1388
(I1
(I3
tp1389
g1107
I00
S'3333332@3333332@ffffff2@'
p1390
tp1391
bag1099
(g554
(I0
tp1392
g1101
tp1393
Rp1394
(I1
(I3
tp1395
g1107
I00
S'33333\xb33@\xcd\xcc\xcc\xcc\xcc\xcc3@\x00\x00\x00\x00\x00\x004@'
p1396
tp1397
bag1099
(g554
(I0
tp1398
g1101
tp1399
Rp1400
(I1
(I3
tp1401
g1107
I00
S'33333\xb3:@\x9a\x99\x99\x99\x99\x19;@333333;@'
p1402
tp1403
bag1099
(g554
(I0
tp1404
g1101
tp1405
Rp1406
(I1
(I3
tp1407
g1107
I00
S'\xcd\xcc\xcc\xcc\xcc\xcc:@33333\xb3:@333333:@'
p1408
tp1409
bag1099
(g554
(I0
tp1410
g1101
tp1411
Rp1412
(I1
(I3
tp1413
g1107
I00
S'\x00\x00\x00\x00\x00\x00>@\x9a\x99\x99\x99\x99\x19>@ffffff=@'
p1414
tp1415
bag1099
(g554
(I0
tp1416
g1101
tp1417
Rp1418
(I1
(I3
tp1419
g1107
I00
S'fffff\xe63@fffff\xe63@\x00\x00\x00\x00\x00\x004@'
p1420
tp1421
bag1099
(g554
(I0
tp1422
g1101
tp1423
Rp1424
(I1
(I3
tp1425
g1107
I00
S'fffff\xe65@\x9a\x99\x99\x99\x99\x196@\xcd\xcc\xcc\xcc\xcc\xcc5@'
p1426
tp1427
bag1099
(g554
(I0
tp1428
g1101
tp1429
Rp1430
(I1
(I3
tp1431
g1107
I00
S'fffff\xe67@\x00\x00\x00\x00\x00\x807@\xcd\xcc\xcc\xcc\xccL8@'
p1432
tp1433
bag1099
(g554
(I0
tp1434
g1101
tp1435
Rp1436
(I1
(I3
tp1437
g1107
I00
S'3333336@33333\xb35@\xcd\xcc\xcc\xcc\xcc\xcc5@'
p1438
tp1439
bag1099
(g554
(I0
tp1440
g1101
tp1441
Rp1442
(I1
(I3
tp1443
g1107
I00
S'fffff\xe67@ffffff7@\x9a\x99\x99\x99\x99\x997@'
p1444
tp1445
bag1099
(g554
(I0
tp1446
g1101
tp1447
Rp1448
(I1
(I3
tp1449
g1107
I00
S'\x9a\x99\x99\x99\x99\x998@\x9a\x99\x99\x99\x99\x998@\xcd\xcc\xcc\xcc\xccL8@'
p1450
tp1451
bag1099
(g554
(I0
tp1452
g1101
tp1453
Rp1454
(I1
(I3
tp1455
g1107
I00
S'fffff\xe6=@ffffff>@fffff\xe6=@'
p1456
tp1457
bag1099
(g554
(I0
tp1458
g1101
tp1459
Rp1460
(I1
(I3
tp1461
g1107
I00
S'3333337@\xcd\xcc\xcc\xcc\xcc\xcc7@\x00\x00\x00\x00\x00\x807@'
p1462
tp1463
bag1099
(g554
(I0
tp1464
g1101
tp1465
Rp1466
(I1
(I3
tp1467
g1107
I00
S'ffffff:@ffffff:@333333:@'
p1468
tp1469
bag1099
(g554
(I0
tp1470
g1101
tp1471
Rp1472
(I1
(I3
tp1473
g1107
I00
S'\xcd\xcc\xcc\xcc\xcc\xcc8@\x00\x00\x00\x00\x00\x009@\x9a\x99\x99\x99\x99\x998@'
p1474
tp1475
bag1099
(g554
(I0
tp1476
g1101
tp1477
Rp1478
(I1
(I3
tp1479
g1107
I00
S'fffff\xe62@\xcd\xcc\xcc\xcc\xcc\xcc2@\xcd\xcc\xcc\xcc\xcc\xcc2@'
p1480
tp1481
bag1099
(g554
(I0
tp1482
g1101
tp1483
Rp1484
(I1
(I3
tp1485
g1107
I00
S'\x00\x00\x00\x00\x00\x804@\x00\x00\x00\x00\x00\x804@\xcd\xcc\xcc\xcc\xccL4@'
p1486
tp1487
bag1099
(g554
(I0
tp1488
g1101
tp1489
Rp1490
(I1
(I3
tp1491
g1107
I00
S'\xcd\xcc\xcc\xcc\xcc\xcc8@\x00\x00\x00\x00\x00\x009@\x9a\x99\x99\x99\x99\x998@'
p1492
tp1493
bag1099
(g554
(I0
tp1494
g1101
tp1495
Rp1496
(I1
(I3
tp1497
g1107
I00
S'fffff\xe62@\xcd\xcc\xcc\xcc\xcc\xcc2@\xcd\xcc\xcc\xcc\xcc\xcc2@'
p1498
tp1499
bag1099
(g554
(I0
tp1500
g1101
tp1501
Rp1502
(I1
(I3
tp1503
g1107
I00
S'\x00\x00\x00\x00\x00\x804@\x00\x00\x00\x00\x00\x804@\xcd\xcc\xcc\xcc\xccL4@'
p1504
tp1505
basg538
g0
(g539
g2
Ntp1506
Rp1507
(dp1508
g543
Vlength = len(Groups)\u000aStdFilteredGroupedCt = roundValues([filterExtremes(g, max_std, 2) for g in pruneNulls(GroupedCt)])\u000a 
p1509
sg545
VStdFilteredGroupedCt
p1510
sg547
I00
sg548
I00
sg549
Vlength = len(Groups)\u000aStdFilteredGroupedCt = roundValues([filterExtremes(g, max_std, 2) for g in pruneNulls(GroupedCt)])\u000a 
p1511
sbsg551
g0
(g552
g553
(g554
g555
tp1512
tp1513
Rp1514
sg545
g1510
sbag0
(g512
g2
Ntp1515
Rp1516
(dp1517
g516
I00
sg517
g4
sg518
(lp1518
F22.9
aF18.3
aF19.8
aF27.0
aF26.6
aF29.8
aF19.9
aF21.9
aF23.9
aF21.9
aF23.6
aF24.5
aF30.1
aF23.5
aF26.3
aF24.8
aF18.8
aF20.4
aF24.8
aF18.8
aF20.4
aFnan
aFnan
aFnan
aFnan
aFnan
aFnan
aFnan
aFnan
aFnan
aFnan
aFnan
aFnan
aFnan
aFnan
aFnan
aFnan
aFnan
aFnan
aFnan
aFnan
aFnan
aFnan
aFnan
aFnan
aFnan
aFnan
aFnan
aFnan
aFnan
aFnan
aFnan
aFnan
aFnan
aFnan
aFnan
aFnan
aFnan
aFnan
aFnan
aFnan
aFnan
aFnan
aFnan
asg538
g0
(g539
g2
Ntp1519
Rp1520
(dp1521
g543
VMeanCt = [np.mean(g) for g in StdFilteredGroupedCt]\u000aMeanCt = roundValues(MeanCt,1)\u000aStdCt = [np.std(g, ddof=1) if len(g) > 2 else 0 for g in StdFilteredGroupedCt]\u000aStdCt = roundValues(StdCt,3)
p1522
sg545
VMeanCt
p1523
sg547
I00
sg548
I00
sg549
VMeanCt = [np.mean(g) for g in StdFilteredGroupedCt]\u000aMeanCt = roundValues(MeanCt,1)\u000aStdCt = [np.std(g, ddof=1) if len(g) > 2 else 0 for g in StdFilteredGroupedCt]\u000aStdCt = roundValues(StdCt,3)
p1524
sbsg551
g0
(g552
g553
(g554
g555
tp1525
tp1526
Rp1527
sg545
g1523
sbag0
(g512
g2
Ntp1528
Rp1529
(dp1530
g516
I00
sg517
g4
sg518
(lp1531
F0.096
aF0.115
aF0.153
aF0.265
aF0.321
aF0.379
aF0.058
aF0.153
aF0.4
aF0.265
aF0.252
aF0.173
aF0.289
aF0.3
aF0.115
aF0.2
aF0.058
aF0.115
aF0.2
aF0.058
aF0.115
asg538
g0
(g539
g2
Ntp1532
Rp1533
(dp1534
g543
Nsg566
g1529
sg547
I00
sg548
I00
sg549
Nsbsg551
g0
(g552
g553
(g554
g555
tp1535
tp1536
Rp1537
sg545
VStdCt
p1538
sbag514
ag560
ag572
ag580
ag588
ag601
ag614
ag0
(g512
g2
Ntp1539
Rp1540
(dp1541
g516
I00
sg517
g4
sg518
(lp1542
F0.0
aF1.0
aF2.0
aF3.0
asg538
g0
(g539
g2
Ntp1543
Rp1544
(dp1545
g543
Vcat_vals = [br[0] for br in pruneNulls(BioRuns)]\u000aclean_geo = [x for x in GeoMean if x is not None]\u000aGeoGroups, groupedGeoMeans = groupBy(cat_vals, clean_geo)\u000aGroupedGeoMeans = roundValues(groupedGeoMeans, 3)
p1546
sg545
VGeoGroups
p1547
sg547
I00
sg548
I00
sg549
Vcat_vals = [br[0] for br in pruneNulls(BioRuns)]\u000aclean_geo = [x for x in GeoMean if x is not None]\u000aGeoGroups, groupedGeoMeans = groupBy(cat_vals, clean_geo)\u000aGroupedGeoMeans = roundValues(groupedGeoMeans, 3)
p1548
sbsg551
g0
(g552
g553
(g554
g555
tp1549
tp1550
Rp1551
sg545
g1547
sbag0
(g512
g2
Ntp1552
Rp1553
(dp1554
g516
I00
sg517
g4
sg518
(lp1555
g1099
(g554
(I0
tp1556
g1101
tp1557
Rp1558
(I1
(I1
tp1559
g1107
I00
S'D\x8bl\xe7\xfb\xa9\xb1?'
p1560
tp1561
bag1099
(g554
(I0
tp1562
g1101
tp1563
Rp1564
(I1
(I3
tp1565
g1107
I00
S'\xb8\x1e\x85\xebQ\xb8\x8e?D\x8bl\xe7\xfb\xa9\xb1?\x1b/\xdd$\x06\x81\x95?'
p1566
tp1567
bag1099
(g554
(I0
tp1568
g1101
tp1569
Rp1570
(I1
(I1
tp1571
g1107
I00
S'\xd9\xce\xf7S\xe3\xa5\x9b?'
p1572
tp1573
bag1099
(g554
(I0
tp1574
g1101
tp1575
Rp1576
(I1
(I1
tp1577
g1107
I00
S'\xd9\xce\xf7S\xe3\xa5\x9b?'
p1578
tp1579
basg538
g0
(g539
g2
Ntp1580
Rp1581
(dp1582
g543
Nsg566
g1553
sg547
I00
sg548
I00
sg549
Nsbsg551
g0
(g552
g553
(g554
g555
tp1583
tp1584
Rp1585
sg545
VGroupedGeoMeans
p1586
sbag0
(g512
g2
Ntp1587
Rp1588
(dp1589
g516
I00
sg517
g4
sg518
(lp1590
g1099
(g554
(I0
tp1591
g1101
tp1592
Rp1593
(I1
(I1
tp1594
g1107
I00
S'\x00\x00\x00\x00\x00\x00\xf0?'
p1595
tp1596
bag1099
(g554
(I0
tp1597
g1101
tp1598
Rp1599
(I1
(I3
tp1600
g1107
I00
S'-\xb2\x9d\xef\xa7\xc6\xcb?\x00\x00\x00\x00\x00\x00\xf0?\xdb\xf9~j\xbct\xd3?'
p1601
tp1602
bag1099
(g554
(I0
tp1603
g1101
tp1604
Rp1605
(I1
(I1
tp1606
g1107
I00
S'\xa0\x1a/\xdd$\x06\xd9?'
p1607
tp1608
bag1099
(g554
(I0
tp1609
g1101
tp1610
Rp1611
(I1
(I1
tp1612
g1107
I00
S'\xa0\x1a/\xdd$\x06\xd9?'
p1613
tp1614
basg538
g0
(g539
g2
Ntp1615
Rp1616
(dp1617
g543
Vref = np.mean(GroupedGeoMeans[0])\u000aNrmlGeoGroupedMeans = [ [x/ref for x in g] for g in GroupedGeoMeans if g is not None]  \u000aNrmlGeoGroupedMeans = roundValues(NrmlGeoGroupedMeans, 3)
p1618
sg545
VNrmlGeoGroupedMeans
p1619
sg547
I00
sg548
I00
sg549
Vref = np.mean(GroupedGeoMeans[0])\u000aNrmlGeoGroupedMeans = [ [x/ref for x in g] for g in GroupedGeoMeans if g is not None]  \u000aNrmlGeoGroupedMeans = roundValues(NrmlGeoGroupedMeans, 3)
p1620
sbsg551
g0
(g552
g553
(g554
g555
tp1621
tp1622
Rp1623
sg545
g1619
sbag0
(g512
g2
Ntp1624
Rp1625
(dp1626
g516
I00
sg517
g4
sg518
(lp1627
F1.0
aF0.507
aF0.391
aF0.391
asg538
g0
(g539
g2
Ntp1628
Rp1629
(dp1630
g543
VMeanNrmlGeoGroups = [round(np.mean(g), 3) for g in NrmlGeoGroupedMeans]
p1631
sg545
VMeanNrmlGeoGroups
p1632
sg547
I01
sg548
I00
sg549
V[round(np.mean(g), 3) for g in NrmlGeoGroupedMeans]
p1633
sbsg551
g0
(g552
g553
(g554
g555
tp1634
tp1635
Rp1636
sg545
g1632
sbag0
(g512
g2
Ntp1637
Rp1638
(dp1639
g516
I00
sg517
g4
sg518
(lp1640
F0.248
asg538
g0
(g539
g2
Ntp1641
Rp1642
(dp1643
g543
VStdNrmlGeoGroups = []\u000afor grp in NrmlGeoGroupedMeans:\u000a  if len(grp) > 1:\u000a    val = np.std(grp, ddof=1)/np.sqrt(len(grp))\u000a    val = round(val, 3)\u000a    StdNrmlGeoGroups.append(val)\u000a
p1644
sg545
VStdNrmlGeoGroups
p1645
sg547
I00
sg548
I00
sg549
VStdNrmlGeoGroups = []\u000afor grp in NrmlGeoGroupedMeans:\u000a  if len(grp) > 1:\u000a    val = np.std(grp, ddof=1)/np.sqrt(len(grp))\u000a    val = round(val, 3)\u000a    StdNrmlGeoGroups.append(val)\u000a
p1646
sbsg551
g0
(g552
g553
(g554
g555
tp1647
tp1648
Rp1649
sg545
g1645
sbasg505
V/home/ubuntu/SciSheets/mysite/user/guest/tables/kristen_single_gene.pcl
p1650
sb.