ccopy_reg
_reconstructor
p0
(cscisheets.ui.dt_table
DTTable
p1
c__builtin__
object
p2
Ntp3
Rp4
(dp5
S'_hidden_columns'
p6
(lp7
sS'_columns'
p8
(lp9
g0
(cscisheets.core.column
Column
p10
g2
Ntp11
Rp12
(dp13
S'_asis'
p14
I01
sS'_owning_table'
p15
g4
sS'_cells'
p16
(lp17
S'1'
p18
aS'2'
p19
aS'3'
p20
aS'4'
p21
aS'5'
p22
aS'6'
p23
aS'7'
p24
aS'8'
p25
aS'9'
p26
aS'10'
p27
aS'11'
p28
aS'12'
p29
aS'13'
p30
aS'14'
p31
aS'15'
p32
aS'16'
p33
aS'17'
p34
aS'18'
p35
aS'19'
p36
aS'20'
p37
aS'21'
p38
aS'22'
p39
aS'23'
p40
aS'24'
p41
aS'25'
p42
aS'26'
p43
aS'27'
p44
aS'28'
p45
aS'29'
p46
aS'30'
p47
aS'31'
p48
aS'32'
p49
aS'33'
p50
aS'34'
p51
aS'35'
p52
aS'36'
p53
aS'37'
p54
aS'38'
p55
aS'39'
p56
aS'40'
p57
aS'41'
p58
aS'42'
p59
aS'43'
p60
aS'44'
p61
aS'45'
p62
aS'46'
p63
aS'47'
p64
aS'48'
p65
aS'49'
p66
aS'50'
p67
aS'51'
p68
aS'52'
p69
aS'53'
p70
aS'54'
p71
asS'_formula_statement'
p72
g0
(cscisheets.core.column
FormulaStatement
p73
g2
Ntp74
Rp75
(dp76
S'_statement'
p77
NsS'_column'
p78
g12
sS'_isExpression'
p79
I00
sS'_isStatement'
p80
I00
sS'_formula'
p81
NsbsS'_data_class'
p82
g0
(cscisheets.core.helpers.api_util
DataClass
p83
c__builtin__
tuple
p84
(cnumpy
ndarray
p85
cscisheets.core.helpers.api_util
makeArray
p86
tp87
tp88
Rp89
sS'_name'
p90
S'row'
p91
sbag0
(g10
g2
Ntp92
Rp93
(dp94
g14
I00
sg15
g4
sg16
(lp95
Vgene
p96
aVrun
p97
aVshow_raw
p98
aVshow_groups
p99
aVnan
p100
aVnan
p101
aVnan
p102
aVnan
p103
aVnan
p104
aVnan
p105
aVnan
p106
aVnan
p107
aVnan
p108
aVnan
p109
aVnan
p110
aVnan
p111
aVnan
p112
aVnan
p113
aVnan
p114
aVnan
p115
aVnan
p116
aVnan
p117
aVnan
p118
aVnan
p119
aVnan
p120
aVnan
p121
aVnan
p122
aVnan
p123
aVnan
p124
aVnan
p125
aVnan
p126
aVnan
p127
aVnan
p128
aVnan
p129
aVnan
p130
aVnan
p131
aVnan
p132
aVnan
p133
aVnan
p134
aVnan
p135
aVnan
p136
aVnan
p137
aVnan
p138
aVnan
p139
aVnan
p140
aVnan
p141
aVnan
p142
aVnan
p143
aVnan
p144
aVnan
p145
aVnan
p146
aVnan
p147
aVnan
p148
aVnan
p149
asg72
g0
(g73
g2
Ntp150
Rp151
(dp152
g77
Nsg78
g93
sg79
I00
sg80
I00
sg81
Nsbsg82
g0
(g83
g84
(g85
g86
tp153
tp154
Rp155
sg90
VParmNames
p156
sbag0
(g10
g2
Ntp157
Rp158
(dp159
g14
I00
sg15
g4
sg16
(lp160
VGene2
p161
aVTrue
p162
aVTrue
p163
aVTrue
p164
aV
p165
aVnan
p166
aVnan
p167
aVnan
p168
aVnan
p169
aVnan
p170
aVnan
p171
aVnan
p172
aVnan
p173
aVnan
p174
aVnan
p175
aVnan
p176
aVnan
p177
aVnan
p178
aVnan
p179
aVnan
p180
aVnan
p181
aVnan
p182
aVnan
p183
aVnan
p184
aVnan
p185
aVnan
p186
aVnan
p187
aVnan
p188
aVnan
p189
aVnan
p190
aVnan
p191
aVnan
p192
aVnan
p193
aVnan
p194
aVnan
p195
aVnan
p196
aVnan
p197
aVnan
p198
aVnan
p199
aVnan
p200
aVnan
p201
aVnan
p202
aVnan
p203
aVnan
p204
aVnan
p205
aVnan
p206
aVnan
p207
aVnan
p208
aVnan
p209
aVnan
p210
aVnan
p211
aVnan
p212
aVnan
p213
aVnan
p214
asg72
g0
(g73
g2
Ntp215
Rp216
(dp217
g77
Vxlsx_path = '/mnt/hgfs/josephhellerstein/home/Technical/SciSheets/CaseStudies/Kristen/workbooks/data.xlsx'\u000as.setColumnVisibility()\u000agene = ParmValues[0]\u000arun = ParmValues[1] == 'True'\u000ashow_raw = ParmValues[2] == 'True'\u000ashow_groups = ParmValues[3] == 'True'\u000aworksheet = gene + "-I"\u000aif False:\u000a  Groups = []\u000a  GroupedCt = []\u000a  GroupedEff = []\u000a  MeanCt = []\u000a  Imp = []\u000a  s.deleteColumn('Ct')\u000a  s.deleteColumn('RunType')\u000a  s.deleteColumn('BRpl')\u000a  s.deleteColumn('TRpl')\u000a  s.deleteColumn('Treatment')\u000a  s.deleteColumn('SmplName')\u000a  s.deleteColumn('Eff')\u000aif run:\u000a  importExcelToTable(s, xlsx_path, worksheet=worksheet)\u000a  BRpl = s.getColumnValues('BRpl')\u000a  Ct = s.getColumnValues('Ct')\u000a  Eff = s.getColumnValues('Eff')\u000a  RunType = s.getColumnValues('RunType')\u000a  TRpl = s.getColumnValues('TRpl')\u000a  Treatment = s.getColumnValues('Treatment')\u000a  s.setColumnVisibility(['BRpl', 'Ct', 'Eff', 'RunType', 'SmplName', 'TRpl', 'Treatment'], is_visible=show_raw)
p218
sg78
g158
sg79
I00
sg80
I00
sg81
Vxlsx_path = '/mnt/hgfs/josephhellerstein/home/Technical/SciSheets/CaseStudies/Kristen/workbooks/data.xlsx'\u000as.setColumnVisibility()\u000agene = ParmValues[0]\u000arun = ParmValues[1] == 'True'\u000ashow_raw = ParmValues[2] == 'True'\u000ashow_groups = ParmValues[3] == 'True'\u000aworksheet = gene + "-I"\u000aif False:\u000a  Groups = []\u000a  GroupedCt = []\u000a  GroupedEff = []\u000a  MeanCt = []\u000a  Imp = []\u000a  s.deleteColumn('Ct')\u000a  s.deleteColumn('RunType')\u000a  s.deleteColumn('BRpl')\u000a  s.deleteColumn('TRpl')\u000a  s.deleteColumn('Treatment')\u000a  s.deleteColumn('SmplName')\u000a  s.deleteColumn('Eff')\u000aif run:\u000a  importExcelToTable(s, xlsx_path, worksheet=worksheet)\u000a  BRpl = s.getColumnValues('BRpl')\u000a  Ct = s.getColumnValues('Ct')\u000a  Eff = s.getColumnValues('Eff')\u000a  RunType = s.getColumnValues('RunType')\u000a  TRpl = s.getColumnValues('TRpl')\u000a  Treatment = s.getColumnValues('Treatment')\u000a  s.setColumnVisibility(['BRpl', 'Ct', 'Eff', 'RunType', 'SmplName', 'TRpl', 'Treatment'], is_visible=show_raw)
p219
sbsg82
g0
(g83
g84
(g85
g86
tp220
tp221
Rp222
sg90
VParmValues
p223
sbag0
(g10
g2
Ntp224
Rp225
(dp226
g14
I00
sg15
g4
sg16
(lp227
Fnan
aFnan
aFnan
aFnan
aFnan
aFnan
aFnan
aFnan
aFnan
aFnan
aFnan
aFnan
aFnan
aFnan
aFnan
aFnan
aFnan
aFnan
aFnan
aFnan
aFnan
aFnan
aFnan
aFnan
aFnan
aFnan
aFnan
aFnan
aFnan
aFnan
aFnan
aFnan
aFnan
aFnan
aFnan
aFnan
aFnan
aFnan
aFnan
aFnan
aFnan
aFnan
aFnan
aFnan
aFnan
aFnan
aFnan
aFnan
aFnan
aFnan
aFnan
aFnan
aFnan
aFnan
asg72
g0
(g73
g2
Ntp228
Rp229
(dp230
g77
Vif run:\u000a  selector = Eff > 0.7\u000a  GroupingColumns =   [\u000a      BioSmpl[selector],\u000a      Gene[selector], \u000a      IntRef[selector],\u000a      TrtCtl[selector] \u000a    ]\u000a  Groups, groupedCt = groupBy(\u000a    GroupingColumns, CtValue[selector])\u000a  Groups, groupedEff = groupBy(\u000a    GroupingColumns, Eff[selector])
p231
sg78
g225
sg79
I00
sg80
I00
sg81
Vif run:\u000a  selector = Eff > 0.7\u000a  GroupingColumns =   [\u000a      BioSmpl[selector],\u000a      Gene[selector], \u000a      IntRef[selector],\u000a      TrtCtl[selector] \u000a    ]\u000a  Groups, groupedCt = groupBy(\u000a    GroupingColumns, CtValue[selector])\u000a  Groups, groupedEff = groupBy(\u000a    GroupingColumns, Eff[selector])
p232
sbsg82
g0
(g83
g84
(g85
g86
tp233
tp234
Rp235
sg90
VGroups
p236
sbag0
(g10
g2
Ntp237
Rp238
(dp239
g14
I00
sg15
g4
sg16
(lp240
(lp241
S'0'
p242
aS'1'
p243
aa(lp244
g243
ag243
aa(lp245
g243
aS'2'
p246
aa(lp247
g243
aS'3'
p248
aa(lp249
g246
ag243
aa(lp250
g248
ag243
aaNaNaNaNaNaNaNaNaNaNaNaNaNaNaNaNaNaNaNaNaNaNaNaNaNaNaNaNaNaNaNaNaNaNaNaNaNaNaNaNaNaNaNaNaNaNaNaNasg72
g0
(g73
g2
Ntp251
Rp252
(dp253
g77
Vif run:\u000a  tabularize(s, 'Groups', 1, 'MeanCt', \u000a      new_category_colnm='BioRuns',\u000a      values_colnm_prefix='Gene_')\u000a  BioRuns = s.getColumnValues('BioRuns')
p254
sg78
g238
sg79
I00
sg80
I00
sg81
Vif run:\u000a  tabularize(s, 'Groups', 1, 'MeanCt', \u000a      new_category_colnm='BioRuns',\u000a      values_colnm_prefix='Gene_')\u000a  BioRuns = s.getColumnValues('BioRuns')
p255
sbsg82
g0
(g83
g84
(g85
g86
tp256
tp257
Rp258
sg90
VBioRuns
p259
sbag0
(g10
g2
Ntp260
Rp261
(dp262
g14
I00
sg15
g4
sg16
(lp263
F22.9
aF27.0
aF26.6
aF29.8
aF30.1
aF24.8
aFnan
aFnan
aFnan
aFnan
aFnan
aFnan
aFnan
aFnan
aFnan
aFnan
aFnan
aFnan
aFnan
aFnan
aFnan
aFnan
aFnan
aFnan
aFnan
aFnan
aFnan
aFnan
aFnan
aFnan
aFnan
aFnan
aFnan
aFnan
aFnan
aFnan
aFnan
aFnan
aFnan
aFnan
aFnan
aFnan
aFnan
aFnan
aFnan
aFnan
aFnan
aFnan
aFnan
aFnan
aFnan
aFnan
aFnan
aFnan
asg72
g0
(g73
g2
Ntp264
Rp265
(dp266
g77
Nsg78
g261
sg79
I00
sg80
I00
sg81
Nsbsg82
g0
(g83
g84
(g85
g86
tp267
tp268
Rp269
sg90
S'Gene_I'
p270
sbag0
(g10
g2
Ntp271
Rp272
(dp273
g14
I00
sg15
g4
sg16
(lp274
F18.3
aF19.9
aF21.9
aF23.9
aF23.5
aF18.8
aFnan
aFnan
aFnan
aFnan
aFnan
aFnan
aFnan
aFnan
aFnan
aFnan
aFnan
aFnan
aFnan
aFnan
aFnan
aFnan
aFnan
aFnan
aFnan
aFnan
aFnan
aFnan
aFnan
aFnan
aFnan
aFnan
aFnan
aFnan
aFnan
aFnan
aFnan
aFnan
aFnan
aFnan
aFnan
aFnan
aFnan
aFnan
aFnan
aFnan
aFnan
aFnan
aFnan
aFnan
aFnan
aFnan
aFnan
aFnan
asg72
g0
(g73
g2
Ntp275
Rp276
(dp277
g77
Nsg78
g272
sg79
I00
sg80
I00
sg81
Nsbsg82
g269
sg90
S'Gene_R1'
p278
sbag0
(g10
g2
Ntp279
Rp280
(dp281
g14
I00
sg15
g4
sg16
(lp282
F19.8
aF21.9
aF23.6
aF24.5
aF26.3
aF20.4
aFnan
aFnan
aFnan
aFnan
aFnan
aFnan
aFnan
aFnan
aFnan
aFnan
aFnan
aFnan
aFnan
aFnan
aFnan
aFnan
aFnan
aFnan
aFnan
aFnan
aFnan
aFnan
aFnan
aFnan
aFnan
aFnan
aFnan
aFnan
aFnan
aFnan
aFnan
aFnan
aFnan
aFnan
aFnan
aFnan
aFnan
aFnan
aFnan
aFnan
aFnan
aFnan
aFnan
aFnan
aFnan
aFnan
aFnan
aFnan
asg72
g0
(g73
g2
Ntp283
Rp284
(dp285
g77
Nsg78
g280
sg79
I00
sg80
I00
sg81
Nsbsg82
g269
sg90
S'Gene_R2'
p286
sbag0
(g10
g2
Ntp287
Rp288
(dp289
g14
I00
sg15
g4
sg16
(lp290
I1
aI1
aI1
aI2
aI2
aI2
aI3
aI3
aI3
aI1
aI1
aI1
aI1
aI1
aI1
aI1
aI1
aI1
aI1
aI1
aI1
aI2
aI2
aI2
aI3
aI3
aI3
aI1
aI1
aI1
aI1
aI1
aI1
aI1
aI1
aI1
aI1
aI1
aI1
aI2
aI2
aI2
aI3
aI3
aI3
aI1
aI1
aI1
aI1
aI1
aI1
aI1
aI1
aI1
asg72
g0
(g73
g2
Ntp291
Rp292
(dp293
g77
Nsg78
g288
sg79
I00
sg80
I00
sg81
Nsbsg82
g0
(g83
g84
(g85
g86
tp294
tp295
Rp296
sg90
S'BRpl'
p297
sbag0
(g10
g2
Ntp298
Rp299
(dp300
g14
I00
sg15
g4
sg16
(lp301
F22.42
aF22.5
aF22.44
aF21.92
aF22.03
aF21.94
aF23.4
aF23.47
aF23.41
aF23.48
aF23.31
aF23.45
aF18.82
aF18.97
aF18.92
aF18.31
aF18.29
aF18.15
aF19.92
aF19.85
aF20.0
aF21.86
aF22.09
aF21.84
aF23.89
aF23.54
aF24.27
aF23.22
aF23.8
aF23.49
aF18.91
aF18.78
aF18.8
aF18.24
aF18.22
aF18.36
aF22.18
aF21.71
aF21.75
aF23.88
aF23.42
aF23.63
aF24.59
aF24.61
aF24.34
aF26.37
aF26.36
aF26.17
aF20.5
aF20.47
aF20.28
aF19.72
aF19.75
aF20.01
asg72
g0
(g73
g2
Ntp302
Rp303
(dp304
g77
Nsg78
g299
sg79
I00
sg80
I00
sg81
Nsbsg82
g296
sg90
S'Ct'
p305
sbag0
(g10
g2
Ntp306
Rp307
(dp308
g14
I00
sg15
g4
sg16
(lp309
F0.8453
aF0.8426
aF0.8524
aF0.8658
aF0.7809
aF0.8512
aF0.8442
aF0.8357
aF0.7658
aF0.8352
aF0.7886
aF0.8105
aF0.876
aF0.8597
aF0.8873
aF0.919
aF0.9106
aF0.9129
aF0.9179
aF0.9783
aF0.8971
aF0.8957
aF0.8287
aF0.8387
aF0.8746
aF0.8493
aF0.8349
aF0.7701
aF0.8746
aF0.8139
aF0.8715
aF0.8977
aF0.856
aF0.8266
aF0.8343
aF0.8496
aF0.7857
aF0.8427
aF0.8637
aF0.8281
aF0.8203
aF0.8288
aF0.8138
aF0.8242
aF0.804
aF0.7795
aF0.7676
aF0.7947
aF0.8179
aF0.8173
aF0.7894
aF0.8157
aF0.8543
aF0.8208
asg72
g0
(g73
g2
Ntp310
Rp311
(dp312
g77
Nsg78
g307
sg79
I00
sg80
I00
sg81
Nsbsg82
g296
sg90
S'Eff'
p313
sbag0
(g10
g2
Ntp314
Rp315
(dp316
g14
I00
sg15
g4
sg16
(lp317
VI
p318
ag318
ag318
ag318
ag318
ag318
ag318
ag318
ag318
ag318
ag318
ag318
ag318
ag318
ag318
ag318
ag318
ag318
aVR1
p319
ag319
ag319
ag319
ag319
ag319
ag319
ag319
ag319
ag319
ag319
ag319
ag319
ag319
ag319
ag319
ag319
ag319
aVR2
p320
ag320
ag320
ag320
ag320
ag320
ag320
ag320
ag320
ag320
ag320
ag320
ag320
ag320
ag320
ag320
ag320
ag320
asg72
g0
(g73
g2
Ntp321
Rp322
(dp323
g77
Nsg78
g315
sg79
I00
sg80
I00
sg81
Nsbsg82
g296
sg90
S'RunType'
p324
sbag0
(g10
g2
Ntp325
Rp326
(dp327
g14
I00
sg15
g4
sg16
(lp328
VSEP1 2012 P17F4 3a
p329
aVSEP1 2012 P17F4 b
p330
aVSEP1 2012 P17F4 c
p331
aVSEP1 2012 P17F5 a
p332
aVSEP1 2012 P17F5 b
p333
aVSEP1 2012 P17F5 c
p334
aVSEP1 2012 P1F3 SEP1a
p335
aVSEP1 2012 P1F3 SEP1b
p336
aVSEP1 2012 P1F3 SEP1c
p337
aVSEP1-2 2012 P11aF2 a
p338
aVSEP1-2 2012 P11aF2 b
p339
aVSEP1-2 2012 P11aF2 c
p340
aVSEP1-3 2012 P15F2 a
p341
aVSEP1-3 2012 P15F2 b
p342
aVSEP1-3 2012 P15F2 c
p343
aVuntreated 2012 P12F1 SEP3-3 1:2a
p344
aVuntreated 2012 P12F1 SEP3-3 1:2b
p345
aVuntreated 2012 P12F1 SEP3-3 1:2c
p346
aVSEP1 2012 P17F4 ACTa
p347
aVSEP1 2012 P17F4 ACTb
p348
aVSEP1 2012 P17F4 ACTc
p349
aVSEP1 2012 P17F5 ACTa
p350
aVSEP1 2012 P17F5 ACTb
p351
aVSEP1 2012 P17F5 ACTc
p352
aVSEP1 2012 P1F3 ACTa
p353
aVSEP1 2012 P1F3 ACTb
p354
aVSEP1 2012 P1F3 ACTc
p355
aVSEP1-2 2012 P11aF2 ACTa
p356
aVSEP1-2 2012 P11aF2 ACTb
p357
aVSEP1-2 2012 P11aF2 ACTc
p358
aVSEP1-3 2012 P15F2 ACTa
p359
aVSEP1-3 2012 P15F2 ACTb
p360
aVSEP1-3 2012 P15F2 ACTc
p361
aVuntreated 2012 P12F1 ACTa
p362
aVuntreated 2012 P12F1 ACTb
p363
aVuntreated 2012 P12F1 ACTc
p364
aVSEP1 2012 P17F4 EEF1a
p365
aVSEP1 2012 P17F4 EEF1b
p366
aVSEP1 2012 P17F4 EEF1c
p367
aVSEP1 2012 P17F5 EEF1a
p368
aVSEP1 2012 P17F5 EEF1b
p369
aVSEP1 2012 P17F5 EEF1c
p370
aVSEP1 2012 P1F3 EEF1a
p371
aVSEP1 2012 P1F3 EEF1b
p372
aVSEP1 2012 P1F3 EEF1c
p373
aVSEP1-2 2012 P11aF2 EEF1a
p374
aVSEP1-2 2012 P11aF2 EEF1b
p375
aVSEP1-2 2012 P11aF2 EEF1c
p376
aVSEP1-3 2012 P15F2 EEF1a
p377
aVSEP1-3 2012 P15F2 EEF1b
p378
aVSEP1-3 2012 P15F2 EEF1c
p379
aVuntreated 2012 P12F1 EEF1a
p380
aVuntreated 2012 P12F1 EEF1b
p381
aVuntreated 2012 P12F1 EEF1c
p382
asg72
g0
(g73
g2
Ntp383
Rp384
(dp385
g77
Nsg78
g326
sg79
I00
sg80
I00
sg81
Nsbsg82
g296
sg90
S'SmplName'
p386
sbag0
(g10
g2
Ntp387
Rp388
(dp389
g14
I00
sg15
g4
sg16
(lp390
Va
p391
aVb
p392
aVc
p393
ag391
ag392
ag393
ag391
ag392
ag393
ag391
ag392
ag393
ag391
ag392
ag393
ag391
ag392
ag393
ag391
ag392
ag393
ag391
ag392
ag393
ag391
ag392
ag393
ag391
ag392
ag393
ag391
ag392
ag393
ag391
ag392
ag393
ag391
ag392
ag393
ag391
ag392
ag393
ag391
ag392
ag393
ag391
ag392
ag393
ag391
ag392
ag393
ag391
ag392
ag393
asg72
g0
(g73
g2
Ntp394
Rp395
(dp396
g77
Nsg78
g388
sg79
I00
sg80
I00
sg81
Nsbsg82
g296
sg90
S'TRpl'
p397
sbag0
(g10
g2
Ntp398
Rp399
(dp400
g14
I00
sg15
g4
sg16
(lp401
I1
aI1
aI1
aI1
aI1
aI1
aI1
aI1
aI1
aI2
aI2
aI2
aI3
aI3
aI3
aI0
aI0
aI0
aI1
aI1
aI1
aI1
aI1
aI1
aI1
aI1
aI1
aI2
aI2
aI2
aI3
aI3
aI3
aI0
aI0
aI0
aI1
aI1
aI1
aI1
aI1
aI1
aI1
aI1
aI1
aI2
aI2
aI2
aI3
aI3
aI3
aI0
aI0
aI0
asg72
g0
(g73
g2
Ntp402
Rp403
(dp404
g77
Nsg78
g399
sg79
I00
sg80
I00
sg81
Nsbsg82
g296
sg90
S'Treatment'
p405
sbasS'_filepath'
p406
V/home/ubuntu/SciSheets/mysite/user/guest/tables/kristen_single_gene.pcl
p407
sg90
VSingleGene
p408
sb.