ccopy_reg
_reconstructor
p0
(cscisheets.ui.dt_table
DTTable
p1
c__builtin__
object
p2
Ntp3
Rp4
(dp5
S'_columns'
p6
(lp7
g0
(cscisheets.core.column
Column
p8
g2
Ntp9
Rp10
(dp11
S'_asis'
p12
I01
sS'_owning_table'
p13
g4
sS'_cells'
p14
(lp15
S'1'
p16
aS'2'
p17
aS'3'
p18
aS'4'
p19
aS'5'
p20
aS'6'
p21
aS'7'
p22
aS'8'
p23
aS'9'
p24
aS'10'
p25
aS'11'
p26
aS'12'
p27
aS'13'
p28
aS'14'
p29
aS'15'
p30
aS'16'
p31
aS'17'
p32
aS'18'
p33
aS'19'
p34
aS'20'
p35
aS'21'
p36
aS'22'
p37
aS'23'
p38
aS'24'
p39
aS'25'
p40
aS'26'
p41
aS'27'
p42
aS'28'
p43
aS'29'
p44
aS'30'
p45
aS'31'
p46
aS'32'
p47
aS'33'
p48
aS'34'
p49
aS'35'
p50
aS'36'
p51
aS'37'
p52
aS'38'
p53
aS'39'
p54
aS'40'
p55
aS'41'
p56
aS'42'
p57
aS'43'
p58
aS'44'
p59
aS'45'
p60
aS'46'
p61
aS'47'
p62
aS'48'
p63
aS'49'
p64
aS'50'
p65
aS'51'
p66
aS'52'
p67
aS'53'
p68
aS'54'
p69
aS'55'
p70
aS'56'
p71
aS'57'
p72
aS'58'
p73
aS'59'
p74
aS'60'
p75
aS'61'
p76
aS'62'
p77
aS'63'
p78
aS'64'
p79
aS'65'
p80
aS'66'
p81
aS'67'
p82
aS'68'
p83
aS'69'
p84
aS'70'
p85
aS'71'
p86
aS'72'
p87
aS'73'
p88
aS'74'
p89
aS'75'
p90
aS'76'
p91
aS'77'
p92
aS'78'
p93
aS'79'
p94
aS'80'
p95
aS'81'
p96
aS'82'
p97
aS'83'
p98
aS'84'
p99
aS'85'
p100
aS'86'
p101
aS'87'
p102
aS'88'
p103
aS'89'
p104
aS'90'
p105
aS'91'
p106
aS'92'
p107
aS'93'
p108
aS'94'
p109
aS'95'
p110
aS'96'
p111
aS'97'
p112
aS'98'
p113
aS'99'
p114
aS'100'
p115
aS'101'
p116
aS'102'
p117
aS'103'
p118
aS'104'
p119
aS'105'
p120
aS'106'
p121
aS'107'
p122
aS'108'
p123
aS'109'
p124
aS'110'
p125
aS'111'
p126
aS'112'
p127
aS'113'
p128
aS'114'
p129
aS'115'
p130
aS'116'
p131
aS'117'
p132
aS'118'
p133
aS'119'
p134
aS'120'
p135
aS'121'
p136
aS'122'
p137
aS'123'
p138
aS'124'
p139
aS'125'
p140
aS'126'
p141
aS'127'
p142
aS'128'
p143
aS'129'
p144
aS'130'
p145
aS'131'
p146
aS'132'
p147
aS'133'
p148
aS'134'
p149
aS'135'
p150
aS'136'
p151
aS'137'
p152
aS'138'
p153
aS'139'
p154
aS'140'
p155
aS'141'
p156
aS'142'
p157
aS'143'
p158
aS'144'
p159
aS'145'
p160
aS'146'
p161
aS'147'
p162
aS'148'
p163
aS'149'
p164
aS'150'
p165
aS'151'
p166
aS'152'
p167
aS'153'
p168
aS'154'
p169
aS'155'
p170
aS'156'
p171
aS'157'
p172
aS'158'
p173
aS'159'
p174
aS'160'
p175
aS'161'
p176
aS'162'
p177
aS'163'
p178
aS'164'
p179
aS'165'
p180
aS'166'
p181
aS'167'
p182
aS'168'
p183
aS'169'
p184
aS'170'
p185
aS'171'
p186
aS'172'
p187
aS'173'
p188
aS'174'
p189
aS'175'
p190
aS'176'
p191
aS'177'
p192
aS'178'
p193
aS'179'
p194
aS'180'
p195
aS'181'
p196
aS'182'
p197
aS'183'
p198
aS'184'
p199
aS'185'
p200
aS'186'
p201
aS'187'
p202
aS'188'
p203
aS'189'
p204
aS'190'
p205
aS'191'
p206
aS'192'
p207
aS'193'
p208
aS'194'
p209
aS'195'
p210
aS'196'
p211
aS'197'
p212
aS'198'
p213
aS'199'
p214
aS'200'
p215
aS'201'
p216
aS'202'
p217
aS'203'
p218
aS'204'
p219
aS'205'
p220
aS'206'
p221
aS'207'
p222
aS'208'
p223
aS'209'
p224
aS'210'
p225
aS'211'
p226
aS'212'
p227
aS'213'
p228
aS'214'
p229
aS'215'
p230
aS'216'
p231
aS'217'
p232
aS'218'
p233
aS'219'
p234
aS'220'
p235
aS'221'
p236
aS'222'
p237
aS'223'
p238
aS'224'
p239
aS'225'
p240
aS'226'
p241
aS'227'
p242
aS'228'
p243
aS'229'
p244
aS'230'
p245
aS'231'
p246
aS'232'
p247
aS'233'
p248
aS'234'
p249
aS'235'
p250
aS'236'
p251
aS'237'
p252
aS'238'
p253
aS'239'
p254
aS'240'
p255
aS'241'
p256
aS'242'
p257
aS'243'
p258
aS'244'
p259
aS'245'
p260
aS'246'
p261
aS'247'
p262
aS'248'
p263
aS'249'
p264
aS'250'
p265
aS'251'
p266
aS'252'
p267
aS'253'
p268
aS'254'
p269
aS'255'
p270
aS'256'
p271
aS'257'
p272
aS'258'
p273
aS'259'
p274
aS'260'
p275
aS'261'
p276
aS'262'
p277
aS'263'
p278
aS'264'
p279
aS'265'
p280
aS'266'
p281
aS'267'
p282
aS'268'
p283
aS'269'
p284
aS'270'
p285
aS'271'
p286
aS'272'
p287
aS'273'
p288
aS'274'
p289
aS'275'
p290
aS'276'
p291
aS'277'
p292
aS'278'
p293
aS'279'
p294
aS'280'
p295
aS'281'
p296
aS'282'
p297
aS'283'
p298
aS'284'
p299
aS'285'
p300
aS'286'
p301
aS'287'
p302
aS'288'
p303
aS'289'
p304
aS'290'
p305
aS'291'
p306
aS'292'
p307
aS'293'
p308
aS'294'
p309
aS'295'
p310
aS'296'
p311
aS'297'
p312
aS'298'
p313
aS'299'
p314
aS'300'
p315
aS'301'
p316
aS'302'
p317
aS'303'
p318
aS'304'
p319
aS'305'
p320
aS'306'
p321
aS'307'
p322
aS'308'
p323
aS'309'
p324
aS'310'
p325
aS'311'
p326
aS'312'
p327
aS'313'
p328
aS'314'
p329
aS'315'
p330
aS'316'
p331
aS'317'
p332
aS'318'
p333
aS'319'
p334
aS'320'
p335
aS'321'
p336
aS'322'
p337
aS'323'
p338
aS'324'
p339
aS'325'
p340
aS'326'
p341
aS'327'
p342
aS'328'
p343
aS'329'
p344
aS'330'
p345
aS'331'
p346
aS'332'
p347
aS'333'
p348
aS'334'
p349
aS'335'
p350
aS'336'
p351
aS'337'
p352
aS'338'
p353
aS'339'
p354
aS'340'
p355
aS'341'
p356
aS'342'
p357
aS'343'
p358
aS'344'
p359
aS'345'
p360
asS'_formula_statement'
p361
g0
(cscisheets.core.column
FormulaStatement
p362
g2
Ntp363
Rp364
(dp365
S'_statement'
p366
NsS'_column'
p367
g10
sS'_isExpression'
p368
I00
sS'_isStatement'
p369
I00
sS'_formula'
p370
NsbsS'_data_class'
p371
g0
(cscisheets.core.helpers.api_util
DataClass
p372
c__builtin__
tuple
p373
(cnumpy
ndarray
p374
cscisheets.core.helpers.api_util
makeArray
p375
tp376
tp377
Rp378
sS'_name'
p379
S'row'
p380
sbag0
(g8
g2
Ntp381
Rp382
(dp383
g12
I00
sg13
g4
sg14
(lp384
S'BiologicalSample'
p385
aS'CtValue'
p386
aS'Gene'
p387
aS'InterestReference'
p388
aS'PCREfficiency'
p389
aS'TreatmentControl'
p390
aNaNaNaNaNaNaNaNaNaNaNaNaNaNaNaNaNaNaNaNaNaNaNaNaNaNaNaNaNaNaNaNaNaNaNaNaNaNaNaNaNaNaNaNaNaNaNaNaNaNaNaNaNaNaNaNaNaNaNaNaNaNaNaNaNaNaNaNaNaNaNaNaNaNaNaNaNaNaNaNaNaNaNaNaNaNaNaNaNaNaNaNaNaNaNaNaNaNaNaNaNaNaNaNaNaNaNaNaNaNaNaNaNaNaNaNaNaNaNaNaNaNaNaNaNaNaNaNaNaNaNaNaNaNaNaNaNaNaNaNaNaNaNaNaNaNaNaNaNaNaNaNaNaNaNaNaNaNaNaNaNaNaNaNaNaNaNaNaNaNaNaNaNaNaNaNaNaNaNaNaNaNaNaNaNaNaNaNaNaNaNaNaNaNaNaNaNaNaNaNaNaNaNaNaNaNaNaNaNaNaNaNaNaNaNaNaNaNaNaNaNaNaNaNaNaNaNaNaNaNaNaNaNaNaNaNaNaNaNaNaNaNaNaNaNaNaNaNaNaNaNaNaNaNaNaNaNaNaNaNaNaNaNaNaNaNaNaNaNaNaNaNaNaNaNaNaNaNaNaNaNaNaNaNaNaNaNaNaNaNaNaNaNaNaNaNaNaNaNaNaNaNaNaNaNaNaNaNaNaNaNaNaNaNaNaNaNaNaNaNaNaNaNaNaNaNaNaNaNaNaNaNaNaNaNaNaNaNaNasg361
g0
(g362
g2
Ntp391
Rp392
(dp393
g366
VImportedColumns = importExcelToTable(s, 'RawData.xlsx')\u000a#exportTableToExcel(s, 'RawData.xlsx',      columns=['PCREfficiency', 'CtValue', 'Sum'], worksheet='Sheet2')
p394
sg367
g382
sg368
I00
sg369
I00
sg370
VImportedColumns = importExcelToTable(s, 'RawData.xlsx')\u000a#exportTableToExcel(s, 'RawData.xlsx',      columns=['PCREfficiency', 'CtValue', 'Sum'], worksheet='Sheet2')
p395
sbsg371
g378
sg379
VImportedColumns
p396
sbag0
(g8
g2
Ntp397
Rp398
(dp399
g12
I00
sg13
g4
sg14
(lp400
VT
p401
ag401
ag401
ag401
ag401
ag401
ag401
ag401
ag401
ag401
ag401
ag401
ag401
ag401
ag401
aVC
p402
ag402
ag402
ag401
ag401
ag401
ag401
ag401
ag401
ag401
ag401
ag401
ag401
ag401
ag401
ag401
ag401
ag401
ag402
ag402
ag402
ag401
ag401
ag401
ag401
ag401
ag401
ag401
ag401
ag401
ag401
ag401
ag401
ag401
ag401
ag401
ag402
ag402
ag402
ag401
ag401
ag401
ag401
ag401
ag401
ag401
ag401
ag401
ag401
ag401
ag401
ag401
ag401
ag401
ag402
ag402
ag402
aNaNaNaNaNaNaNaNaNaNaNaNaNaNaNaNaNaNaNaNaNaNaNaNaNaNaNaNaNaNaNaNaNaNaNaNaNaNaNaNaNaNaNaNaNaNaNaNaNaNaNaNaNaNaNaNaNaNaNaNaNaNaNaNaNaNaNaNaNaNaNaNaNaNaNaNaNaNaNaNaNaNaNaNaNaNaNaNaNaNaNaNaNaNaNaNaNaNaNaNaNaNaNaNaNaNaNaNaNaNaNaNaNaNaNaNaNaNaNaNaNaNaNaNaNaNaNaNaNaNaNaNaNaNaNaNaNaNaNaNaNaNaNaNaNaNaNaNaNaNaNaNaNaNaNaNaNaNaNaNaNaNaNaNaNaNaNaNaNaNaNaNaNaNaNaNaNaNaNaNaNaNaNaNaNaNaNaNaNaNaNaNaNaNaNaNaNaNaNaNaNaNaNaNaNaNaNaNaNaNaNaNaNaNaNaNaNaNaNaNaNaNaNaNaNaNaNaNaNaNaNaNaNaNaNaNaNaNaNaNaNaNaNaNaNaNaNaNaNaNaNaNaNaNaNaNaNaNaNaNaNaNaNaNaNaNaNaNaNaNaNaNaNasg361
g0
(g362
g2
Ntp403
Rp404
(dp405
g366
Nsg367
g398
sg368
I00
sg369
I00
sg370
Nsbsg371
g0
(g372
g373
(g374
g375
tp406
tp407
Rp408
sg379
S'TreatmentControl'
p409
sbag0
(g8
g2
Ntp410
Rp411
(dp412
g12
I00
sg13
g4
sg14
(lp413
F1.0
aF1.0
aF1.0
aF2.0
aF2.0
aF2.0
aF3.0
aF3.0
aF3.0
aF1.0
aF1.0
aF1.0
aF1.0
aF1.0
aF1.0
aF1.0
aF1.0
aF1.0
aF1.0
aF1.0
aF1.0
aF2.0
aF2.0
aF2.0
aF3.0
aF3.0
aF3.0
aF1.0
aF1.0
aF1.0
aF1.0
aF1.0
aF1.0
aF1.0
aF1.0
aF1.0
aF1.0
aF1.0
aF1.0
aF2.0
aF2.0
aF2.0
aF3.0
aF3.0
aF3.0
aF1.0
aF1.0
aF1.0
aF1.0
aF1.0
aF1.0
aF1.0
aF1.0
aF1.0
aF1.0
aF1.0
aF1.0
aF2.0
aF2.0
aF2.0
aF3.0
aF3.0
aF3.0
aF1.0
aF1.0
aF1.0
aF1.0
aF1.0
aF1.0
aF1.0
aF1.0
aF1.0
aFnan
aFnan
aFnan
aFnan
aFnan
aFnan
aFnan
aFnan
aFnan
aFnan
aFnan
aFnan
aFnan
aFnan
aFnan
aFnan
aFnan
aFnan
aFnan
aFnan
aFnan
aFnan
aFnan
aFnan
aFnan
aFnan
aFnan
aFnan
aFnan
aFnan
aFnan
aFnan
aFnan
aFnan
aFnan
aFnan
aFnan
aFnan
aFnan
aFnan
aFnan
aFnan
aFnan
aFnan
aFnan
aFnan
aFnan
aFnan
aFnan
aFnan
aFnan
aFnan
aFnan
aFnan
aFnan
aFnan
aFnan
aFnan
aFnan
aFnan
aFnan
aFnan
aFnan
aFnan
aFnan
aFnan
aFnan
aFnan
aFnan
aFnan
aFnan
aFnan
aFnan
aFnan
aFnan
aFnan
aFnan
aFnan
aFnan
aFnan
aFnan
aFnan
aFnan
aFnan
aFnan
aFnan
aFnan
aFnan
aFnan
aFnan
aFnan
aFnan
aFnan
aFnan
aFnan
aFnan
aFnan
aFnan
aFnan
aFnan
aFnan
aFnan
aFnan
aFnan
aFnan
aFnan
aFnan
aFnan
aFnan
aFnan
aFnan
aFnan
aFnan
aFnan
aFnan
aFnan
aFnan
aFnan
aFnan
aFnan
aFnan
aFnan
aFnan
aFnan
aFnan
aFnan
aFnan
aFnan
aFnan
aFnan
aFnan
aFnan
aFnan
aFnan
aFnan
aFnan
aFnan
aFnan
aFnan
aFnan
aFnan
aFnan
aFnan
aFnan
aFnan
aFnan
aFnan
aFnan
aFnan
aFnan
aFnan
aFnan
aFnan
aFnan
aFnan
aFnan
aFnan
aFnan
aFnan
aFnan
aFnan
aFnan
aFnan
aFnan
aFnan
aFnan
aFnan
aFnan
aFnan
aFnan
aFnan
aFnan
aFnan
aFnan
aFnan
aFnan
aFnan
aFnan
aFnan
aFnan
aFnan
aFnan
aFnan
aFnan
aFnan
aFnan
aFnan
aFnan
aFnan
aFnan
aFnan
aFnan
aFnan
aFnan
aFnan
aFnan
aFnan
aFnan
aFnan
aFnan
aFnan
aFnan
aFnan
aFnan
aFnan
aFnan
aFnan
aFnan
aFnan
aFnan
aFnan
aFnan
aFnan
aFnan
aFnan
aFnan
aFnan
aFnan
aFnan
aFnan
aFnan
aFnan
aFnan
aFnan
aFnan
aFnan
aFnan
aFnan
aFnan
aFnan
aFnan
aFnan
aFnan
aFnan
aFnan
aFnan
aFnan
aFnan
aFnan
aFnan
aFnan
aFnan
aFnan
aFnan
aFnan
aFnan
aFnan
aFnan
aFnan
aFnan
aFnan
aFnan
aFnan
aFnan
aFnan
aFnan
aFnan
aFnan
aFnan
aFnan
aFnan
aFnan
aFnan
aFnan
aFnan
aFnan
aFnan
aFnan
aFnan
aFnan
aFnan
aFnan
aFnan
asg361
g0
(g362
g2
Ntp414
Rp415
(dp416
g366
Nsg367
g411
sg368
I00
sg369
I00
sg370
Nsbsg371
g408
sg379
S'BiologicalSample'
p417
sbag0
(g8
g2
Ntp418
Rp419
(dp420
g12
I00
sg13
g4
sg14
(lp421
V1
p422
ag422
ag422
ag422
ag422
ag422
ag422
ag422
ag422
ag422
ag422
ag422
ag422
ag422
ag422
ag422
ag422
ag422
aV2
p423
ag423
ag423
ag423
ag423
ag423
ag423
ag423
ag423
ag423
ag423
ag423
ag423
ag423
ag423
ag423
ag423
ag423
ag422
ag422
ag422
ag422
ag422
ag422
ag422
ag422
ag422
ag423
ag423
ag423
aV3
p424
ag424
ag424
ag422
ag422
ag422
ag422
ag422
ag422
ag422
ag422
ag422
ag422
ag422
ag422
ag423
ag423
ag423
ag424
ag424
ag424
ag423
ag423
ag423
aNaNaNaNaNaNaNaNaNaNaNaNaNaNaNaNaNaNaNaNaNaNaNaNaNaNaNaNaNaNaNaNaNaNaNaNaNaNaNaNaNaNaNaNaNaNaNaNaNaNaNaNaNaNaNaNaNaNaNaNaNaNaNaNaNaNaNaNaNaNaNaNaNaNaNaNaNaNaNaNaNaNaNaNaNaNaNaNaNaNaNaNaNaNaNaNaNaNaNaNaNaNaNaNaNaNaNaNaNaNaNaNaNaNaNaNaNaNaNaNaNaNaNaNaNaNaNaNaNaNaNaNaNaNaNaNaNaNaNaNaNaNaNaNaNaNaNaNaNaNaNaNaNaNaNaNaNaNaNaNaNaNaNaNaNaNaNaNaNaNaNaNaNaNaNaNaNaNaNaNaNaNaNaNaNaNaNaNaNaNaNaNaNaNaNaNaNaNaNaNaNaNaNaNaNaNaNaNaNaNaNaNaNaNaNaNaNaNaNaNaNaNaNaNaNaNaNaNaNaNaNaNaNaNaNaNaNaNaNaNaNaNaNaNaNaNaNaNaNaNaNaNaNaNaNaNaNaNaNaNaNaNaNaNaNaNaNaNaNaNaNaNaNasg361
g0
(g362
g2
Ntp425
Rp426
(dp427
g366
Nsg367
g419
sg368
I00
sg369
I00
sg370
Nsbsg371
g408
sg379
S'Gene'
p428
sbag0
(g8
g2
Ntp429
Rp430
(dp431
g12
I00
sg13
g4
sg14
(lp432
VI
p433
ag433
ag433
ag433
ag433
ag433
ag433
ag433
ag433
ag433
ag433
ag433
ag433
ag433
ag433
ag433
ag433
ag433
ag433
ag433
ag433
ag433
ag433
ag433
ag433
ag433
ag433
ag433
ag433
ag433
ag433
ag433
ag433
ag433
ag433
ag433
aVR
p434
ag434
ag434
ag434
ag434
ag434
ag434
ag434
ag434
ag434
ag434
ag434
ag434
ag434
ag434
ag434
ag434
ag434
ag434
ag434
ag434
ag434
ag434
ag434
ag434
ag434
ag434
ag434
ag434
ag434
ag434
ag434
ag434
ag434
ag434
ag434
aNaNaNaNaNaNaNaNaNaNaNaNaNaNaNaNaNaNaNaNaNaNaNaNaNaNaNaNaNaNaNaNaNaNaNaNaNaNaNaNaNaNaNaNaNaNaNaNaNaNaNaNaNaNaNaNaNaNaNaNaNaNaNaNaNaNaNaNaNaNaNaNaNaNaNaNaNaNaNaNaNaNaNaNaNaNaNaNaNaNaNaNaNaNaNaNaNaNaNaNaNaNaNaNaNaNaNaNaNaNaNaNaNaNaNaNaNaNaNaNaNaNaNaNaNaNaNaNaNaNaNaNaNaNaNaNaNaNaNaNaNaNaNaNaNaNaNaNaNaNaNaNaNaNaNaNaNaNaNaNaNaNaNaNaNaNaNaNaNaNaNaNaNaNaNaNaNaNaNaNaNaNaNaNaNaNaNaNaNaNaNaNaNaNaNaNaNaNaNaNaNaNaNaNaNaNaNaNaNaNaNaNaNaNaNaNaNaNaNaNaNaNaNaNaNaNaNaNaNaNaNaNaNaNaNaNaNaNaNaNaNaNaNaNaNaNaNaNaNaNaNaNaNaNaNaNaNaNaNaNaNaNaNaNaNaNaNaNaNaNaNaNaNasg361
g0
(g362
g2
Ntp435
Rp436
(dp437
g366
Nsg367
g430
sg368
I00
sg369
I00
sg370
Nsbsg371
g408
sg379
S'InterestReference'
p438
sbag0
(g8
g2
Ntp439
Rp440
(dp441
g12
I00
sg13
g4
sg14
(lp442
F26.68
aF27.13
aF27.21
aF26.76
aF26.71
aF26.19
aF29.98
aF30.12
aF29.41
aF29.95
aF30.45
aF29.88
aF24.8
aF24.97
aF24.63
aF23.0
aF22.86
aF22.8
aF22.42
aF22.5
aF22.44
aF21.92
aF22.03
aF21.94
aF23.4
aF23.47
aF23.41
aF23.48
aF23.31
aF23.45
aF18.82
aF18.97
aF18.92
aF18.31
aF18.29
aF18.15
aF19.92
aF19.85
aF20.0
aF21.86
aF22.09
aF21.84
aF23.89
aF23.54
aF24.27
aF23.22
aF23.8
aF23.49
aF18.91
aF18.78
aF18.8
aF18.24
aF18.22
aF18.36
aF22.18
aF21.71
aF21.75
aF23.88
aF23.42
aF23.63
aF24.59
aF24.61
aF24.34
aF26.37
aF26.36
aF26.17
aF20.5
aF20.47
aF20.28
aF19.72
aF19.75
aF20.01
aFnan
aFnan
aFnan
aFnan
aFnan
aFnan
aFnan
aFnan
aFnan
aFnan
aFnan
aFnan
aFnan
aFnan
aFnan
aFnan
aFnan
aFnan
aFnan
aFnan
aFnan
aFnan
aFnan
aFnan
aFnan
aFnan
aFnan
aFnan
aFnan
aFnan
aFnan
aFnan
aFnan
aFnan
aFnan
aFnan
aFnan
aFnan
aFnan
aFnan
aFnan
aFnan
aFnan
aFnan
aFnan
aFnan
aFnan
aFnan
aFnan
aFnan
aFnan
aFnan
aFnan
aFnan
aFnan
aFnan
aFnan
aFnan
aFnan
aFnan
aFnan
aFnan
aFnan
aFnan
aFnan
aFnan
aFnan
aFnan
aFnan
aFnan
aFnan
aFnan
aFnan
aFnan
aFnan
aFnan
aFnan
aFnan
aFnan
aFnan
aFnan
aFnan
aFnan
aFnan
aFnan
aFnan
aFnan
aFnan
aFnan
aFnan
aFnan
aFnan
aFnan
aFnan
aFnan
aFnan
aFnan
aFnan
aFnan
aFnan
aFnan
aFnan
aFnan
aFnan
aFnan
aFnan
aFnan
aFnan
aFnan
aFnan
aFnan
aFnan
aFnan
aFnan
aFnan
aFnan
aFnan
aFnan
aFnan
aFnan
aFnan
aFnan
aFnan
aFnan
aFnan
aFnan
aFnan
aFnan
aFnan
aFnan
aFnan
aFnan
aFnan
aFnan
aFnan
aFnan
aFnan
aFnan
aFnan
aFnan
aFnan
aFnan
aFnan
aFnan
aFnan
aFnan
aFnan
aFnan
aFnan
aFnan
aFnan
aFnan
aFnan
aFnan
aFnan
aFnan
aFnan
aFnan
aFnan
aFnan
aFnan
aFnan
aFnan
aFnan
aFnan
aFnan
aFnan
aFnan
aFnan
aFnan
aFnan
aFnan
aFnan
aFnan
aFnan
aFnan
aFnan
aFnan
aFnan
aFnan
aFnan
aFnan
aFnan
aFnan
aFnan
aFnan
aFnan
aFnan
aFnan
aFnan
aFnan
aFnan
aFnan
aFnan
aFnan
aFnan
aFnan
aFnan
aFnan
aFnan
aFnan
aFnan
aFnan
aFnan
aFnan
aFnan
aFnan
aFnan
aFnan
aFnan
aFnan
aFnan
aFnan
aFnan
aFnan
aFnan
aFnan
aFnan
aFnan
aFnan
aFnan
aFnan
aFnan
aFnan
aFnan
aFnan
aFnan
aFnan
aFnan
aFnan
aFnan
aFnan
aFnan
aFnan
aFnan
aFnan
aFnan
aFnan
aFnan
aFnan
aFnan
aFnan
aFnan
aFnan
aFnan
aFnan
aFnan
aFnan
aFnan
aFnan
aFnan
aFnan
aFnan
aFnan
aFnan
aFnan
aFnan
aFnan
aFnan
aFnan
aFnan
aFnan
aFnan
aFnan
aFnan
aFnan
aFnan
aFnan
aFnan
aFnan
aFnan
aFnan
aFnan
asg361
g0
(g362
g2
Ntp443
Rp444
(dp445
g366
Nsg367
g440
sg368
I00
sg369
I00
sg370
Nsbsg371
g0
(g372
g373
(g374
g375
tp446
tp447
Rp448
sg379
S'CtValue'
p449
sbag0
(g8
g2
Ntp450
Rp451
(dp452
g12
I00
sg13
g4
sg14
(lp453
F0.9399
aF0.8296
aF0.8361
aF0.8039
aF0.8399
aF0.7935
aF0.8264
aF0.7974
aF0.8252
aF0.8418
aF0.7959
aF0.8071
aF0.8513
aF0.8485
aF0.8401
aF0.8371
aF0.891
aF0.8956
aF0.8453
aF0.8426
aF0.8524
aF0.8658
aF0.7809
aF0.8512
aF0.8442
aF0.8357
aF0.7658
aF0.8352
aF0.7886
aF0.8105
aF0.876
aF0.8597
aF0.8873
aF0.919
aF0.9106
aF0.9129
aF0.9179
aF0.9783
aF0.8971
aF0.8957
aF0.8287
aF0.8387
aF0.8746
aF0.8493
aF0.8349
aF0.7701
aF0.8746
aF0.8139
aF0.8715
aF0.8977
aF0.856
aF0.8266
aF0.8343
aF0.8496
aF0.7857
aF0.8427
aF0.8637
aF0.8281
aF0.8203
aF0.8288
aF0.8138
aF0.8242
aF0.804
aF0.7795
aF0.7676
aF0.7947
aF0.8179
aF0.8173
aF0.7894
aF0.8157
aF0.8543
aF0.8208
aFnan
aFnan
aFnan
aFnan
aFnan
aFnan
aFnan
aFnan
aFnan
aFnan
aFnan
aFnan
aFnan
aFnan
aFnan
aFnan
aFnan
aFnan
aFnan
aFnan
aFnan
aFnan
aFnan
aFnan
aFnan
aFnan
aFnan
aFnan
aFnan
aFnan
aFnan
aFnan
aFnan
aFnan
aFnan
aFnan
aFnan
aFnan
aFnan
aFnan
aFnan
aFnan
aFnan
aFnan
aFnan
aFnan
aFnan
aFnan
aFnan
aFnan
aFnan
aFnan
aFnan
aFnan
aFnan
aFnan
aFnan
aFnan
aFnan
aFnan
aFnan
aFnan
aFnan
aFnan
aFnan
aFnan
aFnan
aFnan
aFnan
aFnan
aFnan
aFnan
aFnan
aFnan
aFnan
aFnan
aFnan
aFnan
aFnan
aFnan
aFnan
aFnan
aFnan
aFnan
aFnan
aFnan
aFnan
aFnan
aFnan
aFnan
aFnan
aFnan
aFnan
aFnan
aFnan
aFnan
aFnan
aFnan
aFnan
aFnan
aFnan
aFnan
aFnan
aFnan
aFnan
aFnan
aFnan
aFnan
aFnan
aFnan
aFnan
aFnan
aFnan
aFnan
aFnan
aFnan
aFnan
aFnan
aFnan
aFnan
aFnan
aFnan
aFnan
aFnan
aFnan
aFnan
aFnan
aFnan
aFnan
aFnan
aFnan
aFnan
aFnan
aFnan
aFnan
aFnan
aFnan
aFnan
aFnan
aFnan
aFnan
aFnan
aFnan
aFnan
aFnan
aFnan
aFnan
aFnan
aFnan
aFnan
aFnan
aFnan
aFnan
aFnan
aFnan
aFnan
aFnan
aFnan
aFnan
aFnan
aFnan
aFnan
aFnan
aFnan
aFnan
aFnan
aFnan
aFnan
aFnan
aFnan
aFnan
aFnan
aFnan
aFnan
aFnan
aFnan
aFnan
aFnan
aFnan
aFnan
aFnan
aFnan
aFnan
aFnan
aFnan
aFnan
aFnan
aFnan
aFnan
aFnan
aFnan
aFnan
aFnan
aFnan
aFnan
aFnan
aFnan
aFnan
aFnan
aFnan
aFnan
aFnan
aFnan
aFnan
aFnan
aFnan
aFnan
aFnan
aFnan
aFnan
aFnan
aFnan
aFnan
aFnan
aFnan
aFnan
aFnan
aFnan
aFnan
aFnan
aFnan
aFnan
aFnan
aFnan
aFnan
aFnan
aFnan
aFnan
aFnan
aFnan
aFnan
aFnan
aFnan
aFnan
aFnan
aFnan
aFnan
aFnan
aFnan
aFnan
aFnan
aFnan
aFnan
aFnan
aFnan
aFnan
aFnan
aFnan
aFnan
aFnan
aFnan
aFnan
aFnan
aFnan
aFnan
aFnan
aFnan
aFnan
aFnan
aFnan
aFnan
aFnan
aFnan
aFnan
aFnan
aFnan
aFnan
aFnan
aFnan
aFnan
aFnan
aFnan
aFnan
asg361
g0
(g362
g2
Ntp454
Rp455
(dp456
g366
Nsg367
g451
sg368
I00
sg369
I00
sg370
Nsbsg371
g448
sg379
S'PCREfficiency'
p457
sbag0
(g8
g2
Ntp458
Rp459
(dp460
g12
I00
sg13
g4
sg14
(lp461
(lp462
g402
acnumpy.core.multiarray
scalar
p463
(cnumpy
dtype
p464
(S'f8'
p465
I0
I1
tp466
Rp467
(I3
S'<'
p468
NNNI-1
I-1
I0
tp469
bS'\x00\x00\x00\x00\x00\x00\xf0?'
p470
tp471
Rp472
ag422
ag433
aa(lp473
g402
ag463
(g467
S'\x00\x00\x00\x00\x00\x00\xf0?'
p474
tp475
Rp476
ag422
ag434
aa(lp477
g402
ag463
(g467
S'\x00\x00\x00\x00\x00\x00\xf0?'
p478
tp479
Rp480
ag423
ag433
aa(lp481
g402
ag463
(g467
S'\x00\x00\x00\x00\x00\x00\xf0?'
p482
tp483
Rp484
ag423
ag434
aa(lp485
g401
ag463
(g467
S'\x00\x00\x00\x00\x00\x00\xf0?'
p486
tp487
Rp488
ag422
ag433
aa(lp489
g401
ag463
(g467
S'\x00\x00\x00\x00\x00\x00\xf0?'
p490
tp491
Rp492
ag422
ag434
aa(lp493
g401
ag463
(g467
S'\x00\x00\x00\x00\x00\x00\xf0?'
p494
tp495
Rp496
ag423
ag433
aa(lp497
g401
ag463
(g467
S'\x00\x00\x00\x00\x00\x00\xf0?'
p498
tp499
Rp500
ag423
ag434
aa(lp501
g401
ag463
(g467
S'\x00\x00\x00\x00\x00\x00\xf0?'
p502
tp503
Rp504
ag424
ag434
aa(lp505
g401
ag463
(g467
S'\x00\x00\x00\x00\x00\x00\x00@'
p506
tp507
Rp508
ag422
ag433
aa(lp509
g401
ag463
(g467
S'\x00\x00\x00\x00\x00\x00\x00@'
p510
tp511
Rp512
ag422
ag434
aa(lp513
g401
ag463
(g467
S'\x00\x00\x00\x00\x00\x00\x00@'
p514
tp515
Rp516
ag423
ag433
aa(lp517
g401
ag463
(g467
S'\x00\x00\x00\x00\x00\x00\x08@'
p518
tp519
Rp520
ag422
ag433
aa(lp521
g401
ag463
(g467
S'\x00\x00\x00\x00\x00\x00\x08@'
p522
tp523
Rp524
ag422
ag434
aa(lp525
g401
ag463
(g467
S'\x00\x00\x00\x00\x00\x00\x08@'
p526
tp527
Rp528
ag423
ag433
aaNaNaNaNaNaNaNaNaNaNaNaNaNaNaNaNaNaNaNaNaNaNaNaNaNaNaNaNaNaNaNaNaNaNaNaNaNaNaNaNaNaNaNaNaNaNaNaNaNaNaNaNaNaNaNaNaNaNaNaNaNaNaNaNaNaNaNaNaNaNaNaNaNaNaNaNaNaNaNaNaNaNaNaNaNaNaNaNaNaNaNaNaNaNaNaNaNaNaNaNaNaNaNaNaNaNaNaNaNaNaNaNaNaNaNaNaNaNaNaNaNaNaNaNaNaNaNaNaNaNaNaNaNaNaNaNaNaNaNaNaNaNaNaNaNaNaNaNaNaNaNaNaNaNaNaNaNaNaNaNaNaNaNaNaNaNaNaNaNaNaNaNaNaNaNaNaNaNaNaNaNaNaNaNaNaNaNaNaNaNaNaNaNaNaNaNaNaNaNaNaNaNaNaNaNaNaNaNaNaNaNaNaNaNaNaNaNaNaNaNaNaNaNaNaNaNaNaNaNaNaNaNaNaNaNaNaNaNaNaNaNaNaNaNaNaNaNaNaNaNaNaNaNaNaNaNaNaNaNaNaNaNaNaNaNaNaNaNaNaNaNaNaNaNaNaNaNaNaNaNaNaNaNaNaNaNaNaNaNaNaNaNaNaNaNaNaNaNaNaNaNaNaNaNaNaNaNaNaNaNaNaNaNaNaNaNaNaNaNaNaNaNaNaNaNaNaNaNaNaNasg361
g0
(g362
g2
Ntp529
Rp530
(dp531
g366
Vgroups, values = groupBy([TreatmentControl, BiologicalSample, Gene, InterestReference],\u000a    CtValue)\u000aGroups = groups
p532
sg367
g459
sg368
I00
sg369
I00
sg370
Vgroups, values = groupBy([TreatmentControl, BiologicalSample, Gene, InterestReference],\u000a    CtValue)\u000aGroups = groups
p533
sbsg371
g0
(g372
g373
(g374
g375
tp534
tp535
Rp536
sg379
VGroups
p537
sbasS'_filepath'
p538
V/home/ubuntu/SciSheets/mysite/user/guest/tables/kristen_excel_import.pcl
p539
sg379
VExcelImport
p540
sb.