ccopy_reg
_reconstructor
p0
(cscisheets.ui.dt_table
DTTable
p1
c__builtin__
object
p2
Ntp3
Rp4
(dp5
S'_versioned_file'
p6
g0
(cmysite.helpers.versioned_file
VersionedFile
p7
g2
Ntp8
Rp9
(dp10
S'_redo_stack'
p11
g0
(cmysite.helpers.file_stack
FileStack
p12
g2
Ntp13
Rp14
(dp15
S'_dirpath'
p16
S'/home/ubuntu/SciSheets/mysite/user/guest/tables/backup'
p17
sS'_max_depth'
p18
I5
sS'_filename_pfx'
p19
Vkristen_single_gene.r
p20
sbsS'_max_versions'
p21
I5
sS'_undo_stack'
p22
g0
(g12
g2
Ntp23
Rp24
(dp25
g16
g17
sg18
I5
sg19
Vkristen_single_gene.u
p26
sbsS'_checkpoint_history'
p27
(lp28
VCell/Update
p29
aVCell/Update
p30
aVCell/Update
p31
aVCell/Update
p32
aVCell/Update
p33
aVCell/Update
p34
aVCell/Update
p35
aVCell/Update
p36
aVCell/Update
p37
aVCell/Update
p38
aVCell/Update
p39
aVCell/Update
p40
aVColumn/Formula
p41
aVColumn/Formula
p42
aVColumn/Append
p43
aVColumn/Formula
p44
aVColumn/Delete
p45
aVCell/Update
p46
aVColumn/Formula
p47
aVCell/Update
p48
aVCell/Update
p49
aVColumn/Formula
p50
aVColumn/Formula
p51
aVCell/Update
p52
aVColumn/Formula
p53
aVColumn/Formula
p54
aVCell/Update
p55
aVCell/Update
p56
aVCell/Update
p57
aVCell/Update
p58
aVColumn/Formula
p59
aVCell/Update
p60
aVCell/Update
p61
aVCell/Update
p62
aVColumn/Formula
p63
aVCell/Update
p64
aVColumn/Formula
p65
aVColumn/Formula
p66
aVCell/Update
p67
aVCell/Update
p68
aVCell/Update
p69
aVCell/Update
p70
aVCell/Update
p71
aVCell/Update
p72
aVCell/Update
p73
aVCell/Update
p74
aVCell/Update
p75
aVColumn/Formula
p76
aVCell/Update
p77
aVCell/Update
p78
aVCell/Update
p79
aVCell/Update
p80
aVCell/Update
p81
aVCell/Update
p82
aVCell/Update
p83
aVCell/Update
p84
aVCell/Update
p85
aVCell/Update
p86
aVCell/Update
p87
aVCell/Update
p88
aVColumn/Formula
p89
aVColumn/Formula
p90
aVColumn/Formula
p91
aVCell/Update
p92
aVCell/Update
p93
aVCell/Update
p94
aVCell/Update
p95
aVCell/Update
p96
aVColumn/Formula
p97
aVCell/Update
p98
aVCell/Update
p99
aVCell/Update
p100
aVCell/Update
p101
aVCell/Update
p102
aVCell/Update
p103
aVCell/Update
p104
aVColumn/Formula
p105
aVColumn/Formula
p106
aVColumn/Formula
p107
aVCell/Update
p108
aVCell/Update
p109
aVColumn/Formula
p110
aVCell/Update
p111
aVCell/Update
p112
aVCell/Update
p113
aVCell/Update
p114
aVCell/Update
p115
aVCell/Update
p116
aVCell/Update
p117
aVCell/Update
p118
aVColumn/Formula
p119
aVCell/Update
p120
aVColumn/Formula
p121
aVColumn/Formula
p122
aVColumn/Formula
p123
aVCell/Update
p124
aVCell/Update
p125
aVColumn/Formula
p126
aVColumn/Formula
p127
aVColumn/Formula
p128
aVColumn/Formula
p129
aVCell/Update
p130
aVColumn/Formula
p131
aVColumn/Formula
p132
aVColumn/Formula
p133
aVCell/Update
p134
aVCell/Update
p135
aVCell/Update
p136
aVCell/Update
p137
aVCell/Update
p138
aVCell/Update
p139
aVCell/Update
p140
aVCell/Update
p141
aVCell/Update
p142
aVCell/Update
p143
aVColumn/Formula
p144
aVColumn/Formula
p145
aVColumn/Formula
p146
aVColumn/Formula
p147
aVCell/Update
p148
aVCell/Update
p149
aVColumn/Formula
p150
aVCell/Update
p151
aVCell/Update
p152
aVCell/Update
p153
aVCell/Update
p154
aVCell/Update
p155
asS'_filepath'
p156
V/home/ubuntu/SciSheets/mysite/user/guest/tables/kristen_single_gene.pcl
p157
sS'_backup_dir'
p158
g17
sbsS'_namespace'
p159
(dp160
sS'_hidden_columns'
p161
(lp162
g0
(cscisheets.core.column
Column
p163
g2
Ntp164
Rp165
(dp166
S'_asis'
p167
I00
sS'_owning_table'
p168
g4
sS'_cells'
p169
(lp170
(cnumpy.core.multiarray
scalar
p171
(cnumpy
dtype
p172
(S'i8'
p173
I0
I1
tp174
Rp175
(I3
S'<'
p176
NNNI-1
I-1
I0
tp177
bS'\x00\x00\x00\x00\x00\x00\x00\x00'
p178
tp179
Rp180
VI
p181
g171
(g175
S'\x01\x00\x00\x00\x00\x00\x00\x00'
p182
tp183
Rp184
tp185
a(g171
(g175
S'\x00\x00\x00\x00\x00\x00\x00\x00'
p186
tp187
Rp188
VR1
p189
g171
(g175
S'\x01\x00\x00\x00\x00\x00\x00\x00'
p190
tp191
Rp192
tp193
a(g171
(g175
S'\x00\x00\x00\x00\x00\x00\x00\x00'
p194
tp195
Rp196
VR2
p197
g171
(g175
S'\x01\x00\x00\x00\x00\x00\x00\x00'
p198
tp199
Rp200
tp201
a(g171
(g175
S'\x01\x00\x00\x00\x00\x00\x00\x00'
p202
tp203
Rp204
g181
g171
(g175
S'\x01\x00\x00\x00\x00\x00\x00\x00'
p205
tp206
Rp207
tp208
a(g171
(g175
S'\x01\x00\x00\x00\x00\x00\x00\x00'
p209
tp210
Rp211
g181
g171
(g175
S'\x02\x00\x00\x00\x00\x00\x00\x00'
p212
tp213
Rp214
tp215
a(g171
(g175
S'\x01\x00\x00\x00\x00\x00\x00\x00'
p216
tp217
Rp218
g181
g171
(g175
S'\x03\x00\x00\x00\x00\x00\x00\x00'
p219
tp220
Rp221
tp222
a(g171
(g175
S'\x01\x00\x00\x00\x00\x00\x00\x00'
p223
tp224
Rp225
g189
g171
(g175
S'\x01\x00\x00\x00\x00\x00\x00\x00'
p226
tp227
Rp228
tp229
a(g171
(g175
S'\x01\x00\x00\x00\x00\x00\x00\x00'
p230
tp231
Rp232
g189
g171
(g175
S'\x02\x00\x00\x00\x00\x00\x00\x00'
p233
tp234
Rp235
tp236
a(g171
(g175
S'\x01\x00\x00\x00\x00\x00\x00\x00'
p237
tp238
Rp239
g189
g171
(g175
S'\x03\x00\x00\x00\x00\x00\x00\x00'
p240
tp241
Rp242
tp243
a(g171
(g175
S'\x01\x00\x00\x00\x00\x00\x00\x00'
p244
tp245
Rp246
g197
g171
(g175
S'\x01\x00\x00\x00\x00\x00\x00\x00'
p247
tp248
Rp249
tp250
a(g171
(g175
S'\x01\x00\x00\x00\x00\x00\x00\x00'
p251
tp252
Rp253
g197
g171
(g175
S'\x02\x00\x00\x00\x00\x00\x00\x00'
p254
tp255
Rp256
tp257
a(g171
(g175
S'\x01\x00\x00\x00\x00\x00\x00\x00'
p258
tp259
Rp260
g197
g171
(g175
S'\x03\x00\x00\x00\x00\x00\x00\x00'
p261
tp262
Rp263
tp264
a(g171
(g175
S'\x02\x00\x00\x00\x00\x00\x00\x00'
p265
tp266
Rp267
g181
g171
(g175
S'\x01\x00\x00\x00\x00\x00\x00\x00'
p268
tp269
Rp270
tp271
a(g171
(g175
S'\x02\x00\x00\x00\x00\x00\x00\x00'
p272
tp273
Rp274
g189
g171
(g175
S'\x01\x00\x00\x00\x00\x00\x00\x00'
p275
tp276
Rp277
tp278
a(g171
(g175
S'\x02\x00\x00\x00\x00\x00\x00\x00'
p279
tp280
Rp281
g197
g171
(g175
S'\x01\x00\x00\x00\x00\x00\x00\x00'
p282
tp283
Rp284
tp285
a(g171
(g175
S'\x03\x00\x00\x00\x00\x00\x00\x00'
p286
tp287
Rp288
g181
g171
(g175
S'\x01\x00\x00\x00\x00\x00\x00\x00'
p289
tp290
Rp291
tp292
a(g171
(g175
S'\x03\x00\x00\x00\x00\x00\x00\x00'
p293
tp294
Rp295
g189
g171
(g175
S'\x01\x00\x00\x00\x00\x00\x00\x00'
p296
tp297
Rp298
tp299
a(g171
(g175
S'\x03\x00\x00\x00\x00\x00\x00\x00'
p300
tp301
Rp302
g197
g171
(g175
S'\x01\x00\x00\x00\x00\x00\x00\x00'
p303
tp304
Rp305
tp306
aNaNaNaNaNaNaNaNaNaNaNaNaNaNaNaNaNaNaNaNaNaNaNaNaNaNaNaNaNaNaNaNaNaNaNaNasS'_formula_statement'
p307
g0
(cscisheets.core.helpers.formula_statement
FormulaStatement
p308
g2
Ntp309
Rp310
(dp311
S'_statement'
p312
Vsel = Eff > min_eff\u000agrouping_columns =   [\u000a    Treatment[sel],\u000a     RunType[sel], \u000a    BRpl[sel],      \u000a  ]\u000aGroups, groupedCt = groupBy(\u000a     grouping_columns, Ct[sel])\u000aGroups, groupedEff = groupBy(\u000a     grouping_columns, Eff[sel])\u000aGroupedCt = roundValues(groupedCt,2)\u000aGroupedEff = roundValues(groupedEff,2)
p313
sS'_name'
p314
VGroups
p315
sS'_isExpression'
p316
I00
sS'_isStatement'
p317
I00
sS'_formula'
p318
Vsel = Eff > min_eff\u000agrouping_columns =   [\u000a    Treatment[sel],\u000a     RunType[sel], \u000a    BRpl[sel],      \u000a  ]\u000aGroups, groupedCt = groupBy(\u000a     grouping_columns, Ct[sel])\u000aGroups, groupedEff = groupBy(\u000a     grouping_columns, Eff[sel])\u000aGroupedCt = roundValues(groupedCt,2)\u000aGroupedEff = roundValues(groupedEff,2)
p319
sbsS'_data_class'
p320
g0
(cscisheets.core.helpers.api_util
DataClass
p321
c__builtin__
tuple
p322
(cnumpy
ndarray
p323
cscisheets.core.helpers.api_util
makeArray
p324
tp325
tp326
Rp327
sg314
g315
sbag0
(g163
g2
Ntp328
Rp329
(dp330
g167
I00
sg168
g4
sg169
(lp331
(lp332
F0.92
aF0.91
aF0.91
aa(lp333
F0.83
aF0.83
aF0.85
aa(lp334
F0.82
aF0.85
aF0.82
aa(lp335
F0.85
aF0.84
aF0.85
aa(lp336
F0.87
aF0.78
aF0.85
aa(lp337
F0.84
aF0.84
aF0.77
aa(lp338
F0.92
aF0.98
aF0.9
aa(lp339
F0.9
aF0.83
aF0.84
aa(lp340
F0.87
aF0.85
aF0.83
aa(lp341
F0.79
aF0.84
aF0.86
aa(lp342
F0.83
aF0.82
aF0.83
aa(lp343
F0.81
aF0.82
aF0.8
aa(lp344
F0.84
aF0.79
aF0.81
aa(lp345
F0.77
aF0.87
aF0.81
aa(lp346
F0.78
aF0.77
aF0.79
aa(lp347
F0.88
aF0.86
aF0.89
aa(lp348
F0.87
aF0.9
aF0.86
aa(lp349
F0.82
aF0.82
aF0.79
aaNaNaNaNaNaNaNaNaNaNaNaNaNaNaNaNaNaNaNaNaNaNaNaNaNaNaNaNaNaNaNaNaNaNaNaNasg307
g0
(g308
g2
Ntp350
Rp351
(dp352
g312
NsS'_column'
p353
g329
sg316
I00
sg317
I00
sg318
Nsbsg320
g0
(g321
g322
(g323
g324
tp354
tp355
Rp356
sg314
VGroupedEff
p357
sbag0
(g163
g2
Ntp358
Rp359
(dp360
g167
I00
sg168
g4
sg169
(lp361
(lp362
F18.31
aF18.29
aF18.15
aa(lp363
F18.24
aF18.22
aF18.36
aa(lp364
F19.72
aF19.75
aF20.01
aa(lp365
F22.42
aF22.5
aF22.44
aa(lp366
F21.92
aF22.03
aF21.94
aa(lp367
F23.4
aF23.47
aF23.41
aa(lp368
F19.92
aF19.85
aF20.0
aa(lp369
F21.86
aF22.09
aF21.84
aa(lp370
F23.89
aF23.54
aF24.27
aa(lp371
F22.18
aF21.71
aF21.75
aa(lp372
F23.88
aF23.42
aF23.63
aa(lp373
F24.59
aF24.61
aF24.34
aa(lp374
F23.48
aF23.31
aF23.45
aa(lp375
F23.22
aF23.8
aF23.49
aa(lp376
F26.37
aF26.36
aF26.17
aa(lp377
F18.82
aF18.97
aF18.92
aa(lp378
F18.91
aF18.78
aF18.8
aa(lp379
F20.5
aF20.47
aF20.28
aaNaNaNaNaNaNaNaNaNaNaNaNaNaNaNaNaNaNaNaNaNaNaNaNaNaNaNaNaNaNaNaNaNaNaNaNasg307
g0
(g308
g2
Ntp380
Rp381
(dp382
g312
Nsg353
g359
sg316
I00
sg317
I00
sg318
Nsbsg320
g0
(g321
g322
(g323
g324
tp383
tp384
Rp385
sg314
VGroupedCt
p386
sbag0
(g163
g2
Ntp387
Rp388
(dp389
g167
I00
sg168
g4
sg169
(lp390
(lp391
F18.3
aF18.3
aF18.1
aa(lp392
F18.2
aF18.2
aF18.4
aa(lp393
F19.7
aF19.8
aF20.0
aa(lp394
F22.4
aF22.5
aF22.4
aa(lp395
F21.9
aF22.0
aF21.9
aa(lp396
F23.4
aF23.5
aF23.4
aa(lp397
F19.9
aF19.9
aF20.0
aa(lp398
F21.9
aF22.1
aF21.8
aa(lp399
F23.9
aF23.5
aF24.3
aa(lp400
F22.2
aF21.7
aF21.8
aa(lp401
F23.9
aF23.4
aF23.6
aa(lp402
F24.6
aF24.6
aF24.3
aa(lp403
F23.5
aF23.3
aF23.4
aa(lp404
F23.2
aF23.8
aF23.5
aa(lp405
F26.4
aF26.4
aF26.2
aa(lp406
F18.8
aF19.0
aF18.9
aa(lp407
F18.9
aF18.8
aF18.8
aa(lp408
F20.5
aF20.5
aF20.3
aaNaNaNaNaNaNaNaNaNaNaNaNaNaNaNaNaNaNaNaNaNaNaNaNaNaNaNaNaNaNaNaNaNaNaNaNasg307
g0
(g308
g2
Ntp409
Rp410
(dp411
g312
Vlength = len(Groups)\u000aStdFilteredGroupedCt = roundValues([filterExtremes(g, max_std, 2) for g in pruneNulls(GroupedCt,    required_length=length)])\u000a 
p412
sg314
VStdFilteredGroupedCt
p413
sg316
I00
sg317
I00
sg318
Vlength = len(Groups)\u000aStdFilteredGroupedCt = roundValues([filterExtremes(g, max_std, 2) for g in pruneNulls(GroupedCt,    required_length=length)])\u000a 
p414
sbsg320
g0
(g321
g322
(g323
g324
tp415
tp416
Rp417
sg314
g413
sbag0
(g163
g2
Ntp418
Rp419
(dp420
g167
I00
sg168
g4
sg169
(lp421
F18.2
aF18.3
aF19.8
aF22.4
aF21.9
aF23.4
aF19.9
aF21.9
aF23.9
aF21.9
aF23.6
aF24.5
aF23.4
aF23.5
aF26.3
aF18.9
aF18.8
aF20.4
aFnan
aFnan
aFnan
aFnan
aFnan
aFnan
aFnan
aFnan
aFnan
aFnan
aFnan
aFnan
aFnan
aFnan
aFnan
aFnan
aFnan
aFnan
aFnan
aFnan
aFnan
aFnan
aFnan
aFnan
aFnan
aFnan
aFnan
aFnan
aFnan
aFnan
aFnan
aFnan
aFnan
aFnan
aFnan
aFnan
asg307
g0
(g308
g2
Ntp422
Rp423
(dp424
g312
VMeanCt = [np.mean(g) for g in StdFilteredGroupedCt]\u000aMeanCt = roundValues(MeanCt,1)\u000aStdCt = [np.std(g, ddof=1) for g in StdFilteredGroupedCt]\u000aStdCt = roundValues(StdCt,3)
p425
sg314
VMeanCt
p426
sg316
I00
sg317
I00
sg318
VMeanCt = [np.mean(g) for g in StdFilteredGroupedCt]\u000aMeanCt = roundValues(MeanCt,1)\u000aStdCt = [np.std(g, ddof=1) for g in StdFilteredGroupedCt]\u000aStdCt = roundValues(StdCt,3)
p427
sbsg320
g0
(g321
g322
(g323
g324
tp428
tp429
Rp430
sg314
g426
sbag0
(g163
g2
Ntp431
Rp432
(dp433
g167
I00
sg168
g4
sg169
(lp434
F0.115
aF0.115
aF0.153
aF0.058
aF0.058
aF0.058
aF0.058
aF0.153
aF0.4
aF0.265
aF0.252
aF0.173
aF0.1
aF0.3
aF0.115
aF0.1
aF0.058
aF0.115
aFnan
aFnan
aFnan
aFnan
aFnan
aFnan
aFnan
aFnan
aFnan
aFnan
aFnan
aFnan
aFnan
aFnan
aFnan
aFnan
aFnan
aFnan
aFnan
aFnan
aFnan
aFnan
aFnan
aFnan
aFnan
aFnan
aFnan
aFnan
aFnan
aFnan
aFnan
aFnan
aFnan
aFnan
aFnan
aFnan
asg307
g0
(g308
g2
Ntp435
Rp436
(dp437
g312
Nsg353
g432
sg316
I00
sg317
I00
sg318
Nsbsg320
g0
(g321
g322
(g323
g324
tp438
tp439
Rp440
sg314
VStdCt
p441
sbag0
(g163
g2
Ntp442
Rp443
(dp444
g167
I00
sg168
g4
sg169
(lp445
(lp446
g171
(g175
S'\x00\x00\x00\x00\x00\x00\x00\x00'
p447
tp448
Rp449
ag171
(g175
S'\x01\x00\x00\x00\x00\x00\x00\x00'
p450
tp451
Rp452
aa(lp453
g171
(g175
S'\x01\x00\x00\x00\x00\x00\x00\x00'
p454
tp455
Rp456
ag171
(g175
S'\x01\x00\x00\x00\x00\x00\x00\x00'
p457
tp458
Rp459
aa(lp460
g171
(g175
S'\x01\x00\x00\x00\x00\x00\x00\x00'
p461
tp462
Rp463
ag171
(g175
S'\x02\x00\x00\x00\x00\x00\x00\x00'
p464
tp465
Rp466
aa(lp467
g171
(g175
S'\x01\x00\x00\x00\x00\x00\x00\x00'
p468
tp469
Rp470
ag171
(g175
S'\x03\x00\x00\x00\x00\x00\x00\x00'
p471
tp472
Rp473
aa(lp474
g171
(g175
S'\x02\x00\x00\x00\x00\x00\x00\x00'
p475
tp476
Rp477
ag171
(g175
S'\x01\x00\x00\x00\x00\x00\x00\x00'
p478
tp479
Rp480
aa(lp481
g171
(g175
S'\x03\x00\x00\x00\x00\x00\x00\x00'
p482
tp483
Rp484
ag171
(g175
S'\x01\x00\x00\x00\x00\x00\x00\x00'
p485
tp486
Rp487
aaNaNaNaNaNaNaNaNaNaNaNaNaNaNaNaNaNaNaNaNaNaNaNaNaNaNaNaNaNaNaNaNaNaNaNaNaNaNaNaNaNaNaNaNaNaNaNaNasg307
g0
(g308
g2
Ntp488
Rp489
(dp490
g312
Vdummy = tabularize(s, 'Groups', 1, 'MeanCt', \u000a          new_category_colnm='BioRuns',\u000a          values_colnm_prefix='Gene_')
p491
sg314
VBioRuns
p492
sg316
I00
sg317
I00
sg318
Vdummy = tabularize(s, 'Groups', 1, 'MeanCt', \u000a          new_category_colnm='BioRuns',\u000a          values_colnm_prefix='Gene_')
p493
sbsg320
g0
(g321
g322
(g323
g324
tp494
tp495
Rp496
sg314
g492
sbag0
(g163
g2
Ntp497
Rp498
(dp499
g167
I00
sg168
g4
sg169
(lp500
F18.2
aF22.4
aF21.9
aF23.4
aF23.4
aF18.9
aFnan
aFnan
aFnan
aFnan
aFnan
aFnan
aFnan
aFnan
aFnan
aFnan
aFnan
aFnan
aFnan
aFnan
aFnan
aFnan
aFnan
aFnan
aFnan
aFnan
aFnan
aFnan
aFnan
aFnan
aFnan
aFnan
aFnan
aFnan
aFnan
aFnan
aFnan
aFnan
aFnan
aFnan
aFnan
aFnan
aFnan
aFnan
aFnan
aFnan
aFnan
aFnan
aFnan
aFnan
aFnan
aFnan
aFnan
aFnan
asg307
g0
(g308
g2
Ntp501
Rp502
(dp503
g312
Nsg353
g498
sg316
I00
sg317
I00
sg318
Nsbsg320
g0
(g321
g322
(g323
g324
tp504
tp505
Rp506
sg314
S'Gene_I'
p507
sbag0
(g163
g2
Ntp508
Rp509
(dp510
g167
I00
sg168
g4
sg169
(lp511
F18.3
aF19.9
aF21.9
aF23.9
aF23.5
aF18.8
aFnan
aFnan
aFnan
aFnan
aFnan
aFnan
aFnan
aFnan
aFnan
aFnan
aFnan
aFnan
aFnan
aFnan
aFnan
aFnan
aFnan
aFnan
aFnan
aFnan
aFnan
aFnan
aFnan
aFnan
aFnan
aFnan
aFnan
aFnan
aFnan
aFnan
aFnan
aFnan
aFnan
aFnan
aFnan
aFnan
aFnan
aFnan
aFnan
aFnan
aFnan
aFnan
aFnan
aFnan
aFnan
aFnan
aFnan
aFnan
asg307
g0
(g308
g2
Ntp512
Rp513
(dp514
g312
Nsg353
g509
sg316
I00
sg317
I00
sg318
Nsbsg320
g506
sg314
S'Gene_R1'
p515
sbag0
(g163
g2
Ntp516
Rp517
(dp518
g167
I00
sg168
g4
sg169
(lp519
F19.8
aF21.9
aF23.6
aF24.5
aF26.3
aF20.4
aFnan
aFnan
aFnan
aFnan
aFnan
aFnan
aFnan
aFnan
aFnan
aFnan
aFnan
aFnan
aFnan
aFnan
aFnan
aFnan
aFnan
aFnan
aFnan
aFnan
aFnan
aFnan
aFnan
aFnan
aFnan
aFnan
aFnan
aFnan
aFnan
aFnan
aFnan
aFnan
aFnan
aFnan
aFnan
aFnan
aFnan
aFnan
aFnan
aFnan
aFnan
aFnan
aFnan
aFnan
aFnan
aFnan
aFnan
aFnan
asg307
g0
(g308
g2
Ntp520
Rp521
(dp522
g312
Nsg353
g517
sg316
I00
sg317
I00
sg318
Nsbsg320
g506
sg314
S'Gene_R2'
p523
sbag0
(g163
g2
Ntp524
Rp525
(dp526
g167
I00
sg168
g4
sg169
(lp527
F1.07177
aF0.17678
aF1.0
aF1.41421
aF1.07177
aF0.93303
aFnan
aFnan
aFnan
aFnan
aFnan
aFnan
aFnan
aFnan
aFnan
aFnan
aFnan
aFnan
aFnan
aFnan
aFnan
aFnan
aFnan
aFnan
aFnan
aFnan
aFnan
aFnan
aFnan
aFnan
aFnan
aFnan
aFnan
aFnan
aFnan
aFnan
aFnan
aFnan
aFnan
aFnan
aFnan
aFnan
aFnan
aFnan
aFnan
aFnan
aFnan
aFnan
aFnan
aFnan
aFnan
aFnan
aFnan
aFnan
asg307
g0
(g308
g2
Ntp528
Rp529
(dp530
g312
VExprR1 = roundValues(2**(Gene_R1 - Gene_I),5)
p531
sg314
VExprR1
p532
sg316
I01
sg317
I00
sg318
VroundValues(2**(Gene_R1 - Gene_I),5)
p533
sbsg320
g0
(g321
g322
(g323
g324
tp534
tp535
Rp536
sg314
g532
sbag0
(g163
g2
Ntp537
Rp538
(dp539
g167
I00
sg168
g4
sg169
(lp540
F3.03143
aF0.70711
aF3.24901
aF2.14355
aF7.46426
aF2.82843
aFnan
aFnan
aFnan
aFnan
aFnan
aFnan
aFnan
aFnan
aFnan
aFnan
aFnan
aFnan
aFnan
aFnan
aFnan
aFnan
aFnan
aFnan
aFnan
aFnan
aFnan
aFnan
aFnan
aFnan
aFnan
aFnan
aFnan
aFnan
aFnan
aFnan
aFnan
aFnan
aFnan
aFnan
aFnan
aFnan
aFnan
aFnan
aFnan
aFnan
aFnan
aFnan
aFnan
aFnan
aFnan
aFnan
aFnan
aFnan
asg307
g0
(g308
g2
Ntp541
Rp542
(dp543
g312
VExprR2 = roundValues(2**(Gene_R2 - Gene_I),5)
p544
sg314
VExprR2
p545
sg316
I01
sg317
I00
sg318
VroundValues(2**(Gene_R2 - Gene_I),5)
p546
sbsg320
g0
(g321
g322
(g323
g324
tp547
tp548
Rp549
sg314
g545
sbag0
(g163
g2
Ntp550
Rp551
(dp552
g167
I00
sg168
g4
sg169
(lp553
F1.802
aF0.354
aF1.803
aF1.741
aF2.828
aF1.625
aFnan
aFnan
aFnan
aFnan
aFnan
aFnan
aFnan
aFnan
aFnan
aFnan
aFnan
aFnan
aFnan
aFnan
aFnan
aFnan
aFnan
aFnan
aFnan
aFnan
aFnan
aFnan
aFnan
aFnan
aFnan
aFnan
aFnan
aFnan
aFnan
aFnan
aFnan
aFnan
aFnan
aFnan
aFnan
aFnan
aFnan
aFnan
aFnan
aFnan
aFnan
aFnan
aFnan
aFnan
aFnan
aFnan
aFnan
aFnan
asg307
g0
(g308
g2
Ntp554
Rp555
(dp556
g312
VGeoMean = roundValues(np.sqrt(ExprR1*ExprR2), 3)
p557
sg314
VGeoMean
p558
sg316
I01
sg317
I00
sg318
VroundValues(np.sqrt(ExprR1*ExprR2), 3)
p559
sbsg320
g0
(g321
g322
(g323
g324
tp560
tp561
Rp562
sg314
g558
sbag0
(g163
g2
Ntp563
Rp564
(dp565
g167
I00
sg168
g4
sg169
(lp566
VSEP1 2012 P17F4 3a
p567
aVSEP1 2012 P17F4 b
p568
aVSEP1 2012 P17F4 c
p569
aVSEP1 2012 P17F5 a
p570
aVSEP1 2012 P17F5 b
p571
aVSEP1 2012 P17F5 c
p572
aVSEP1 2012 P1F3 SEP1a
p573
aVSEP1 2012 P1F3 SEP1b
p574
aVSEP1 2012 P1F3 SEP1c
p575
aVSEP1-2 2012 P11aF2 a
p576
aVSEP1-2 2012 P11aF2 b
p577
aVSEP1-2 2012 P11aF2 c
p578
aVSEP1-3 2012 P15F2 a
p579
aVSEP1-3 2012 P15F2 b
p580
aVSEP1-3 2012 P15F2 c
p581
aVuntreated 2012 P12F1 SEP3-3 1:2a
p582
aVuntreated 2012 P12F1 SEP3-3 1:2b
p583
aVuntreated 2012 P12F1 SEP3-3 1:2c
p584
aVSEP1 2012 P17F4 ACTa
p585
aVSEP1 2012 P17F4 ACTb
p586
aVSEP1 2012 P17F4 ACTc
p587
aVSEP1 2012 P17F5 ACTa
p588
aVSEP1 2012 P17F5 ACTb
p589
aVSEP1 2012 P17F5 ACTc
p590
aVSEP1 2012 P1F3 ACTa
p591
aVSEP1 2012 P1F3 ACTb
p592
aVSEP1 2012 P1F3 ACTc
p593
aVSEP1-2 2012 P11aF2 ACTa
p594
aVSEP1-2 2012 P11aF2 ACTb
p595
aVSEP1-2 2012 P11aF2 ACTc
p596
aVSEP1-3 2012 P15F2 ACTa
p597
aVSEP1-3 2012 P15F2 ACTb
p598
aVSEP1-3 2012 P15F2 ACTc
p599
aVuntreated 2012 P12F1 ACTa
p600
aVuntreated 2012 P12F1 ACTb
p601
aVuntreated 2012 P12F1 ACTc
p602
aVSEP1 2012 P17F4 EEF1a
p603
aVSEP1 2012 P17F4 EEF1b
p604
aVSEP1 2012 P17F4 EEF1c
p605
aVSEP1 2012 P17F5 EEF1a
p606
aVSEP1 2012 P17F5 EEF1b
p607
aVSEP1 2012 P17F5 EEF1c
p608
aVSEP1 2012 P1F3 EEF1a
p609
aVSEP1 2012 P1F3 EEF1b
p610
aVSEP1 2012 P1F3 EEF1c
p611
aVSEP1-2 2012 P11aF2 EEF1a
p612
aVSEP1-2 2012 P11aF2 EEF1b
p613
aVSEP1-2 2012 P11aF2 EEF1c
p614
aVSEP1-3 2012 P15F2 EEF1a
p615
aVSEP1-3 2012 P15F2 EEF1b
p616
aVSEP1-3 2012 P15F2 EEF1c
p617
aVuntreated 2012 P12F1 EEF1a
p618
aVuntreated 2012 P12F1 EEF1b
p619
aVuntreated 2012 P12F1 EEF1c
p620
asg307
g0
(g308
g2
Ntp621
Rp622
(dp623
g312
Nsg353
g564
sg316
I00
sg317
I00
sg318
Nsbsg320
g0
(g321
g322
(g323
g324
tp624
tp625
Rp626
sg314
S'SmplName'
p627
sbag0
(g163
g2
Ntp628
Rp629
(dp630
g167
I00
sg168
g4
sg169
(lp631
I1
aI1
aI1
aI2
aI2
aI2
aI3
aI3
aI3
aI1
aI1
aI1
aI1
aI1
aI1
aI1
aI1
aI1
aI1
aI1
aI1
aI2
aI2
aI2
aI3
aI3
aI3
aI1
aI1
aI1
aI1
aI1
aI1
aI1
aI1
aI1
aI1
aI1
aI1
aI2
aI2
aI2
aI3
aI3
aI3
aI1
aI1
aI1
aI1
aI1
aI1
aI1
aI1
aI1
asg307
g0
(g308
g2
Ntp632
Rp633
(dp634
g312
Nsg353
g629
sg316
I00
sg317
I00
sg318
Nsbsg320
g626
sg314
S'BRpl'
p635
sbag0
(g163
g2
Ntp636
Rp637
(dp638
g167
I00
sg168
g4
sg169
(lp639
F22.42
aF22.5
aF22.44
aF21.92
aF22.03
aF21.94
aF23.4
aF23.47
aF23.41
aF23.48
aF23.31
aF23.45
aF18.82
aF18.97
aF18.92
aF18.31
aF18.29
aF18.15
aF19.92
aF19.85
aF20.0
aF21.86
aF22.09
aF21.84
aF23.89
aF23.54
aF24.27
aF23.22
aF23.8
aF23.49
aF18.91
aF18.78
aF18.8
aF18.24
aF18.22
aF18.36
aF22.18
aF21.71
aF21.75
aF23.88
aF23.42
aF23.63
aF24.59
aF24.61
aF24.34
aF26.37
aF26.36
aF26.17
aF20.5
aF20.47
aF20.28
aF19.72
aF19.75
aF20.01
asg307
g0
(g308
g2
Ntp640
Rp641
(dp642
g312
Nsg353
g637
sg316
I00
sg317
I00
sg318
Nsbsg320
g626
sg314
S'Ct'
p643
sbag0
(g163
g2
Ntp644
Rp645
(dp646
g167
I00
sg168
g4
sg169
(lp647
F0.8453
aF0.8426
aF0.8524
aF0.8658
aF0.7809
aF0.8512
aF0.8442
aF0.8357
aF0.7658
aF0.8352
aF0.7886
aF0.8105
aF0.876
aF0.8597
aF0.8873
aF0.919
aF0.9106
aF0.9129
aF0.9179
aF0.9783
aF0.8971
aF0.8957
aF0.8287
aF0.8387
aF0.8746
aF0.8493
aF0.8349
aF0.7701
aF0.8746
aF0.8139
aF0.8715
aF0.8977
aF0.856
aF0.8266
aF0.8343
aF0.8496
aF0.7857
aF0.8427
aF0.8637
aF0.8281
aF0.8203
aF0.8288
aF0.8138
aF0.8242
aF0.804
aF0.7795
aF0.7676
aF0.7947
aF0.8179
aF0.8173
aF0.7894
aF0.8157
aF0.8543
aF0.8208
asg307
g0
(g308
g2
Ntp648
Rp649
(dp650
g312
Nsg353
g645
sg316
I00
sg317
I00
sg318
Nsbsg320
g626
sg314
S'Eff'
p651
sbag0
(g163
g2
Ntp652
Rp653
(dp654
g167
I00
sg168
g4
sg169
(lp655
g181
ag181
ag181
ag181
ag181
ag181
ag181
ag181
ag181
ag181
ag181
ag181
ag181
ag181
ag181
ag181
ag181
ag181
aVR1
p656
aVR1
p657
aVR1
p658
aVR1
p659
aVR1
p660
aVR1
p661
aVR1
p662
aVR1
p663
aVR1
p664
aVR1
p665
aVR1
p666
aVR1
p667
aVR1
p668
aVR1
p669
aVR1
p670
aVR1
p671
aVR1
p672
aVR1
p673
aVR2
p674
aVR2
p675
aVR2
p676
aVR2
p677
aVR2
p678
aVR2
p679
aVR2
p680
aVR2
p681
aVR2
p682
aVR2
p683
aVR2
p684
aVR2
p685
aVR2
p686
aVR2
p687
aVR2
p688
aVR2
p689
aVR2
p690
aVR2
p691
asg307
g0
(g308
g2
Ntp692
Rp693
(dp694
g312
Nsg353
g653
sg316
I00
sg317
I00
sg318
Nsbsg320
g626
sg314
S'RunType'
p695
sbag0
(g163
g2
Ntp696
Rp697
(dp698
g167
I00
sg168
g4
sg169
(lp699
Va
p700
aVb
p701
aVc
p702
ag700
ag701
ag702
ag700
ag701
ag702
ag700
ag701
ag702
ag700
ag701
ag702
ag700
ag701
ag702
ag700
ag701
ag702
ag700
ag701
ag702
ag700
ag701
ag702
ag700
ag701
ag702
ag700
ag701
ag702
ag700
ag701
ag702
ag700
ag701
ag702
ag700
ag701
ag702
ag700
ag701
ag702
ag700
ag701
ag702
ag700
ag701
ag702
ag700
ag701
ag702
asg307
g0
(g308
g2
Ntp703
Rp704
(dp705
g312
Nsg353
g697
sg316
I00
sg317
I00
sg318
Nsbsg320
g626
sg314
S'TRpl'
p706
sbag0
(g163
g2
Ntp707
Rp708
(dp709
g167
I00
sg168
g4
sg169
(lp710
I1
aI1
aI1
aI1
aI1
aI1
aI1
aI1
aI1
aI2
aI2
aI2
aI3
aI3
aI3
aI0
aI0
aI0
aI1
aI1
aI1
aI1
aI1
aI1
aI1
aI1
aI1
aI2
aI2
aI2
aI3
aI3
aI3
aI0
aI0
aI0
aI1
aI1
aI1
aI1
aI1
aI1
aI1
aI1
aI1
aI2
aI2
aI2
aI3
aI3
aI3
aI0
aI0
aI0
asg307
g0
(g308
g2
Ntp711
Rp712
(dp713
g312
Nsg353
g708
sg316
I00
sg317
I00
sg318
Nsbsg320
g626
sg314
S'Treatment'
p714
sbasS'_is_evaluate_formulas'
p715
I01
sS'_prologue'
p716
g0
(g308
g2
Ntp717
Rp718
(dp719
g312
V# Prologue\u000aimport math as mt\u000aimport numpy as np\u000afrom os import listdir\u000afrom os.path import isfile, join\u000aimport pandas as pd\u000aimport scipy as sp\u000afrom numpy import nan  # Must follow sympy import \u000a\u000axlsx_path = '/mnt/hgfs/josephhellerstein/home/Technical/SciSheets/CaseStudies/Kristen/workbooks/data.xlsx'\u000agene = ParmValues[0]\u000arun = ParmValues[1] == 'True'\u000ashow_raw = ParmValues[2] == 'True'\u000ashow_block1 = ParmValues[3] == 'True'\u000ashow_block2 = ParmValues[4] == 'True'\u000ashow_block3 = ParmValues[5] == 'True'\u000amax_std  = float(ParmValues[6])\u000amin_eff = float(ParmValues[7])\u000aworksheet = gene + "-I"\u000as.getTable().setIsEvaluateFormulas(run)\u000as.setColumnVisibility()\u000as.setColumnVisibility(['Groups', 'GroupedEff', 'GroupedCt', 'StdFilteredGroupedCt', 'MeanCt', 'StdCt'], is_visible=show_block1)\u000as.setColumnVisibility(['BioRuns', 'Gene_I', 'Gene_R1', 'Gene_R2', 'ExprR1', 'ExprR2', 'GeoMean'], is_visible=show_block2)\u000as.setColumnVisibility(['GeoGroups', 'GroupedGeoMeans', 'NrmlGeoGroupedMeans', 'MeanNrmlGeoGroups', 'StdNrmlGeoGroups'], is_visible=show_block3)\u000aif False:\u000a  Groups = []\u000a  GroupedCt = []\u000a  GroupedEff = []\u000a  MeanCt = []\u000a  Imp = []\u000a  s.deleteColumn('Ct')\u000a  s.deleteColumn('RunType')\u000a  s.deleteColumn('BRpl')\u000a  s.deleteColumn('TRpl')\u000a  s.deleteColumn('Treatment')\u000a  s.deleteColumn('SmplName')\u000a  s.deleteColumn('Eff')\u000aif run:\u000a  importExcelToTable(s, xlsx_path, worksheet=worksheet,\u000a      column_position='ParmValues')\u000as.setColumnVisibility(['SmplName'], False)\u000as.setColumnVisibility(['BRpl', 'Ct', 'Eff', 'RunType', 'TRpl', 'Treatment'], is_visible=show_raw)\u000a
p720
sg314
VSingleGene
p721
sg316
I00
sg317
I00
sg318
V# Prologue\u000aimport math as mt\u000aimport numpy as np\u000afrom os import listdir\u000afrom os.path import isfile, join\u000aimport pandas as pd\u000aimport scipy as sp\u000afrom numpy import nan  # Must follow sympy import \u000a\u000axlsx_path = '/mnt/hgfs/josephhellerstein/home/Technical/SciSheets/CaseStudies/Kristen/workbooks/data.xlsx'\u000agene = ParmValues[0]\u000arun = ParmValues[1] == 'True'\u000ashow_raw = ParmValues[2] == 'True'\u000ashow_block1 = ParmValues[3] == 'True'\u000ashow_block2 = ParmValues[4] == 'True'\u000ashow_block3 = ParmValues[5] == 'True'\u000amax_std  = float(ParmValues[6])\u000amin_eff = float(ParmValues[7])\u000aworksheet = gene + "-I"\u000as.getTable().setIsEvaluateFormulas(run)\u000as.setColumnVisibility()\u000as.setColumnVisibility(['Groups', 'GroupedEff', 'GroupedCt', 'StdFilteredGroupedCt', 'MeanCt', 'StdCt'], is_visible=show_block1)\u000as.setColumnVisibility(['BioRuns', 'Gene_I', 'Gene_R1', 'Gene_R2', 'ExprR1', 'ExprR2', 'GeoMean'], is_visible=show_block2)\u000as.setColumnVisibility(['GeoGroups', 'GroupedGeoMeans', 'NrmlGeoGroupedMeans', 'MeanNrmlGeoGroups', 'StdNrmlGeoGroups'], is_visible=show_block3)\u000aif False:\u000a  Groups = []\u000a  GroupedCt = []\u000a  GroupedEff = []\u000a  MeanCt = []\u000a  Imp = []\u000a  s.deleteColumn('Ct')\u000a  s.deleteColumn('RunType')\u000a  s.deleteColumn('BRpl')\u000a  s.deleteColumn('TRpl')\u000a  s.deleteColumn('Treatment')\u000a  s.deleteColumn('SmplName')\u000a  s.deleteColumn('Eff')\u000aif run:\u000a  importExcelToTable(s, xlsx_path, worksheet=worksheet,\u000a      column_position='ParmValues')\u000as.setColumnVisibility(['SmplName'], False)\u000as.setColumnVisibility(['BRpl', 'Ct', 'Eff', 'RunType', 'TRpl', 'Treatment'], is_visible=show_raw)\u000a
p722
sbsS'_epilogue'
p723
g0
(g308
g2
Ntp724
Rp725
(dp726
g312
V# Epilogue\u000aworksheet = "%s-O" % gene\u000aexportTableToExcel(s, xlsx_path, worksheet=worksheet, columns=['GeoGroups', 'MeanNrmlGeoGroups', 'StdNrmlGeoGroups'])\u000a
p727
sg314
g721
sg316
I00
sg317
I00
sg318
V# Epilogue\u000aworksheet = "%s-O" % gene\u000aexportTableToExcel(s, xlsx_path, worksheet=worksheet, columns=['GeoGroups', 'MeanNrmlGeoGroups', 'StdNrmlGeoGroups'])\u000a
p728
sbsg314
g721
sS'_columns'
p729
(lp730
g0
(g163
g2
Ntp731
Rp732
(dp733
g167
I01
sg168
g4
sg169
(lp734
S'1'
p735
aS'2'
p736
aS'3'
p737
aS'4'
p738
aS'5'
p739
aS'6'
p740
aS'7'
p741
aS'8'
p742
aS'9'
p743
aS'10'
p744
aS'11'
p745
aS'12'
p746
aS'13'
p747
aS'14'
p748
aS'15'
p749
aS'16'
p750
aS'17'
p751
aS'18'
p752
aS'19'
p753
aS'20'
p754
aS'21'
p755
aS'22'
p756
aS'23'
p757
aS'24'
p758
aS'25'
p759
aS'26'
p760
aS'27'
p761
aS'28'
p762
aS'29'
p763
aS'30'
p764
aS'31'
p765
aS'32'
p766
aS'33'
p767
aS'34'
p768
aS'35'
p769
aS'36'
p770
aS'37'
p771
aS'38'
p772
aS'39'
p773
aS'40'
p774
aS'41'
p775
aS'42'
p776
aS'43'
p777
aS'44'
p778
aS'45'
p779
aS'46'
p780
aS'47'
p781
aS'48'
p782
aS'49'
p783
aS'50'
p784
aS'51'
p785
aS'52'
p786
aS'53'
p787
aS'54'
p788
asg307
g0
(g308
g2
Ntp789
Rp790
(dp791
g312
Nsg353
g732
sg316
I00
sg317
I00
sg318
Nsbsg320
g0
(g321
g322
(g323
g324
tp792
tp793
Rp794
sg314
S'row'
p795
sbag0
(g163
g2
Ntp796
Rp797
(dp798
g167
I00
sg168
g4
sg169
(lp799
Vgene
p800
aVrun
p801
aVshow_raw
p802
aVshow_block1
p803
aVshow_block2
p804
aVshow_block3
p805
aVmax_std
p806
aVmin_eff
p807
aVnan
p808
aVnan
p809
aVnan
p810
aVnan
p811
aVnan
p812
aVnan
p813
aVnan
p814
aVnan
p815
aVnan
p816
aVnan
p817
aVnan
p818
aVnan
p819
aVnan
p820
aVnan
p821
aVnan
p822
aVnan
p823
aVnan
p824
aVnan
p825
aVnan
p826
aVnan
p827
aVnan
p828
aVnan
p829
aVnan
p830
aVnan
p831
aVnan
p832
aVnan
p833
aVnan
p834
aVnan
p835
aVnan
p836
aVnan
p837
aVnan
p838
aVnan
p839
aVnan
p840
aVnan
p841
aVnan
p842
aVnan
p843
aVnan
p844
aVnan
p845
aVnan
p846
aVnan
p847
aVnan
p848
aVnan
p849
aVnan
p850
aVnan
p851
aVnan
p852
aVnan
p853
asg307
g0
(g308
g2
Ntp854
Rp855
(dp856
g312
Nsg353
g797
sg316
I00
sg317
I00
sg318
Nsbsg320
g0
(g321
g322
(g323
g324
tp857
tp858
Rp859
sg314
VParmNames
p860
sbag0
(g163
g2
Ntp861
Rp862
(dp863
g167
I00
sg168
g4
sg169
(lp864
VGene2
p865
aVTrue
p866
aVFalse
p867
aVFalse
p868
aVFalse
p869
aVTrue
p870
aV0.5
p871
aV0.7
p872
aV
p873
ag873
aVnan
p874
aVnan
p875
aVnan
p876
aVnan
p877
aVnan
p878
aVnan
p879
aVnan
p880
aVnan
p881
aVnan
p882
aVnan
p883
aVnan
p884
aVnan
p885
aVnan
p886
aVnan
p887
aVnan
p888
aVnan
p889
aVnan
p890
aVnan
p891
aVnan
p892
aVnan
p893
aVnan
p894
aVnan
p895
aVnan
p896
aVnan
p897
aVnan
p898
aVnan
p899
aVnan
p900
aVnan
p901
aVnan
p902
aVnan
p903
aVnan
p904
aVnan
p905
aVnan
p906
aVnan
p907
aVnan
p908
aVnan
p909
aVnan
p910
aVnan
p911
aVnan
p912
aVnan
p913
aVnan
p914
aVnan
p915
aVnan
p916
aVnan
p917
asg307
g0
(g308
g2
Ntp918
Rp919
(dp920
g312
Nsg314
VParmValues
p921
sg316
I00
sg317
I00
sg318
Nsbsg320
g0
(g321
g322
(g323
g324
tp922
tp923
Rp924
sg314
g921
sbag165
ag329
ag359
ag388
ag419
ag432
ag443
ag498
ag509
ag517
ag525
ag538
ag551
ag0
(g163
g2
Ntp925
Rp926
(dp927
g167
I00
sg168
g4
sg169
(lp928
F0.0
aF1.0
aF2.0
aF3.0
aFnan
aFnan
aFnan
aFnan
aFnan
aFnan
aFnan
aFnan
aFnan
aFnan
aFnan
aFnan
aFnan
aFnan
aFnan
aFnan
aFnan
aFnan
aFnan
aFnan
aFnan
aFnan
aFnan
aFnan
aFnan
aFnan
aFnan
aFnan
aFnan
aFnan
aFnan
aFnan
aFnan
aFnan
aFnan
aFnan
aFnan
aFnan
aFnan
aFnan
aFnan
aFnan
aFnan
aFnan
aFnan
aFnan
aFnan
aFnan
aFnan
aFnan
asg307
g0
(g308
g2
Ntp929
Rp930
(dp931
g312
Vcat_vals = [br[0] for br in pruneNulls(BioRuns)]\u000aclean_geo = [x for x in GeoMean if x is not None]\u000aGeoGroups, groupedGeoMeans = groupBy(cat_vals, clean_geo)\u000aGroupedGeoMeans = roundValues(groupedGeoMeans, 3)
p932
sg314
VGeoGroups
p933
sg316
I00
sg317
I00
sg318
Vcat_vals = [br[0] for br in pruneNulls(BioRuns)]\u000aclean_geo = [x for x in GeoMean if x is not None]\u000aGeoGroups, groupedGeoMeans = groupBy(cat_vals, clean_geo)\u000aGroupedGeoMeans = roundValues(groupedGeoMeans, 3)
p934
sbsg320
g0
(g321
g322
(g323
g324
tp935
tp936
Rp937
sg314
g933
sbag0
(g163
g2
Ntp938
Rp939
(dp940
g167
I00
sg168
g4
sg169
(lp941
cnumpy.core.multiarray
_reconstruct
p942
(g323
(I0
tp943
S'b'
p944
tp945
Rp946
(I1
(I1
tp947
g172
(S'f8'
p948
I0
I1
tp949
Rp950
(I3
S'<'
p951
NNNI-1
I-1
I0
tp952
bI00
S'\xa2E\xb6\xf3\xfd\xd4\xfc?'
p953
tp954
bag942
(g323
(I0
tp955
g944
tp956
Rp957
(I1
(I3
tp958
g950
I00
S'\x0e-\xb2\x9d\xef\xa7\xd6?\x0c\x02+\x87\x16\xd9\xfc?B`\xe5\xd0"\xdb\xfb?'
p959
tp960
bag942
(g323
(I0
tp961
g944
tp962
Rp963
(I1
(I1
tp964
g950
I00
S'9\xb4\xc8v\xbe\x9f\x06@'
p965
tp966
bag942
(g323
(I0
tp967
g944
tp968
Rp969
(I1
(I1
tp970
g950
I00
S'\x00\x00\x00\x00\x00\x00\xfa?'
p971
tp972
baNaNaNaNaNaNaNaNaNaNaNaNaNaNaNaNaNaNaNaNaNaNaNaNaNaNaNaNaNaNaNaNaNaNaNaNaNaNaNaNaNaNaNaNaNaNaNaNaNaNasg307
g0
(g308
g2
Ntp973
Rp974
(dp975
g312
Nsg353
g939
sg316
I00
sg317
I00
sg318
Nsbsg320
g0
(g321
g322
(g323
g324
tp976
tp977
Rp978
sg314
VGroupedGeoMeans
p979
sbag0
(g163
g2
Ntp980
Rp981
(dp982
g167
I00
sg168
g4
sg169
(lp983
g942
(g323
(I0
tp984
g944
tp985
Rp986
(I1
(I1
tp987
g950
I00
S'\x00\x00\x00\x00\x00\x00\xf0?'
p988
tp989
bag942
(g323
(I0
tp990
g944
tp991
Rp992
(I1
(I3
tp993
g950
I00
S'J\x0c\x02+\x87\x16\xc9?j\xbct\x93\x18\x04\xf0?\xb6\xf3\xfd\xd4x\xe9\xee?'
p994
tp995
bag942
(g323
(I0
tp996
g944
tp997
Rp998
(I1
(I1
tp999
g950
I00
S'\xb4\xc8v\xbe\x9f\x1a\xf9?'
p1000
tp1001
bag942
(g323
(I0
tp1002
g944
tp1003
Rp1004
(I1
(I1
tp1005
g950
I00
S'w\xbe\x9f\x1a/\xdd\xec?'
p1006
tp1007
baNaNaNaNaNaNaNaNaNaNaNaNaNaNaNaNaNaNaNaNaNaNaNaNaNaNaNaNaNaNaNaNaNaNaNaNaNaNaNaNaNaNaNaNaNaNaNaNaNaNasg307
g0
(g308
g2
Ntp1008
Rp1009
(dp1010
g312
Vref = np.mean(GroupedGeoMeans[0])\u000aNrmlGeoGroupedMeans = [ [x/ref for x in g] for g in GroupedGeoMeans if g is not None]  \u000aNrmlGeoGroupedMeans = roundValues(NrmlGeoGroupedMeans, 3)
p1011
sg314
VNrmlGeoGroupedMeans
p1012
sg316
I00
sg317
I00
sg318
Vref = np.mean(GroupedGeoMeans[0])\u000aNrmlGeoGroupedMeans = [ [x/ref for x in g] for g in GroupedGeoMeans if g is not None]  \u000aNrmlGeoGroupedMeans = roundValues(NrmlGeoGroupedMeans, 3)
p1013
sbsg320
g0
(g321
g322
(g323
g324
tp1014
tp1015
Rp1016
sg314
g1012
sbag0
(g163
g2
Ntp1017
Rp1018
(dp1019
g167
I00
sg168
g4
sg169
(lp1020
F1.0
aF0.721
aF1.569
aF0.902
aFnan
aFnan
aFnan
aFnan
aFnan
aFnan
aFnan
aFnan
aFnan
aFnan
aFnan
aFnan
aFnan
aFnan
aFnan
aFnan
aFnan
aFnan
aFnan
aFnan
aFnan
aFnan
aFnan
aFnan
aFnan
aFnan
aFnan
aFnan
aFnan
aFnan
aFnan
aFnan
aFnan
aFnan
aFnan
aFnan
aFnan
aFnan
aFnan
aFnan
aFnan
aFnan
aFnan
aFnan
aFnan
aFnan
aFnan
aFnan
aFnan
aFnan
asg307
g0
(g308
g2
Ntp1021
Rp1022
(dp1023
g312
VMeanNrmlGeoGroups = [round(np.mean(g), 3) for g in NrmlGeoGroupedMeans]
p1024
sg314
VMeanNrmlGeoGroups
p1025
sg316
I01
sg317
I00
sg318
V[round(np.mean(g), 3) for g in NrmlGeoGroupedMeans]
p1026
sbsg320
g0
(g321
g322
(g323
g324
tp1027
tp1028
Rp1029
sg314
g1025
sbag0
(g163
g2
Ntp1030
Rp1031
(dp1032
g167
I00
sg168
g4
sg169
(lp1033
Fnan
aF0.263
aFnan
aFnan
aFnan
aFnan
aFnan
aFnan
aFnan
aFnan
aFnan
aFnan
aFnan
aFnan
aFnan
aFnan
aFnan
aFnan
aFnan
aFnan
aFnan
aFnan
aFnan
aFnan
aFnan
aFnan
aFnan
aFnan
aFnan
aFnan
aFnan
aFnan
aFnan
aFnan
aFnan
aFnan
aFnan
aFnan
aFnan
aFnan
aFnan
aFnan
aFnan
aFnan
aFnan
aFnan
aFnan
aFnan
aFnan
aFnan
aFnan
aFnan
aFnan
aFnan
asg307
g0
(g308
g2
Ntp1034
Rp1035
(dp1036
g312
VStdNrmlGeoGroups = [round(np.std(g, ddof=1)/np.sqrt(len(g)), 3) for g in NrmlGeoGroupedMeans]\u000a
p1037
sg314
VStdNrmlGeoGroups
p1038
sg316
I01
sg317
I00
sg318
V[round(np.std(g, ddof=1)/np.sqrt(len(g)), 3) for g in NrmlGeoGroupedMeans]\u000a
p1039
sbsg320
g0
(g321
g322
(g323
g324
tp1040
tp1041
Rp1042
sg314
g1038
sbag629
ag637
ag645
ag653
ag564
ag697
ag708
asg156
V/home/ubuntu/SciSheets/mysite/user/guest/tables/kristen_single_gene.pcl
p1043
sb.