ccopy_reg
_reconstructor
p0
(cscisheets.ui.dt_table
DTTable
p1
c__builtin__
object
p2
Ntp3
Rp4
(dp5
S'_versioned_file'
p6
g0
(cmysite.helpers.versioned_file
VersionedFile
p7
g2
Ntp8
Rp9
(dp10
S'_redo_stack'
p11
g0
(cmysite.helpers.file_stack
FileStack
p12
g2
Ntp13
Rp14
(dp15
S'_dirpath'
p16
S'/home/ubuntu/SciSheets/mysite/user/guest/tables/backup'
p17
sS'_max_depth'
p18
I5
sS'_filename_pfx'
p19
Vkristen_single_gene.r
p20
sbsS'_max_versions'
p21
I5
sS'_undo_stack'
p22
g0
(g12
g2
Ntp23
Rp24
(dp25
g16
g17
sg18
I5
sg19
Vkristen_single_gene.u
p26
sbsS'_checkpoint_history'
p27
(lp28
VCell/Update
p29
aVCell/Update
p30
aVCell/Update
p31
aVCell/Update
p32
aVCell/Update
p33
aVCell/Update
p34
aVCell/Update
p35
aVCell/Update
p36
aVCell/Update
p37
aVCell/Update
p38
aVCell/Update
p39
aVCell/Update
p40
aVColumn/Formula
p41
aVColumn/Formula
p42
aVColumn/Append
p43
aVColumn/Formula
p44
aVColumn/Delete
p45
aVCell/Update
p46
aVColumn/Formula
p47
aVCell/Update
p48
aVCell/Update
p49
aVColumn/Formula
p50
aVColumn/Formula
p51
aVCell/Update
p52
aVColumn/Formula
p53
aVColumn/Formula
p54
aVCell/Update
p55
aVCell/Update
p56
aVCell/Update
p57
aVCell/Update
p58
aVColumn/Formula
p59
aVCell/Update
p60
aVCell/Update
p61
aVCell/Update
p62
aVColumn/Formula
p63
aVCell/Update
p64
aVColumn/Formula
p65
aVColumn/Formula
p66
aVCell/Update
p67
aVCell/Update
p68
aVCell/Update
p69
aVCell/Update
p70
aVCell/Update
p71
aVCell/Update
p72
aVCell/Update
p73
aVCell/Update
p74
aVCell/Update
p75
aVColumn/Formula
p76
aVCell/Update
p77
aVCell/Update
p78
aVCell/Update
p79
aVCell/Update
p80
aVCell/Update
p81
aVCell/Update
p82
aVCell/Update
p83
aVCell/Update
p84
aVCell/Update
p85
aVCell/Update
p86
aVCell/Update
p87
aVCell/Update
p88
aVColumn/Formula
p89
aVColumn/Formula
p90
aVColumn/Formula
p91
aVCell/Update
p92
aVCell/Update
p93
aVCell/Update
p94
aVCell/Update
p95
aVCell/Update
p96
aVColumn/Formula
p97
aVCell/Update
p98
aVCell/Update
p99
aVCell/Update
p100
aVCell/Update
p101
aVCell/Update
p102
aVCell/Update
p103
aVCell/Update
p104
aVColumn/Formula
p105
aVColumn/Formula
p106
aVColumn/Formula
p107
aVCell/Update
p108
aVCell/Update
p109
aVColumn/Formula
p110
aVCell/Update
p111
aVCell/Update
p112
aVCell/Update
p113
aVCell/Update
p114
aVCell/Update
p115
aVCell/Update
p116
aVCell/Update
p117
aVCell/Update
p118
aVColumn/Formula
p119
aVCell/Update
p120
aVColumn/Formula
p121
aVColumn/Formula
p122
aVColumn/Formula
p123
aVCell/Update
p124
aVCell/Update
p125
aVColumn/Formula
p126
aVColumn/Formula
p127
aVColumn/Formula
p128
aVColumn/Formula
p129
aVCell/Update
p130
aVColumn/Formula
p131
aVColumn/Formula
p132
aVColumn/Formula
p133
aVCell/Update
p134
aVCell/Update
p135
aVCell/Update
p136
aVCell/Update
p137
aVCell/Update
p138
aVCell/Update
p139
aVCell/Update
p140
aVCell/Update
p141
aVCell/Update
p142
aVCell/Update
p143
aVColumn/Formula
p144
aVColumn/Formula
p145
aVColumn/Formula
p146
aVColumn/Formula
p147
aVCell/Update
p148
aVCell/Update
p149
aVColumn/Formula
p150
aVCell/Update
p151
aVCell/Update
p152
aVCell/Update
p153
aVCell/Update
p154
aVCell/Update
p155
aVCell/Update
p156
aVCell/Update
p157
aVCell/Update
p158
aVCell/Update
p159
aVCell/Update
p160
aVCell/Update
p161
aVCell/Update
p162
aVCell/Update
p163
aVColumn/Formula
p164
aVColumn/Formula
p165
aVCell/Update
p166
aVCell/Update
p167
aVCell/Update
p168
aVColumn/Formula
p169
aVCell/Update
p170
aVCell/Update
p171
aVCell/Update
p172
aVCell/Update
p173
aVColumn/Formula
p174
aVColumn/Formula
p175
aVColumn/Formula
p176
aVColumn/Formula
p177
aVCell/Update
p178
aVColumn/Formula
p179
aVCell/Update
p180
aVCell/Update
p181
aVCell/Update
p182
aVCell/Update
p183
aVCell/Update
p184
aVCell/Update
p185
aVCell/Update
p186
aVCell/Update
p187
aVCell/Update
p188
aVColumn/Formula
p189
aVCell/Update
p190
aVCell/Update
p191
aVCell/Update
p192
aVCell/Update
p193
aVCell/Update
p194
aVCell/Update
p195
aVCell/Update
p196
aVCell/Update
p197
aVCell/Update
p198
aVCell/Update
p199
aVCell/Update
p200
aVCell/Update
p201
aVCell/Update
p202
aVCell/Update
p203
aVCell/Update
p204
aVCell/Update
p205
aVCell/Update
p206
aVCell/Update
p207
aVCell/Update
p208
aVCell/Update
p209
aVCell/Update
p210
aVCell/Update
p211
aVCell/Update
p212
aVCell/Update
p213
aVCell/Update
p214
aVCell/Update
p215
aVCell/Update
p216
aVCell/Update
p217
aVCell/Update
p218
aVCell/Update
p219
aVCell/Update
p220
aVCell/Update
p221
aVCell/Update
p222
aVCell/Update
p223
aVCell/Update
p224
aVCell/Update
p225
aVCell/Update
p226
aVCell/Update
p227
aVCell/Update
p228
aVCell/Update
p229
aVCell/Update
p230
aVCell/Update
p231
aVCell/Update
p232
aVCell/Update
p233
aVCell/Update
p234
aVCell/Update
p235
aVCell/Update
p236
aVCell/Update
p237
aVCell/Update
p238
aVCell/Update
p239
aVCell/Update
p240
aVCell/Update
p241
aVCell/Update
p242
aVCell/Update
p243
aVCell/Update
p244
aVCell/Update
p245
aVCell/Update
p246
aVCell/Update
p247
aVCell/Update
p248
aVCell/Update
p249
aVCell/Update
p250
aVCell/Update
p251
aVCell/Update
p252
aVCell/Update
p253
aVCell/Update
p254
aVCell/Update
p255
aVCell/Update
p256
aVCell/Update
p257
aVCell/Update
p258
aVCell/Update
p259
aVCell/Update
p260
aVCell/Update
p261
aVCell/Update
p262
aVCell/Update
p263
aVCell/Update
p264
aVCell/Update
p265
aVCell/Update
p266
aVCell/Update
p267
aVCell/Update
p268
aVCell/Update
p269
aVCell/Update
p270
aVCell/Update
p271
aVColumn/Formula
p272
aVColumn/Formula
p273
aVCell/Update
p274
aVCell/Update
p275
asS'_filepath'
p276
V/home/ubuntu/SciSheets/mysite/user/guest/tables/kristen_single_gene.pcl
p277
sS'_backup_dir'
p278
g17
sbsS'_namespace'
p279
(dp280
sS'_hidden_columns'
p281
(lp282
g0
(cscisheets.core.column
Column
p283
g2
Ntp284
Rp285
(dp286
S'_asis'
p287
I00
sS'_owning_table'
p288
g4
sS'_cells'
p289
(lp290
(lp291
cnumpy.core.multiarray
scalar
p292
(cnumpy
dtype
p293
(S'i8'
p294
I0
I1
tp295
Rp296
(I3
S'<'
p297
NNNI-1
I-1
I0
tp298
bS'\x00\x00\x00\x00\x00\x00\x00\x00'
p299
tp300
Rp301
aVI
p302
ag292
(g296
S'\x01\x00\x00\x00\x00\x00\x00\x00'
p303
tp304
Rp305
aa(lp306
g292
(g296
S'\x00\x00\x00\x00\x00\x00\x00\x00'
p307
tp308
Rp309
aVR1
p310
ag292
(g296
S'\x01\x00\x00\x00\x00\x00\x00\x00'
p311
tp312
Rp313
aa(lp314
g292
(g296
S'\x00\x00\x00\x00\x00\x00\x00\x00'
p315
tp316
Rp317
aVR2
p318
ag292
(g296
S'\x01\x00\x00\x00\x00\x00\x00\x00'
p319
tp320
Rp321
aa(lp322
g292
(g296
S'\x01\x00\x00\x00\x00\x00\x00\x00'
p323
tp324
Rp325
ag302
ag292
(g296
S'\x01\x00\x00\x00\x00\x00\x00\x00'
p326
tp327
Rp328
aa(lp329
g292
(g296
S'\x01\x00\x00\x00\x00\x00\x00\x00'
p330
tp331
Rp332
ag302
ag292
(g296
S'\x02\x00\x00\x00\x00\x00\x00\x00'
p333
tp334
Rp335
aa(lp336
g292
(g296
S'\x01\x00\x00\x00\x00\x00\x00\x00'
p337
tp338
Rp339
ag302
ag292
(g296
S'\x03\x00\x00\x00\x00\x00\x00\x00'
p340
tp341
Rp342
aa(lp343
g292
(g296
S'\x01\x00\x00\x00\x00\x00\x00\x00'
p344
tp345
Rp346
ag310
ag292
(g296
S'\x01\x00\x00\x00\x00\x00\x00\x00'
p347
tp348
Rp349
aa(lp350
g292
(g296
S'\x01\x00\x00\x00\x00\x00\x00\x00'
p351
tp352
Rp353
ag310
ag292
(g296
S'\x02\x00\x00\x00\x00\x00\x00\x00'
p354
tp355
Rp356
aa(lp357
g292
(g296
S'\x01\x00\x00\x00\x00\x00\x00\x00'
p358
tp359
Rp360
ag310
ag292
(g296
S'\x03\x00\x00\x00\x00\x00\x00\x00'
p361
tp362
Rp363
aa(lp364
g292
(g296
S'\x01\x00\x00\x00\x00\x00\x00\x00'
p365
tp366
Rp367
ag318
ag292
(g296
S'\x01\x00\x00\x00\x00\x00\x00\x00'
p368
tp369
Rp370
aa(lp371
g292
(g296
S'\x01\x00\x00\x00\x00\x00\x00\x00'
p372
tp373
Rp374
ag318
ag292
(g296
S'\x02\x00\x00\x00\x00\x00\x00\x00'
p375
tp376
Rp377
aa(lp378
g292
(g296
S'\x01\x00\x00\x00\x00\x00\x00\x00'
p379
tp380
Rp381
ag318
ag292
(g296
S'\x03\x00\x00\x00\x00\x00\x00\x00'
p382
tp383
Rp384
aa(lp385
g292
(g296
S'\x02\x00\x00\x00\x00\x00\x00\x00'
p386
tp387
Rp388
ag302
ag292
(g296
S'\x01\x00\x00\x00\x00\x00\x00\x00'
p389
tp390
Rp391
aa(lp392
g292
(g296
S'\x02\x00\x00\x00\x00\x00\x00\x00'
p393
tp394
Rp395
ag310
ag292
(g296
S'\x01\x00\x00\x00\x00\x00\x00\x00'
p396
tp397
Rp398
aa(lp399
g292
(g296
S'\x02\x00\x00\x00\x00\x00\x00\x00'
p400
tp401
Rp402
ag318
ag292
(g296
S'\x01\x00\x00\x00\x00\x00\x00\x00'
p403
tp404
Rp405
aa(lp406
g292
(g296
S'\x03\x00\x00\x00\x00\x00\x00\x00'
p407
tp408
Rp409
ag302
ag292
(g296
S'\x01\x00\x00\x00\x00\x00\x00\x00'
p410
tp411
Rp412
aa(lp413
g292
(g296
S'\x03\x00\x00\x00\x00\x00\x00\x00'
p414
tp415
Rp416
ag310
ag292
(g296
S'\x01\x00\x00\x00\x00\x00\x00\x00'
p417
tp418
Rp419
aa(lp420
g292
(g296
S'\x03\x00\x00\x00\x00\x00\x00\x00'
p421
tp422
Rp423
ag318
ag292
(g296
S'\x01\x00\x00\x00\x00\x00\x00\x00'
p424
tp425
Rp426
aaNaNaNaNaNaNaNaNaNaNaNaNaNaNaNaNaNaNaNaNaNaNaNaNaNaNaNaNaNaNaNaNaNaNaNaNaNaNaNaNaNaNaNaNaNaNasS'_formula_statement'
p427
g0
(cscisheets.core.helpers.formula_statement
FormulaStatement
p428
g2
Ntp429
Rp430
(dp431
S'_statement'
p432
Vsel = Eff > min_eff\u000agrouping_columns =   [\u000a    Treatment[sel],\u000a     RunType[sel], \u000a    BRpl[sel],      \u000a  ]\u000aGroups, groupedCt = groupBy(\u000a     grouping_columns, Ct[sel])\u000aGroups, groupedEff = groupBy(\u000a     grouping_columns, Eff[sel])\u000aGroups = [[g[0], g[1], g[2]] for g in Groups]\u000aGroupedCt = roundValues(groupedCt,2)\u000aGroupedEff = roundValues(groupedEff,2)
p433
sS'_name'
p434
VGroups
p435
sS'_isExpression'
p436
I00
sS'_isStatement'
p437
I00
sS'_formula'
p438
Vsel = Eff > min_eff\u000agrouping_columns =   [\u000a    Treatment[sel],\u000a     RunType[sel], \u000a    BRpl[sel],      \u000a  ]\u000aGroups, groupedCt = groupBy(\u000a     grouping_columns, Ct[sel])\u000aGroups, groupedEff = groupBy(\u000a     grouping_columns, Eff[sel])\u000aGroups = [[g[0], g[1], g[2]] for g in Groups]\u000aGroupedCt = roundValues(groupedCt,2)\u000aGroupedEff = roundValues(groupedEff,2)
p439
sbsS'_data_class'
p440
g0
(cscisheets.core.helpers.api_util
DataClass
p441
c__builtin__
tuple
p442
(cnumpy
ndarray
p443
cscisheets.core.helpers.api_util
makeArray
p444
tp445
tp446
Rp447
sg434
g435
sbag0
(g283
g2
Ntp448
Rp449
(dp450
g287
I00
sg288
g4
sg289
(lp451
(lp452
F0.92
aF0.91
aF0.91
aa(lp453
F0.83
aF0.83
aF0.85
aa(lp454
F0.82
aF0.85
aF0.82
aa(lp455
F0.85
aF0.84
aF0.85
aa(lp456
F0.87
aF0.78
aF0.85
aa(lp457
F0.84
aF0.84
aF0.77
aa(lp458
F0.92
aF0.98
aF0.9
aa(lp459
F0.9
aF0.83
aF0.84
aa(lp460
F0.87
aF0.85
aF0.83
aa(lp461
F0.79
aF0.84
aF0.86
aa(lp462
F0.83
aF0.82
aF0.83
aa(lp463
F0.81
aF0.82
aF0.8
aa(lp464
F0.84
aF0.79
aF0.81
aa(lp465
F0.77
aF0.87
aF0.81
aa(lp466
F0.78
aF0.77
aF0.79
aa(lp467
F0.88
aF0.86
aF0.89
aa(lp468
F0.87
aF0.9
aF0.86
aa(lp469
F0.82
aF0.82
aF0.79
aaNaNaNaNaNaNaNaNaNaNaNaNaNaNaNaNaNaNaNaNaNaNaNaNaNaNaNaNaNaNaNaNaNaNaNaNaNaNaNaNaNaNaNaNaNaNasg427
g0
(g428
g2
Ntp470
Rp471
(dp472
g432
NsS'_column'
p473
g449
sg436
I00
sg437
I00
sg438
Nsbsg440
g0
(g441
g442
(g443
g444
tp474
tp475
Rp476
sg434
VGroupedEff
p477
sbag0
(g283
g2
Ntp478
Rp479
(dp480
g287
I00
sg288
g4
sg289
(lp481
(lp482
F18.31
aF18.29
aF18.15
aa(lp483
F18.24
aF18.22
aF18.36
aa(lp484
F19.72
aF19.75
aF20.01
aa(lp485
F22.42
aF22.5
aF22.44
aa(lp486
F21.92
aF22.03
aF21.94
aa(lp487
F23.4
aF23.47
aF23.41
aa(lp488
F19.92
aF19.85
aF20.0
aa(lp489
F21.86
aF22.09
aF21.84
aa(lp490
F23.89
aF23.54
aF24.27
aa(lp491
F22.18
aF21.71
aF21.75
aa(lp492
F23.88
aF23.42
aF23.63
aa(lp493
F24.59
aF24.61
aF24.34
aa(lp494
F23.48
aF23.31
aF23.45
aa(lp495
F23.22
aF23.8
aF23.49
aa(lp496
F26.37
aF26.36
aF26.17
aa(lp497
F18.82
aF18.97
aF18.92
aa(lp498
F18.91
aF18.78
aF18.8
aa(lp499
F20.5
aF20.47
aF20.28
aaNaNaNaNaNaNaNaNaNaNaNaNaNaNaNaNaNaNaNaNaNaNaNaNaNaNaNaNaNaNaNaNaNaNaNaNaNaNaNaNaNaNaNaNaNaNasg427
g0
(g428
g2
Ntp500
Rp501
(dp502
g432
Nsg473
g479
sg436
I00
sg437
I00
sg438
Nsbsg440
g0
(g441
g442
(g443
g444
tp503
tp504
Rp505
sg434
VGroupedCt
p506
sbag0
(g283
g2
Ntp507
Rp508
(dp509
g287
I00
sg288
g4
sg289
(lp510
(lp511
F18.3
aF18.3
aF18.1
aa(lp512
F18.2
aF18.2
aF18.4
aa(lp513
F19.7
aF19.8
aF20.0
aa(lp514
F22.4
aF22.5
aF22.4
aa(lp515
F21.9
aF22.0
aF21.9
aa(lp516
F23.4
aF23.5
aF23.4
aa(lp517
F19.9
aF19.9
aF20.0
aa(lp518
F21.9
aF22.1
aF21.8
aa(lp519
F23.9
aF23.5
aF24.3
aa(lp520
F22.2
aF21.7
aF21.8
aa(lp521
F23.9
aF23.4
aF23.6
aa(lp522
F24.6
aF24.6
aF24.3
aa(lp523
F23.5
aF23.3
aF23.4
aa(lp524
F23.2
aF23.8
aF23.5
aa(lp525
F26.4
aF26.4
aF26.2
aa(lp526
F18.8
aF19.0
aF18.9
aa(lp527
F18.9
aF18.8
aF18.8
aa(lp528
F20.5
aF20.5
aF20.3
aaNaNaNaNaNaNaNaNaNaNaNaNaNaNaNaNaNaNaNaNaNaNaNaNaNaNaNaNaNaNaNaNaNaNaNaNaNaNaNaNaNaNaNaNaNaNasg427
g0
(g428
g2
Ntp529
Rp530
(dp531
g432
Vlength = len(Groups)\u000aStdFilteredGroupedCt = roundValues([filterExtremes(g, max_std, 2) for g in pruneNulls(GroupedCt,    required_length=length)])\u000a 
p532
sg434
VStdFilteredGroupedCt
p533
sg436
I00
sg437
I00
sg438
Vlength = len(Groups)\u000aStdFilteredGroupedCt = roundValues([filterExtremes(g, max_std, 2) for g in pruneNulls(GroupedCt,    required_length=length)])\u000a 
p534
sbsg440
g0
(g441
g442
(g443
g444
tp535
tp536
Rp537
sg434
g533
sbag0
(g283
g2
Ntp538
Rp539
(dp540
g287
I00
sg288
g4
sg289
(lp541
F18.2
aF18.3
aF19.8
aF22.4
aF21.9
aF23.4
aF19.9
aF21.9
aF23.9
aF21.9
aF23.6
aF24.5
aF23.4
aF23.5
aF26.3
aF18.9
aF18.8
aF20.4
aFnan
aFnan
aFnan
aFnan
aFnan
aFnan
aFnan
aFnan
aFnan
aFnan
aFnan
aFnan
aFnan
aFnan
aFnan
aFnan
aFnan
aFnan
aFnan
aFnan
aFnan
aFnan
aFnan
aFnan
aFnan
aFnan
aFnan
aFnan
aFnan
aFnan
aFnan
aFnan
aFnan
aFnan
aFnan
aFnan
aFnan
aFnan
aFnan
aFnan
aFnan
aFnan
aFnan
aFnan
aFnan
aFnan
asg427
g0
(g428
g2
Ntp542
Rp543
(dp544
g432
VMeanCt = [np.mean(g) for g in StdFilteredGroupedCt]\u000aMeanCt = roundValues(MeanCt,1)\u000aStdCt = [np.std(g, ddof=1) for g in StdFilteredGroupedCt]\u000aStdCt = roundValues(StdCt,3)
p545
sg434
VMeanCt
p546
sg436
I00
sg437
I00
sg438
VMeanCt = [np.mean(g) for g in StdFilteredGroupedCt]\u000aMeanCt = roundValues(MeanCt,1)\u000aStdCt = [np.std(g, ddof=1) for g in StdFilteredGroupedCt]\u000aStdCt = roundValues(StdCt,3)
p547
sbsg440
g0
(g441
g442
(g443
g444
tp548
tp549
Rp550
sg434
g546
sbag0
(g283
g2
Ntp551
Rp552
(dp553
g287
I00
sg288
g4
sg289
(lp554
F0.115
aF0.115
aF0.153
aF0.058
aF0.058
aF0.058
aF0.058
aF0.153
aF0.4
aF0.265
aF0.252
aF0.173
aF0.1
aF0.3
aF0.115
aF0.1
aF0.058
aF0.115
aFnan
aFnan
aFnan
aFnan
aFnan
aFnan
aFnan
aFnan
aFnan
aFnan
aFnan
aFnan
aFnan
aFnan
aFnan
aFnan
aFnan
aFnan
aFnan
aFnan
aFnan
aFnan
aFnan
aFnan
aFnan
aFnan
aFnan
aFnan
aFnan
aFnan
aFnan
aFnan
aFnan
aFnan
aFnan
aFnan
aFnan
aFnan
aFnan
aFnan
aFnan
aFnan
aFnan
aFnan
aFnan
aFnan
asg427
g0
(g428
g2
Ntp555
Rp556
(dp557
g432
Nsg473
g552
sg436
I00
sg437
I00
sg438
Nsbsg440
g0
(g441
g442
(g443
g444
tp558
tp559
Rp560
sg434
VStdCt
p561
sbag0
(g283
g2
Ntp562
Rp563
(dp564
g287
I00
sg288
g4
sg289
(lp565
(lp566
g292
(g296
S'\x00\x00\x00\x00\x00\x00\x00\x00'
p567
tp568
Rp569
ag292
(g296
S'\x01\x00\x00\x00\x00\x00\x00\x00'
p570
tp571
Rp572
aa(lp573
g292
(g296
S'\x01\x00\x00\x00\x00\x00\x00\x00'
p574
tp575
Rp576
ag292
(g296
S'\x01\x00\x00\x00\x00\x00\x00\x00'
p577
tp578
Rp579
aa(lp580
g292
(g296
S'\x01\x00\x00\x00\x00\x00\x00\x00'
p581
tp582
Rp583
ag292
(g296
S'\x02\x00\x00\x00\x00\x00\x00\x00'
p584
tp585
Rp586
aa(lp587
g292
(g296
S'\x01\x00\x00\x00\x00\x00\x00\x00'
p588
tp589
Rp590
ag292
(g296
S'\x03\x00\x00\x00\x00\x00\x00\x00'
p591
tp592
Rp593
aa(lp594
g292
(g296
S'\x02\x00\x00\x00\x00\x00\x00\x00'
p595
tp596
Rp597
ag292
(g296
S'\x01\x00\x00\x00\x00\x00\x00\x00'
p598
tp599
Rp600
aa(lp601
g292
(g296
S'\x03\x00\x00\x00\x00\x00\x00\x00'
p602
tp603
Rp604
ag292
(g296
S'\x01\x00\x00\x00\x00\x00\x00\x00'
p605
tp606
Rp607
aaNaNaNaNaNaNaNaNaNaNaNaNaNaNaNaNaNaNaNaNaNaNaNaNaNaNaNaNaNaNaNaNaNaNaNaNaNaNaNaNaNaNaNaNaNaNaNaNaNaNaNaNaNaNaNaNaNaNasg427
g0
(g428
g2
Ntp608
Rp609
(dp610
g432
Vdummy = tabularize(s, 'Groups', 1, 'MeanCt', \u000a          new_category_colnm='BioRuns',\u000a          values_colnm_prefix='Gene_')
p611
sg434
VBioRuns
p612
sg436
I00
sg437
I00
sg438
Vdummy = tabularize(s, 'Groups', 1, 'MeanCt', \u000a          new_category_colnm='BioRuns',\u000a          values_colnm_prefix='Gene_')
p613
sbsg440
g0
(g441
g442
(g443
g444
tp614
tp615
Rp616
sg434
g612
sbag0
(g283
g2
Ntp617
Rp618
(dp619
g287
I00
sg288
g4
sg289
(lp620
F18.2
aF22.4
aF21.9
aF23.4
aF23.4
aF18.9
aFnan
aFnan
aFnan
aFnan
aFnan
aFnan
aFnan
aFnan
aFnan
aFnan
aFnan
aFnan
aFnan
aFnan
aFnan
aFnan
aFnan
aFnan
aFnan
aFnan
aFnan
aFnan
aFnan
aFnan
aFnan
aFnan
aFnan
aFnan
aFnan
aFnan
aFnan
aFnan
aFnan
aFnan
aFnan
aFnan
aFnan
aFnan
aFnan
aFnan
aFnan
aFnan
aFnan
aFnan
aFnan
aFnan
aFnan
aFnan
aFnan
aFnan
aFnan
aFnan
aFnan
aFnan
aFnan
aFnan
aFnan
aFnan
asg427
g0
(g428
g2
Ntp621
Rp622
(dp623
g432
Nsg473
g618
sg436
I00
sg437
I00
sg438
Nsbsg440
g0
(g441
g442
(g443
g444
tp624
tp625
Rp626
sg434
S'Gene_I'
p627
sbag0
(g283
g2
Ntp628
Rp629
(dp630
g287
I00
sg288
g4
sg289
(lp631
F18.3
aF19.9
aF21.9
aF23.9
aF23.5
aF18.8
aFnan
aFnan
aFnan
aFnan
aFnan
aFnan
aFnan
aFnan
aFnan
aFnan
aFnan
aFnan
aFnan
aFnan
aFnan
aFnan
aFnan
aFnan
aFnan
aFnan
aFnan
aFnan
aFnan
aFnan
aFnan
aFnan
aFnan
aFnan
aFnan
aFnan
aFnan
aFnan
aFnan
aFnan
aFnan
aFnan
aFnan
aFnan
aFnan
aFnan
aFnan
aFnan
aFnan
aFnan
aFnan
aFnan
aFnan
aFnan
aFnan
aFnan
aFnan
aFnan
aFnan
aFnan
aFnan
aFnan
aFnan
aFnan
asg427
g0
(g428
g2
Ntp632
Rp633
(dp634
g432
Nsg473
g629
sg436
I00
sg437
I00
sg438
Nsbsg440
g626
sg434
S'Gene_R1'
p635
sbag0
(g283
g2
Ntp636
Rp637
(dp638
g287
I00
sg288
g4
sg289
(lp639
F19.8
aF21.9
aF23.6
aF24.5
aF26.3
aF20.4
aFnan
aFnan
aFnan
aFnan
aFnan
aFnan
aFnan
aFnan
aFnan
aFnan
aFnan
aFnan
aFnan
aFnan
aFnan
aFnan
aFnan
aFnan
aFnan
aFnan
aFnan
aFnan
aFnan
aFnan
aFnan
aFnan
aFnan
aFnan
aFnan
aFnan
aFnan
aFnan
aFnan
aFnan
aFnan
aFnan
aFnan
aFnan
aFnan
aFnan
aFnan
aFnan
aFnan
aFnan
aFnan
aFnan
aFnan
aFnan
aFnan
aFnan
aFnan
aFnan
aFnan
aFnan
aFnan
aFnan
aFnan
aFnan
asg427
g0
(g428
g2
Ntp640
Rp641
(dp642
g432
Nsg473
g637
sg436
I00
sg437
I00
sg438
Nsbsg440
g626
sg434
S'Gene_R2'
p643
sbag0
(g283
g2
Ntp644
Rp645
(dp646
g287
I00
sg288
g4
sg289
(lp647
F1.07177
aF0.17678
aF1.0
aF1.41421
aF1.07177
aF0.93303
aFnan
aFnan
aFnan
aFnan
aFnan
aFnan
aFnan
aFnan
aFnan
aFnan
aFnan
aFnan
aFnan
aFnan
aFnan
aFnan
aFnan
aFnan
aFnan
aFnan
aFnan
aFnan
aFnan
aFnan
aFnan
aFnan
aFnan
aFnan
aFnan
aFnan
aFnan
aFnan
aFnan
aFnan
aFnan
aFnan
aFnan
aFnan
aFnan
aFnan
aFnan
aFnan
aFnan
aFnan
aFnan
aFnan
aFnan
aFnan
aFnan
aFnan
aFnan
aFnan
aFnan
aFnan
aFnan
aFnan
aFnan
aFnan
asg427
g0
(g428
g2
Ntp648
Rp649
(dp650
g432
VExprR1 = roundValues(2**(Gene_R1 - Gene_I),5)
p651
sg434
VExprR1
p652
sg436
I01
sg437
I00
sg438
VroundValues(2**(Gene_R1 - Gene_I),5)
p653
sbsg440
g0
(g441
g442
(g443
g444
tp654
tp655
Rp656
sg434
g652
sbag0
(g283
g2
Ntp657
Rp658
(dp659
g287
I00
sg288
g4
sg289
(lp660
F3.03143
aF0.70711
aF3.24901
aF2.14355
aF7.46426
aF2.82843
aFnan
aFnan
aFnan
aFnan
aFnan
aFnan
aFnan
aFnan
aFnan
aFnan
aFnan
aFnan
aFnan
aFnan
aFnan
aFnan
aFnan
aFnan
aFnan
aFnan
aFnan
aFnan
aFnan
aFnan
aFnan
aFnan
aFnan
aFnan
aFnan
aFnan
aFnan
aFnan
aFnan
aFnan
aFnan
aFnan
aFnan
aFnan
aFnan
aFnan
aFnan
aFnan
aFnan
aFnan
aFnan
aFnan
aFnan
aFnan
aFnan
aFnan
aFnan
aFnan
aFnan
aFnan
aFnan
aFnan
aFnan
aFnan
asg427
g0
(g428
g2
Ntp661
Rp662
(dp663
g432
VExprR2 = roundValues(2**(Gene_R2 - Gene_I),5)
p664
sg434
VExprR2
p665
sg436
I01
sg437
I00
sg438
VroundValues(2**(Gene_R2 - Gene_I),5)
p666
sbsg440
g0
(g441
g442
(g443
g444
tp667
tp668
Rp669
sg434
g665
sbag0
(g283
g2
Ntp670
Rp671
(dp672
g287
I00
sg288
g4
sg289
(lp673
F1.802
aF0.354
aF1.803
aF1.741
aF2.828
aF1.625
aFnan
aFnan
aFnan
aFnan
aFnan
aFnan
aFnan
aFnan
aFnan
aFnan
aFnan
aFnan
aFnan
aFnan
aFnan
aFnan
aFnan
aFnan
aFnan
aFnan
aFnan
aFnan
aFnan
aFnan
aFnan
aFnan
aFnan
aFnan
aFnan
aFnan
aFnan
aFnan
aFnan
aFnan
aFnan
aFnan
aFnan
aFnan
aFnan
aFnan
aFnan
aFnan
aFnan
aFnan
aFnan
aFnan
aFnan
aFnan
aFnan
aFnan
aFnan
aFnan
aFnan
aFnan
aFnan
aFnan
aFnan
aFnan
asg427
g0
(g428
g2
Ntp674
Rp675
(dp676
g432
VGeoMean = roundValues(np.sqrt(ExprR1*ExprR2), 3)
p677
sg434
VGeoMean
p678
sg436
I01
sg437
I00
sg438
VroundValues(np.sqrt(ExprR1*ExprR2), 3)
p679
sbsg440
g0
(g441
g442
(g443
g444
tp680
tp681
Rp682
sg434
g678
sbag0
(g283
g2
Ntp683
Rp684
(dp685
g287
I00
sg288
g4
sg289
(lp686
F1.0
aF1.0
aF1.0
aF1.0
aF1.0
aF1.0
aF1.0
aF1.0
aF1.0
aF1.0
aF1.0
aF1.0
aF2.0
aF2.0
aF2.0
aF3.0
aF3.0
aF3.0
aF1.0
aF1.0
aF1.0
aF2.0
aF2.0
aF2.0
aF3.0
aF3.0
aF3.0
aF1.0
aF1.0
aF1.0
aF2.0
aF2.0
aF2.0
aF3.0
aF3.0
aF3.0
aF1.0
aF1.0
aF1.0
aF1.0
aF1.0
aF1.0
aF1.0
aF1.0
aF1.0
aF1.0
aF1.0
aF1.0
aF1.0
aF1.0
aF1.0
aF1.0
aF1.0
aF1.0
aFnan
aFnan
aFnan
aFnan
aFnan
aFnan
aFnan
aFnan
aFnan
aFnan
asg427
g0
(g428
g2
Ntp687
Rp688
(dp689
g432
Nsg434
S'BRpl'
p690
sg436
I00
sg437
I00
sg438
Nsbsg440
g0
(g441
g442
(g443
g444
tp691
tp692
Rp693
sg434
g690
sbag0
(g283
g2
Ntp694
Rp695
(dp696
g287
I00
sg288
g4
sg289
(lp697
F18.31
aF18.29
aF18.15
aF18.24
aF18.22
aF18.36
aF19.72
aF19.75
aF20.01
aF22.42
aF22.5
aF22.44
aF21.92
aF22.03
aF21.94
aF23.4
aF23.47
aF23.41
aF19.92
aF19.85
aF20.0
aF21.86
aF22.09
aF21.84
aF23.89
aF23.54
aF24.27
aF22.18
aF21.71
aF21.75
aF23.88
aF23.42
aF23.63
aF24.59
aF24.61
aF24.34
aF23.48
aF23.31
aF23.45
aF23.22
aF23.8
aF23.49
aF26.37
aF26.36
aF26.17
aF18.82
aF18.97
aF18.92
aF18.91
aF18.78
aF18.8
aF20.5
aF20.47
aF20.28
aFnan
aFnan
aFnan
aFnan
aFnan
aFnan
aFnan
aFnan
aFnan
aFnan
asg427
g0
(g428
g2
Ntp698
Rp699
(dp700
g432
Nsg434
S'Ct'
p701
sg436
I00
sg437
I00
sg438
Nsbsg440
g693
sg434
g701
sbag0
(g283
g2
Ntp702
Rp703
(dp704
g287
I00
sg288
g4
sg289
(lp705
F0.919
aF0.9106
aF0.9129
aF0.8266
aF0.8343
aF0.8496
aF0.8157
aF0.8543
aF0.8208
aF0.8453
aF0.8426
aF0.8524
aF0.8658
aF0.7809
aF0.8512
aF0.8442
aF0.8357
aF0.7658
aF0.9179
aF0.9783
aF0.8971
aF0.8957
aF0.8287
aF0.8387
aF0.8746
aF0.8493
aF0.8349
aF0.7857
aF0.8427
aF0.8637
aF0.8281
aF0.8203
aF0.8288
aF0.8138
aF0.8242
aF0.804
aF0.8352
aF0.7886
aF0.8105
aF0.7701
aF0.8746
aF0.8139
aF0.7795
aF0.7676
aF0.7947
aF0.876
aF0.8597
aF0.8873
aF0.8715
aF0.8977
aF0.856
aF0.8179
aF0.8173
aF0.7894
aFnan
aFnan
aFnan
aFnan
aFnan
aFnan
aFnan
aFnan
aFnan
aFnan
asg427
g0
(g428
g2
Ntp706
Rp707
(dp708
g432
Nsg434
S'Eff'
p709
sg436
I00
sg437
I00
sg438
Nsbsg440
g693
sg434
g709
sbag0
(g283
g2
Ntp710
Rp711
(dp712
g287
I00
sg288
g4
sg289
(lp713
g302
ag302
ag302
aVR1
p714
aVR1
p715
aVR1
p716
aVR2
p717
aVR2
p718
aVR2
p719
ag302
ag302
ag302
ag302
ag302
ag302
ag302
ag302
ag302
aVR1
p720
aVR1
p721
aVR1
p722
aVR1
p723
aVR1
p724
aVR1
p725
aVR1
p726
aVR1
p727
aVR1
p728
aVR2
p729
aVR2
p730
aVR2
p731
aVR2
p732
aVR2
p733
aVR2
p734
aVR2
p735
aVR2
p736
aVR2
p737
ag302
ag302
ag302
aVR1
p738
aVR1
p739
aVR1
p740
aVR2
p741
aVR2
p742
aVR2
p743
ag302
ag302
ag302
aVR1
p744
aVR1
p745
aVR1
p746
aVR2
p747
aVR2
p748
aVR2
p749
aNaNaNaNaNaNaNaNaNaNasg427
g0
(g428
g2
Ntp750
Rp751
(dp752
g432
Nsg434
S'RunType'
p753
sg436
I00
sg437
I00
sg438
Nsbsg440
g693
sg434
g753
sbag0
(g283
g2
Ntp754
Rp755
(dp756
g287
I00
sg288
g4
sg289
(lp757
Va
p758
aVb
p759
aVc
p760
ag758
ag759
ag760
ag758
ag759
ag760
ag758
ag759
ag760
ag758
ag759
ag760
ag758
ag759
ag760
ag758
ag759
ag760
ag758
ag759
ag760
ag758
ag759
ag760
ag758
ag759
ag760
ag758
ag759
ag760
ag758
ag759
ag760
ag758
ag759
ag760
ag758
ag759
ag760
ag758
ag759
ag760
ag758
ag759
ag760
ag758
ag759
ag760
ag758
ag759
ag760
aNaNaNaNaNaNaNaNaNaNasg427
g0
(g428
g2
Ntp761
Rp762
(dp763
g432
Nsg434
S'TRpl'
p764
sg436
I00
sg437
I00
sg438
Nsbsg440
g693
sg434
g764
sbag0
(g283
g2
Ntp765
Rp766
(dp767
g287
I00
sg288
g4
sg289
(lp768
F0.0
aF0.0
aF0.0
aF0.0
aF0.0
aF0.0
aF0.0
aF0.0
aF0.0
aF1.0
aF1.0
aF1.0
aF1.0
aF1.0
aF1.0
aF1.0
aF1.0
aF1.0
aF1.0
aF1.0
aF1.0
aF1.0
aF1.0
aF1.0
aF1.0
aF1.0
aF1.0
aF1.0
aF1.0
aF1.0
aF1.0
aF1.0
aF1.0
aF1.0
aF1.0
aF1.0
aF2.0
aF2.0
aF2.0
aF2.0
aF2.0
aF2.0
aF2.0
aF2.0
aF2.0
aF3.0
aF3.0
aF3.0
aF3.0
aF3.0
aF3.0
aF3.0
aF3.0
aF3.0
aFnan
aFnan
aFnan
aFnan
aFnan
aFnan
aFnan
aFnan
aFnan
aFnan
asg427
g0
(g428
g2
Ntp769
Rp770
(dp771
g432
Nsg434
S'Treatment'
p772
sg436
I00
sg437
I00
sg438
Nsbsg440
g693
sg434
g772
sbasS'_is_evaluate_formulas'
p773
I01
sS'_prologue'
p774
g0
(g428
g2
Ntp775
Rp776
(dp777
g432
V# Prologue\u000aimport math as mt\u000aimport numpy as np\u000afrom os import listdir\u000afrom os.path import isfile, join\u000aimport pandas as pd\u000aimport scipy as sp\u000afrom numpy import nan  # Must follow sympy import \u000a\u000axlsx_path = '/mnt/hgfs/josephhellerstein/home/Technical/SciSheets/CaseStudies/Kristen/workbooks/data.xlsx'\u000agene = ParmValues[0]\u000arun = ParmValues[1] == 'True'\u000ashow_raw = ParmValues[2] == 'True'\u000ashow_block1 = ParmValues[3] == 'True'\u000ashow_block2 = ParmValues[4] == 'True'\u000ashow_block3 = ParmValues[5] == 'True'\u000ashow_params = ParmValues[8] == 'True'\u000a#show_params = True\u000amax_std  = float(ParmValues[6])\u000amin_eff = float(ParmValues[7])\u000aworksheet = gene + "-I"\u000as.getTable().setIsEvaluateFormulas(run)\u000as.setColumnVisibility()\u000as.setColumnVisibility(['Groups', 'GroupedEff', 'GroupedCt', 'StdFilteredGroupedCt', 'MeanCt', 'StdCt'], is_visible=show_block1)\u000as.setColumnVisibility(['BioRuns', 'Gene_I', 'Gene_R1', 'Gene_R2', 'ExprR1', 'ExprR2', 'GeoMean'], is_visible=show_block2)\u000as.setColumnVisibility(['GeoGroups', 'GroupedGeoMeans', 'NrmlGeoGroupedMeans', 'MeanNrmlGeoGroups', 'StdNrmlGeoGroups'], is_visible=show_block3)\u000aif False:\u000a  Groups = []\u000a  GroupedCt = []\u000a  GroupedEff = []\u000a  MeanCt = []\u000a  Imp = []\u000a  s.deleteColumn('Ct')\u000a  s.deleteColumn('RunType')\u000a  s.deleteColumn('BRpl')\u000a  s.deleteColumn('TRpl')\u000a  s.deleteColumn('Treatment')\u000a  s.deleteColumn('Eff')\u000aif run:\u000a  importExcelToTable(s, xlsx_path, worksheet=worksheet,\u000a      column_position='ParmValues',\u000a      names=['Treatment', 'RunType', 'BRpl', 'TRpl', 'Eff', 'Ct'])\u000as.setColumnVisibility(['BRpl', 'Ct', 'Eff', 'RunType', 'TRpl', 'Treatment'], is_visible=show_raw)\u000as.setColumnVisibility(['ParmNames', 'ParmValues'], show_params)
p778
sg434
VSingleGene
p779
sg436
I00
sg437
I00
sg438
V# Prologue\u000aimport math as mt\u000aimport numpy as np\u000afrom os import listdir\u000afrom os.path import isfile, join\u000aimport pandas as pd\u000aimport scipy as sp\u000afrom numpy import nan  # Must follow sympy import \u000a\u000axlsx_path = '/mnt/hgfs/josephhellerstein/home/Technical/SciSheets/CaseStudies/Kristen/workbooks/data.xlsx'\u000agene = ParmValues[0]\u000arun = ParmValues[1] == 'True'\u000ashow_raw = ParmValues[2] == 'True'\u000ashow_block1 = ParmValues[3] == 'True'\u000ashow_block2 = ParmValues[4] == 'True'\u000ashow_block3 = ParmValues[5] == 'True'\u000ashow_params = ParmValues[8] == 'True'\u000a#show_params = True\u000amax_std  = float(ParmValues[6])\u000amin_eff = float(ParmValues[7])\u000aworksheet = gene + "-I"\u000as.getTable().setIsEvaluateFormulas(run)\u000as.setColumnVisibility()\u000as.setColumnVisibility(['Groups', 'GroupedEff', 'GroupedCt', 'StdFilteredGroupedCt', 'MeanCt', 'StdCt'], is_visible=show_block1)\u000as.setColumnVisibility(['BioRuns', 'Gene_I', 'Gene_R1', 'Gene_R2', 'ExprR1', 'ExprR2', 'GeoMean'], is_visible=show_block2)\u000as.setColumnVisibility(['GeoGroups', 'GroupedGeoMeans', 'NrmlGeoGroupedMeans', 'MeanNrmlGeoGroups', 'StdNrmlGeoGroups'], is_visible=show_block3)\u000aif False:\u000a  Groups = []\u000a  GroupedCt = []\u000a  GroupedEff = []\u000a  MeanCt = []\u000a  Imp = []\u000a  s.deleteColumn('Ct')\u000a  s.deleteColumn('RunType')\u000a  s.deleteColumn('BRpl')\u000a  s.deleteColumn('TRpl')\u000a  s.deleteColumn('Treatment')\u000a  s.deleteColumn('Eff')\u000aif run:\u000a  importExcelToTable(s, xlsx_path, worksheet=worksheet,\u000a      column_position='ParmValues',\u000a      names=['Treatment', 'RunType', 'BRpl', 'TRpl', 'Eff', 'Ct'])\u000as.setColumnVisibility(['BRpl', 'Ct', 'Eff', 'RunType', 'TRpl', 'Treatment'], is_visible=show_raw)\u000as.setColumnVisibility(['ParmNames', 'ParmValues'], show_params)
p780
sbsS'_epilogue'
p781
g0
(g428
g2
Ntp782
Rp783
(dp784
g432
V# Epilogue\u000aif run:\u000a  worksheet = "%s-O" % gene\u000a  exportTableToExcel(s, xlsx_path, worksheet=worksheet, columns=['GeoGroups', 'MeanNrmlGeoGroups', 'StdNrmlGeoGroups'])\u000a
p785
sg434
g779
sg436
I00
sg437
I00
sg438
V# Epilogue\u000aif run:\u000a  worksheet = "%s-O" % gene\u000a  exportTableToExcel(s, xlsx_path, worksheet=worksheet, columns=['GeoGroups', 'MeanNrmlGeoGroups', 'StdNrmlGeoGroups'])\u000a
p786
sbsg434
g779
sS'_columns'
p787
(lp788
g0
(g283
g2
Ntp789
Rp790
(dp791
g287
I01
sg288
g4
sg289
(lp792
S'1'
p793
aS'2'
p794
aS'3'
p795
aS'4'
p796
aS'5'
p797
aS'6'
p798
aS'7'
p799
aS'8'
p800
aS'9'
p801
aS'10'
p802
aS'11'
p803
aS'12'
p804
aS'13'
p805
aS'14'
p806
aS'15'
p807
aS'16'
p808
aS'17'
p809
aS'18'
p810
aS'19'
p811
aS'20'
p812
aS'21'
p813
aS'22'
p814
aS'23'
p815
aS'24'
p816
aS'25'
p817
aS'26'
p818
aS'27'
p819
aS'28'
p820
aS'29'
p821
aS'30'
p822
aS'31'
p823
aS'32'
p824
aS'33'
p825
aS'34'
p826
aS'35'
p827
aS'36'
p828
aS'37'
p829
aS'38'
p830
aS'39'
p831
aS'40'
p832
aS'41'
p833
aS'42'
p834
aS'43'
p835
aS'44'
p836
aS'45'
p837
aS'46'
p838
aS'47'
p839
aS'48'
p840
aS'49'
p841
aS'50'
p842
aS'51'
p843
aS'52'
p844
aS'53'
p845
aS'54'
p846
aS'55'
p847
aS'56'
p848
aS'57'
p849
aS'58'
p850
aS'59'
p851
aS'60'
p852
aS'61'
p853
aS'62'
p854
aS'63'
p855
aS'64'
p856
asg427
g0
(g428
g2
Ntp857
Rp858
(dp859
g432
Nsg473
g790
sg436
I00
sg437
I00
sg438
Nsbsg440
g0
(g441
g442
(g443
g444
tp860
tp861
Rp862
sg434
S'row'
p863
sbag0
(g283
g2
Ntp864
Rp865
(dp866
g287
I00
sg288
g4
sg289
(lp867
Vgene
p868
aVrun
p869
aVshow_raw
p870
aVshow_block1
p871
aVshow_block2
p872
aVshow_block3
p873
aVmax_std
p874
aVmin_eff
p875
aVshow_params
p876
aVnan
p877
aVnan
p878
aVnan
p879
aVnan
p880
aVnan
p881
aVnan
p882
aVnan
p883
aVnan
p884
aVnan
p885
aVnan
p886
aVnan
p887
aVnan
p888
aVnan
p889
aVnan
p890
aVnan
p891
aVnan
p892
aVnan
p893
aVnan
p894
aVnan
p895
aVnan
p896
aVnan
p897
aVnan
p898
aVnan
p899
aVnan
p900
aVnan
p901
aVnan
p902
aVnan
p903
aVnan
p904
aVnan
p905
aVnan
p906
aVnan
p907
aVnan
p908
aVnan
p909
aVnan
p910
aVnan
p911
aVnan
p912
aVnan
p913
aVnan
p914
aVnan
p915
aVnan
p916
aVnan
p917
aVnan
p918
aVnan
p919
aVnan
p920
aVnan
p921
aNaNaNaNaNaNaNaNaNaNasg427
g0
(g428
g2
Ntp922
Rp923
(dp924
g432
Nsg473
g865
sg436
I00
sg437
I00
sg438
Nsbsg440
g0
(g441
g442
(g443
g444
tp925
tp926
Rp927
sg434
VParmNames
p928
sbag0
(g283
g2
Ntp929
Rp930
(dp931
g287
I00
sg288
g4
sg289
(lp932
VGene2
p933
aVTrue
p934
aVFalse
p935
aVFalse
p936
aVFalse
p937
aVTrue
p938
aF0.5
aV0.7
p939
aVTrue
p940
aV
p941
aVnan
p942
aVnan
p943
aVnan
p944
aVnan
p945
aVnan
p946
aVnan
p947
aVnan
p948
aVnan
p949
aVnan
p950
aVnan
p951
aVnan
p952
aVnan
p953
aVnan
p954
aVnan
p955
aVnan
p956
aVnan
p957
aVnan
p958
aVnan
p959
aVnan
p960
aVnan
p961
aVnan
p962
aVnan
p963
aVnan
p964
aVnan
p965
aVnan
p966
aVnan
p967
aVnan
p968
aVnan
p969
aVnan
p970
aVnan
p971
aVnan
p972
aVnan
p973
aVnan
p974
aVnan
p975
aVnan
p976
aVnan
p977
aVnan
p978
aVnan
p979
aVnan
p980
aVnan
p981
aVnan
p982
aVnan
p983
aVnan
p984
aVnan
p985
aNaNaNaNaNaNaNaNaNaNasg427
g0
(g428
g2
Ntp986
Rp987
(dp988
g432
Nsg434
VParmValues
p989
sg436
I00
sg437
I00
sg438
Nsbsg440
g0
(g441
g442
(g443
g444
tp990
tp991
Rp992
sg434
g989
sbag766
ag711
ag684
ag755
ag703
ag695
ag285
ag449
ag479
ag508
ag539
ag552
ag563
ag618
ag629
ag637
ag645
ag658
ag671
ag0
(g283
g2
Ntp993
Rp994
(dp995
g287
I00
sg288
g4
sg289
(lp996
(lp997
g292
(g296
S'\x00\x00\x00\x00\x00\x00\x00\x00'
p998
tp999
Rp1000
aa(lp1001
g292
(g296
S'\x01\x00\x00\x00\x00\x00\x00\x00'
p1002
tp1003
Rp1004
aa(lp1005
g292
(g296
S'\x02\x00\x00\x00\x00\x00\x00\x00'
p1006
tp1007
Rp1008
aa(lp1009
g292
(g296
S'\x03\x00\x00\x00\x00\x00\x00\x00'
p1010
tp1011
Rp1012
aaNaNaNaNaNaNaNaNaNaNaNaNaNaNaNaNaNaNaNaNaNaNaNaNaNaNaNaNaNaNaNaNaNaNaNaNaNaNaNaNaNaNaNaNaNaNaNaNaNaNaNaNaNaNaNaNaNaNaNaNasg427
g0
(g428
g2
Ntp1013
Rp1014
(dp1015
g432
Vcat_vals = [br[0] for br in pruneNulls(BioRuns)]\u000aclean_geo = [x for x in GeoMean if x is not None]\u000aGeoGroups, groupedGeoMeans = groupBy(cat_vals, clean_geo)\u000aGroupedGeoMeans = roundValues(groupedGeoMeans, 3)\u000aGeoGroups = [[x] for x in GeoGroups]
p1016
sg434
VGeoGroups
p1017
sg436
I00
sg437
I00
sg438
Vcat_vals = [br[0] for br in pruneNulls(BioRuns)]\u000aclean_geo = [x for x in GeoMean if x is not None]\u000aGeoGroups, groupedGeoMeans = groupBy(cat_vals, clean_geo)\u000aGroupedGeoMeans = roundValues(groupedGeoMeans, 3)\u000aGeoGroups = [[x] for x in GeoGroups]
p1018
sbsg440
g0
(g441
g442
(g443
g444
tp1019
tp1020
Rp1021
sg434
g1017
sbag0
(g283
g2
Ntp1022
Rp1023
(dp1024
g287
I00
sg288
g4
sg289
(lp1025
cnumpy.core.multiarray
_reconstruct
p1026
(g443
(I0
tp1027
S'b'
p1028
tp1029
Rp1030
(I1
(I1
tp1031
g293
(S'f8'
p1032
I0
I1
tp1033
Rp1034
(I3
S'<'
p1035
NNNI-1
I-1
I0
tp1036
bI00
S'\xa2E\xb6\xf3\xfd\xd4\xfc?'
p1037
tp1038
bag1026
(g443
(I0
tp1039
g1028
tp1040
Rp1041
(I1
(I3
tp1042
g1034
I00
S'\x0e-\xb2\x9d\xef\xa7\xd6?\x0c\x02+\x87\x16\xd9\xfc?B`\xe5\xd0"\xdb\xfb?'
p1043
tp1044
bag1026
(g443
(I0
tp1045
g1028
tp1046
Rp1047
(I1
(I1
tp1048
g1034
I00
S'9\xb4\xc8v\xbe\x9f\x06@'
p1049
tp1050
bag1026
(g443
(I0
tp1051
g1028
tp1052
Rp1053
(I1
(I1
tp1054
g1034
I00
S'\x00\x00\x00\x00\x00\x00\xfa?'
p1055
tp1056
baNaNaNaNaNaNaNaNaNaNaNaNaNaNaNaNaNaNaNaNaNaNaNaNaNaNaNaNaNaNaNaNaNaNaNaNaNaNaNaNaNaNaNaNaNaNaNaNaNaNaNaNaNaNaNaNaNaNaNaNasg427
g0
(g428
g2
Ntp1057
Rp1058
(dp1059
g432
Nsg473
g1023
sg436
I00
sg437
I00
sg438
Nsbsg440
g0
(g441
g442
(g443
g444
tp1060
tp1061
Rp1062
sg434
VGroupedGeoMeans
p1063
sbag0
(g283
g2
Ntp1064
Rp1065
(dp1066
g287
I00
sg288
g4
sg289
(lp1067
g1026
(g443
(I0
tp1068
g1028
tp1069
Rp1070
(I1
(I1
tp1071
g1034
I00
S'\x00\x00\x00\x00\x00\x00\xf0?'
p1072
tp1073
bag1026
(g443
(I0
tp1074
g1028
tp1075
Rp1076
(I1
(I3
tp1077
g1034
I00
S'J\x0c\x02+\x87\x16\xc9?j\xbct\x93\x18\x04\xf0?\xb6\xf3\xfd\xd4x\xe9\xee?'
p1078
tp1079
bag1026
(g443
(I0
tp1080
g1028
tp1081
Rp1082
(I1
(I1
tp1083
g1034
I00
S'\xb4\xc8v\xbe\x9f\x1a\xf9?'
p1084
tp1085
bag1026
(g443
(I0
tp1086
g1028
tp1087
Rp1088
(I1
(I1
tp1089
g1034
I00
S'w\xbe\x9f\x1a/\xdd\xec?'
p1090
tp1091
baNaNaNaNaNaNaNaNaNaNaNaNaNaNaNaNaNaNaNaNaNaNaNaNaNaNaNaNaNaNaNaNaNaNaNaNaNaNaNaNaNaNaNaNaNaNaNaNaNaNaNaNaNaNaNaNaNaNaNaNasg427
g0
(g428
g2
Ntp1092
Rp1093
(dp1094
g432
Vref = np.mean(GroupedGeoMeans[0])\u000aNrmlGeoGroupedMeans = [ [x/ref for x in g] for g in GroupedGeoMeans if g is not None]  \u000aNrmlGeoGroupedMeans = roundValues(NrmlGeoGroupedMeans, 3)
p1095
sg434
VNrmlGeoGroupedMeans
p1096
sg436
I00
sg437
I00
sg438
Vref = np.mean(GroupedGeoMeans[0])\u000aNrmlGeoGroupedMeans = [ [x/ref for x in g] for g in GroupedGeoMeans if g is not None]  \u000aNrmlGeoGroupedMeans = roundValues(NrmlGeoGroupedMeans, 3)
p1097
sbsg440
g0
(g441
g442
(g443
g444
tp1098
tp1099
Rp1100
sg434
g1096
sbag0
(g283
g2
Ntp1101
Rp1102
(dp1103
g287
I00
sg288
g4
sg289
(lp1104
F1.0
aF0.721
aF1.569
aF0.902
aFnan
aFnan
aFnan
aFnan
aFnan
aFnan
aFnan
aFnan
aFnan
aFnan
aFnan
aFnan
aFnan
aFnan
aFnan
aFnan
aFnan
aFnan
aFnan
aFnan
aFnan
aFnan
aFnan
aFnan
aFnan
aFnan
aFnan
aFnan
aFnan
aFnan
aFnan
aFnan
aFnan
aFnan
aFnan
aFnan
aFnan
aFnan
aFnan
aFnan
aFnan
aFnan
aFnan
aFnan
aFnan
aFnan
aFnan
aFnan
aFnan
aFnan
aFnan
aFnan
aFnan
aFnan
aFnan
aFnan
aFnan
aFnan
aFnan
aFnan
asg427
g0
(g428
g2
Ntp1105
Rp1106
(dp1107
g432
VMeanNrmlGeoGroups = [round(np.mean(g), 3) for g in NrmlGeoGroupedMeans]
p1108
sg434
VMeanNrmlGeoGroups
p1109
sg436
I01
sg437
I00
sg438
V[round(np.mean(g), 3) for g in NrmlGeoGroupedMeans]
p1110
sbsg440
g0
(g441
g442
(g443
g444
tp1111
tp1112
Rp1113
sg434
g1109
sbag0
(g283
g2
Ntp1114
Rp1115
(dp1116
g287
I00
sg288
g4
sg289
(lp1117
Fnan
aF0.263
aFnan
aFnan
aFnan
aFnan
aFnan
aFnan
aFnan
aFnan
aFnan
aFnan
aFnan
aFnan
aFnan
aFnan
aFnan
aFnan
aFnan
aFnan
aFnan
aFnan
aFnan
aFnan
aFnan
aFnan
aFnan
aFnan
aFnan
aFnan
aFnan
aFnan
aFnan
aFnan
aFnan
aFnan
aFnan
aFnan
aFnan
aFnan
aFnan
aFnan
aFnan
aFnan
aFnan
aFnan
aFnan
aFnan
aFnan
aFnan
aFnan
aFnan
aFnan
aFnan
aFnan
aFnan
aFnan
aFnan
aFnan
aFnan
aFnan
aFnan
aFnan
aFnan
asg427
g0
(g428
g2
Ntp1118
Rp1119
(dp1120
g432
VStdNrmlGeoGroups = [round(np.std(g, ddof=1)/np.sqrt(len(g)), 3) for g in NrmlGeoGroupedMeans]\u000a
p1121
sg434
VStdNrmlGeoGroups
p1122
sg436
I01
sg437
I00
sg438
V[round(np.std(g, ddof=1)/np.sqrt(len(g)), 3) for g in NrmlGeoGroupedMeans]\u000a
p1123
sbsg440
g0
(g441
g442
(g443
g444
tp1124
tp1125
Rp1126
sg434
g1122
sbasg276
V/home/ubuntu/SciSheets/mysite/user/guest/tables/kristen_single_gene.pcl
p1127
sb.