ccopy_reg
_reconstructor
p0
(cscisheets.ui.dt_table
DTTable
p1
c__builtin__
object
p2
Ntp3
Rp4
(dp5
S'_versioned_file'
p6
g0
(cmysite.helpers.versioned_file
VersionedFile
p7
g2
Ntp8
Rp9
(dp10
S'_redo_stack'
p11
g0
(cmysite.helpers.file_stack
FileStack
p12
g2
Ntp13
Rp14
(dp15
S'_dirpath'
p16
S'/home/ubuntu/SciSheets/mysite/user/guest/tables/backup'
p17
sS'_max_depth'
p18
I5
sS'_filename_pfx'
p19
Vkristen_single_gene.r
p20
sbsS'_max_versions'
p21
I5
sS'_undo_stack'
p22
g0
(g12
g2
Ntp23
Rp24
(dp25
g16
g17
sg18
I5
sg19
Vkristen_single_gene.u
p26
sbsS'_checkpoint_history'
p27
(lp28
VCell/Update
p29
aVCell/Update
p30
aVCell/Update
p31
aVCell/Update
p32
aVCell/Update
p33
aVCell/Update
p34
aVCell/Update
p35
aVCell/Update
p36
aVCell/Update
p37
aVCell/Update
p38
aVCell/Update
p39
aVCell/Update
p40
aVColumn/Formula
p41
aVColumn/Formula
p42
aVColumn/Append
p43
aVColumn/Formula
p44
aVColumn/Delete
p45
aVCell/Update
p46
aVColumn/Formula
p47
aVCell/Update
p48
aVCell/Update
p49
aVColumn/Formula
p50
aVColumn/Formula
p51
aVCell/Update
p52
aVColumn/Formula
p53
aVColumn/Formula
p54
aVCell/Update
p55
aVCell/Update
p56
aVCell/Update
p57
aVCell/Update
p58
aVColumn/Formula
p59
aVCell/Update
p60
aVCell/Update
p61
aVCell/Update
p62
aVColumn/Formula
p63
aVCell/Update
p64
aVColumn/Formula
p65
aVColumn/Formula
p66
aVCell/Update
p67
aVCell/Update
p68
aVCell/Update
p69
aVCell/Update
p70
aVCell/Update
p71
aVCell/Update
p72
aVCell/Update
p73
aVCell/Update
p74
aVCell/Update
p75
aVColumn/Formula
p76
aVCell/Update
p77
aVCell/Update
p78
aVCell/Update
p79
aVCell/Update
p80
aVCell/Update
p81
aVCell/Update
p82
aVCell/Update
p83
aVCell/Update
p84
aVCell/Update
p85
aVCell/Update
p86
aVCell/Update
p87
aVCell/Update
p88
aVColumn/Formula
p89
aVColumn/Formula
p90
aVColumn/Formula
p91
aVCell/Update
p92
aVCell/Update
p93
aVCell/Update
p94
aVCell/Update
p95
aVCell/Update
p96
aVColumn/Formula
p97
aVCell/Update
p98
aVCell/Update
p99
aVCell/Update
p100
aVCell/Update
p101
aVCell/Update
p102
aVCell/Update
p103
aVCell/Update
p104
aVColumn/Formula
p105
aVColumn/Formula
p106
aVColumn/Formula
p107
aVCell/Update
p108
aVCell/Update
p109
aVColumn/Formula
p110
aVCell/Update
p111
aVCell/Update
p112
aVCell/Update
p113
aVCell/Update
p114
aVCell/Update
p115
aVCell/Update
p116
aVCell/Update
p117
aVCell/Update
p118
aVColumn/Formula
p119
aVCell/Update
p120
aVColumn/Formula
p121
aVColumn/Formula
p122
aVColumn/Formula
p123
aVCell/Update
p124
aVCell/Update
p125
aVColumn/Formula
p126
aVColumn/Formula
p127
aVColumn/Formula
p128
aVColumn/Formula
p129
aVCell/Update
p130
aVColumn/Formula
p131
aVColumn/Formula
p132
aVColumn/Formula
p133
aVCell/Update
p134
aVCell/Update
p135
aVCell/Update
p136
aVCell/Update
p137
aVCell/Update
p138
aVCell/Update
p139
aVCell/Update
p140
aVCell/Update
p141
aVCell/Update
p142
aVCell/Update
p143
aVColumn/Formula
p144
aVColumn/Formula
p145
aVColumn/Formula
p146
aVColumn/Formula
p147
aVCell/Update
p148
aVCell/Update
p149
aVColumn/Formula
p150
aVCell/Update
p151
aVCell/Update
p152
aVCell/Update
p153
aVCell/Update
p154
aVCell/Update
p155
aVCell/Update
p156
aVCell/Update
p157
aVCell/Update
p158
aVCell/Update
p159
aVCell/Update
p160
aVCell/Update
p161
aVCell/Update
p162
aVCell/Update
p163
aVColumn/Formula
p164
aVColumn/Formula
p165
aVCell/Update
p166
aVCell/Update
p167
aVCell/Update
p168
aVColumn/Formula
p169
aVCell/Update
p170
aVCell/Update
p171
aVCell/Update
p172
aVCell/Update
p173
aVColumn/Formula
p174
aVColumn/Formula
p175
aVColumn/Formula
p176
aVColumn/Formula
p177
aVCell/Update
p178
aVColumn/Formula
p179
aVCell/Update
p180
aVCell/Update
p181
aVCell/Update
p182
aVCell/Update
p183
aVCell/Update
p184
aVCell/Update
p185
aVCell/Update
p186
aVCell/Update
p187
aVCell/Update
p188
aVColumn/Formula
p189
aVCell/Update
p190
aVCell/Update
p191
aVCell/Update
p192
aVCell/Update
p193
aVCell/Update
p194
aVCell/Update
p195
aVCell/Update
p196
aVCell/Update
p197
aVCell/Update
p198
aVCell/Update
p199
aVCell/Update
p200
aVCell/Update
p201
aVCell/Update
p202
aVCell/Update
p203
aVCell/Update
p204
aVCell/Update
p205
aVCell/Update
p206
aVCell/Update
p207
aVCell/Update
p208
aVCell/Update
p209
aVCell/Update
p210
aVCell/Update
p211
aVCell/Update
p212
aVCell/Update
p213
aVCell/Update
p214
aVCell/Update
p215
aVCell/Update
p216
aVCell/Update
p217
aVCell/Update
p218
aVCell/Update
p219
aVCell/Update
p220
aVCell/Update
p221
aVCell/Update
p222
aVCell/Update
p223
aVCell/Update
p224
aVCell/Update
p225
aVCell/Update
p226
aVCell/Update
p227
aVCell/Update
p228
aVCell/Update
p229
aVCell/Update
p230
aVCell/Update
p231
aVCell/Update
p232
aVCell/Update
p233
aVCell/Update
p234
aVCell/Update
p235
aVCell/Update
p236
aVCell/Update
p237
aVCell/Update
p238
aVCell/Update
p239
aVCell/Update
p240
aVCell/Update
p241
aVCell/Update
p242
aVCell/Update
p243
aVCell/Update
p244
aVCell/Update
p245
aVCell/Update
p246
aVCell/Update
p247
aVCell/Update
p248
aVCell/Update
p249
aVCell/Update
p250
aVCell/Update
p251
aVCell/Update
p252
aVCell/Update
p253
aVCell/Update
p254
aVCell/Update
p255
aVCell/Update
p256
aVCell/Update
p257
aVCell/Update
p258
aVCell/Update
p259
aVCell/Update
p260
aVCell/Update
p261
aVCell/Update
p262
aVCell/Update
p263
aVCell/Update
p264
aVCell/Update
p265
aVCell/Update
p266
aVCell/Update
p267
aVCell/Update
p268
aVCell/Update
p269
aVCell/Update
p270
aVCell/Update
p271
aVColumn/Formula
p272
aVColumn/Formula
p273
aVCell/Update
p274
aVCell/Update
p275
aVCell/Update
p276
asS'_filepath'
p277
V/home/ubuntu/SciSheets/mysite/user/guest/tables/kristen_single_gene.pcl
p278
sS'_backup_dir'
p279
g17
sbsS'_namespace'
p280
(dp281
sS'_hidden_columns'
p282
(lp283
g0
(cscisheets.core.column
Column
p284
g2
Ntp285
Rp286
(dp287
S'_asis'
p288
I00
sS'_owning_table'
p289
g4
sS'_cells'
p290
(lp291
(lp292
cnumpy.core.multiarray
scalar
p293
(cnumpy
dtype
p294
(S'i8'
p295
I0
I1
tp296
Rp297
(I3
S'<'
p298
NNNI-1
I-1
I0
tp299
bS'\x00\x00\x00\x00\x00\x00\x00\x00'
p300
tp301
Rp302
aVI
p303
ag293
(g297
S'\x01\x00\x00\x00\x00\x00\x00\x00'
p304
tp305
Rp306
aa(lp307
g293
(g297
S'\x00\x00\x00\x00\x00\x00\x00\x00'
p308
tp309
Rp310
aVR1
p311
ag293
(g297
S'\x01\x00\x00\x00\x00\x00\x00\x00'
p312
tp313
Rp314
aa(lp315
g293
(g297
S'\x00\x00\x00\x00\x00\x00\x00\x00'
p316
tp317
Rp318
aVR2
p319
ag293
(g297
S'\x01\x00\x00\x00\x00\x00\x00\x00'
p320
tp321
Rp322
aa(lp323
g293
(g297
S'\x01\x00\x00\x00\x00\x00\x00\x00'
p324
tp325
Rp326
ag303
ag293
(g297
S'\x01\x00\x00\x00\x00\x00\x00\x00'
p327
tp328
Rp329
aa(lp330
g293
(g297
S'\x01\x00\x00\x00\x00\x00\x00\x00'
p331
tp332
Rp333
ag303
ag293
(g297
S'\x02\x00\x00\x00\x00\x00\x00\x00'
p334
tp335
Rp336
aa(lp337
g293
(g297
S'\x01\x00\x00\x00\x00\x00\x00\x00'
p338
tp339
Rp340
ag303
ag293
(g297
S'\x03\x00\x00\x00\x00\x00\x00\x00'
p341
tp342
Rp343
aa(lp344
g293
(g297
S'\x01\x00\x00\x00\x00\x00\x00\x00'
p345
tp346
Rp347
ag311
ag293
(g297
S'\x01\x00\x00\x00\x00\x00\x00\x00'
p348
tp349
Rp350
aa(lp351
g293
(g297
S'\x01\x00\x00\x00\x00\x00\x00\x00'
p352
tp353
Rp354
ag311
ag293
(g297
S'\x02\x00\x00\x00\x00\x00\x00\x00'
p355
tp356
Rp357
aa(lp358
g293
(g297
S'\x01\x00\x00\x00\x00\x00\x00\x00'
p359
tp360
Rp361
ag311
ag293
(g297
S'\x03\x00\x00\x00\x00\x00\x00\x00'
p362
tp363
Rp364
aa(lp365
g293
(g297
S'\x01\x00\x00\x00\x00\x00\x00\x00'
p366
tp367
Rp368
ag319
ag293
(g297
S'\x01\x00\x00\x00\x00\x00\x00\x00'
p369
tp370
Rp371
aa(lp372
g293
(g297
S'\x01\x00\x00\x00\x00\x00\x00\x00'
p373
tp374
Rp375
ag319
ag293
(g297
S'\x02\x00\x00\x00\x00\x00\x00\x00'
p376
tp377
Rp378
aa(lp379
g293
(g297
S'\x01\x00\x00\x00\x00\x00\x00\x00'
p380
tp381
Rp382
ag319
ag293
(g297
S'\x03\x00\x00\x00\x00\x00\x00\x00'
p383
tp384
Rp385
aa(lp386
g293
(g297
S'\x02\x00\x00\x00\x00\x00\x00\x00'
p387
tp388
Rp389
ag303
ag293
(g297
S'\x01\x00\x00\x00\x00\x00\x00\x00'
p390
tp391
Rp392
aa(lp393
g293
(g297
S'\x02\x00\x00\x00\x00\x00\x00\x00'
p394
tp395
Rp396
ag311
ag293
(g297
S'\x01\x00\x00\x00\x00\x00\x00\x00'
p397
tp398
Rp399
aa(lp400
g293
(g297
S'\x02\x00\x00\x00\x00\x00\x00\x00'
p401
tp402
Rp403
ag319
ag293
(g297
S'\x01\x00\x00\x00\x00\x00\x00\x00'
p404
tp405
Rp406
aa(lp407
g293
(g297
S'\x03\x00\x00\x00\x00\x00\x00\x00'
p408
tp409
Rp410
ag303
ag293
(g297
S'\x01\x00\x00\x00\x00\x00\x00\x00'
p411
tp412
Rp413
aa(lp414
g293
(g297
S'\x03\x00\x00\x00\x00\x00\x00\x00'
p415
tp416
Rp417
ag311
ag293
(g297
S'\x01\x00\x00\x00\x00\x00\x00\x00'
p418
tp419
Rp420
aa(lp421
g293
(g297
S'\x03\x00\x00\x00\x00\x00\x00\x00'
p422
tp423
Rp424
ag319
ag293
(g297
S'\x01\x00\x00\x00\x00\x00\x00\x00'
p425
tp426
Rp427
aa(lp428
g293
(g297
S'\x04\x00\x00\x00\x00\x00\x00\x00'
p429
tp430
Rp431
ag303
ag293
(g297
S'\x01\x00\x00\x00\x00\x00\x00\x00'
p432
tp433
Rp434
aa(lp435
g293
(g297
S'\x04\x00\x00\x00\x00\x00\x00\x00'
p436
tp437
Rp438
ag311
ag293
(g297
S'\x01\x00\x00\x00\x00\x00\x00\x00'
p439
tp440
Rp441
aa(lp442
g293
(g297
S'\x04\x00\x00\x00\x00\x00\x00\x00'
p443
tp444
Rp445
ag319
ag293
(g297
S'\x01\x00\x00\x00\x00\x00\x00\x00'
p446
tp447
Rp448
aaNaNaNaNaNaNaNaNaNaNaNaNaNaNaNaNaNaNaNaNaNaNaNaNaNaNaNaNaNaNaNaNaNaNaNaNaNaNaNaNaNaNaNasS'_formula_statement'
p449
g0
(cscisheets.core.helpers.formula_statement
FormulaStatement
p450
g2
Ntp451
Rp452
(dp453
S'_statement'
p454
Vsel = Eff > min_eff\u000agrouping_columns =   [\u000a    Treatment[sel],\u000a     RunType[sel], \u000a    BRpl[sel],      \u000a  ]\u000aGroups, groupedCt = groupBy(\u000a     grouping_columns, Ct[sel])\u000aGroups, groupedEff = groupBy(\u000a     grouping_columns, Eff[sel])\u000aGroups = [[g[0], g[1], g[2]] for g in Groups]\u000aGroupedCt = roundValues(groupedCt,2)\u000aGroupedEff = roundValues(groupedEff,2)
p455
sS'_name'
p456
VGroups
p457
sS'_isExpression'
p458
I00
sS'_isStatement'
p459
I00
sS'_formula'
p460
Vsel = Eff > min_eff\u000agrouping_columns =   [\u000a    Treatment[sel],\u000a     RunType[sel], \u000a    BRpl[sel],      \u000a  ]\u000aGroups, groupedCt = groupBy(\u000a     grouping_columns, Ct[sel])\u000aGroups, groupedEff = groupBy(\u000a     grouping_columns, Eff[sel])\u000aGroups = [[g[0], g[1], g[2]] for g in Groups]\u000aGroupedCt = roundValues(groupedCt,2)\u000aGroupedEff = roundValues(groupedEff,2)
p461
sbsS'_data_class'
p462
g0
(cscisheets.core.helpers.api_util
DataClass
p463
c__builtin__
tuple
p464
(cnumpy
ndarray
p465
cscisheets.core.helpers.api_util
makeArray
p466
tp467
tp468
Rp469
sg456
g457
sbag0
(g284
g2
Ntp470
Rp471
(dp472
g288
I00
sg289
g4
sg290
(lp473
cnumpy.core.multiarray
_reconstruct
p474
(g465
(I0
tp475
S'b'
p476
tp477
Rp478
(I1
(I4
tp479
g294
(S'f8'
p480
I0
I1
tp481
Rp482
(I3
S'<'
p483
NNNI-1
I-1
I0
tp484
bI00
S'\xe1z\x14\xaeG\xe1\xea?{\x14\xaeG\xe1z\xec?\xcd\xcc\xcc\xcc\xcc\xcc\xec?\xd7\xa3p=\n\xd7\xeb?'
p485
tp486
bag474
(g465
(I0
tp487
g476
tp488
Rp489
(I1
(I3
tp490
g482
I00
S'\x8f\xc2\xf5(\\\x8f\xea?\x8f\xc2\xf5(\\\x8f\xea?333333\xeb?'
p491
tp492
bag474
(g465
(I0
tp493
g476
tp494
Rp495
(I1
(I3
tp496
g482
I00
S'=\n\xd7\xa3p=\xea?333333\xeb?=\n\xd7\xa3p=\xea?'
p497
tp498
bag474
(g465
(I0
tp499
g476
tp500
Rp501
(I1
(I3
tp502
g482
I00
S'\x14\xaeG\xe1z\x14\xee?\x8f\xc2\xf5(\\\x8f\xea?\xe1z\x14\xaeG\xe1\xea?'
p503
tp504
bag474
(g465
(I0
tp505
g476
tp506
Rp507
(I1
(I3
tp508
g482
I00
S'\x9a\x99\x99\x99\x99\x99\xe9?\xe1z\x14\xaeG\xe1\xea?H\xe1z\x14\xaeG\xe9?'
p509
tp510
bag474
(g465
(I0
tp511
g476
tp512
Rp513
(I1
(I3
tp514
g482
I00
S'\x8f\xc2\xf5(\\\x8f\xea?\x9a\x99\x99\x99\x99\x99\xe9?\x8f\xc2\xf5(\\\x8f\xea?'
p515
tp516
bag474
(g465
(I0
tp517
g476
tp518
Rp519
(I1
(I3
tp520
g482
I00
S'q=\n\xd7\xa3p\xed?\\\x8f\xc2\xf5(\\\xef?\xcd\xcc\xcc\xcc\xcc\xcc\xec?'
p521
tp522
bag474
(g465
(I0
tp523
g476
tp524
Rp525
(I1
(I3
tp526
g482
I00
S'\xcd\xcc\xcc\xcc\xcc\xcc\xec?\x8f\xc2\xf5(\\\x8f\xea?\xe1z\x14\xaeG\xe1\xea?'
p527
tp528
bag474
(g465
(I0
tp529
g476
tp530
Rp531
(I1
(I3
tp532
g482
I00
S'\xd7\xa3p=\n\xd7\xeb?333333\xeb?\x8f\xc2\xf5(\\\x8f\xea?'
p533
tp534
bag474
(g465
(I0
tp535
g476
tp536
Rp537
(I1
(I3
tp538
g482
I00
S'H\xe1z\x14\xaeG\xe9?\xe1z\x14\xaeG\xe1\xea?\x85\xebQ\xb8\x1e\x85\xeb?'
p539
tp540
bag474
(g465
(I0
tp541
g476
tp542
Rp543
(I1
(I3
tp544
g482
I00
S'\x8f\xc2\xf5(\\\x8f\xea?=\n\xd7\xa3p=\xea?\x8f\xc2\xf5(\\\x8f\xea?'
p545
tp546
bag474
(g465
(I0
tp547
g476
tp548
Rp549
(I1
(I3
tp550
g482
I00
S'\xecQ\xb8\x1e\x85\xeb\xe9?=\n\xd7\xa3p=\xea?\x9a\x99\x99\x99\x99\x99\xe9?'
p551
tp552
bag474
(g465
(I0
tp553
g476
tp554
Rp555
(I1
(I3
tp556
g482
I00
S'\xe1z\x14\xaeG\xe1\xea?\x9a\x99\x99\x99\x99\x99\xe9?\xecQ\xb8\x1e\x85\xeb\xe9?'
p557
tp558
bag474
(g465
(I0
tp559
g476
tp560
Rp561
(I1
(I3
tp562
g482
I00
S'\xa4p=\n\xd7\xa3\xe8?\xd7\xa3p=\n\xd7\xeb?\xecQ\xb8\x1e\x85\xeb\xe9?'
p563
tp564
bag474
(g465
(I0
tp565
g476
tp566
Rp567
(I1
(I3
tp568
g482
I00
S'\xf6(\\\x8f\xc2\xf5\xe8?\xa4p=\n\xd7\xa3\xe8?H\xe1z\x14\xaeG\xe9?'
p569
tp570
bag474
(g465
(I0
tp571
g476
tp572
Rp573
(I1
(I3
tp574
g482
I00
S'333333\xeb?333333\xeb?\xe1z\x14\xaeG\xe1\xea?'
p575
tp576
bag474
(g465
(I0
tp577
g476
tp578
Rp579
(I1
(I3
tp580
g482
I00
S'\xd7\xa3p=\n\xd7\xeb?\xcd\xcc\xcc\xcc\xcc\xcc\xec?\x85\xebQ\xb8\x1e\x85\xeb?'
p581
tp582
bag474
(g465
(I0
tp583
g476
tp584
Rp585
(I1
(I3
tp586
g482
I00
S'=\n\xd7\xa3p=\xea?=\n\xd7\xa3p=\xea?H\xe1z\x14\xaeG\xe9?'
p587
tp588
bag474
(g465
(I0
tp589
g476
tp590
Rp591
(I1
(I3
tp592
g482
I00
S'333333\xeb?333333\xeb?\xe1z\x14\xaeG\xe1\xea?'
p593
tp594
bag474
(g465
(I0
tp595
g476
tp596
Rp597
(I1
(I3
tp598
g482
I00
S'\xd7\xa3p=\n\xd7\xeb?\xcd\xcc\xcc\xcc\xcc\xcc\xec?\x85\xebQ\xb8\x1e\x85\xeb?'
p599
tp600
bag474
(g465
(I0
tp601
g476
tp602
Rp603
(I1
(I3
tp604
g482
I00
S'=\n\xd7\xa3p=\xea?=\n\xd7\xa3p=\xea?H\xe1z\x14\xaeG\xe9?'
p605
tp606
baNaNaNaNaNaNaNaNaNaNaNaNaNaNaNaNaNaNaNaNaNaNaNaNaNaNaNaNaNaNaNaNaNaNaNaNaNaNaNaNaNaNaNasg449
g0
(g450
g2
Ntp607
Rp608
(dp609
g454
NsS'_column'
p610
g471
sg458
I00
sg459
I00
sg460
Nsbsg462
g0
(g463
g464
(g465
g466
tp611
tp612
Rp613
sg456
VGroupedEff
p614
sbag0
(g284
g2
Ntp615
Rp616
(dp617
g288
I00
sg289
g4
sg290
(lp618
g474
(g465
(I0
tp619
g476
tp620
Rp621
(I1
(I4
tp622
g482
I00
S'\x00\x00\x00\x00\x00\x007@\\\x8f\xc2\xf5(\xdc6@\xcd\xcc\xcc\xcc\xcc\xcc6@\x00\x00\x00\x00\x00\x007@'
p623
tp624
bag474
(g465
(I0
tp625
g476
tp626
Rp627
(I1
(I3
tp628
g482
I00
S'=\n\xd7\xa3p=2@\xb8\x1e\x85\xebQ82@\\\x8f\xc2\xf5(\\2@'
p629
tp630
bag474
(g465
(I0
tp631
g476
tp632
Rp633
(I1
(I3
tp634
g482
I00
S'\xb8\x1e\x85\xebQ\xb83@\x00\x00\x00\x00\x00\xc03@\xc3\xf5(\\\x8f\x024@'
p635
tp636
bag474
(g465
(I0
tp637
g476
tp638
Rp639
(I1
(I3
tp640
g482
I00
S'\xaeG\xe1z\x14\xae:@\xe1z\x14\xaeG!;@\xf6(\\\x8f\xc25;@'
p641
tp642
bag474
(g465
(I0
tp643
g476
tp644
Rp645
(I1
(I3
tp646
g482
I00
S'\xc3\xf5(\\\x8f\xc2:@\xf6(\\\x8f\xc2\xb5:@q=\n\xd7\xa30:@'
p647
tp648
bag474
(g465
(I0
tp649
g476
tp650
Rp651
(I1
(I3
tp652
g482
I00
S'{\x14\xaeG\xe1\xfa=@\x1f\x85\xebQ\xb8\x1e>@)\\\x8f\xc2\xf5h=@'
p653
tp654
bag474
(g465
(I0
tp655
g476
tp656
Rp657
(I1
(I3
tp658
g482
I00
S'\xecQ\xb8\x1e\x85\xeb3@\x9a\x99\x99\x99\x99\xd93@\x00\x00\x00\x00\x00\x004@'
p659
tp660
bag474
(g465
(I0
tp661
g476
tp662
Rp663
(I1
(I3
tp664
g482
I00
S'\\\x8f\xc2\xf5(\xdc5@\xd7\xa3p=\n\x176@\xd7\xa3p=\n\xd75@'
p665
tp666
bag474
(g465
(I0
tp667
g476
tp668
Rp669
(I1
(I3
tp670
g482
I00
S'\xa4p=\n\xd7\xe37@\n\xd7\xa3p=\x8a7@\x85\xebQ\xb8\x1eE8@'
p671
tp672
bag474
(g465
(I0
tp673
g476
tp674
Rp675
(I1
(I3
tp676
g482
I00
S'\xaeG\xe1z\x14.6@\xf6(\\\x8f\xc2\xb55@\x00\x00\x00\x00\x00\xc05@'
p677
tp678
bag474
(g465
(I0
tp679
g476
tp680
Rp681
(I1
(I3
tp682
g482
I00
S'\xe1z\x14\xaeG\xe17@\xecQ\xb8\x1e\x85k7@\xe1z\x14\xaeG\xa17@'
p683
tp684
bag474
(g465
(I0
tp685
g476
tp686
Rp687
(I1
(I3
tp688
g482
I00
S'\xd7\xa3p=\n\x978@\\\x8f\xc2\xf5(\x9c8@\xd7\xa3p=\nW8@'
p689
tp690
bag474
(g465
(I0
tp691
g476
tp692
Rp693
(I1
(I3
tp694
g482
I00
S'33333\xf3=@33333s>@\xe1z\x14\xaeG\xe1=@'
p695
tp696
bag474
(g465
(I0
tp697
g476
tp698
Rp699
(I1
(I3
tp700
g482
I00
S'\xb8\x1e\x85\xebQ87@\xcd\xcc\xcc\xcc\xcc\xcc7@=\n\xd7\xa3p}7@'
p701
tp702
bag474
(g465
(I0
tp703
g476
tp704
Rp705
(I1
(I3
tp706
g482
I00
S'\x1f\x85\xebQ\xb8^:@\\\x8f\xc2\xf5(\\:@\xecQ\xb8\x1e\x85+:@'
p707
tp708
bag474
(g465
(I0
tp709
g476
tp710
Rp711
(I1
(I3
tp712
g482
I00
S'\xcd\xcc\xcc\xcc\xcc\xcc8@\xb8\x1e\x85\xebQ\xf88@\xe1z\x14\xaeG\xa18@'
p713
tp714
bag474
(g465
(I0
tp715
g476
tp716
Rp717
(I1
(I3
tp718
g482
I00
S')\\\x8f\xc2\xf5\xe82@H\xe1z\x14\xae\xc72@\xcd\xcc\xcc\xcc\xcc\xcc2@'
p719
tp720
bag474
(g465
(I0
tp721
g476
tp722
Rp723
(I1
(I3
tp724
g482
I00
S'\x00\x00\x00\x00\x00\x804@\xb8\x1e\x85\xebQx4@H\xe1z\x14\xaeG4@'
p725
tp726
bag474
(g465
(I0
tp727
g476
tp728
Rp729
(I1
(I3
tp730
g482
I00
S'\xcd\xcc\xcc\xcc\xcc\xcc8@\xb8\x1e\x85\xebQ\xf88@\xe1z\x14\xaeG\xa18@'
p731
tp732
bag474
(g465
(I0
tp733
g476
tp734
Rp735
(I1
(I3
tp736
g482
I00
S')\\\x8f\xc2\xf5\xe82@H\xe1z\x14\xae\xc72@\xcd\xcc\xcc\xcc\xcc\xcc2@'
p737
tp738
bag474
(g465
(I0
tp739
g476
tp740
Rp741
(I1
(I3
tp742
g482
I00
S'\x00\x00\x00\x00\x00\x804@\xb8\x1e\x85\xebQx4@H\xe1z\x14\xaeG4@'
p743
tp744
baNaNaNaNaNaNaNaNaNaNaNaNaNaNaNaNaNaNaNaNaNaNaNaNaNaNaNaNaNaNaNaNaNaNaNaNaNaNaNaNaNaNaNasg449
g0
(g450
g2
Ntp745
Rp746
(dp747
g454
Nsg610
g616
sg458
I00
sg459
I00
sg460
Nsbsg462
g0
(g463
g464
(g465
g466
tp748
tp749
Rp750
sg456
VGroupedCt
p751
sbag0
(g284
g2
Ntp752
Rp753
(dp754
g288
I00
sg289
g4
sg290
(lp755
g474
(g465
(I0
tp756
g476
tp757
Rp758
(I1
(I4
tp759
g482
I00
S'\x00\x00\x00\x00\x00\x007@fffff\xe66@\xcd\xcc\xcc\xcc\xcc\xcc6@\x00\x00\x00\x00\x00\x007@'
p760
tp761
bag474
(g465
(I0
tp762
g476
tp763
Rp764
(I1
(I3
tp765
g482
I00
S'3333332@3333332@ffffff2@'
p766
tp767
bag474
(g465
(I0
tp768
g476
tp769
Rp770
(I1
(I3
tp771
g482
I00
S'33333\xb33@\xcd\xcc\xcc\xcc\xcc\xcc3@\x00\x00\x00\x00\x00\x004@'
p772
tp773
bag474
(g465
(I0
tp774
g476
tp775
Rp776
(I1
(I3
tp777
g482
I00
S'33333\xb3:@\x9a\x99\x99\x99\x99\x19;@333333;@'
p778
tp779
bag474
(g465
(I0
tp780
g476
tp781
Rp782
(I1
(I3
tp783
g482
I00
S'\xcd\xcc\xcc\xcc\xcc\xcc:@33333\xb3:@333333:@'
p784
tp785
bag474
(g465
(I0
tp786
g476
tp787
Rp788
(I1
(I3
tp789
g482
I00
S'\x00\x00\x00\x00\x00\x00>@\x9a\x99\x99\x99\x99\x19>@ffffff=@'
p790
tp791
bag474
(g465
(I0
tp792
g476
tp793
Rp794
(I1
(I3
tp795
g482
I00
S'fffff\xe63@fffff\xe63@\x00\x00\x00\x00\x00\x004@'
p796
tp797
bag474
(g465
(I0
tp798
g476
tp799
Rp800
(I1
(I3
tp801
g482
I00
S'fffff\xe65@\x9a\x99\x99\x99\x99\x196@\xcd\xcc\xcc\xcc\xcc\xcc5@'
p802
tp803
bag474
(g465
(I0
tp804
g476
tp805
Rp806
(I1
(I3
tp807
g482
I00
S'fffff\xe67@\x00\x00\x00\x00\x00\x807@\xcd\xcc\xcc\xcc\xccL8@'
p808
tp809
bag474
(g465
(I0
tp810
g476
tp811
Rp812
(I1
(I3
tp813
g482
I00
S'3333336@33333\xb35@\xcd\xcc\xcc\xcc\xcc\xcc5@'
p814
tp815
bag474
(g465
(I0
tp816
g476
tp817
Rp818
(I1
(I3
tp819
g482
I00
S'fffff\xe67@ffffff7@\x9a\x99\x99\x99\x99\x997@'
p820
tp821
bag474
(g465
(I0
tp822
g476
tp823
Rp824
(I1
(I3
tp825
g482
I00
S'\x9a\x99\x99\x99\x99\x998@\x9a\x99\x99\x99\x99\x998@\xcd\xcc\xcc\xcc\xccL8@'
p826
tp827
bag474
(g465
(I0
tp828
g476
tp829
Rp830
(I1
(I3
tp831
g482
I00
S'fffff\xe6=@ffffff>@fffff\xe6=@'
p832
tp833
bag474
(g465
(I0
tp834
g476
tp835
Rp836
(I1
(I3
tp837
g482
I00
S'3333337@\xcd\xcc\xcc\xcc\xcc\xcc7@\x00\x00\x00\x00\x00\x807@'
p838
tp839
bag474
(g465
(I0
tp840
g476
tp841
Rp842
(I1
(I3
tp843
g482
I00
S'ffffff:@ffffff:@333333:@'
p844
tp845
bag474
(g465
(I0
tp846
g476
tp847
Rp848
(I1
(I3
tp849
g482
I00
S'\xcd\xcc\xcc\xcc\xcc\xcc8@\x00\x00\x00\x00\x00\x009@\x9a\x99\x99\x99\x99\x998@'
p850
tp851
bag474
(g465
(I0
tp852
g476
tp853
Rp854
(I1
(I3
tp855
g482
I00
S'fffff\xe62@\xcd\xcc\xcc\xcc\xcc\xcc2@\xcd\xcc\xcc\xcc\xcc\xcc2@'
p856
tp857
bag474
(g465
(I0
tp858
g476
tp859
Rp860
(I1
(I3
tp861
g482
I00
S'\x00\x00\x00\x00\x00\x804@\x00\x00\x00\x00\x00\x804@\xcd\xcc\xcc\xcc\xccL4@'
p862
tp863
bag474
(g465
(I0
tp864
g476
tp865
Rp866
(I1
(I3
tp867
g482
I00
S'\xcd\xcc\xcc\xcc\xcc\xcc8@\x00\x00\x00\x00\x00\x009@\x9a\x99\x99\x99\x99\x998@'
p868
tp869
bag474
(g465
(I0
tp870
g476
tp871
Rp872
(I1
(I3
tp873
g482
I00
S'fffff\xe62@\xcd\xcc\xcc\xcc\xcc\xcc2@\xcd\xcc\xcc\xcc\xcc\xcc2@'
p874
tp875
bag474
(g465
(I0
tp876
g476
tp877
Rp878
(I1
(I3
tp879
g482
I00
S'\x00\x00\x00\x00\x00\x804@\x00\x00\x00\x00\x00\x804@\xcd\xcc\xcc\xcc\xccL4@'
p880
tp881
baNaNaNaNaNaNaNaNaNaNaNaNaNaNaNaNaNaNaNaNaNaNaNaNaNaNaNaNaNaNaNaNaNaNaNaNaNaNaNaNaNaNaNasg449
g0
(g450
g2
Ntp882
Rp883
(dp884
g454
Vlength = len(Groups)\u000aStdFilteredGroupedCt = roundValues([filterExtremes(g, max_std, 2) for g in pruneNulls(GroupedCt,    required_length=length)])\u000a 
p885
sg456
VStdFilteredGroupedCt
p886
sg458
I00
sg459
I00
sg460
Vlength = len(Groups)\u000aStdFilteredGroupedCt = roundValues([filterExtremes(g, max_std, 2) for g in pruneNulls(GroupedCt,    required_length=length)])\u000a 
p887
sbsg462
g0
(g463
g464
(g465
g466
tp888
tp889
Rp890
sg456
g886
sbag0
(g284
g2
Ntp891
Rp892
(dp893
g288
I00
sg289
g4
sg290
(lp894
F22.9
aF18.3
aF19.8
aF27.0
aF26.6
aF29.8
aF19.9
aF21.9
aF23.9
aF21.9
aF23.6
aF24.5
aF30.1
aF23.5
aF26.3
aF24.8
aF18.8
aF20.4
aF24.8
aF18.8
aF20.4
aFnan
aFnan
aFnan
aFnan
aFnan
aFnan
aFnan
aFnan
aFnan
aFnan
aFnan
aFnan
aFnan
aFnan
aFnan
aFnan
aFnan
aFnan
aFnan
aFnan
aFnan
aFnan
aFnan
aFnan
aFnan
aFnan
aFnan
aFnan
aFnan
aFnan
aFnan
aFnan
aFnan
aFnan
aFnan
aFnan
aFnan
aFnan
aFnan
aFnan
aFnan
aFnan
aFnan
asg449
g0
(g450
g2
Ntp895
Rp896
(dp897
g454
VMeanCt = [np.mean(g) for g in StdFilteredGroupedCt]\u000aMeanCt = roundValues(MeanCt,1)\u000aStdCt = [np.std(g, ddof=1) for g in StdFilteredGroupedCt]\u000aStdCt = roundValues(StdCt,3)
p898
sg456
VMeanCt
p899
sg458
I00
sg459
I00
sg460
VMeanCt = [np.mean(g) for g in StdFilteredGroupedCt]\u000aMeanCt = roundValues(MeanCt,1)\u000aStdCt = [np.std(g, ddof=1) for g in StdFilteredGroupedCt]\u000aStdCt = roundValues(StdCt,3)
p900
sbsg462
g0
(g463
g464
(g465
g466
tp901
tp902
Rp903
sg456
g899
sbag0
(g284
g2
Ntp904
Rp905
(dp906
g288
I00
sg289
g4
sg290
(lp907
F0.096
aF0.115
aF0.153
aF0.265
aF0.321
aF0.379
aF0.058
aF0.153
aF0.4
aF0.265
aF0.252
aF0.173
aF0.289
aF0.3
aF0.115
aF0.2
aF0.058
aF0.115
aF0.2
aF0.058
aF0.115
aFnan
aFnan
aFnan
aFnan
aFnan
aFnan
aFnan
aFnan
aFnan
aFnan
aFnan
aFnan
aFnan
aFnan
aFnan
aFnan
aFnan
aFnan
aFnan
aFnan
aFnan
aFnan
aFnan
aFnan
aFnan
aFnan
aFnan
aFnan
aFnan
aFnan
aFnan
aFnan
aFnan
aFnan
aFnan
aFnan
aFnan
aFnan
aFnan
aFnan
aFnan
aFnan
aFnan
asg449
g0
(g450
g2
Ntp908
Rp909
(dp910
g454
Nsg610
g905
sg458
I00
sg459
I00
sg460
Nsbsg462
g0
(g463
g464
(g465
g466
tp911
tp912
Rp913
sg456
VStdCt
p914
sbag0
(g284
g2
Ntp915
Rp916
(dp917
g288
I00
sg289
g4
sg290
(lp918
(lp919
g293
(g297
S'\x00\x00\x00\x00\x00\x00\x00\x00'
p920
tp921
Rp922
ag293
(g297
S'\x01\x00\x00\x00\x00\x00\x00\x00'
p923
tp924
Rp925
aa(lp926
g293
(g297
S'\x01\x00\x00\x00\x00\x00\x00\x00'
p927
tp928
Rp929
ag293
(g297
S'\x01\x00\x00\x00\x00\x00\x00\x00'
p930
tp931
Rp932
aa(lp933
g293
(g297
S'\x01\x00\x00\x00\x00\x00\x00\x00'
p934
tp935
Rp936
ag293
(g297
S'\x02\x00\x00\x00\x00\x00\x00\x00'
p937
tp938
Rp939
aa(lp940
g293
(g297
S'\x01\x00\x00\x00\x00\x00\x00\x00'
p941
tp942
Rp943
ag293
(g297
S'\x03\x00\x00\x00\x00\x00\x00\x00'
p944
tp945
Rp946
aa(lp947
g293
(g297
S'\x02\x00\x00\x00\x00\x00\x00\x00'
p948
tp949
Rp950
ag293
(g297
S'\x01\x00\x00\x00\x00\x00\x00\x00'
p951
tp952
Rp953
aa(lp954
g293
(g297
S'\x03\x00\x00\x00\x00\x00\x00\x00'
p955
tp956
Rp957
ag293
(g297
S'\x01\x00\x00\x00\x00\x00\x00\x00'
p958
tp959
Rp960
aa(lp961
g293
(g297
S'\x04\x00\x00\x00\x00\x00\x00\x00'
p962
tp963
Rp964
ag293
(g297
S'\x01\x00\x00\x00\x00\x00\x00\x00'
p965
tp966
Rp967
aaNaNaNaNaNaNaNaNaNaNaNaNaNaNaNaNaNaNaNaNaNaNaNaNaNaNaNaNaNaNaNaNaNaNaNaNaNaNaNaNaNaNaNaNaNaNaNaNaNaNaNaNaNaNaNaNaNasg449
g0
(g450
g2
Ntp968
Rp969
(dp970
g454
Vdummy = tabularize(s, 'Groups', 1, 'MeanCt', \u000a          new_category_colnm='BioRuns',\u000a          values_colnm_prefix='Gene_')
p971
sg456
VBioRuns
p972
sg458
I00
sg459
I00
sg460
Vdummy = tabularize(s, 'Groups', 1, 'MeanCt', \u000a          new_category_colnm='BioRuns',\u000a          values_colnm_prefix='Gene_')
p973
sbsg462
g0
(g463
g464
(g465
g466
tp974
tp975
Rp976
sg456
g972
sbag0
(g284
g2
Ntp977
Rp978
(dp979
g288
I00
sg289
g4
sg290
(lp980
F22.9
aF27.0
aF26.6
aF29.8
aF30.1
aF24.8
aF24.8
aFnan
aFnan
aFnan
aFnan
aFnan
aFnan
aFnan
aFnan
aFnan
aFnan
aFnan
aFnan
aFnan
aFnan
aFnan
aFnan
aFnan
aFnan
aFnan
aFnan
aFnan
aFnan
aFnan
aFnan
aFnan
aFnan
aFnan
aFnan
aFnan
aFnan
aFnan
aFnan
aFnan
aFnan
aFnan
aFnan
aFnan
aFnan
aFnan
aFnan
aFnan
aFnan
aFnan
aFnan
aFnan
aFnan
aFnan
aFnan
aFnan
aFnan
aFnan
aFnan
aFnan
aFnan
aFnan
aFnan
aFnan
asg449
g0
(g450
g2
Ntp981
Rp982
(dp983
g454
Nsg610
g978
sg458
I00
sg459
I00
sg460
Nsbsg462
g0
(g463
g464
(g465
g466
tp984
tp985
Rp986
sg456
S'Gene_I'
p987
sbag0
(g284
g2
Ntp988
Rp989
(dp990
g288
I00
sg289
g4
sg290
(lp991
F18.3
aF19.9
aF21.9
aF23.9
aF23.5
aF18.8
aF18.8
aFnan
aFnan
aFnan
aFnan
aFnan
aFnan
aFnan
aFnan
aFnan
aFnan
aFnan
aFnan
aFnan
aFnan
aFnan
aFnan
aFnan
aFnan
aFnan
aFnan
aFnan
aFnan
aFnan
aFnan
aFnan
aFnan
aFnan
aFnan
aFnan
aFnan
aFnan
aFnan
aFnan
aFnan
aFnan
aFnan
aFnan
aFnan
aFnan
aFnan
aFnan
aFnan
aFnan
aFnan
aFnan
aFnan
aFnan
aFnan
aFnan
aFnan
aFnan
aFnan
aFnan
aFnan
aFnan
aFnan
aFnan
asg449
g0
(g450
g2
Ntp992
Rp993
(dp994
g454
Nsg610
g989
sg458
I00
sg459
I00
sg460
Nsbsg462
g986
sg456
S'Gene_R1'
p995
sbag0
(g284
g2
Ntp996
Rp997
(dp998
g288
I00
sg289
g4
sg290
(lp999
F19.8
aF21.9
aF23.6
aF24.5
aF26.3
aF20.4
aF20.4
aFnan
aFnan
aFnan
aFnan
aFnan
aFnan
aFnan
aFnan
aFnan
aFnan
aFnan
aFnan
aFnan
aFnan
aFnan
aFnan
aFnan
aFnan
aFnan
aFnan
aFnan
aFnan
aFnan
aFnan
aFnan
aFnan
aFnan
aFnan
aFnan
aFnan
aFnan
aFnan
aFnan
aFnan
aFnan
aFnan
aFnan
aFnan
aFnan
aFnan
aFnan
aFnan
aFnan
aFnan
aFnan
aFnan
aFnan
aFnan
aFnan
aFnan
aFnan
aFnan
aFnan
aFnan
aFnan
aFnan
aFnan
asg449
g0
(g450
g2
Ntp1000
Rp1001
(dp1002
g454
Nsg610
g997
sg458
I00
sg459
I00
sg460
Nsbsg462
g986
sg456
S'Gene_R2'
p1003
sbag0
(g284
g2
Ntp1004
Rp1005
(dp1006
g288
I00
sg289
g4
sg290
(lp1007
F0.04123
aF0.00729
aF0.03847
aF0.01675
aF0.01031
aF0.01563
aF0.01563
aFnan
aFnan
aFnan
aFnan
aFnan
aFnan
aFnan
aFnan
aFnan
aFnan
aFnan
aFnan
aFnan
aFnan
aFnan
aFnan
aFnan
aFnan
aFnan
aFnan
aFnan
aFnan
aFnan
aFnan
aFnan
aFnan
aFnan
aFnan
aFnan
aFnan
aFnan
aFnan
aFnan
aFnan
aFnan
aFnan
aFnan
aFnan
aFnan
aFnan
aFnan
aFnan
aFnan
aFnan
aFnan
aFnan
aFnan
aFnan
aFnan
aFnan
aFnan
aFnan
aFnan
aFnan
aFnan
aFnan
aFnan
asg449
g0
(g450
g2
Ntp1008
Rp1009
(dp1010
g454
VExprR1 = roundValues(2**(Gene_R1 - Gene_I),5)
p1011
sg456
VExprR1
p1012
sg458
I01
sg459
I00
sg460
VroundValues(2**(Gene_R1 - Gene_I),5)
p1013
sbsg462
g0
(g463
g464
(g465
g466
tp1014
tp1015
Rp1016
sg456
g1012
sbag0
(g284
g2
Ntp1017
Rp1018
(dp1019
g288
I00
sg289
g4
sg290
(lp1020
F0.11663
aF0.02916
aF0.125
aF0.02538
aF0.07179
aF0.04737
aF0.04737
aFnan
aFnan
aFnan
aFnan
aFnan
aFnan
aFnan
aFnan
aFnan
aFnan
aFnan
aFnan
aFnan
aFnan
aFnan
aFnan
aFnan
aFnan
aFnan
aFnan
aFnan
aFnan
aFnan
aFnan
aFnan
aFnan
aFnan
aFnan
aFnan
aFnan
aFnan
aFnan
aFnan
aFnan
aFnan
aFnan
aFnan
aFnan
aFnan
aFnan
aFnan
aFnan
aFnan
aFnan
aFnan
aFnan
aFnan
aFnan
aFnan
aFnan
aFnan
aFnan
aFnan
aFnan
aFnan
aFnan
aFnan
asg449
g0
(g450
g2
Ntp1021
Rp1022
(dp1023
g454
VExprR2 = roundValues(2**(Gene_R2 - Gene_I),5)
p1024
sg456
VExprR2
p1025
sg458
I01
sg459
I00
sg460
VroundValues(2**(Gene_R2 - Gene_I),5)
p1026
sbsg462
g0
(g463
g464
(g465
g466
tp1027
tp1028
Rp1029
sg456
g1025
sbag0
(g284
g2
Ntp1030
Rp1031
(dp1032
g288
I00
sg289
g4
sg290
(lp1033
F0.069
aF0.015
aF0.069
aF0.021
aF0.027
aF0.027
aF0.027
aFnan
aFnan
aFnan
aFnan
aFnan
aFnan
aFnan
aFnan
aFnan
aFnan
aFnan
aFnan
aFnan
aFnan
aFnan
aFnan
aFnan
aFnan
aFnan
aFnan
aFnan
aFnan
aFnan
aFnan
aFnan
aFnan
aFnan
aFnan
aFnan
aFnan
aFnan
aFnan
aFnan
aFnan
aFnan
aFnan
aFnan
aFnan
aFnan
aFnan
aFnan
aFnan
aFnan
aFnan
aFnan
aFnan
aFnan
aFnan
aFnan
aFnan
aFnan
aFnan
aFnan
aFnan
aFnan
aFnan
aFnan
asg449
g0
(g450
g2
Ntp1034
Rp1035
(dp1036
g454
VGeoMean = roundValues(np.sqrt(ExprR1*ExprR2), 3)
p1037
sg456
VGeoMean
p1038
sg458
I01
sg459
I00
sg460
VroundValues(np.sqrt(ExprR1*ExprR2), 3)
p1039
sbsg462
g0
(g463
g464
(g465
g466
tp1040
tp1041
Rp1042
sg456
g1038
sbag0
(g284
g2
Ntp1043
Rp1044
(dp1045
g288
I00
sg289
g4
sg290
(lp1046
I1
aI1
aI1
aI1
aI1
aI1
aI1
aI1
aI1
aI1
aI1
aI1
aI1
aI2
aI2
aI2
aI3
aI3
aI3
aI1
aI1
aI1
aI2
aI2
aI2
aI3
aI3
aI3
aI1
aI1
aI1
aI2
aI2
aI2
aI3
aI3
aI3
aI1
aI1
aI1
aI1
aI1
aI1
aI1
aI1
aI1
aI1
aI1
aI1
aI1
aI1
aI1
aI1
aI1
aI1
aI1
aI1
aI1
aI1
aI1
aI1
aI1
aI1
aI1
asg449
g0
(g450
g2
Ntp1047
Rp1048
(dp1049
g454
Nsg456
S'BRpl'
p1050
sg458
I00
sg459
I00
sg460
Nsbsg462
g0
(g463
g464
(g465
g466
tp1051
tp1052
Rp1053
sg456
g1050
sbag0
(g284
g2
Ntp1054
Rp1055
(dp1056
g288
I00
sg289
g4
sg290
(lp1057
F23.0
aF22.86
aF22.8
aF23.0
aF18.24
aF18.22
aF18.36
aF19.72
aF19.75
aF20.01
aF26.68
aF27.13
aF27.21
aF26.76
aF26.71
aF26.19
aF29.98
aF30.12
aF29.41
aF19.92
aF19.85
aF20.0
aF21.86
aF22.09
aF21.84
aF23.89
aF23.54
aF24.27
aF22.18
aF21.71
aF21.75
aF23.88
aF23.42
aF23.63
aF24.59
aF24.61
aF24.34
aF29.95
aF30.45
aF29.88
aF23.22
aF23.8
aF23.49
aF26.37
aF26.36
aF26.17
aF24.8
aF24.97
aF24.63
aF18.91
aF18.78
aF18.8
aF20.5
aF20.47
aF20.28
aF24.8
aF24.97
aF24.63
aF18.91
aF18.78
aF18.8
aF20.5
aF20.47
aF20.28
asg449
g0
(g450
g2
Ntp1058
Rp1059
(dp1060
g454
Nsg456
S'Ct'
p1061
sg458
I00
sg459
I00
sg460
Nsbsg462
g1053
sg456
g1061
sbag0
(g284
g2
Ntp1062
Rp1063
(dp1064
g288
I00
sg289
g4
sg290
(lp1065
F0.8371
aF0.891
aF0.8956
aF0.8671
aF0.8266
aF0.8343
aF0.8496
aF0.8157
aF0.8543
aF0.8208
aF0.9399
aF0.8296
aF0.8361
aF0.8039
aF0.8399
aF0.7935
aF0.8264
aF0.7974
aF0.8252
aF0.9179
aF0.9783
aF0.8971
aF0.8957
aF0.8287
aF0.8387
aF0.8746
aF0.8493
aF0.8349
aF0.7857
aF0.8427
aF0.8637
aF0.8281
aF0.8203
aF0.8288
aF0.8138
aF0.8242
aF0.804
aF0.8418
aF0.7959
aF0.8071
aF0.7701
aF0.8746
aF0.8139
aF0.7795
aF0.7676
aF0.7947
aF0.8513
aF0.8485
aF0.8401
aF0.8715
aF0.8977
aF0.856
aF0.8179
aF0.8173
aF0.7894
aF0.8513
aF0.8485
aF0.8401
aF0.8715
aF0.8977
aF0.856
aF0.8179
aF0.8173
aF0.7894
asg449
g0
(g450
g2
Ntp1066
Rp1067
(dp1068
g454
Nsg456
S'Eff'
p1069
sg458
I00
sg459
I00
sg460
Nsbsg462
g1053
sg456
g1069
sbag0
(g284
g2
Ntp1070
Rp1071
(dp1072
g288
I00
sg289
g4
sg290
(lp1073
g303
ag303
ag303
ag303
aVR1
p1074
aVR1
p1075
aVR1
p1076
aVR2
p1077
aVR2
p1078
aVR2
p1079
ag303
ag303
ag303
ag303
ag303
ag303
ag303
ag303
ag303
aVR1
p1080
aVR1
p1081
aVR1
p1082
aVR1
p1083
aVR1
p1084
aVR1
p1085
aVR1
p1086
aVR1
p1087
aVR1
p1088
aVR2
p1089
aVR2
p1090
aVR2
p1091
aVR2
p1092
aVR2
p1093
aVR2
p1094
aVR2
p1095
aVR2
p1096
aVR2
p1097
ag303
ag303
ag303
aVR1
p1098
aVR1
p1099
aVR1
p1100
aVR2
p1101
aVR2
p1102
aVR2
p1103
ag303
ag303
ag303
aVR1
p1104
aVR1
p1105
aVR1
p1106
aVR2
p1107
aVR2
p1108
aVR2
p1109
ag303
ag303
ag303
aVR1
p1110
aVR1
p1111
aVR1
p1112
aVR2
p1113
aVR2
p1114
aVR2
p1115
asg449
g0
(g450
g2
Ntp1116
Rp1117
(dp1118
g454
Nsg456
S'RunType'
p1119
sg458
I00
sg459
I00
sg460
Nsbsg462
g1053
sg456
g1119
sbag0
(g284
g2
Ntp1120
Rp1121
(dp1122
g288
I00
sg289
g4
sg290
(lp1123
Va
p1124
aVb
p1125
aVc
p1126
aVd
p1127
ag1124
ag1125
ag1126
ag1124
ag1125
ag1126
ag1124
ag1125
ag1126
ag1124
ag1125
ag1126
ag1124
ag1125
ag1126
ag1124
ag1125
ag1126
ag1124
ag1125
ag1126
ag1124
ag1125
ag1126
ag1124
ag1125
ag1126
ag1124
ag1125
ag1126
ag1124
ag1125
ag1126
ag1124
ag1125
ag1126
ag1124
ag1125
ag1126
ag1124
ag1125
ag1126
ag1124
ag1125
ag1126
ag1124
ag1125
ag1126
ag1124
ag1125
ag1126
ag1124
ag1125
ag1126
ag1124
ag1125
ag1126
ag1124
ag1125
ag1126
asg449
g0
(g450
g2
Ntp1128
Rp1129
(dp1130
g454
Nsg456
S'TRpl'
p1131
sg458
I00
sg459
I00
sg460
Nsbsg462
g1053
sg456
g1131
sbag0
(g284
g2
Ntp1132
Rp1133
(dp1134
g288
I00
sg289
g4
sg290
(lp1135
I0
aI0
aI0
aI0
aI0
aI0
aI0
aI0
aI0
aI0
aI1
aI1
aI1
aI1
aI1
aI1
aI1
aI1
aI1
aI1
aI1
aI1
aI1
aI1
aI1
aI1
aI1
aI1
aI1
aI1
aI1
aI1
aI1
aI1
aI1
aI1
aI1
aI2
aI2
aI2
aI2
aI2
aI2
aI2
aI2
aI2
aI3
aI3
aI3
aI3
aI3
aI3
aI3
aI3
aI3
aI4
aI4
aI4
aI4
aI4
aI4
aI4
aI4
aI4
asg449
g0
(g450
g2
Ntp1136
Rp1137
(dp1138
g454
Nsg456
S'Treatment'
p1139
sg458
I00
sg459
I00
sg460
Nsbsg462
g1053
sg456
g1139
sbasS'_is_evaluate_formulas'
p1140
I01
sS'_prologue'
p1141
g0
(g450
g2
Ntp1142
Rp1143
(dp1144
g454
V# Prologue\u000aimport math as mt\u000aimport numpy as np\u000afrom os import listdir\u000afrom os.path import isfile, join\u000aimport pandas as pd\u000aimport scipy as sp\u000afrom numpy import nan  # Must follow sympy import \u000a\u000axlsx_path = '/mnt/hgfs/josephhellerstein/home/Technical/SciSheets/CaseStudies/Kristen/workbooks/data.xlsx'\u000agene = ParmValues[0]\u000arun = ParmValues[1] == 'True'\u000ashow_raw = ParmValues[2] == 'True'\u000ashow_block1 = ParmValues[3] == 'True'\u000ashow_block2 = ParmValues[4] == 'True'\u000ashow_block3 = ParmValues[5] == 'True'\u000ashow_params = ParmValues[8] == 'True'\u000a#show_params = True\u000amax_std  = float(ParmValues[6])\u000amin_eff = float(ParmValues[7])\u000aworksheet = gene + "-I"\u000as.getTable().setIsEvaluateFormulas(run)\u000as.setColumnVisibility()\u000as.setColumnVisibility(['Groups', 'GroupedEff', 'GroupedCt', 'StdFilteredGroupedCt', 'MeanCt', 'StdCt'], is_visible=show_block1)\u000as.setColumnVisibility(['BioRuns', 'Gene_I', 'Gene_R1', 'Gene_R2', 'ExprR1', 'ExprR2', 'GeoMean'], is_visible=show_block2)\u000as.setColumnVisibility(['GeoGroups', 'GroupedGeoMeans', 'NrmlGeoGroupedMeans', 'MeanNrmlGeoGroups', 'StdNrmlGeoGroups'], is_visible=show_block3)\u000aif False:\u000a  Groups = []\u000a  GroupedCt = []\u000a  GroupedEff = []\u000a  MeanCt = []\u000a  Imp = []\u000a  s.deleteColumn('Ct')\u000a  s.deleteColumn('RunType')\u000a  s.deleteColumn('BRpl')\u000a  s.deleteColumn('TRpl')\u000a  s.deleteColumn('Treatment')\u000a  s.deleteColumn('Eff')\u000aif run:\u000a  importExcelToTable(s, xlsx_path, worksheet=worksheet,\u000a      column_position='ParmValues',\u000a      names=['Treatment', 'RunType', 'BRpl', 'TRpl', 'Eff', 'Ct'])\u000as.setColumnVisibility(['BRpl', 'Ct', 'Eff', 'RunType', 'TRpl', 'Treatment'], is_visible=show_raw)\u000as.setColumnVisibility(['ParmNames', 'ParmValues'], show_params)
p1145
sg456
VSingleGene
p1146
sg458
I00
sg459
I00
sg460
V# Prologue\u000aimport math as mt\u000aimport numpy as np\u000afrom os import listdir\u000afrom os.path import isfile, join\u000aimport pandas as pd\u000aimport scipy as sp\u000afrom numpy import nan  # Must follow sympy import \u000a\u000axlsx_path = '/mnt/hgfs/josephhellerstein/home/Technical/SciSheets/CaseStudies/Kristen/workbooks/data.xlsx'\u000agene = ParmValues[0]\u000arun = ParmValues[1] == 'True'\u000ashow_raw = ParmValues[2] == 'True'\u000ashow_block1 = ParmValues[3] == 'True'\u000ashow_block2 = ParmValues[4] == 'True'\u000ashow_block3 = ParmValues[5] == 'True'\u000ashow_params = ParmValues[8] == 'True'\u000a#show_params = True\u000amax_std  = float(ParmValues[6])\u000amin_eff = float(ParmValues[7])\u000aworksheet = gene + "-I"\u000as.getTable().setIsEvaluateFormulas(run)\u000as.setColumnVisibility()\u000as.setColumnVisibility(['Groups', 'GroupedEff', 'GroupedCt', 'StdFilteredGroupedCt', 'MeanCt', 'StdCt'], is_visible=show_block1)\u000as.setColumnVisibility(['BioRuns', 'Gene_I', 'Gene_R1', 'Gene_R2', 'ExprR1', 'ExprR2', 'GeoMean'], is_visible=show_block2)\u000as.setColumnVisibility(['GeoGroups', 'GroupedGeoMeans', 'NrmlGeoGroupedMeans', 'MeanNrmlGeoGroups', 'StdNrmlGeoGroups'], is_visible=show_block3)\u000aif False:\u000a  Groups = []\u000a  GroupedCt = []\u000a  GroupedEff = []\u000a  MeanCt = []\u000a  Imp = []\u000a  s.deleteColumn('Ct')\u000a  s.deleteColumn('RunType')\u000a  s.deleteColumn('BRpl')\u000a  s.deleteColumn('TRpl')\u000a  s.deleteColumn('Treatment')\u000a  s.deleteColumn('Eff')\u000aif run:\u000a  importExcelToTable(s, xlsx_path, worksheet=worksheet,\u000a      column_position='ParmValues',\u000a      names=['Treatment', 'RunType', 'BRpl', 'TRpl', 'Eff', 'Ct'])\u000as.setColumnVisibility(['BRpl', 'Ct', 'Eff', 'RunType', 'TRpl', 'Treatment'], is_visible=show_raw)\u000as.setColumnVisibility(['ParmNames', 'ParmValues'], show_params)
p1147
sbsS'_epilogue'
p1148
g0
(g450
g2
Ntp1149
Rp1150
(dp1151
g454
V# Epilogue\u000aif run:\u000a  worksheet = "%s-O" % gene\u000a  exportTableToExcel(s, xlsx_path, worksheet=worksheet, columns=['GeoGroups', 'MeanNrmlGeoGroups', 'StdNrmlGeoGroups'])\u000a
p1152
sg456
g1146
sg458
I00
sg459
I00
sg460
V# Epilogue\u000aif run:\u000a  worksheet = "%s-O" % gene\u000a  exportTableToExcel(s, xlsx_path, worksheet=worksheet, columns=['GeoGroups', 'MeanNrmlGeoGroups', 'StdNrmlGeoGroups'])\u000a
p1153
sbsg456
g1146
sS'_columns'
p1154
(lp1155
g0
(g284
g2
Ntp1156
Rp1157
(dp1158
g288
I01
sg289
g4
sg290
(lp1159
S'1'
p1160
aS'2'
p1161
aS'3'
p1162
aS'4'
p1163
aS'5'
p1164
aS'6'
p1165
aS'7'
p1166
aS'8'
p1167
aS'9'
p1168
aS'10'
p1169
aS'11'
p1170
aS'12'
p1171
aS'13'
p1172
aS'14'
p1173
aS'15'
p1174
aS'16'
p1175
aS'17'
p1176
aS'18'
p1177
aS'19'
p1178
aS'20'
p1179
aS'21'
p1180
aS'22'
p1181
aS'23'
p1182
aS'24'
p1183
aS'25'
p1184
aS'26'
p1185
aS'27'
p1186
aS'28'
p1187
aS'29'
p1188
aS'30'
p1189
aS'31'
p1190
aS'32'
p1191
aS'33'
p1192
aS'34'
p1193
aS'35'
p1194
aS'36'
p1195
aS'37'
p1196
aS'38'
p1197
aS'39'
p1198
aS'40'
p1199
aS'41'
p1200
aS'42'
p1201
aS'43'
p1202
aS'44'
p1203
aS'45'
p1204
aS'46'
p1205
aS'47'
p1206
aS'48'
p1207
aS'49'
p1208
aS'50'
p1209
aS'51'
p1210
aS'52'
p1211
aS'53'
p1212
aS'54'
p1213
aS'55'
p1214
aS'56'
p1215
aS'57'
p1216
aS'58'
p1217
aS'59'
p1218
aS'60'
p1219
aS'61'
p1220
aS'62'
p1221
aS'63'
p1222
aS'64'
p1223
asg449
g0
(g450
g2
Ntp1224
Rp1225
(dp1226
g454
Nsg610
g1157
sg458
I00
sg459
I00
sg460
Nsbsg462
g0
(g463
g464
(g465
g466
tp1227
tp1228
Rp1229
sg456
S'row'
p1230
sbag0
(g284
g2
Ntp1231
Rp1232
(dp1233
g288
I00
sg289
g4
sg290
(lp1234
Vgene
p1235
aVrun
p1236
aVshow_raw
p1237
aVshow_block1
p1238
aVshow_block2
p1239
aVshow_block3
p1240
aVmax_std
p1241
aVmin_eff
p1242
aVshow_params
p1243
aVnan
p1244
aVnan
p1245
aVnan
p1246
aVnan
p1247
aVnan
p1248
aVnan
p1249
aVnan
p1250
aVnan
p1251
aVnan
p1252
aVnan
p1253
aVnan
p1254
aVnan
p1255
aVnan
p1256
aVnan
p1257
aVnan
p1258
aVnan
p1259
aVnan
p1260
aVnan
p1261
aVnan
p1262
aVnan
p1263
aVnan
p1264
aVnan
p1265
aVnan
p1266
aVnan
p1267
aVnan
p1268
aVnan
p1269
aVnan
p1270
aVnan
p1271
aVnan
p1272
aVnan
p1273
aVnan
p1274
aVnan
p1275
aVnan
p1276
aVnan
p1277
aVnan
p1278
aVnan
p1279
aVnan
p1280
aVnan
p1281
aVnan
p1282
aVnan
p1283
aVnan
p1284
aVnan
p1285
aVnan
p1286
aVnan
p1287
aVnan
p1288
aNaNaNaNaNaNaNaNaNaNasg449
g0
(g450
g2
Ntp1289
Rp1290
(dp1291
g454
Nsg610
g1232
sg458
I00
sg459
I00
sg460
Nsbsg462
g0
(g463
g464
(g465
g466
tp1292
tp1293
Rp1294
sg456
VParmNames
p1295
sbag0
(g284
g2
Ntp1296
Rp1297
(dp1298
g288
I00
sg289
g4
sg290
(lp1299
VGene1
p1300
aVTrue
p1301
aVFalse
p1302
aVFalse
p1303
aVFalse
p1304
aVTrue
p1305
aF0.5
aV0.7
p1306
aVTrue
p1307
aV
p1308
aVnan
p1309
aVnan
p1310
aVnan
p1311
aVnan
p1312
aVnan
p1313
aVnan
p1314
aVnan
p1315
aVnan
p1316
aVnan
p1317
aVnan
p1318
aVnan
p1319
aVnan
p1320
aVnan
p1321
aVnan
p1322
aVnan
p1323
aVnan
p1324
aVnan
p1325
aVnan
p1326
aVnan
p1327
aVnan
p1328
aVnan
p1329
aVnan
p1330
aVnan
p1331
aVnan
p1332
aVnan
p1333
aVnan
p1334
aVnan
p1335
aVnan
p1336
aVnan
p1337
aVnan
p1338
aVnan
p1339
aVnan
p1340
aVnan
p1341
aVnan
p1342
aVnan
p1343
aVnan
p1344
aVnan
p1345
aVnan
p1346
aVnan
p1347
aVnan
p1348
aVnan
p1349
aVnan
p1350
aVnan
p1351
aVnan
p1352
aNaNaNaNaNaNaNaNaNaNasg449
g0
(g450
g2
Ntp1353
Rp1354
(dp1355
g454
Nsg456
VParmValues
p1356
sg458
I00
sg459
I00
sg460
Nsbsg462
g0
(g463
g464
(g465
g466
tp1357
tp1358
Rp1359
sg456
g1356
sbag1133
ag1071
ag1044
ag1121
ag1063
ag1055
ag286
ag471
ag616
ag753
ag892
ag905
ag916
ag978
ag989
ag997
ag1005
ag1018
ag1031
ag0
(g284
g2
Ntp1360
Rp1361
(dp1362
g288
I00
sg289
g4
sg290
(lp1363
(lp1364
g293
(g297
S'\x00\x00\x00\x00\x00\x00\x00\x00'
p1365
tp1366
Rp1367
aa(lp1368
g293
(g297
S'\x01\x00\x00\x00\x00\x00\x00\x00'
p1369
tp1370
Rp1371
aa(lp1372
g293
(g297
S'\x02\x00\x00\x00\x00\x00\x00\x00'
p1373
tp1374
Rp1375
aa(lp1376
g293
(g297
S'\x03\x00\x00\x00\x00\x00\x00\x00'
p1377
tp1378
Rp1379
aa(lp1380
g293
(g297
S'\x04\x00\x00\x00\x00\x00\x00\x00'
p1381
tp1382
Rp1383
aaNaNaNaNaNaNaNaNaNaNaNaNaNaNaNaNaNaNaNaNaNaNaNaNaNaNaNaNaNaNaNaNaNaNaNaNaNaNaNaNaNaNaNaNaNaNaNaNaNaNaNaNaNaNaNaNaNaNaNasg449
g0
(g450
g2
Ntp1384
Rp1385
(dp1386
g454
Vcat_vals = [br[0] for br in pruneNulls(BioRuns)]\u000aclean_geo = [x for x in GeoMean if x is not None]\u000aGeoGroups, groupedGeoMeans = groupBy(cat_vals, clean_geo)\u000aGroupedGeoMeans = roundValues(groupedGeoMeans, 3)\u000aGeoGroups = [[x] for x in GeoGroups]
p1387
sg456
VGeoGroups
p1388
sg458
I00
sg459
I00
sg460
Vcat_vals = [br[0] for br in pruneNulls(BioRuns)]\u000aclean_geo = [x for x in GeoMean if x is not None]\u000aGeoGroups, groupedGeoMeans = groupBy(cat_vals, clean_geo)\u000aGroupedGeoMeans = roundValues(groupedGeoMeans, 3)\u000aGeoGroups = [[x] for x in GeoGroups]
p1389
sbsg462
g0
(g463
g464
(g465
g466
tp1390
tp1391
Rp1392
sg456
g1388
sbag0
(g284
g2
Ntp1393
Rp1394
(dp1395
g288
I00
sg289
g4
sg290
(lp1396
g474
(g465
(I0
tp1397
g476
tp1398
Rp1399
(I1
(I1
tp1400
g482
I00
S'D\x8bl\xe7\xfb\xa9\xb1?'
p1401
tp1402
bag474
(g465
(I0
tp1403
g476
tp1404
Rp1405
(I1
(I3
tp1406
g482
I00
S'\xb8\x1e\x85\xebQ\xb8\x8e?D\x8bl\xe7\xfb\xa9\xb1?\x1b/\xdd$\x06\x81\x95?'
p1407
tp1408
bag474
(g465
(I0
tp1409
g476
tp1410
Rp1411
(I1
(I1
tp1412
g482
I00
S'\xd9\xce\xf7S\xe3\xa5\x9b?'
p1413
tp1414
bag474
(g465
(I0
tp1415
g476
tp1416
Rp1417
(I1
(I1
tp1418
g482
I00
S'\xd9\xce\xf7S\xe3\xa5\x9b?'
p1419
tp1420
bag474
(g465
(I0
tp1421
g476
tp1422
Rp1423
(I1
(I1
tp1424
g482
I00
S'\xd9\xce\xf7S\xe3\xa5\x9b?'
p1425
tp1426
baNaNaNaNaNaNaNaNaNaNaNaNaNaNaNaNaNaNaNaNaNaNaNaNaNaNaNaNaNaNaNaNaNaNaNaNaNaNaNaNaNaNaNaNaNaNaNaNaNaNaNaNaNaNaNaNaNaNaNasg449
g0
(g450
g2
Ntp1427
Rp1428
(dp1429
g454
Nsg610
g1394
sg458
I00
sg459
I00
sg460
Nsbsg462
g0
(g463
g464
(g465
g466
tp1430
tp1431
Rp1432
sg456
VGroupedGeoMeans
p1433
sbag0
(g284
g2
Ntp1434
Rp1435
(dp1436
g288
I00
sg289
g4
sg290
(lp1437
g474
(g465
(I0
tp1438
g476
tp1439
Rp1440
(I1
(I1
tp1441
g482
I00
S'\x00\x00\x00\x00\x00\x00\xf0?'
p1442
tp1443
bag474
(g465
(I0
tp1444
g476
tp1445
Rp1446
(I1
(I3
tp1447
g482
I00
S'-\xb2\x9d\xef\xa7\xc6\xcb?\x00\x00\x00\x00\x00\x00\xf0?\xdb\xf9~j\xbct\xd3?'
p1448
tp1449
bag474
(g465
(I0
tp1450
g476
tp1451
Rp1452
(I1
(I1
tp1453
g482
I00
S'\xa0\x1a/\xdd$\x06\xd9?'
p1454
tp1455
bag474
(g465
(I0
tp1456
g476
tp1457
Rp1458
(I1
(I1
tp1459
g482
I00
S'\xa0\x1a/\xdd$\x06\xd9?'
p1460
tp1461
bag474
(g465
(I0
tp1462
g476
tp1463
Rp1464
(I1
(I1
tp1465
g482
I00
S'\xa0\x1a/\xdd$\x06\xd9?'
p1466
tp1467
baNaNaNaNaNaNaNaNaNaNaNaNaNaNaNaNaNaNaNaNaNaNaNaNaNaNaNaNaNaNaNaNaNaNaNaNaNaNaNaNaNaNaNaNaNaNaNaNaNaNaNaNaNaNaNaNaNaNaNasg449
g0
(g450
g2
Ntp1468
Rp1469
(dp1470
g454
Vref = np.mean(GroupedGeoMeans[0])\u000aNrmlGeoGroupedMeans = [ [x/ref for x in g] for g in GroupedGeoMeans if g is not None]  \u000aNrmlGeoGroupedMeans = roundValues(NrmlGeoGroupedMeans, 3)
p1471
sg456
VNrmlGeoGroupedMeans
p1472
sg458
I00
sg459
I00
sg460
Vref = np.mean(GroupedGeoMeans[0])\u000aNrmlGeoGroupedMeans = [ [x/ref for x in g] for g in GroupedGeoMeans if g is not None]  \u000aNrmlGeoGroupedMeans = roundValues(NrmlGeoGroupedMeans, 3)
p1473
sbsg462
g0
(g463
g464
(g465
g466
tp1474
tp1475
Rp1476
sg456
g1472
sbag0
(g284
g2
Ntp1477
Rp1478
(dp1479
g288
I00
sg289
g4
sg290
(lp1480
F1.0
aF0.507
aF0.391
aF0.391
aF0.391
aFnan
aFnan
aFnan
aFnan
aFnan
aFnan
aFnan
aFnan
aFnan
aFnan
aFnan
aFnan
aFnan
aFnan
aFnan
aFnan
aFnan
aFnan
aFnan
aFnan
aFnan
aFnan
aFnan
aFnan
aFnan
aFnan
aFnan
aFnan
aFnan
aFnan
aFnan
aFnan
aFnan
aFnan
aFnan
aFnan
aFnan
aFnan
aFnan
aFnan
aFnan
aFnan
aFnan
aFnan
aFnan
aFnan
aFnan
aFnan
aFnan
aFnan
aFnan
aFnan
aFnan
aFnan
aFnan
aFnan
aFnan
aFnan
aFnan
asg449
g0
(g450
g2
Ntp1481
Rp1482
(dp1483
g454
VMeanNrmlGeoGroups = [round(np.mean(g), 3) for g in NrmlGeoGroupedMeans]
p1484
sg456
VMeanNrmlGeoGroups
p1485
sg458
I01
sg459
I00
sg460
V[round(np.mean(g), 3) for g in NrmlGeoGroupedMeans]
p1486
sbsg462
g0
(g463
g464
(g465
g466
tp1487
tp1488
Rp1489
sg456
g1485
sbag0
(g284
g2
Ntp1490
Rp1491
(dp1492
g288
I00
sg289
g4
sg290
(lp1493
Fnan
aF0.248
aFnan
aFnan
aFnan
aFnan
aFnan
aFnan
aFnan
aFnan
aFnan
aFnan
aFnan
aFnan
aFnan
aFnan
aFnan
aFnan
aFnan
aFnan
aFnan
aFnan
aFnan
aFnan
aFnan
aFnan
aFnan
aFnan
aFnan
aFnan
aFnan
aFnan
aFnan
aFnan
aFnan
aFnan
aFnan
aFnan
aFnan
aFnan
aFnan
aFnan
aFnan
aFnan
aFnan
aFnan
aFnan
aFnan
aFnan
aFnan
aFnan
aFnan
aFnan
aFnan
aFnan
aFnan
aFnan
aFnan
aFnan
aFnan
aFnan
aFnan
aFnan
aFnan
asg449
g0
(g450
g2
Ntp1494
Rp1495
(dp1496
g454
VStdNrmlGeoGroups = [round(np.std(g, ddof=1)/np.sqrt(len(g)), 3) for g in NrmlGeoGroupedMeans]\u000a
p1497
sg456
VStdNrmlGeoGroups
p1498
sg458
I01
sg459
I00
sg460
V[round(np.std(g, ddof=1)/np.sqrt(len(g)), 3) for g in NrmlGeoGroupedMeans]\u000a
p1499
sbsg462
g0
(g463
g464
(g465
g466
tp1500
tp1501
Rp1502
sg456
g1498
sbasg277
V/home/ubuntu/SciSheets/mysite/user/guest/tables/kristen_single_gene.pcl
p1503
sb.