ccopy_reg
_reconstructor
p0
(cscisheets.ui.dt_table
DTTable
p1
c__builtin__
object
p2
Ntp3
Rp4
(dp5
S'_versioned_file'
p6
g0
(cmysite.helpers.versioned_file
VersionedFile
p7
g2
Ntp8
Rp9
(dp10
S'_redo_stack'
p11
g0
(cmysite.helpers.file_stack
FileStack
p12
g2
Ntp13
Rp14
(dp15
S'_dirpath'
p16
S'/home/ubuntu/SciSheets/mysite/user/guest/tables/backup'
p17
sS'_max_depth'
p18
I5
sS'_filename_pfx'
p19
Vkristen_single_gene.r
p20
sbsS'_max_versions'
p21
I5
sS'_undo_stack'
p22
g0
(g12
g2
Ntp23
Rp24
(dp25
g16
g17
sg18
I5
sg19
Vkristen_single_gene.u
p26
sbsS'_checkpoint_history'
p27
(lp28
VCell/Update
p29
aVCell/Update
p30
aVCell/Update
p31
aVCell/Update
p32
aVCell/Update
p33
aVCell/Update
p34
aVCell/Update
p35
aVCell/Update
p36
aVCell/Update
p37
aVCell/Update
p38
aVCell/Update
p39
aVCell/Update
p40
aVColumn/Formula
p41
aVColumn/Formula
p42
aVColumn/Append
p43
aVColumn/Formula
p44
aVColumn/Delete
p45
aVCell/Update
p46
aVColumn/Formula
p47
aVCell/Update
p48
aVCell/Update
p49
aVColumn/Formula
p50
aVColumn/Formula
p51
aVCell/Update
p52
aVColumn/Formula
p53
aVColumn/Formula
p54
aVCell/Update
p55
aVCell/Update
p56
aVCell/Update
p57
aVCell/Update
p58
aVColumn/Formula
p59
aVCell/Update
p60
aVCell/Update
p61
aVCell/Update
p62
aVColumn/Formula
p63
aVCell/Update
p64
aVColumn/Formula
p65
aVColumn/Formula
p66
aVCell/Update
p67
aVCell/Update
p68
aVCell/Update
p69
aVCell/Update
p70
aVCell/Update
p71
aVCell/Update
p72
aVCell/Update
p73
aVCell/Update
p74
aVCell/Update
p75
aVColumn/Formula
p76
aVCell/Update
p77
aVCell/Update
p78
aVCell/Update
p79
aVCell/Update
p80
aVCell/Update
p81
aVCell/Update
p82
aVCell/Update
p83
aVCell/Update
p84
aVCell/Update
p85
aVCell/Update
p86
aVCell/Update
p87
aVCell/Update
p88
aVColumn/Formula
p89
aVColumn/Formula
p90
aVColumn/Formula
p91
aVCell/Update
p92
aVCell/Update
p93
aVCell/Update
p94
aVCell/Update
p95
aVCell/Update
p96
aVColumn/Formula
p97
aVCell/Update
p98
aVCell/Update
p99
aVCell/Update
p100
aVCell/Update
p101
aVCell/Update
p102
aVCell/Update
p103
aVCell/Update
p104
aVColumn/Formula
p105
aVColumn/Formula
p106
aVColumn/Formula
p107
aVCell/Update
p108
aVCell/Update
p109
aVColumn/Formula
p110
aVCell/Update
p111
aVCell/Update
p112
aVCell/Update
p113
aVCell/Update
p114
aVCell/Update
p115
aVCell/Update
p116
aVCell/Update
p117
aVCell/Update
p118
aVColumn/Formula
p119
aVCell/Update
p120
aVColumn/Formula
p121
aVColumn/Formula
p122
aVColumn/Formula
p123
aVCell/Update
p124
aVCell/Update
p125
aVColumn/Formula
p126
aVColumn/Formula
p127
aVColumn/Formula
p128
aVColumn/Formula
p129
aVCell/Update
p130
aVColumn/Formula
p131
aVColumn/Formula
p132
aVColumn/Formula
p133
aVCell/Update
p134
aVCell/Update
p135
aVCell/Update
p136
aVCell/Update
p137
aVCell/Update
p138
aVCell/Update
p139
aVCell/Update
p140
aVCell/Update
p141
aVCell/Update
p142
aVCell/Update
p143
aVColumn/Formula
p144
aVColumn/Formula
p145
aVColumn/Formula
p146
aVColumn/Formula
p147
aVCell/Update
p148
aVCell/Update
p149
aVColumn/Formula
p150
aVCell/Update
p151
aVCell/Update
p152
aVCell/Update
p153
aVCell/Update
p154
aVCell/Update
p155
aVCell/Update
p156
aVCell/Update
p157
aVCell/Update
p158
aVCell/Update
p159
aVCell/Update
p160
aVCell/Update
p161
aVCell/Update
p162
aVCell/Update
p163
aVColumn/Formula
p164
aVColumn/Formula
p165
aVCell/Update
p166
aVCell/Update
p167
aVCell/Update
p168
aVColumn/Formula
p169
aVCell/Update
p170
aVCell/Update
p171
aVCell/Update
p172
aVCell/Update
p173
aVColumn/Formula
p174
aVColumn/Formula
p175
aVColumn/Formula
p176
aVColumn/Formula
p177
aVCell/Update
p178
aVColumn/Formula
p179
aVCell/Update
p180
aVCell/Update
p181
aVCell/Update
p182
aVCell/Update
p183
aVCell/Update
p184
aVCell/Update
p185
aVCell/Update
p186
aVCell/Update
p187
aVCell/Update
p188
aVColumn/Formula
p189
aVCell/Update
p190
aVCell/Update
p191
aVCell/Update
p192
aVCell/Update
p193
aVCell/Update
p194
aVCell/Update
p195
aVCell/Update
p196
aVCell/Update
p197
aVCell/Update
p198
aVCell/Update
p199
aVCell/Update
p200
aVCell/Update
p201
aVCell/Update
p202
aVCell/Update
p203
aVCell/Update
p204
aVCell/Update
p205
aVCell/Update
p206
aVCell/Update
p207
aVCell/Update
p208
aVCell/Update
p209
aVCell/Update
p210
aVCell/Update
p211
aVCell/Update
p212
aVCell/Update
p213
aVCell/Update
p214
aVCell/Update
p215
aVCell/Update
p216
aVCell/Update
p217
aVCell/Update
p218
aVCell/Update
p219
aVCell/Update
p220
aVCell/Update
p221
aVCell/Update
p222
aVCell/Update
p223
aVCell/Update
p224
aVCell/Update
p225
aVCell/Update
p226
aVCell/Update
p227
aVCell/Update
p228
aVCell/Update
p229
aVCell/Update
p230
aVCell/Update
p231
aVCell/Update
p232
aVCell/Update
p233
aVCell/Update
p234
aVCell/Update
p235
aVCell/Update
p236
aVCell/Update
p237
aVCell/Update
p238
aVCell/Update
p239
aVCell/Update
p240
aVCell/Update
p241
aVCell/Update
p242
aVCell/Update
p243
aVCell/Update
p244
aVCell/Update
p245
aVCell/Update
p246
aVCell/Update
p247
aVCell/Update
p248
aVCell/Update
p249
aVCell/Update
p250
aVCell/Update
p251
aVCell/Update
p252
aVCell/Update
p253
aVCell/Update
p254
aVCell/Update
p255
aVCell/Update
p256
aVCell/Update
p257
aVCell/Update
p258
aVCell/Update
p259
aVCell/Update
p260
aVCell/Update
p261
aVCell/Update
p262
aVCell/Update
p263
aVCell/Update
p264
aVCell/Update
p265
aVCell/Update
p266
aVCell/Update
p267
aVCell/Update
p268
aVCell/Update
p269
aVCell/Update
p270
aVCell/Update
p271
aVColumn/Formula
p272
aVColumn/Formula
p273
aVCell/Update
p274
aVCell/Update
p275
aVCell/Update
p276
aVCell/Update
p277
aVColumn/Formula
p278
aVColumn/Formula
p279
aVColumn/Formula
p280
aVCell/Update
p281
aVCell/Update
p282
aVCell/Update
p283
aVCell/Update
p284
aVColumn/Formula
p285
aVColumn/Formula
p286
aVColumn/Formula
p287
aVCell/Update
p288
aVCell/Update
p289
aVColumn/Formula
p290
aVCell/Update
p291
aVCell/Update
p292
asS'_filepath'
p293
V/home/ubuntu/SciSheets/mysite/user/guest/tables/kristen_single_gene.pcl
p294
sS'_backup_dir'
p295
g17
sbsS'_namespace'
p296
(dp297
sS'_hidden_columns'
p298
(lp299
g0
(cscisheets.core.column
Column
p300
g2
Ntp301
Rp302
(dp303
S'_asis'
p304
I00
sS'_owning_table'
p305
g4
sS'_cells'
p306
(lp307
(lp308
cnumpy.core.multiarray
scalar
p309
(cnumpy
dtype
p310
(S'i8'
p311
I0
I1
tp312
Rp313
(I3
S'<'
p314
NNNI-1
I-1
I0
tp315
bS'\x00\x00\x00\x00\x00\x00\x00\x00'
p316
tp317
Rp318
aVI
p319
ag309
(g313
S'\x01\x00\x00\x00\x00\x00\x00\x00'
p320
tp321
Rp322
aa(lp323
g309
(g313
S'\x00\x00\x00\x00\x00\x00\x00\x00'
p324
tp325
Rp326
aVR1
p327
ag309
(g313
S'\x01\x00\x00\x00\x00\x00\x00\x00'
p328
tp329
Rp330
aa(lp331
g309
(g313
S'\x00\x00\x00\x00\x00\x00\x00\x00'
p332
tp333
Rp334
aVR2
p335
ag309
(g313
S'\x01\x00\x00\x00\x00\x00\x00\x00'
p336
tp337
Rp338
aa(lp339
g309
(g313
S'\x01\x00\x00\x00\x00\x00\x00\x00'
p340
tp341
Rp342
ag319
ag309
(g313
S'\x01\x00\x00\x00\x00\x00\x00\x00'
p343
tp344
Rp345
aa(lp346
g309
(g313
S'\x01\x00\x00\x00\x00\x00\x00\x00'
p347
tp348
Rp349
ag319
ag309
(g313
S'\x02\x00\x00\x00\x00\x00\x00\x00'
p350
tp351
Rp352
aa(lp353
g309
(g313
S'\x01\x00\x00\x00\x00\x00\x00\x00'
p354
tp355
Rp356
ag319
ag309
(g313
S'\x03\x00\x00\x00\x00\x00\x00\x00'
p357
tp358
Rp359
aa(lp360
g309
(g313
S'\x01\x00\x00\x00\x00\x00\x00\x00'
p361
tp362
Rp363
ag327
ag309
(g313
S'\x01\x00\x00\x00\x00\x00\x00\x00'
p364
tp365
Rp366
aa(lp367
g309
(g313
S'\x01\x00\x00\x00\x00\x00\x00\x00'
p368
tp369
Rp370
ag327
ag309
(g313
S'\x02\x00\x00\x00\x00\x00\x00\x00'
p371
tp372
Rp373
aa(lp374
g309
(g313
S'\x01\x00\x00\x00\x00\x00\x00\x00'
p375
tp376
Rp377
ag327
ag309
(g313
S'\x03\x00\x00\x00\x00\x00\x00\x00'
p378
tp379
Rp380
aa(lp381
g309
(g313
S'\x01\x00\x00\x00\x00\x00\x00\x00'
p382
tp383
Rp384
ag335
ag309
(g313
S'\x01\x00\x00\x00\x00\x00\x00\x00'
p385
tp386
Rp387
aa(lp388
g309
(g313
S'\x01\x00\x00\x00\x00\x00\x00\x00'
p389
tp390
Rp391
ag335
ag309
(g313
S'\x02\x00\x00\x00\x00\x00\x00\x00'
p392
tp393
Rp394
aa(lp395
g309
(g313
S'\x01\x00\x00\x00\x00\x00\x00\x00'
p396
tp397
Rp398
ag335
ag309
(g313
S'\x03\x00\x00\x00\x00\x00\x00\x00'
p399
tp400
Rp401
aa(lp402
g309
(g313
S'\x02\x00\x00\x00\x00\x00\x00\x00'
p403
tp404
Rp405
ag319
ag309
(g313
S'\x01\x00\x00\x00\x00\x00\x00\x00'
p406
tp407
Rp408
aa(lp409
g309
(g313
S'\x02\x00\x00\x00\x00\x00\x00\x00'
p410
tp411
Rp412
ag327
ag309
(g313
S'\x01\x00\x00\x00\x00\x00\x00\x00'
p413
tp414
Rp415
aa(lp416
g309
(g313
S'\x02\x00\x00\x00\x00\x00\x00\x00'
p417
tp418
Rp419
ag335
ag309
(g313
S'\x01\x00\x00\x00\x00\x00\x00\x00'
p420
tp421
Rp422
aa(lp423
g309
(g313
S'\x03\x00\x00\x00\x00\x00\x00\x00'
p424
tp425
Rp426
ag319
ag309
(g313
S'\x01\x00\x00\x00\x00\x00\x00\x00'
p427
tp428
Rp429
aa(lp430
g309
(g313
S'\x03\x00\x00\x00\x00\x00\x00\x00'
p431
tp432
Rp433
ag327
ag309
(g313
S'\x01\x00\x00\x00\x00\x00\x00\x00'
p434
tp435
Rp436
aa(lp437
g309
(g313
S'\x03\x00\x00\x00\x00\x00\x00\x00'
p438
tp439
Rp440
ag335
ag309
(g313
S'\x01\x00\x00\x00\x00\x00\x00\x00'
p441
tp442
Rp443
aa(lp444
g309
(g313
S'\x04\x00\x00\x00\x00\x00\x00\x00'
p445
tp446
Rp447
ag319
ag309
(g313
S'\x01\x00\x00\x00\x00\x00\x00\x00'
p448
tp449
Rp450
aa(lp451
g309
(g313
S'\x04\x00\x00\x00\x00\x00\x00\x00'
p452
tp453
Rp454
ag327
ag309
(g313
S'\x01\x00\x00\x00\x00\x00\x00\x00'
p455
tp456
Rp457
aa(lp458
g309
(g313
S'\x04\x00\x00\x00\x00\x00\x00\x00'
p459
tp460
Rp461
ag335
ag309
(g313
S'\x01\x00\x00\x00\x00\x00\x00\x00'
p462
tp463
Rp464
aaNaNaNaNaNaNaNaNaNaNaNaNaNaNaNaNaNaNaNaNaNaNaNaNaNaNaNaNaNaNaNaNaNaNaNaNaNaNaNaNaNaNaNasS'_formula_statement'
p465
g0
(cscisheets.core.helpers.formula_statement
FormulaStatement
p466
g2
Ntp467
Rp468
(dp469
S'_statement'
p470
Vsel = Eff > min_eff\u000agrouping_columns = [\u000a    Treatment[sel],\u000a     RunType[sel], \u000a    BRpl[sel],      \u000a  ]\u000aGroups, groupedCt = groupBy(\u000a     grouping_columns, Ct[sel])\u000aGroups, groupedEff = groupBy(\u000a     grouping_columns, Eff[sel])\u000aGroups = [[g[0], g[1], g[2]] for g in Groups]\u000aGroupedCt = roundValues(groupedCt,2)\u000aGroupedEff = roundValues(groupedEff,2)
p471
sS'_name'
p472
VGroups
p473
sS'_isExpression'
p474
I00
sS'_isStatement'
p475
I00
sS'_formula'
p476
Vsel = Eff > min_eff\u000agrouping_columns = [\u000a    Treatment[sel],\u000a     RunType[sel], \u000a    BRpl[sel],      \u000a  ]\u000aGroups, groupedCt = groupBy(\u000a     grouping_columns, Ct[sel])\u000aGroups, groupedEff = groupBy(\u000a     grouping_columns, Eff[sel])\u000aGroups = [[g[0], g[1], g[2]] for g in Groups]\u000aGroupedCt = roundValues(groupedCt,2)\u000aGroupedEff = roundValues(groupedEff,2)
p477
sbsS'_data_class'
p478
g0
(cscisheets.core.helpers.api_util
DataClass
p479
c__builtin__
tuple
p480
(cnumpy
ndarray
p481
cscisheets.core.helpers.api_util
makeArray
p482
tp483
tp484
Rp485
sg472
g473
sbag0
(g300
g2
Ntp486
Rp487
(dp488
g304
I00
sg305
g4
sg306
(lp489
cnumpy.core.multiarray
_reconstruct
p490
(g481
(I0
tp491
S'b'
p492
tp493
Rp494
(I1
(I4
tp495
g310
(S'f8'
p496
I0
I1
tp497
Rp498
(I3
S'<'
p499
NNNI-1
I-1
I0
tp500
bI00
S'\xe1z\x14\xaeG\xe1\xea?{\x14\xaeG\xe1z\xec?\xcd\xcc\xcc\xcc\xcc\xcc\xec?\xd7\xa3p=\n\xd7\xeb?'
p501
tp502
bag490
(g481
(I0
tp503
g492
tp504
Rp505
(I1
(I3
tp506
g498
I00
S'\x8f\xc2\xf5(\\\x8f\xea?\x8f\xc2\xf5(\\\x8f\xea?333333\xeb?'
p507
tp508
bag490
(g481
(I0
tp509
g492
tp510
Rp511
(I1
(I3
tp512
g498
I00
S'=\n\xd7\xa3p=\xea?333333\xeb?=\n\xd7\xa3p=\xea?'
p513
tp514
bag490
(g481
(I0
tp515
g492
tp516
Rp517
(I1
(I3
tp518
g498
I00
S'\x14\xaeG\xe1z\x14\xee?\x8f\xc2\xf5(\\\x8f\xea?\xe1z\x14\xaeG\xe1\xea?'
p519
tp520
bag490
(g481
(I0
tp521
g492
tp522
Rp523
(I1
(I3
tp524
g498
I00
S'\x9a\x99\x99\x99\x99\x99\xe9?\xe1z\x14\xaeG\xe1\xea?H\xe1z\x14\xaeG\xe9?'
p525
tp526
bag490
(g481
(I0
tp527
g492
tp528
Rp529
(I1
(I3
tp530
g498
I00
S'\x8f\xc2\xf5(\\\x8f\xea?\x9a\x99\x99\x99\x99\x99\xe9?\x8f\xc2\xf5(\\\x8f\xea?'
p531
tp532
bag490
(g481
(I0
tp533
g492
tp534
Rp535
(I1
(I3
tp536
g498
I00
S'q=\n\xd7\xa3p\xed?\\\x8f\xc2\xf5(\\\xef?\xcd\xcc\xcc\xcc\xcc\xcc\xec?'
p537
tp538
bag490
(g481
(I0
tp539
g492
tp540
Rp541
(I1
(I3
tp542
g498
I00
S'\xcd\xcc\xcc\xcc\xcc\xcc\xec?\x8f\xc2\xf5(\\\x8f\xea?\xe1z\x14\xaeG\xe1\xea?'
p543
tp544
bag490
(g481
(I0
tp545
g492
tp546
Rp547
(I1
(I3
tp548
g498
I00
S'\xd7\xa3p=\n\xd7\xeb?333333\xeb?\x8f\xc2\xf5(\\\x8f\xea?'
p549
tp550
bag490
(g481
(I0
tp551
g492
tp552
Rp553
(I1
(I3
tp554
g498
I00
S'H\xe1z\x14\xaeG\xe9?\xe1z\x14\xaeG\xe1\xea?\x85\xebQ\xb8\x1e\x85\xeb?'
p555
tp556
bag490
(g481
(I0
tp557
g492
tp558
Rp559
(I1
(I3
tp560
g498
I00
S'\x8f\xc2\xf5(\\\x8f\xea?=\n\xd7\xa3p=\xea?\x8f\xc2\xf5(\\\x8f\xea?'
p561
tp562
bag490
(g481
(I0
tp563
g492
tp564
Rp565
(I1
(I3
tp566
g498
I00
S'\xecQ\xb8\x1e\x85\xeb\xe9?=\n\xd7\xa3p=\xea?\x9a\x99\x99\x99\x99\x99\xe9?'
p567
tp568
bag490
(g481
(I0
tp569
g492
tp570
Rp571
(I1
(I3
tp572
g498
I00
S'\xe1z\x14\xaeG\xe1\xea?\x9a\x99\x99\x99\x99\x99\xe9?\xecQ\xb8\x1e\x85\xeb\xe9?'
p573
tp574
bag490
(g481
(I0
tp575
g492
tp576
Rp577
(I1
(I3
tp578
g498
I00
S'\xa4p=\n\xd7\xa3\xe8?\xd7\xa3p=\n\xd7\xeb?\xecQ\xb8\x1e\x85\xeb\xe9?'
p579
tp580
bag490
(g481
(I0
tp581
g492
tp582
Rp583
(I1
(I3
tp584
g498
I00
S'\xf6(\\\x8f\xc2\xf5\xe8?\xa4p=\n\xd7\xa3\xe8?H\xe1z\x14\xaeG\xe9?'
p585
tp586
bag490
(g481
(I0
tp587
g492
tp588
Rp589
(I1
(I3
tp590
g498
I00
S'333333\xeb?333333\xeb?\xe1z\x14\xaeG\xe1\xea?'
p591
tp592
bag490
(g481
(I0
tp593
g492
tp594
Rp595
(I1
(I3
tp596
g498
I00
S'\xd7\xa3p=\n\xd7\xeb?\xcd\xcc\xcc\xcc\xcc\xcc\xec?\x85\xebQ\xb8\x1e\x85\xeb?'
p597
tp598
bag490
(g481
(I0
tp599
g492
tp600
Rp601
(I1
(I3
tp602
g498
I00
S'=\n\xd7\xa3p=\xea?=\n\xd7\xa3p=\xea?H\xe1z\x14\xaeG\xe9?'
p603
tp604
bag490
(g481
(I0
tp605
g492
tp606
Rp607
(I1
(I3
tp608
g498
I00
S'333333\xeb?333333\xeb?\xe1z\x14\xaeG\xe1\xea?'
p609
tp610
bag490
(g481
(I0
tp611
g492
tp612
Rp613
(I1
(I3
tp614
g498
I00
S'\xd7\xa3p=\n\xd7\xeb?\xcd\xcc\xcc\xcc\xcc\xcc\xec?\x85\xebQ\xb8\x1e\x85\xeb?'
p615
tp616
bag490
(g481
(I0
tp617
g492
tp618
Rp619
(I1
(I3
tp620
g498
I00
S'=\n\xd7\xa3p=\xea?=\n\xd7\xa3p=\xea?H\xe1z\x14\xaeG\xe9?'
p621
tp622
baNaNaNaNaNaNaNaNaNaNaNaNaNaNaNaNaNaNaNaNaNaNaNaNaNaNaNaNaNaNaNaNaNaNaNaNaNaNaNaNaNaNaNasg465
g0
(g466
g2
Ntp623
Rp624
(dp625
g470
NsS'_column'
p626
g487
sg474
I00
sg475
I00
sg476
Nsbsg478
g0
(g479
g480
(g481
g482
tp627
tp628
Rp629
sg472
VGroupedEff
p630
sbag0
(g300
g2
Ntp631
Rp632
(dp633
g304
I00
sg305
g4
sg306
(lp634
g490
(g481
(I0
tp635
g492
tp636
Rp637
(I1
(I4
tp638
g498
I00
S'\x00\x00\x00\x00\x00\x007@\\\x8f\xc2\xf5(\xdc6@\xcd\xcc\xcc\xcc\xcc\xcc6@\x00\x00\x00\x00\x00\x007@'
p639
tp640
bag490
(g481
(I0
tp641
g492
tp642
Rp643
(I1
(I3
tp644
g498
I00
S'=\n\xd7\xa3p=2@\xb8\x1e\x85\xebQ82@\\\x8f\xc2\xf5(\\2@'
p645
tp646
bag490
(g481
(I0
tp647
g492
tp648
Rp649
(I1
(I3
tp650
g498
I00
S'\xb8\x1e\x85\xebQ\xb83@\x00\x00\x00\x00\x00\xc03@\xc3\xf5(\\\x8f\x024@'
p651
tp652
bag490
(g481
(I0
tp653
g492
tp654
Rp655
(I1
(I3
tp656
g498
I00
S'\xaeG\xe1z\x14\xae:@\xe1z\x14\xaeG!;@\xf6(\\\x8f\xc25;@'
p657
tp658
bag490
(g481
(I0
tp659
g492
tp660
Rp661
(I1
(I3
tp662
g498
I00
S'\xc3\xf5(\\\x8f\xc2:@\xf6(\\\x8f\xc2\xb5:@q=\n\xd7\xa30:@'
p663
tp664
bag490
(g481
(I0
tp665
g492
tp666
Rp667
(I1
(I3
tp668
g498
I00
S'{\x14\xaeG\xe1\xfa=@\x1f\x85\xebQ\xb8\x1e>@)\\\x8f\xc2\xf5h=@'
p669
tp670
bag490
(g481
(I0
tp671
g492
tp672
Rp673
(I1
(I3
tp674
g498
I00
S'\xecQ\xb8\x1e\x85\xeb3@\x9a\x99\x99\x99\x99\xd93@\x00\x00\x00\x00\x00\x004@'
p675
tp676
bag490
(g481
(I0
tp677
g492
tp678
Rp679
(I1
(I3
tp680
g498
I00
S'\\\x8f\xc2\xf5(\xdc5@\xd7\xa3p=\n\x176@\xd7\xa3p=\n\xd75@'
p681
tp682
bag490
(g481
(I0
tp683
g492
tp684
Rp685
(I1
(I3
tp686
g498
I00
S'\xa4p=\n\xd7\xe37@\n\xd7\xa3p=\x8a7@\x85\xebQ\xb8\x1eE8@'
p687
tp688
bag490
(g481
(I0
tp689
g492
tp690
Rp691
(I1
(I3
tp692
g498
I00
S'\xaeG\xe1z\x14.6@\xf6(\\\x8f\xc2\xb55@\x00\x00\x00\x00\x00\xc05@'
p693
tp694
bag490
(g481
(I0
tp695
g492
tp696
Rp697
(I1
(I3
tp698
g498
I00
S'\xe1z\x14\xaeG\xe17@\xecQ\xb8\x1e\x85k7@\xe1z\x14\xaeG\xa17@'
p699
tp700
bag490
(g481
(I0
tp701
g492
tp702
Rp703
(I1
(I3
tp704
g498
I00
S'\xd7\xa3p=\n\x978@\\\x8f\xc2\xf5(\x9c8@\xd7\xa3p=\nW8@'
p705
tp706
bag490
(g481
(I0
tp707
g492
tp708
Rp709
(I1
(I3
tp710
g498
I00
S'33333\xf3=@33333s>@\xe1z\x14\xaeG\xe1=@'
p711
tp712
bag490
(g481
(I0
tp713
g492
tp714
Rp715
(I1
(I3
tp716
g498
I00
S'\xb8\x1e\x85\xebQ87@\xcd\xcc\xcc\xcc\xcc\xcc7@=\n\xd7\xa3p}7@'
p717
tp718
bag490
(g481
(I0
tp719
g492
tp720
Rp721
(I1
(I3
tp722
g498
I00
S'\x1f\x85\xebQ\xb8^:@\\\x8f\xc2\xf5(\\:@\xecQ\xb8\x1e\x85+:@'
p723
tp724
bag490
(g481
(I0
tp725
g492
tp726
Rp727
(I1
(I3
tp728
g498
I00
S'\xcd\xcc\xcc\xcc\xcc\xcc8@\xb8\x1e\x85\xebQ\xf88@\xe1z\x14\xaeG\xa18@'
p729
tp730
bag490
(g481
(I0
tp731
g492
tp732
Rp733
(I1
(I3
tp734
g498
I00
S')\\\x8f\xc2\xf5\xe82@H\xe1z\x14\xae\xc72@\xcd\xcc\xcc\xcc\xcc\xcc2@'
p735
tp736
bag490
(g481
(I0
tp737
g492
tp738
Rp739
(I1
(I3
tp740
g498
I00
S'\x00\x00\x00\x00\x00\x804@\xb8\x1e\x85\xebQx4@H\xe1z\x14\xaeG4@'
p741
tp742
bag490
(g481
(I0
tp743
g492
tp744
Rp745
(I1
(I3
tp746
g498
I00
S'\xcd\xcc\xcc\xcc\xcc\xcc8@\xb8\x1e\x85\xebQ\xf88@\xe1z\x14\xaeG\xa18@'
p747
tp748
bag490
(g481
(I0
tp749
g492
tp750
Rp751
(I1
(I3
tp752
g498
I00
S')\\\x8f\xc2\xf5\xe82@H\xe1z\x14\xae\xc72@\xcd\xcc\xcc\xcc\xcc\xcc2@'
p753
tp754
bag490
(g481
(I0
tp755
g492
tp756
Rp757
(I1
(I3
tp758
g498
I00
S'\x00\x00\x00\x00\x00\x804@\xb8\x1e\x85\xebQx4@H\xe1z\x14\xaeG4@'
p759
tp760
baNaNaNaNaNaNaNaNaNaNaNaNaNaNaNaNaNaNaNaNaNaNaNaNaNaNaNaNaNaNaNaNaNaNaNaNaNaNaNaNaNaNaNasg465
g0
(g466
g2
Ntp761
Rp762
(dp763
g470
Nsg626
g632
sg474
I00
sg475
I00
sg476
Nsbsg478
g0
(g479
g480
(g481
g482
tp764
tp765
Rp766
sg472
VGroupedCt
p767
sbag0
(g300
g2
Ntp768
Rp769
(dp770
g304
I00
sg305
g4
sg306
(lp771
g490
(g481
(I0
tp772
g492
tp773
Rp774
(I1
(I4
tp775
g498
I00
S'\x00\x00\x00\x00\x00\x007@fffff\xe66@\xcd\xcc\xcc\xcc\xcc\xcc6@\x00\x00\x00\x00\x00\x007@'
p776
tp777
bag490
(g481
(I0
tp778
g492
tp779
Rp780
(I1
(I3
tp781
g498
I00
S'3333332@3333332@ffffff2@'
p782
tp783
bag490
(g481
(I0
tp784
g492
tp785
Rp786
(I1
(I3
tp787
g498
I00
S'33333\xb33@\xcd\xcc\xcc\xcc\xcc\xcc3@\x00\x00\x00\x00\x00\x004@'
p788
tp789
bag490
(g481
(I0
tp790
g492
tp791
Rp792
(I1
(I3
tp793
g498
I00
S'33333\xb3:@\x9a\x99\x99\x99\x99\x19;@333333;@'
p794
tp795
bag490
(g481
(I0
tp796
g492
tp797
Rp798
(I1
(I3
tp799
g498
I00
S'\xcd\xcc\xcc\xcc\xcc\xcc:@33333\xb3:@333333:@'
p800
tp801
bag490
(g481
(I0
tp802
g492
tp803
Rp804
(I1
(I3
tp805
g498
I00
S'\x00\x00\x00\x00\x00\x00>@\x9a\x99\x99\x99\x99\x19>@ffffff=@'
p806
tp807
bag490
(g481
(I0
tp808
g492
tp809
Rp810
(I1
(I3
tp811
g498
I00
S'fffff\xe63@fffff\xe63@\x00\x00\x00\x00\x00\x004@'
p812
tp813
bag490
(g481
(I0
tp814
g492
tp815
Rp816
(I1
(I3
tp817
g498
I00
S'fffff\xe65@\x9a\x99\x99\x99\x99\x196@\xcd\xcc\xcc\xcc\xcc\xcc5@'
p818
tp819
bag490
(g481
(I0
tp820
g492
tp821
Rp822
(I1
(I3
tp823
g498
I00
S'fffff\xe67@\x00\x00\x00\x00\x00\x807@\xcd\xcc\xcc\xcc\xccL8@'
p824
tp825
bag490
(g481
(I0
tp826
g492
tp827
Rp828
(I1
(I3
tp829
g498
I00
S'3333336@33333\xb35@\xcd\xcc\xcc\xcc\xcc\xcc5@'
p830
tp831
bag490
(g481
(I0
tp832
g492
tp833
Rp834
(I1
(I3
tp835
g498
I00
S'fffff\xe67@ffffff7@\x9a\x99\x99\x99\x99\x997@'
p836
tp837
bag490
(g481
(I0
tp838
g492
tp839
Rp840
(I1
(I3
tp841
g498
I00
S'\x9a\x99\x99\x99\x99\x998@\x9a\x99\x99\x99\x99\x998@\xcd\xcc\xcc\xcc\xccL8@'
p842
tp843
bag490
(g481
(I0
tp844
g492
tp845
Rp846
(I1
(I3
tp847
g498
I00
S'fffff\xe6=@ffffff>@fffff\xe6=@'
p848
tp849
bag490
(g481
(I0
tp850
g492
tp851
Rp852
(I1
(I3
tp853
g498
I00
S'3333337@\xcd\xcc\xcc\xcc\xcc\xcc7@\x00\x00\x00\x00\x00\x807@'
p854
tp855
bag490
(g481
(I0
tp856
g492
tp857
Rp858
(I1
(I3
tp859
g498
I00
S'ffffff:@ffffff:@333333:@'
p860
tp861
bag490
(g481
(I0
tp862
g492
tp863
Rp864
(I1
(I3
tp865
g498
I00
S'\xcd\xcc\xcc\xcc\xcc\xcc8@\x00\x00\x00\x00\x00\x009@\x9a\x99\x99\x99\x99\x998@'
p866
tp867
bag490
(g481
(I0
tp868
g492
tp869
Rp870
(I1
(I3
tp871
g498
I00
S'fffff\xe62@\xcd\xcc\xcc\xcc\xcc\xcc2@\xcd\xcc\xcc\xcc\xcc\xcc2@'
p872
tp873
bag490
(g481
(I0
tp874
g492
tp875
Rp876
(I1
(I3
tp877
g498
I00
S'\x00\x00\x00\x00\x00\x804@\x00\x00\x00\x00\x00\x804@\xcd\xcc\xcc\xcc\xccL4@'
p878
tp879
bag490
(g481
(I0
tp880
g492
tp881
Rp882
(I1
(I3
tp883
g498
I00
S'\xcd\xcc\xcc\xcc\xcc\xcc8@\x00\x00\x00\x00\x00\x009@\x9a\x99\x99\x99\x99\x998@'
p884
tp885
bag490
(g481
(I0
tp886
g492
tp887
Rp888
(I1
(I3
tp889
g498
I00
S'fffff\xe62@\xcd\xcc\xcc\xcc\xcc\xcc2@\xcd\xcc\xcc\xcc\xcc\xcc2@'
p890
tp891
bag490
(g481
(I0
tp892
g492
tp893
Rp894
(I1
(I3
tp895
g498
I00
S'\x00\x00\x00\x00\x00\x804@\x00\x00\x00\x00\x00\x804@\xcd\xcc\xcc\xcc\xccL4@'
p896
tp897
baNaNaNaNaNaNaNaNaNaNaNaNaNaNaNaNaNaNaNaNaNaNaNaNaNaNaNaNaNaNaNaNaNaNaNaNaNaNaNaNaNaNaNasg465
g0
(g466
g2
Ntp898
Rp899
(dp900
g470
Vlength = len(Groups)\u000aStdFilteredGroupedCt = roundValues([filterExtremes(g, max_std, 2) for g in pruneNulls(GroupedCt,    required_length=length)])\u000a 
p901
sg472
VStdFilteredGroupedCt
p902
sg474
I00
sg475
I00
sg476
Vlength = len(Groups)\u000aStdFilteredGroupedCt = roundValues([filterExtremes(g, max_std, 2) for g in pruneNulls(GroupedCt,    required_length=length)])\u000a 
p903
sbsg478
g0
(g479
g480
(g481
g482
tp904
tp905
Rp906
sg472
g902
sbag0
(g300
g2
Ntp907
Rp908
(dp909
g304
I00
sg305
g4
sg306
(lp910
F22.9
aF18.3
aF19.8
aF27.0
aF26.6
aF29.8
aF19.9
aF21.9
aF23.9
aF21.9
aF23.6
aF24.5
aF30.1
aF23.5
aF26.3
aF24.8
aF18.8
aF20.4
aF24.8
aF18.8
aF20.4
aFnan
aFnan
aFnan
aFnan
aFnan
aFnan
aFnan
aFnan
aFnan
aFnan
aFnan
aFnan
aFnan
aFnan
aFnan
aFnan
aFnan
aFnan
aFnan
aFnan
aFnan
aFnan
aFnan
aFnan
aFnan
aFnan
aFnan
aFnan
aFnan
aFnan
aFnan
aFnan
aFnan
aFnan
aFnan
aFnan
aFnan
aFnan
aFnan
aFnan
aFnan
aFnan
aFnan
asg465
g0
(g466
g2
Ntp911
Rp912
(dp913
g470
VMeanCt = [np.mean(g) for g in StdFilteredGroupedCt]\u000aMeanCt = roundValues(MeanCt,1)\u000aStdCt = [np.std(g, ddof=1) for g in StdFilteredGroupedCt]\u000aStdCt = roundValues(StdCt,3)
p914
sg472
VMeanCt
p915
sg474
I00
sg475
I00
sg476
VMeanCt = [np.mean(g) for g in StdFilteredGroupedCt]\u000aMeanCt = roundValues(MeanCt,1)\u000aStdCt = [np.std(g, ddof=1) for g in StdFilteredGroupedCt]\u000aStdCt = roundValues(StdCt,3)
p916
sbsg478
g0
(g479
g480
(g481
g482
tp917
tp918
Rp919
sg472
g915
sbag0
(g300
g2
Ntp920
Rp921
(dp922
g304
I00
sg305
g4
sg306
(lp923
F0.096
aF0.115
aF0.153
aF0.265
aF0.321
aF0.379
aF0.058
aF0.153
aF0.4
aF0.265
aF0.252
aF0.173
aF0.289
aF0.3
aF0.115
aF0.2
aF0.058
aF0.115
aF0.2
aF0.058
aF0.115
aFnan
aFnan
aFnan
aFnan
aFnan
aFnan
aFnan
aFnan
aFnan
aFnan
aFnan
aFnan
aFnan
aFnan
aFnan
aFnan
aFnan
aFnan
aFnan
aFnan
aFnan
aFnan
aFnan
aFnan
aFnan
aFnan
aFnan
aFnan
aFnan
aFnan
aFnan
aFnan
aFnan
aFnan
aFnan
aFnan
aFnan
aFnan
aFnan
aFnan
aFnan
aFnan
aFnan
asg465
g0
(g466
g2
Ntp924
Rp925
(dp926
g470
Nsg626
g921
sg474
I00
sg475
I00
sg476
Nsbsg478
g0
(g479
g480
(g481
g482
tp927
tp928
Rp929
sg472
VStdCt
p930
sbag0
(g300
g2
Ntp931
Rp932
(dp933
g304
I00
sg305
g4
sg306
(lp934
(lp935
g309
(g313
S'\x00\x00\x00\x00\x00\x00\x00\x00'
p936
tp937
Rp938
ag309
(g313
S'\x01\x00\x00\x00\x00\x00\x00\x00'
p939
tp940
Rp941
aa(lp942
g309
(g313
S'\x01\x00\x00\x00\x00\x00\x00\x00'
p943
tp944
Rp945
ag309
(g313
S'\x01\x00\x00\x00\x00\x00\x00\x00'
p946
tp947
Rp948
aa(lp949
g309
(g313
S'\x01\x00\x00\x00\x00\x00\x00\x00'
p950
tp951
Rp952
ag309
(g313
S'\x02\x00\x00\x00\x00\x00\x00\x00'
p953
tp954
Rp955
aa(lp956
g309
(g313
S'\x01\x00\x00\x00\x00\x00\x00\x00'
p957
tp958
Rp959
ag309
(g313
S'\x03\x00\x00\x00\x00\x00\x00\x00'
p960
tp961
Rp962
aa(lp963
g309
(g313
S'\x02\x00\x00\x00\x00\x00\x00\x00'
p964
tp965
Rp966
ag309
(g313
S'\x01\x00\x00\x00\x00\x00\x00\x00'
p967
tp968
Rp969
aa(lp970
g309
(g313
S'\x03\x00\x00\x00\x00\x00\x00\x00'
p971
tp972
Rp973
ag309
(g313
S'\x01\x00\x00\x00\x00\x00\x00\x00'
p974
tp975
Rp976
aa(lp977
g309
(g313
S'\x04\x00\x00\x00\x00\x00\x00\x00'
p978
tp979
Rp980
ag309
(g313
S'\x01\x00\x00\x00\x00\x00\x00\x00'
p981
tp982
Rp983
aaNaNaNaNaNaNaNaNaNaNaNaNaNaNaNaNaNaNaNaNaNaNaNaNaNaNaNaNaNaNaNaNaNaNaNaNaNaNaNaNaNaNaNaNaNaNaNaNaNaNaNaNaNaNaNaNaNasg465
g0
(g466
g2
Ntp984
Rp985
(dp986
g470
Vdummy = tabularize(s, 'Groups', 1, 'MeanCt', \u000a          new_category_colnm='BioRuns',\u000a          values_colnm_prefix='Gene_')
p987
sg472
VBioRuns
p988
sg474
I00
sg475
I00
sg476
Vdummy = tabularize(s, 'Groups', 1, 'MeanCt', \u000a          new_category_colnm='BioRuns',\u000a          values_colnm_prefix='Gene_')
p989
sbsg478
g0
(g479
g480
(g481
g482
tp990
tp991
Rp992
sg472
g988
sbag0
(g300
g2
Ntp993
Rp994
(dp995
g304
I00
sg305
g4
sg306
(lp996
F22.9
aF27.0
aF26.6
aF29.8
aF30.1
aF24.8
aF24.8
aFnan
aFnan
aFnan
aFnan
aFnan
aFnan
aFnan
aFnan
aFnan
aFnan
aFnan
aFnan
aFnan
aFnan
aFnan
aFnan
aFnan
aFnan
aFnan
aFnan
aFnan
aFnan
aFnan
aFnan
aFnan
aFnan
aFnan
aFnan
aFnan
aFnan
aFnan
aFnan
aFnan
aFnan
aFnan
aFnan
aFnan
aFnan
aFnan
aFnan
aFnan
aFnan
aFnan
aFnan
aFnan
aFnan
aFnan
aFnan
aFnan
aFnan
aFnan
aFnan
aFnan
aFnan
aFnan
aFnan
aFnan
asg465
g0
(g466
g2
Ntp997
Rp998
(dp999
g470
Nsg626
g994
sg474
I00
sg475
I00
sg476
Nsbsg478
g0
(g479
g480
(g481
g482
tp1000
tp1001
Rp1002
sg472
S'Gene_I'
p1003
sbag0
(g300
g2
Ntp1004
Rp1005
(dp1006
g304
I00
sg305
g4
sg306
(lp1007
F18.3
aF19.9
aF21.9
aF23.9
aF23.5
aF18.8
aF18.8
aFnan
aFnan
aFnan
aFnan
aFnan
aFnan
aFnan
aFnan
aFnan
aFnan
aFnan
aFnan
aFnan
aFnan
aFnan
aFnan
aFnan
aFnan
aFnan
aFnan
aFnan
aFnan
aFnan
aFnan
aFnan
aFnan
aFnan
aFnan
aFnan
aFnan
aFnan
aFnan
aFnan
aFnan
aFnan
aFnan
aFnan
aFnan
aFnan
aFnan
aFnan
aFnan
aFnan
aFnan
aFnan
aFnan
aFnan
aFnan
aFnan
aFnan
aFnan
aFnan
aFnan
aFnan
aFnan
aFnan
aFnan
asg465
g0
(g466
g2
Ntp1008
Rp1009
(dp1010
g470
Nsg626
g1005
sg474
I00
sg475
I00
sg476
Nsbsg478
g1002
sg472
S'Gene_R1'
p1011
sbag0
(g300
g2
Ntp1012
Rp1013
(dp1014
g304
I00
sg305
g4
sg306
(lp1015
F19.8
aF21.9
aF23.6
aF24.5
aF26.3
aF20.4
aF20.4
aFnan
aFnan
aFnan
aFnan
aFnan
aFnan
aFnan
aFnan
aFnan
aFnan
aFnan
aFnan
aFnan
aFnan
aFnan
aFnan
aFnan
aFnan
aFnan
aFnan
aFnan
aFnan
aFnan
aFnan
aFnan
aFnan
aFnan
aFnan
aFnan
aFnan
aFnan
aFnan
aFnan
aFnan
aFnan
aFnan
aFnan
aFnan
aFnan
aFnan
aFnan
aFnan
aFnan
aFnan
aFnan
aFnan
aFnan
aFnan
aFnan
aFnan
aFnan
aFnan
aFnan
aFnan
aFnan
aFnan
aFnan
asg465
g0
(g466
g2
Ntp1016
Rp1017
(dp1018
g470
Nsg626
g1013
sg474
I00
sg475
I00
sg476
Nsbsg478
g1002
sg472
S'Gene_R2'
p1019
sbag0
(g300
g2
Ntp1020
Rp1021
(dp1022
g304
I00
sg305
g4
sg306
(lp1023
F0.04123
aF0.00729
aF0.03847
aF0.01675
aF0.01031
aF0.01563
aF0.01563
aFnan
aFnan
aFnan
aFnan
aFnan
aFnan
aFnan
aFnan
aFnan
aFnan
aFnan
aFnan
aFnan
aFnan
aFnan
aFnan
aFnan
aFnan
aFnan
aFnan
aFnan
aFnan
aFnan
aFnan
aFnan
aFnan
aFnan
aFnan
aFnan
aFnan
aFnan
aFnan
aFnan
aFnan
aFnan
aFnan
aFnan
aFnan
aFnan
aFnan
aFnan
aFnan
aFnan
aFnan
aFnan
aFnan
aFnan
aFnan
aFnan
aFnan
aFnan
aFnan
aFnan
aFnan
aFnan
aFnan
aFnan
asg465
g0
(g466
g2
Ntp1024
Rp1025
(dp1026
g470
VExprR1 = roundValues(2**(Gene_R1 - Gene_I),5)
p1027
sg472
VExprR1
p1028
sg474
I01
sg475
I00
sg476
VroundValues(2**(Gene_R1 - Gene_I),5)
p1029
sbsg478
g0
(g479
g480
(g481
g482
tp1030
tp1031
Rp1032
sg472
g1028
sbag0
(g300
g2
Ntp1033
Rp1034
(dp1035
g304
I00
sg305
g4
sg306
(lp1036
F0.11663
aF0.02916
aF0.125
aF0.02538
aF0.07179
aF0.04737
aF0.04737
aFnan
aFnan
aFnan
aFnan
aFnan
aFnan
aFnan
aFnan
aFnan
aFnan
aFnan
aFnan
aFnan
aFnan
aFnan
aFnan
aFnan
aFnan
aFnan
aFnan
aFnan
aFnan
aFnan
aFnan
aFnan
aFnan
aFnan
aFnan
aFnan
aFnan
aFnan
aFnan
aFnan
aFnan
aFnan
aFnan
aFnan
aFnan
aFnan
aFnan
aFnan
aFnan
aFnan
aFnan
aFnan
aFnan
aFnan
aFnan
aFnan
aFnan
aFnan
aFnan
aFnan
aFnan
aFnan
aFnan
aFnan
asg465
g0
(g466
g2
Ntp1037
Rp1038
(dp1039
g470
VExprR2 = roundValues(2**(Gene_R2 - Gene_I),5)
p1040
sg472
VExprR2
p1041
sg474
I01
sg475
I00
sg476
VroundValues(2**(Gene_R2 - Gene_I),5)
p1042
sbsg478
g0
(g479
g480
(g481
g482
tp1043
tp1044
Rp1045
sg472
g1041
sbag0
(g300
g2
Ntp1046
Rp1047
(dp1048
g304
I00
sg305
g4
sg306
(lp1049
F0.069
aF0.015
aF0.069
aF0.021
aF0.027
aF0.027
aF0.027
aFnan
aFnan
aFnan
aFnan
aFnan
aFnan
aFnan
aFnan
aFnan
aFnan
aFnan
aFnan
aFnan
aFnan
aFnan
aFnan
aFnan
aFnan
aFnan
aFnan
aFnan
aFnan
aFnan
aFnan
aFnan
aFnan
aFnan
aFnan
aFnan
aFnan
aFnan
aFnan
aFnan
aFnan
aFnan
aFnan
aFnan
aFnan
aFnan
aFnan
aFnan
aFnan
aFnan
aFnan
aFnan
aFnan
aFnan
aFnan
aFnan
aFnan
aFnan
aFnan
aFnan
aFnan
aFnan
aFnan
aFnan
asg465
g0
(g466
g2
Ntp1050
Rp1051
(dp1052
g470
VGeoMean = roundValues(np.sqrt(ExprR1*ExprR2), 3)
p1053
sg472
VGeoMean
p1054
sg474
I01
sg475
I00
sg476
VroundValues(np.sqrt(ExprR1*ExprR2), 3)
p1055
sbsg478
g0
(g479
g480
(g481
g482
tp1056
tp1057
Rp1058
sg472
g1054
sbag0
(g300
g2
Ntp1059
Rp1060
(dp1061
g304
I00
sg305
g4
sg306
(lp1062
I1
aI1
aI1
aI1
aI1
aI1
aI1
aI1
aI1
aI1
aI1
aI1
aI1
aI2
aI2
aI2
aI3
aI3
aI3
aI1
aI1
aI1
aI2
aI2
aI2
aI3
aI3
aI3
aI1
aI1
aI1
aI2
aI2
aI2
aI3
aI3
aI3
aI1
aI1
aI1
aI1
aI1
aI1
aI1
aI1
aI1
aI1
aI1
aI1
aI1
aI1
aI1
aI1
aI1
aI1
aI1
aI1
aI1
aI1
aI1
aI1
aI1
aI1
aI1
asg465
g0
(g466
g2
Ntp1063
Rp1064
(dp1065
g470
Nsg472
S'BRpl'
p1066
sg474
I00
sg475
I00
sg476
Nsbsg478
g0
(g479
g480
(g481
g482
tp1067
tp1068
Rp1069
sg472
g1066
sbag0
(g300
g2
Ntp1070
Rp1071
(dp1072
g304
I00
sg305
g4
sg306
(lp1073
F23.0
aF22.86
aF22.8
aF23.0
aF18.24
aF18.22
aF18.36
aF19.72
aF19.75
aF20.01
aF26.68
aF27.13
aF27.21
aF26.76
aF26.71
aF26.19
aF29.98
aF30.12
aF29.41
aF19.92
aF19.85
aF20.0
aF21.86
aF22.09
aF21.84
aF23.89
aF23.54
aF24.27
aF22.18
aF21.71
aF21.75
aF23.88
aF23.42
aF23.63
aF24.59
aF24.61
aF24.34
aF29.95
aF30.45
aF29.88
aF23.22
aF23.8
aF23.49
aF26.37
aF26.36
aF26.17
aF24.8
aF24.97
aF24.63
aF18.91
aF18.78
aF18.8
aF20.5
aF20.47
aF20.28
aF24.8
aF24.97
aF24.63
aF18.91
aF18.78
aF18.8
aF20.5
aF20.47
aF20.28
asg465
g0
(g466
g2
Ntp1074
Rp1075
(dp1076
g470
Nsg472
S'Ct'
p1077
sg474
I00
sg475
I00
sg476
Nsbsg478
g1069
sg472
g1077
sbag0
(g300
g2
Ntp1078
Rp1079
(dp1080
g304
I00
sg305
g4
sg306
(lp1081
F0.8371
aF0.891
aF0.8956
aF0.8671
aF0.8266
aF0.8343
aF0.8496
aF0.8157
aF0.8543
aF0.8208
aF0.9399
aF0.8296
aF0.8361
aF0.8039
aF0.8399
aF0.7935
aF0.8264
aF0.7974
aF0.8252
aF0.9179
aF0.9783
aF0.8971
aF0.8957
aF0.8287
aF0.8387
aF0.8746
aF0.8493
aF0.8349
aF0.7857
aF0.8427
aF0.8637
aF0.8281
aF0.8203
aF0.8288
aF0.8138
aF0.8242
aF0.804
aF0.8418
aF0.7959
aF0.8071
aF0.7701
aF0.8746
aF0.8139
aF0.7795
aF0.7676
aF0.7947
aF0.8513
aF0.8485
aF0.8401
aF0.8715
aF0.8977
aF0.856
aF0.8179
aF0.8173
aF0.7894
aF0.8513
aF0.8485
aF0.8401
aF0.8715
aF0.8977
aF0.856
aF0.8179
aF0.8173
aF0.7894
asg465
g0
(g466
g2
Ntp1082
Rp1083
(dp1084
g470
Nsg472
S'Eff'
p1085
sg474
I00
sg475
I00
sg476
Nsbsg478
g1069
sg472
g1085
sbag0
(g300
g2
Ntp1086
Rp1087
(dp1088
g304
I00
sg305
g4
sg306
(lp1089
g319
ag319
ag319
ag319
aVR1
p1090
aVR1
p1091
aVR1
p1092
aVR2
p1093
aVR2
p1094
aVR2
p1095
ag319
ag319
ag319
ag319
ag319
ag319
ag319
ag319
ag319
aVR1
p1096
aVR1
p1097
aVR1
p1098
aVR1
p1099
aVR1
p1100
aVR1
p1101
aVR1
p1102
aVR1
p1103
aVR1
p1104
aVR2
p1105
aVR2
p1106
aVR2
p1107
aVR2
p1108
aVR2
p1109
aVR2
p1110
aVR2
p1111
aVR2
p1112
aVR2
p1113
ag319
ag319
ag319
aVR1
p1114
aVR1
p1115
aVR1
p1116
aVR2
p1117
aVR2
p1118
aVR2
p1119
ag319
ag319
ag319
aVR1
p1120
aVR1
p1121
aVR1
p1122
aVR2
p1123
aVR2
p1124
aVR2
p1125
ag319
ag319
ag319
aVR1
p1126
aVR1
p1127
aVR1
p1128
aVR2
p1129
aVR2
p1130
aVR2
p1131
asg465
g0
(g466
g2
Ntp1132
Rp1133
(dp1134
g470
Nsg472
S'RunType'
p1135
sg474
I00
sg475
I00
sg476
Nsbsg478
g1069
sg472
g1135
sbag0
(g300
g2
Ntp1136
Rp1137
(dp1138
g304
I00
sg305
g4
sg306
(lp1139
Va
p1140
aVb
p1141
aVc
p1142
aVd
p1143
ag1140
ag1141
ag1142
ag1140
ag1141
ag1142
ag1140
ag1141
ag1142
ag1140
ag1141
ag1142
ag1140
ag1141
ag1142
ag1140
ag1141
ag1142
ag1140
ag1141
ag1142
ag1140
ag1141
ag1142
ag1140
ag1141
ag1142
ag1140
ag1141
ag1142
ag1140
ag1141
ag1142
ag1140
ag1141
ag1142
ag1140
ag1141
ag1142
ag1140
ag1141
ag1142
ag1140
ag1141
ag1142
ag1140
ag1141
ag1142
ag1140
ag1141
ag1142
ag1140
ag1141
ag1142
ag1140
ag1141
ag1142
ag1140
ag1141
ag1142
asg465
g0
(g466
g2
Ntp1144
Rp1145
(dp1146
g470
Nsg472
S'TRpl'
p1147
sg474
I00
sg475
I00
sg476
Nsbsg478
g1069
sg472
g1147
sbag0
(g300
g2
Ntp1148
Rp1149
(dp1150
g304
I00
sg305
g4
sg306
(lp1151
I0
aI0
aI0
aI0
aI0
aI0
aI0
aI0
aI0
aI0
aI1
aI1
aI1
aI1
aI1
aI1
aI1
aI1
aI1
aI1
aI1
aI1
aI1
aI1
aI1
aI1
aI1
aI1
aI1
aI1
aI1
aI1
aI1
aI1
aI1
aI1
aI1
aI2
aI2
aI2
aI2
aI2
aI2
aI2
aI2
aI2
aI3
aI3
aI3
aI3
aI3
aI3
aI3
aI3
aI3
aI4
aI4
aI4
aI4
aI4
aI4
aI4
aI4
aI4
asg465
g0
(g466
g2
Ntp1152
Rp1153
(dp1154
g470
Nsg472
S'Treatment'
p1155
sg474
I00
sg475
I00
sg476
Nsbsg478
g1069
sg472
g1155
sbasS'_is_evaluate_formulas'
p1156
I01
sS'_prologue'
p1157
g0
(g466
g2
Ntp1158
Rp1159
(dp1160
g470
V# Prologue\u000aimport math as mt\u000aimport numpy as np\u000afrom os import listdir\u000afrom os.path import isfile, join\u000aimport pandas as pd\u000aimport scipy as sp\u000afrom numpy import nan  # Must follow sympy import \u000a\u000axlsx_path =   '/mnt/hgfs/josephhellerstein/home/Technical/SciSheets/CaseStudies/Kristen/workbooks/data.xlsx'\u000agene = ParmValues[0]\u000arun = ParmValues[1] == 'True'\u000ashow_raw = ParmValues[2] == 'True'\u000ashow_block1 = ParmValues[3] == 'True'\u000ashow_block2 = ParmValues[4] == 'True'\u000ashow_block3 = ParmValues[5] == 'True'\u000ashow_params = ParmValues[8] == 'True'\u000a#show_params = True\u000amax_std  = float(ParmValues[6])\u000amin_eff = float(ParmValues[7])\u000aworksheet = gene + "-I"\u000as.getTable().setIsEvaluateFormulas(run)\u000as.setColumnVisibility()\u000as.setColumnVisibility(['Groups', 'GroupedEff', 'GroupedCt', 'StdFilteredGroupedCt', 'MeanCt',\u000a    'StdCt'], is_visible=show_block1)\u000as.setColumnVisibility(['BioRuns', 'Gene_I', 'Gene_R1', 'Gene_R2', 'ExprR1', 'ExprR2', \u000a    'GeoMean'], is_visible=show_block2)\u000as.setColumnVisibility(['GeoGroups', 'GroupedGeoMeans', 'NrmlGeoGroupedMeans', \u000a    'MeanNrmlGeoGroups', 'StdNrmlGeoGroups'], is_visible=show_block3)\u000aif False:\u000a  Groups = []\u000a  GroupedCt = []\u000a  GroupedEff = []\u000a  MeanCt = []\u000a  Imp = []\u000a  s.deleteColumn('Ct')\u000a  s.deleteColumn('RunType')\u000a  s.deleteColumn('BRpl')\u000a  s.deleteColumn('TRpl')\u000a  s.deleteColumn('Treatment')\u000a  s.deleteColumn('Eff')\u000aif run:\u000a  importExcelToTable(s, xlsx_path, worksheet=worksheet,\u000a      column_position='ParmValues',\u000a      names=['Treatment', 'RunType', 'BRpl', 'TRpl', 'Eff', 'Ct'])\u000as.setColumnVisibility(['BRpl', 'Ct', 'Eff', 'RunType', 'TRpl', 'Treatment'], is_visible=show_raw)\u000as.setColumnVisibility(['ParmNames', 'ParmValues'], show_params)
p1161
sg472
VSingleGene
p1162
sg474
I00
sg475
I00
sg476
V# Prologue\u000aimport math as mt\u000aimport numpy as np\u000afrom os import listdir\u000afrom os.path import isfile, join\u000aimport pandas as pd\u000aimport scipy as sp\u000afrom numpy import nan  # Must follow sympy import \u000a\u000axlsx_path =   '/mnt/hgfs/josephhellerstein/home/Technical/SciSheets/CaseStudies/Kristen/workbooks/data.xlsx'\u000agene = ParmValues[0]\u000arun = ParmValues[1] == 'True'\u000ashow_raw = ParmValues[2] == 'True'\u000ashow_block1 = ParmValues[3] == 'True'\u000ashow_block2 = ParmValues[4] == 'True'\u000ashow_block3 = ParmValues[5] == 'True'\u000ashow_params = ParmValues[8] == 'True'\u000a#show_params = True\u000amax_std  = float(ParmValues[6])\u000amin_eff = float(ParmValues[7])\u000aworksheet = gene + "-I"\u000as.getTable().setIsEvaluateFormulas(run)\u000as.setColumnVisibility()\u000as.setColumnVisibility(['Groups', 'GroupedEff', 'GroupedCt', 'StdFilteredGroupedCt', 'MeanCt',\u000a    'StdCt'], is_visible=show_block1)\u000as.setColumnVisibility(['BioRuns', 'Gene_I', 'Gene_R1', 'Gene_R2', 'ExprR1', 'ExprR2', \u000a    'GeoMean'], is_visible=show_block2)\u000as.setColumnVisibility(['GeoGroups', 'GroupedGeoMeans', 'NrmlGeoGroupedMeans', \u000a    'MeanNrmlGeoGroups', 'StdNrmlGeoGroups'], is_visible=show_block3)\u000aif False:\u000a  Groups = []\u000a  GroupedCt = []\u000a  GroupedEff = []\u000a  MeanCt = []\u000a  Imp = []\u000a  s.deleteColumn('Ct')\u000a  s.deleteColumn('RunType')\u000a  s.deleteColumn('BRpl')\u000a  s.deleteColumn('TRpl')\u000a  s.deleteColumn('Treatment')\u000a  s.deleteColumn('Eff')\u000aif run:\u000a  importExcelToTable(s, xlsx_path, worksheet=worksheet,\u000a      column_position='ParmValues',\u000a      names=['Treatment', 'RunType', 'BRpl', 'TRpl', 'Eff', 'Ct'])\u000as.setColumnVisibility(['BRpl', 'Ct', 'Eff', 'RunType', 'TRpl', 'Treatment'], is_visible=show_raw)\u000as.setColumnVisibility(['ParmNames', 'ParmValues'], show_params)
p1163
sbsS'_epilogue'
p1164
g0
(g466
g2
Ntp1165
Rp1166
(dp1167
g470
V# Epilogue\u000aif run:\u000a  worksheet = "%s-O" % gene\u000a  exportTableToExcel(s, xlsx_path, worksheet=worksheet, columns=['GeoGroups',  \u000a      'MeanNrmlGeoGroups', 'StdNrmlGeoGroups'])\u000a
p1168
sg472
g1162
sg474
I00
sg475
I00
sg476
V# Epilogue\u000aif run:\u000a  worksheet = "%s-O" % gene\u000a  exportTableToExcel(s, xlsx_path, worksheet=worksheet, columns=['GeoGroups',  \u000a      'MeanNrmlGeoGroups', 'StdNrmlGeoGroups'])\u000a
p1169
sbsg472
g1162
sS'_columns'
p1170
(lp1171
g0
(g300
g2
Ntp1172
Rp1173
(dp1174
g304
I01
sg305
g4
sg306
(lp1175
S'1'
p1176
aS'2'
p1177
aS'3'
p1178
aS'4'
p1179
aS'5'
p1180
aS'6'
p1181
aS'7'
p1182
aS'8'
p1183
aS'9'
p1184
aS'10'
p1185
aS'11'
p1186
aS'12'
p1187
aS'13'
p1188
aS'14'
p1189
aS'15'
p1190
aS'16'
p1191
aS'17'
p1192
aS'18'
p1193
aS'19'
p1194
aS'20'
p1195
aS'21'
p1196
aS'22'
p1197
aS'23'
p1198
aS'24'
p1199
aS'25'
p1200
aS'26'
p1201
aS'27'
p1202
aS'28'
p1203
aS'29'
p1204
aS'30'
p1205
aS'31'
p1206
aS'32'
p1207
aS'33'
p1208
aS'34'
p1209
aS'35'
p1210
aS'36'
p1211
aS'37'
p1212
aS'38'
p1213
aS'39'
p1214
aS'40'
p1215
aS'41'
p1216
aS'42'
p1217
aS'43'
p1218
aS'44'
p1219
aS'45'
p1220
aS'46'
p1221
aS'47'
p1222
aS'48'
p1223
aS'49'
p1224
aS'50'
p1225
aS'51'
p1226
aS'52'
p1227
aS'53'
p1228
aS'54'
p1229
aS'55'
p1230
aS'56'
p1231
aS'57'
p1232
aS'58'
p1233
aS'59'
p1234
aS'60'
p1235
aS'61'
p1236
aS'62'
p1237
aS'63'
p1238
aS'64'
p1239
asg465
g0
(g466
g2
Ntp1240
Rp1241
(dp1242
g470
Nsg626
g1173
sg474
I00
sg475
I00
sg476
Nsbsg478
g0
(g479
g480
(g481
g482
tp1243
tp1244
Rp1245
sg472
S'row'
p1246
sbag0
(g300
g2
Ntp1247
Rp1248
(dp1249
g304
I00
sg305
g4
sg306
(lp1250
Vgene
p1251
aVrun
p1252
aVshow_raw
p1253
aVshow_block1
p1254
aVshow_block2
p1255
aVshow_block3
p1256
aVmax_std
p1257
aVmin_eff
p1258
aVshow_params
p1259
aVnan
p1260
aVnan
p1261
aVnan
p1262
aVnan
p1263
aVnan
p1264
aVnan
p1265
aVnan
p1266
aVnan
p1267
aVnan
p1268
aVnan
p1269
aVnan
p1270
aVnan
p1271
aVnan
p1272
aVnan
p1273
aVnan
p1274
aVnan
p1275
aVnan
p1276
aVnan
p1277
aVnan
p1278
aVnan
p1279
aVnan
p1280
aVnan
p1281
aVnan
p1282
aVnan
p1283
aVnan
p1284
aVnan
p1285
aVnan
p1286
aVnan
p1287
aVnan
p1288
aVnan
p1289
aVnan
p1290
aVnan
p1291
aVnan
p1292
aVnan
p1293
aVnan
p1294
aVnan
p1295
aVnan
p1296
aVnan
p1297
aVnan
p1298
aVnan
p1299
aVnan
p1300
aVnan
p1301
aVnan
p1302
aVnan
p1303
aVnan
p1304
aNaNaNaNaNaNaNaNaNaNasg465
g0
(g466
g2
Ntp1305
Rp1306
(dp1307
g470
Nsg626
g1248
sg474
I00
sg475
I00
sg476
Nsbsg478
g0
(g479
g480
(g481
g482
tp1308
tp1309
Rp1310
sg472
VParmNames
p1311
sbag0
(g300
g2
Ntp1312
Rp1313
(dp1314
g304
I00
sg305
g4
sg306
(lp1315
VGene1
p1316
aVTrue
p1317
aVFalse
p1318
aVFalse
p1319
aVFalse
p1320
aVTrue
p1321
aF0.5
aV0.7
p1322
aVTrue
p1323
aV
p1324
aVnan
p1325
aVnan
p1326
aVnan
p1327
aVnan
p1328
aVnan
p1329
aVnan
p1330
aVnan
p1331
aVnan
p1332
aVnan
p1333
aVnan
p1334
aVnan
p1335
aVnan
p1336
aVnan
p1337
aVnan
p1338
aVnan
p1339
aVnan
p1340
aVnan
p1341
aVnan
p1342
aVnan
p1343
aVnan
p1344
aVnan
p1345
aVnan
p1346
aVnan
p1347
aVnan
p1348
aVnan
p1349
aVnan
p1350
aVnan
p1351
aVnan
p1352
aVnan
p1353
aVnan
p1354
aVnan
p1355
aVnan
p1356
aVnan
p1357
aVnan
p1358
aVnan
p1359
aVnan
p1360
aVnan
p1361
aVnan
p1362
aVnan
p1363
aVnan
p1364
aVnan
p1365
aVnan
p1366
aVnan
p1367
aVnan
p1368
aNaNaNaNaNaNaNaNaNaNasg465
g0
(g466
g2
Ntp1369
Rp1370
(dp1371
g470
Nsg472
VParmValues
p1372
sg474
I00
sg475
I00
sg476
Nsbsg478
g0
(g479
g480
(g481
g482
tp1373
tp1374
Rp1375
sg472
g1372
sbag1149
ag1087
ag1060
ag1137
ag1079
ag1071
ag302
ag487
ag632
ag769
ag908
ag921
ag932
ag994
ag1005
ag1013
ag1021
ag1034
ag1047
ag0
(g300
g2
Ntp1376
Rp1377
(dp1378
g304
I00
sg305
g4
sg306
(lp1379
(lp1380
g309
(g313
S'\x00\x00\x00\x00\x00\x00\x00\x00'
p1381
tp1382
Rp1383
aa(lp1384
g309
(g313
S'\x01\x00\x00\x00\x00\x00\x00\x00'
p1385
tp1386
Rp1387
aa(lp1388
g309
(g313
S'\x02\x00\x00\x00\x00\x00\x00\x00'
p1389
tp1390
Rp1391
aa(lp1392
g309
(g313
S'\x03\x00\x00\x00\x00\x00\x00\x00'
p1393
tp1394
Rp1395
aa(lp1396
g309
(g313
S'\x04\x00\x00\x00\x00\x00\x00\x00'
p1397
tp1398
Rp1399
aaNaNaNaNaNaNaNaNaNaNaNaNaNaNaNaNaNaNaNaNaNaNaNaNaNaNaNaNaNaNaNaNaNaNaNaNaNaNaNaNaNaNaNaNaNaNaNaNaNaNaNaNaNaNaNaNaNaNaNasg465
g0
(g466
g2
Ntp1400
Rp1401
(dp1402
g470
Vcat_vals = [br[0] for br in pruneNulls(BioRuns)]\u000aclean_geo = [x for x in GeoMean if x is not None]\u000aGeoGroups, groupedGeoMeans = groupBy(cat_vals, clean_geo)\u000aGroupedGeoMeans = roundValues(groupedGeoMeans, 3)\u000aGeoGroups = [[x] for x in GeoGroups]
p1403
sg472
VGeoGroups
p1404
sg474
I00
sg475
I00
sg476
Vcat_vals = [br[0] for br in pruneNulls(BioRuns)]\u000aclean_geo = [x for x in GeoMean if x is not None]\u000aGeoGroups, groupedGeoMeans = groupBy(cat_vals, clean_geo)\u000aGroupedGeoMeans = roundValues(groupedGeoMeans, 3)\u000aGeoGroups = [[x] for x in GeoGroups]
p1405
sbsg478
g0
(g479
g480
(g481
g482
tp1406
tp1407
Rp1408
sg472
g1404
sbag0
(g300
g2
Ntp1409
Rp1410
(dp1411
g304
I00
sg305
g4
sg306
(lp1412
g490
(g481
(I0
tp1413
g492
tp1414
Rp1415
(I1
(I1
tp1416
g498
I00
S'D\x8bl\xe7\xfb\xa9\xb1?'
p1417
tp1418
bag490
(g481
(I0
tp1419
g492
tp1420
Rp1421
(I1
(I3
tp1422
g498
I00
S'\xb8\x1e\x85\xebQ\xb8\x8e?D\x8bl\xe7\xfb\xa9\xb1?\x1b/\xdd$\x06\x81\x95?'
p1423
tp1424
bag490
(g481
(I0
tp1425
g492
tp1426
Rp1427
(I1
(I1
tp1428
g498
I00
S'\xd9\xce\xf7S\xe3\xa5\x9b?'
p1429
tp1430
bag490
(g481
(I0
tp1431
g492
tp1432
Rp1433
(I1
(I1
tp1434
g498
I00
S'\xd9\xce\xf7S\xe3\xa5\x9b?'
p1435
tp1436
bag490
(g481
(I0
tp1437
g492
tp1438
Rp1439
(I1
(I1
tp1440
g498
I00
S'\xd9\xce\xf7S\xe3\xa5\x9b?'
p1441
tp1442
baNaNaNaNaNaNaNaNaNaNaNaNaNaNaNaNaNaNaNaNaNaNaNaNaNaNaNaNaNaNaNaNaNaNaNaNaNaNaNaNaNaNaNaNaNaNaNaNaNaNaNaNaNaNaNaNaNaNaNasg465
g0
(g466
g2
Ntp1443
Rp1444
(dp1445
g470
Nsg626
g1410
sg474
I00
sg475
I00
sg476
Nsbsg478
g0
(g479
g480
(g481
g482
tp1446
tp1447
Rp1448
sg472
VGroupedGeoMeans
p1449
sbag0
(g300
g2
Ntp1450
Rp1451
(dp1452
g304
I00
sg305
g4
sg306
(lp1453
g490
(g481
(I0
tp1454
g492
tp1455
Rp1456
(I1
(I1
tp1457
g498
I00
S'\x00\x00\x00\x00\x00\x00\xf0?'
p1458
tp1459
bag490
(g481
(I0
tp1460
g492
tp1461
Rp1462
(I1
(I3
tp1463
g498
I00
S'-\xb2\x9d\xef\xa7\xc6\xcb?\x00\x00\x00\x00\x00\x00\xf0?\xdb\xf9~j\xbct\xd3?'
p1464
tp1465
bag490
(g481
(I0
tp1466
g492
tp1467
Rp1468
(I1
(I1
tp1469
g498
I00
S'\xa0\x1a/\xdd$\x06\xd9?'
p1470
tp1471
bag490
(g481
(I0
tp1472
g492
tp1473
Rp1474
(I1
(I1
tp1475
g498
I00
S'\xa0\x1a/\xdd$\x06\xd9?'
p1476
tp1477
bag490
(g481
(I0
tp1478
g492
tp1479
Rp1480
(I1
(I1
tp1481
g498
I00
S'\xa0\x1a/\xdd$\x06\xd9?'
p1482
tp1483
baNaNaNaNaNaNaNaNaNaNaNaNaNaNaNaNaNaNaNaNaNaNaNaNaNaNaNaNaNaNaNaNaNaNaNaNaNaNaNaNaNaNaNaNaNaNaNaNaNaNaNaNaNaNaNaNaNaNaNasg465
g0
(g466
g2
Ntp1484
Rp1485
(dp1486
g470
Vref = np.mean(GroupedGeoMeans[0])\u000aNrmlGeoGroupedMeans = [ [x/ref for x in g] for g in GroupedGeoMeans if g is not None]  \u000aNrmlGeoGroupedMeans = roundValues(NrmlGeoGroupedMeans, 3)
p1487
sg472
VNrmlGeoGroupedMeans
p1488
sg474
I00
sg475
I00
sg476
Vref = np.mean(GroupedGeoMeans[0])\u000aNrmlGeoGroupedMeans = [ [x/ref for x in g] for g in GroupedGeoMeans if g is not None]  \u000aNrmlGeoGroupedMeans = roundValues(NrmlGeoGroupedMeans, 3)
p1489
sbsg478
g0
(g479
g480
(g481
g482
tp1490
tp1491
Rp1492
sg472
g1488
sbag0
(g300
g2
Ntp1493
Rp1494
(dp1495
g304
I00
sg305
g4
sg306
(lp1496
F1.0
aF0.507
aF0.391
aF0.391
aF0.391
aFnan
aFnan
aFnan
aFnan
aFnan
aFnan
aFnan
aFnan
aFnan
aFnan
aFnan
aFnan
aFnan
aFnan
aFnan
aFnan
aFnan
aFnan
aFnan
aFnan
aFnan
aFnan
aFnan
aFnan
aFnan
aFnan
aFnan
aFnan
aFnan
aFnan
aFnan
aFnan
aFnan
aFnan
aFnan
aFnan
aFnan
aFnan
aFnan
aFnan
aFnan
aFnan
aFnan
aFnan
aFnan
aFnan
aFnan
aFnan
aFnan
aFnan
aFnan
aFnan
aFnan
aFnan
aFnan
aFnan
aFnan
aFnan
aFnan
asg465
g0
(g466
g2
Ntp1497
Rp1498
(dp1499
g470
VMeanNrmlGeoGroups = [round(np.mean(g), 3) for g in NrmlGeoGroupedMeans]
p1500
sg472
VMeanNrmlGeoGroups
p1501
sg474
I01
sg475
I00
sg476
V[round(np.mean(g), 3) for g in NrmlGeoGroupedMeans]
p1502
sbsg478
g0
(g479
g480
(g481
g482
tp1503
tp1504
Rp1505
sg472
g1501
sbag0
(g300
g2
Ntp1506
Rp1507
(dp1508
g304
I00
sg305
g4
sg306
(lp1509
Fnan
aF0.248
aFnan
aFnan
aFnan
aFnan
aFnan
aFnan
aFnan
aFnan
aFnan
aFnan
aFnan
aFnan
aFnan
aFnan
aFnan
aFnan
aFnan
aFnan
aFnan
aFnan
aFnan
aFnan
aFnan
aFnan
aFnan
aFnan
aFnan
aFnan
aFnan
aFnan
aFnan
aFnan
aFnan
aFnan
aFnan
aFnan
aFnan
aFnan
aFnan
aFnan
aFnan
aFnan
aFnan
aFnan
aFnan
aFnan
aFnan
aFnan
aFnan
aFnan
aFnan
aFnan
aFnan
aFnan
aFnan
aFnan
aFnan
aFnan
aFnan
aFnan
aFnan
aFnan
asg465
g0
(g466
g2
Ntp1510
Rp1511
(dp1512
g470
VStdNrmlGeoGroups = [round(np.std(g, ddof=1)/np.sqrt(len(g)), 3) for g in NrmlGeoGroupedMeans]\u000a
p1513
sg472
VStdNrmlGeoGroups
p1514
sg474
I01
sg475
I00
sg476
V[round(np.std(g, ddof=1)/np.sqrt(len(g)), 3) for g in NrmlGeoGroupedMeans]\u000a
p1515
sbsg478
g0
(g479
g480
(g481
g482
tp1516
tp1517
Rp1518
sg472
g1514
sbasg293
V/home/ubuntu/SciSheets/mysite/user/guest/tables/kristen_single_gene.pcl
p1519
sb.