ccopy_reg
_reconstructor
p0
(cscisheets.ui.dt_table
DTTable
p1
c__builtin__
object
p2
Ntp3
Rp4
(dp5
S'_versioned_file'
p6
g0
(cmysite.helpers.versioned_file
VersionedFile
p7
g2
Ntp8
Rp9
(dp10
S'_redo_stack'
p11
g0
(cmysite.helpers.file_stack
FileStack
p12
g2
Ntp13
Rp14
(dp15
S'_dirpath'
p16
S'/home/ubuntu/SciSheets/mysite/user/guest/tables/backup'
p17
sS'_max_depth'
p18
I5
sS'_filename_pfx'
p19
Vkristen_single_gene.r
p20
sbsS'_max_versions'
p21
I5
sS'_undo_stack'
p22
g0
(g12
g2
Ntp23
Rp24
(dp25
g16
g17
sg18
I5
sg19
Vkristen_single_gene.u
p26
sbsS'_checkpoint_history'
p27
(lp28
VCell/Update
p29
asS'_filepath'
p30
V/home/ubuntu/SciSheets/mysite/user/guest/tables/kristen_single_gene.pcl
p31
sS'_backup_dir'
p32
g17
sbsS'_hidden_columns'
p33
(lp34
g0
(cscisheets.core.column
Column
p35
g2
Ntp36
Rp37
(dp38
S'_asis'
p39
I00
sS'_owning_table'
p40
g4
sS'_cells'
p41
(lp42
VSEP1 2012 P17F4 a
p43
aVSEP1 2012 P17F4 b
p44
aVSEP1 2012 P17F4 c
p45
aVSEP1 2012 P17F5 a
p46
aVSEP1 2012 P17F5 b
p47
aVSEP1 2012 P17F5 c
p48
aVSEP1 2012 P1F3 SEP1a
p49
aVSEP1 2012 P1F3 SEP1b
p50
aVSEP1 2012 P1F3 SEP1c
p51
aVSEP1-2 2012 P11aF2 a
p52
aVSEP1-2 2012 P11aF2 b
p53
aVSEP1-2 2012 P11aF2 c
p54
aVSEP1-3 2012 P15F2 a
p55
aVSEP1-3 2012 P15F2 b
p56
aVSEP1-3 2012 P15F2 c
p57
aVuntreated 2012 P12F1 SEP1 1:2a
p58
aVuntreated 2012 P12F1 SEP1 1:2b
p59
aVuntreated 2012 P12F1 SEP1 1:2c
p60
aVSEP1 2012 P17F4 ACTa
p61
aVSEP1 2012 P17F4 ACTb
p62
aVSEP1 2012 P17F4 ACTc
p63
aVSEP1 2012 P17F5 ACTa
p64
aVSEP1 2012 P17F5 ACTb
p65
aVSEP1 2012 P17F5 ACTc
p66
aVSEP1 2012 P1F3 ACTa
p67
aVSEP1 2012 P1F3 ACTb
p68
aVSEP1 2012 P1F3 ACTc
p69
aVSEP1-2 2012 P11aF2 ACTa
p70
aVSEP1-2 2012 P11aF2 ACTb
p71
aVSEP1-2 2012 P11aF2 ACTc
p72
aVSEP1-3 2012 P15F2 ACTa
p73
aVSEP1-3 2012 P15F2 ACTb
p74
aVSEP1-3 2012 P15F2 ACTc
p75
aVuntreated 2012 P12F1 ACTa
p76
aVuntreated 2012 P12F1 ACTb
p77
aVuntreated 2012 P12F1 ACTc
p78
aVSEP1 2012 P17F4 EEF1a
p79
aVSEP1 2012 P17F4 EEF1b
p80
aVSEP1 2012 P17F4 EEF1c
p81
aVSEP1 2012 P17F5 EEF1a
p82
aVSEP1 2012 P17F5 EEF1b
p83
aVSEP1 2012 P17F5 EEF1c
p84
aVSEP1 2012 P1F3 EEF1a
p85
aVSEP1 2012 P1F3 EEF1b
p86
aVSEP1 2012 P1F3 EEF1c
p87
aVSEP1-2 2012 P11aF2 EEF1a
p88
aVSEP1-2 2012 P11aF2 EEF1b
p89
aVSEP1-2 2012 P11aF2 EEF1c
p90
aVSEP1-3 2012 P15F2 EEF1a
p91
aVSEP1-3 2012 P15F2 EEF1b
p92
aVSEP1-3 2012 P15F2 EEF1c
p93
aVuntreated 2012 P12F1 EEF1a
p94
aVuntreated 2012 P12F1 EEF1b
p95
aVuntreated 2012 P12F1 EEF1c
p96
asS'_formula_statement'
p97
g0
(cscisheets.core.column
FormulaStatement
p98
g2
Ntp99
Rp100
(dp101
S'_statement'
p102
NsS'_column'
p103
g37
sS'_isExpression'
p104
I00
sS'_isStatement'
p105
I00
sS'_formula'
p106
NsbsS'_data_class'
p107
g0
(cscisheets.core.helpers.api_util
DataClass
p108
c__builtin__
tuple
p109
(cnumpy
ndarray
p110
cscisheets.core.helpers.api_util
makeArray
p111
tp112
tp113
Rp114
sS'_name'
p115
S'SmplName'
p116
sbag0
(g35
g2
Ntp117
Rp118
(dp119
g39
I00
sg40
g4
sg41
(lp120
I1
aI1
aI1
aI2
aI2
aI2
aI3
aI3
aI3
aI1
aI1
aI1
aI1
aI1
aI1
aI1
aI1
aI1
aI1
aI1
aI1
aI2
aI2
aI2
aI3
aI3
aI3
aI1
aI1
aI1
aI1
aI1
aI1
aI1
aI1
aI1
aI1
aI1
aI1
aI2
aI2
aI2
aI3
aI3
aI3
aI1
aI1
aI1
aI1
aI1
aI1
aI1
aI1
aI1
asg97
g0
(g98
g2
Ntp121
Rp122
(dp123
g102
Nsg103
g118
sg104
I00
sg105
I00
sg106
Nsbsg107
g114
sg115
S'BRpl'
p124
sbag0
(g35
g2
Ntp125
Rp126
(dp127
g39
I00
sg40
g4
sg41
(lp128
F22.42
aF22.5
aF22.44
aF21.92
aF22.03
aF21.94
aF23.4
aF23.47
aF23.41
aF23.48
aF23.31
aF23.45
aF18.82
aF18.97
aF18.92
aF18.31
aF18.29
aF18.15
aF19.92
aF19.85
aF20.0
aF21.86
aF22.09
aF21.84
aF23.89
aF23.54
aF24.27
aF23.22
aF23.8
aF23.49
aF18.91
aF18.78
aF18.8
aF18.24
aF18.22
aF18.36
aF22.18
aF21.71
aF21.75
aF23.88
aF23.42
aF23.63
aF24.59
aF24.61
aF24.34
aF26.37
aF26.36
aF26.17
aF20.5
aF20.47
aF20.28
aF19.72
aF19.75
aF20.01
asg97
g0
(g98
g2
Ntp129
Rp130
(dp131
g102
Nsg103
g126
sg104
I00
sg105
I00
sg106
Nsbsg107
g114
sg115
S'Ct'
p132
sbag0
(g35
g2
Ntp133
Rp134
(dp135
g39
I00
sg40
g4
sg41
(lp136
F0.8453
aF0.8426
aF0.8524
aF0.8658
aF0.7809
aF0.8512
aF0.8442
aF0.8357
aF0.7658
aF0.8352
aF0.7886
aF0.8105
aF0.876
aF0.8597
aF0.8873
aF0.919
aF0.9106
aF0.9129
aF0.9179
aF0.9783
aF0.8971
aF0.8957
aF0.8287
aF0.8387
aF0.8746
aF0.8493
aF0.8349
aF0.7701
aF0.8746
aF0.8139
aF0.8715
aF0.8977
aF0.856
aF0.8266
aF0.8343
aF0.8496
aF0.7857
aF0.8427
aF0.8637
aF0.8281
aF0.8203
aF0.8288
aF0.8138
aF0.8242
aF0.804
aF0.7795
aF0.7676
aF0.7947
aF0.8179
aF0.8173
aF0.7894
aF0.8157
aF0.8543
aF0.8208
asg97
g0
(g98
g2
Ntp137
Rp138
(dp139
g102
Nsg103
g134
sg104
I00
sg105
I00
sg106
Nsbsg107
g114
sg115
S'Eff'
p140
sbag0
(g35
g2
Ntp141
Rp142
(dp143
g39
I00
sg40
g4
sg41
(lp144
VI
p145
ag145
ag145
ag145
ag145
ag145
ag145
ag145
ag145
ag145
ag145
ag145
ag145
ag145
ag145
ag145
ag145
ag145
aVR1
p146
aVR1
p147
aVR1
p148
aVR1
p149
aVR1
p150
aVR1
p151
aVR1
p152
aVR1
p153
aVR1
p154
aVR1
p155
aVR1
p156
aVR1
p157
aVR1
p158
aVR1
p159
aVR1
p160
aVR1
p161
aVR1
p162
aVR1
p163
aVR2
p164
aVR2
p165
aVR2
p166
aVR2
p167
aVR2
p168
aVR2
p169
aVR2
p170
aVR2
p171
aVR2
p172
aVR2
p173
aVR2
p174
aVR2
p175
aVR2
p176
aVR2
p177
aVR2
p178
aVR2
p179
aVR2
p180
aVR2
p181
asg97
g0
(g98
g2
Ntp182
Rp183
(dp184
g102
Nsg103
g142
sg104
I00
sg105
I00
sg106
Nsbsg107
g114
sg115
S'RunType'
p185
sbag0
(g35
g2
Ntp186
Rp187
(dp188
g39
I00
sg40
g4
sg41
(lp189
Va
p190
aVb
p191
aVc
p192
ag190
ag191
ag192
ag190
ag191
ag192
ag190
ag191
ag192
ag190
ag191
ag192
ag190
ag191
ag192
ag190
ag191
ag192
ag190
ag191
ag192
ag190
ag191
ag192
ag190
ag191
ag192
ag190
ag191
ag192
ag190
ag191
ag192
ag190
ag191
ag192
ag190
ag191
ag192
ag190
ag191
ag192
ag190
ag191
ag192
ag190
ag191
ag192
ag190
ag191
ag192
asg97
g0
(g98
g2
Ntp193
Rp194
(dp195
g102
Nsg103
g187
sg104
I00
sg105
I00
sg106
Nsbsg107
g114
sg115
S'TRpl'
p196
sbag0
(g35
g2
Ntp197
Rp198
(dp199
g39
I00
sg40
g4
sg41
(lp200
I1
aI1
aI1
aI1
aI1
aI1
aI1
aI1
aI1
aI2
aI2
aI2
aI3
aI3
aI3
aI0
aI0
aI0
aI1
aI1
aI1
aI1
aI1
aI1
aI1
aI1
aI1
aI2
aI2
aI2
aI3
aI3
aI3
aI0
aI0
aI0
aI1
aI1
aI1
aI1
aI1
aI1
aI1
aI1
aI1
aI2
aI2
aI2
aI3
aI3
aI3
aI0
aI0
aI0
asg97
g0
(g98
g2
Ntp201
Rp202
(dp203
g102
Nsg103
g198
sg104
I00
sg105
I00
sg106
Nsbsg107
g114
sg115
S'Treatment'
p204
sbag0
(g35
g2
Ntp205
Rp206
(dp207
g39
I00
sg40
g4
sg41
(lp208
(cnumpy.core.multiarray
scalar
p209
(cnumpy
dtype
p210
(S'i8'
p211
I0
I1
tp212
Rp213
(I3
S'<'
p214
NNNI-1
I-1
I0
tp215
bS'\x00\x00\x00\x00\x00\x00\x00\x00'
p216
tp217
Rp218
g145
g209
(g213
S'\x01\x00\x00\x00\x00\x00\x00\x00'
p219
tp220
Rp221
tp222
a(g209
(g213
S'\x00\x00\x00\x00\x00\x00\x00\x00'
p223
tp224
Rp225
VR1
p226
g209
(g213
S'\x01\x00\x00\x00\x00\x00\x00\x00'
p227
tp228
Rp229
tp230
a(g209
(g213
S'\x00\x00\x00\x00\x00\x00\x00\x00'
p231
tp232
Rp233
VR2
p234
g209
(g213
S'\x01\x00\x00\x00\x00\x00\x00\x00'
p235
tp236
Rp237
tp238
a(g209
(g213
S'\x01\x00\x00\x00\x00\x00\x00\x00'
p239
tp240
Rp241
g145
g209
(g213
S'\x01\x00\x00\x00\x00\x00\x00\x00'
p242
tp243
Rp244
tp245
a(g209
(g213
S'\x01\x00\x00\x00\x00\x00\x00\x00'
p246
tp247
Rp248
g145
g209
(g213
S'\x02\x00\x00\x00\x00\x00\x00\x00'
p249
tp250
Rp251
tp252
a(g209
(g213
S'\x01\x00\x00\x00\x00\x00\x00\x00'
p253
tp254
Rp255
g145
g209
(g213
S'\x03\x00\x00\x00\x00\x00\x00\x00'
p256
tp257
Rp258
tp259
a(g209
(g213
S'\x01\x00\x00\x00\x00\x00\x00\x00'
p260
tp261
Rp262
g226
g209
(g213
S'\x01\x00\x00\x00\x00\x00\x00\x00'
p263
tp264
Rp265
tp266
a(g209
(g213
S'\x01\x00\x00\x00\x00\x00\x00\x00'
p267
tp268
Rp269
g226
g209
(g213
S'\x02\x00\x00\x00\x00\x00\x00\x00'
p270
tp271
Rp272
tp273
a(g209
(g213
S'\x01\x00\x00\x00\x00\x00\x00\x00'
p274
tp275
Rp276
g226
g209
(g213
S'\x03\x00\x00\x00\x00\x00\x00\x00'
p277
tp278
Rp279
tp280
a(g209
(g213
S'\x01\x00\x00\x00\x00\x00\x00\x00'
p281
tp282
Rp283
g234
g209
(g213
S'\x01\x00\x00\x00\x00\x00\x00\x00'
p284
tp285
Rp286
tp287
a(g209
(g213
S'\x01\x00\x00\x00\x00\x00\x00\x00'
p288
tp289
Rp290
g234
g209
(g213
S'\x02\x00\x00\x00\x00\x00\x00\x00'
p291
tp292
Rp293
tp294
a(g209
(g213
S'\x01\x00\x00\x00\x00\x00\x00\x00'
p295
tp296
Rp297
g234
g209
(g213
S'\x03\x00\x00\x00\x00\x00\x00\x00'
p298
tp299
Rp300
tp301
a(g209
(g213
S'\x02\x00\x00\x00\x00\x00\x00\x00'
p302
tp303
Rp304
g145
g209
(g213
S'\x01\x00\x00\x00\x00\x00\x00\x00'
p305
tp306
Rp307
tp308
a(g209
(g213
S'\x02\x00\x00\x00\x00\x00\x00\x00'
p309
tp310
Rp311
g226
g209
(g213
S'\x01\x00\x00\x00\x00\x00\x00\x00'
p312
tp313
Rp314
tp315
a(g209
(g213
S'\x02\x00\x00\x00\x00\x00\x00\x00'
p316
tp317
Rp318
g234
g209
(g213
S'\x01\x00\x00\x00\x00\x00\x00\x00'
p319
tp320
Rp321
tp322
a(g209
(g213
S'\x03\x00\x00\x00\x00\x00\x00\x00'
p323
tp324
Rp325
g145
g209
(g213
S'\x01\x00\x00\x00\x00\x00\x00\x00'
p326
tp327
Rp328
tp329
a(g209
(g213
S'\x03\x00\x00\x00\x00\x00\x00\x00'
p330
tp331
Rp332
g226
g209
(g213
S'\x01\x00\x00\x00\x00\x00\x00\x00'
p333
tp334
Rp335
tp336
a(g209
(g213
S'\x03\x00\x00\x00\x00\x00\x00\x00'
p337
tp338
Rp339
g234
g209
(g213
S'\x01\x00\x00\x00\x00\x00\x00\x00'
p340
tp341
Rp342
tp343
aNaNaNaNaNaNaNaNaNaNaNaNaNaNaNaNaNaNaNaNaNaNaNaNaNaNaNaNaNaNaNaNaNaNaNaNasg97
g0
(g98
g2
Ntp344
Rp345
(dp346
g102
Vif run:\u000a  sel = Eff > min_eff\u000a  grouping_columns =   [\u000a      Treatment[sel],\u000a       RunType[sel], \u000a      BRpl[sel],      \u000a    ]\u000a  if True:\u000a    Groups, groupedCt = groupBy(\u000a      grouping_columns, Ct[sel])\u000a    Groups, groupedEff = groupBy(\u000a      grouping_columns, Eff[sel])\u000a    GroupedCt = roundValues(groupedCt,2)\u000a    GroupedEff = roundValues(groupedEff,2)\u000a    s.setColumnValues('Groups', Groups)\u000a    s.setColumnValues('GroupedCt', GroupedCt)\u000a    s.setColumnValues('GroupedEff', GroupedEff)
p347
sg103
g206
sg104
I00
sg105
I00
sg106
Vif run:\u000a  sel = Eff > min_eff\u000a  grouping_columns =   [\u000a      Treatment[sel],\u000a       RunType[sel], \u000a      BRpl[sel],      \u000a    ]\u000a  if True:\u000a    Groups, groupedCt = groupBy(\u000a      grouping_columns, Ct[sel])\u000a    Groups, groupedEff = groupBy(\u000a      grouping_columns, Eff[sel])\u000a    GroupedCt = roundValues(groupedCt,2)\u000a    GroupedEff = roundValues(groupedEff,2)\u000a    s.setColumnValues('Groups', Groups)\u000a    s.setColumnValues('GroupedCt', GroupedCt)\u000a    s.setColumnValues('GroupedEff', GroupedEff)
p348
sbsg107
g0
(g108
g109
(g110
g111
tp349
tp350
Rp351
sg115
VGroups
p352
sbag0
(g35
g2
Ntp353
Rp354
(dp355
g39
I00
sg40
g4
sg41
(lp356
(lp357
F0.92
aF0.91
aF0.91
aa(lp358
F0.83
aF0.83
aF0.85
aa(lp359
F0.82
aF0.85
aF0.82
aa(lp360
F0.85
aF0.84
aF0.85
aa(lp361
F0.87
aF0.78
aF0.85
aa(lp362
F0.84
aF0.84
aF0.77
aa(lp363
F0.92
aF0.98
aF0.9
aa(lp364
F0.9
aF0.83
aF0.84
aa(lp365
F0.87
aF0.85
aF0.83
aa(lp366
F0.79
aF0.84
aF0.86
aa(lp367
F0.83
aF0.82
aF0.83
aa(lp368
F0.81
aF0.82
aF0.8
aa(lp369
F0.84
aF0.79
aF0.81
aa(lp370
F0.77
aF0.87
aF0.81
aa(lp371
F0.78
aF0.77
aF0.79
aa(lp372
F0.88
aF0.86
aF0.89
aa(lp373
F0.87
aF0.9
aF0.86
aa(lp374
F0.82
aF0.82
aF0.79
aaNaNaNaNaNaNaNaNaNaNaNaNaNaNaNaNaNaNaNaNaNaNaNaNaNaNaNaNaNaNaNaNaNaNaNaNasg97
g0
(g98
g2
Ntp375
Rp376
(dp377
g102
Nsg103
g354
sg104
I00
sg105
I00
sg106
Nsbsg107
g0
(g108
g109
(g110
g111
tp378
tp379
Rp380
sg115
VGroupedEff
p381
sbag0
(g35
g2
Ntp382
Rp383
(dp384
g39
I00
sg40
g4
sg41
(lp385
(lp386
F18.31
aF18.29
aF18.15
aa(lp387
F18.24
aF18.22
aF18.36
aa(lp388
F19.72
aF19.75
aF20.01
aa(lp389
F22.42
aF22.5
aF22.44
aa(lp390
F21.92
aF22.03
aF21.94
aa(lp391
F23.4
aF23.47
aF23.41
aa(lp392
F19.92
aF19.85
aF20.0
aa(lp393
F21.86
aF22.09
aF21.84
aa(lp394
F23.89
aF23.54
aF24.27
aa(lp395
F22.18
aF21.71
aF21.75
aa(lp396
F23.88
aF23.42
aF23.63
aa(lp397
F24.59
aF24.61
aF24.34
aa(lp398
F23.48
aF23.31
aF23.45
aa(lp399
F23.22
aF23.8
aF23.49
aa(lp400
F26.37
aF26.36
aF26.17
aa(lp401
F18.82
aF18.97
aF18.92
aa(lp402
F18.91
aF18.78
aF18.8
aa(lp403
F20.5
aF20.47
aF20.28
aaNaNaNaNaNaNaNaNaNaNaNaNaNaNaNaNaNaNaNaNaNaNaNaNaNaNaNaNaNaNaNaNaNaNaNaNasg97
g0
(g98
g2
Ntp404
Rp405
(dp406
g102
Nsg103
g383
sg104
I00
sg105
I00
sg106
Nsbsg107
g0
(g108
g109
(g110
g111
tp407
tp408
Rp409
sg115
VGroupedCt
p410
sbag0
(g35
g2
Ntp411
Rp412
(dp413
g39
I00
sg40
g4
sg41
(lp414
(lp415
F18.3
aF18.3
aF18.1
aa(lp416
F18.2
aF18.2
aF18.4
aa(lp417
F19.7
aF19.8
aF20.0
aa(lp418
F22.4
aF22.5
aF22.4
aa(lp419
F21.9
aF22.0
aF21.9
aa(lp420
F23.4
aF23.5
aF23.4
aa(lp421
F19.9
aF19.9
aF20.0
aa(lp422
F21.9
aF22.1
aF21.8
aa(lp423
F23.9
aF23.5
aF24.3
aa(lp424
F22.2
aF21.7
aF21.8
aa(lp425
F23.9
aF23.4
aF23.6
aa(lp426
F24.6
aF24.6
aF24.3
aa(lp427
F23.5
aF23.3
aF23.4
aa(lp428
F23.2
aF23.8
aF23.5
aa(lp429
F26.4
aF26.4
aF26.2
aa(lp430
F18.8
aF19.0
aF18.9
aa(lp431
F18.9
aF18.8
aF18.8
aa(lp432
F20.5
aF20.5
aF20.3
aaNaNaNaNaNaNaNaNaNaNaNaNaNaNaNaNaNaNaNaNaNaNaNaNaNaNaNaNaNaNaNaNaNaNaNaNasg97
g0
(g98
g2
Ntp433
Rp434
(dp435
g102
Vif run:\u000a  length = len(Groups)\u000a  StdFilteredGroupedCt = roundValues([filterExtremes(g, max_std, 2) for g in pruneNulls(GroupedCt, required_length=length)])\u000a  s.setColumnValues('StdFilteredGroupedCt', StdFilteredGroupedCt)
p436
sg103
g412
sg104
I00
sg105
I00
sg106
Vif run:\u000a  length = len(Groups)\u000a  StdFilteredGroupedCt = roundValues([filterExtremes(g, max_std, 2) for g in pruneNulls(GroupedCt, required_length=length)])\u000a  s.setColumnValues('StdFilteredGroupedCt', StdFilteredGroupedCt)
p437
sbsg107
g0
(g108
g109
(g110
g111
tp438
tp439
Rp440
sg115
VStdFilteredGroupedCt
p441
sbag0
(g35
g2
Ntp442
Rp443
(dp444
g39
I00
sg40
g4
sg41
(lp445
F18.2
aF18.3
aF19.8
aF22.4
aF21.9
aF23.4
aF19.9
aF21.9
aF23.9
aF21.9
aF23.6
aF24.5
aF23.4
aF23.5
aF26.3
aF18.9
aF18.8
aF20.4
aFnan
aFnan
aFnan
aFnan
aFnan
aFnan
aFnan
aFnan
aFnan
aFnan
aFnan
aFnan
aFnan
aFnan
aFnan
aFnan
aFnan
aFnan
aFnan
aFnan
aFnan
aFnan
aFnan
aFnan
aFnan
aFnan
aFnan
aFnan
aFnan
aFnan
aFnan
aFnan
aFnan
aFnan
aFnan
aFnan
asg97
g0
(g98
g2
Ntp446
Rp447
(dp448
g102
Vif run:\u000a  MeanCt = [np.mean(g) for g in StdFilteredGroupedCt]\u000a  MeanCt = roundValues(MeanCt,1)\u000a  s.setColumnValues('MeanCt', MeanCt)\u000a  StdCt = [np.std(g, ddof=1) for g in StdFilteredGroupedCt]\u000a  StdCt = roundValues(StdCt,3)\u000a  s.setColumnValues('StdCt', StdCt)\u000as.setColumnVisibility(['Groups', 'GroupedEff', 'GroupedCt', 'StdFilteredGroupedCt', 'MeanCt', 'StdCt'], is_visible=show_block1)
p449
sg103
g443
sg104
I00
sg105
I00
sg106
Vif run:\u000a  MeanCt = [np.mean(g) for g in StdFilteredGroupedCt]\u000a  MeanCt = roundValues(MeanCt,1)\u000a  s.setColumnValues('MeanCt', MeanCt)\u000a  StdCt = [np.std(g, ddof=1) for g in StdFilteredGroupedCt]\u000a  StdCt = roundValues(StdCt,3)\u000a  s.setColumnValues('StdCt', StdCt)\u000as.setColumnVisibility(['Groups', 'GroupedEff', 'GroupedCt', 'StdFilteredGroupedCt', 'MeanCt', 'StdCt'], is_visible=show_block1)
p450
sbsg107
g0
(g108
g109
(g110
g111
tp451
tp452
Rp453
sg115
VMeanCt
p454
sbag0
(g35
g2
Ntp455
Rp456
(dp457
g39
I00
sg40
g4
sg41
(lp458
F0.115
aF0.115
aF0.153
aF0.058
aF0.058
aF0.058
aF0.058
aF0.153
aF0.4
aF0.265
aF0.252
aF0.173
aF0.1
aF0.3
aF0.115
aF0.1
aF0.058
aF0.115
aFnan
aFnan
aFnan
aFnan
aFnan
aFnan
aFnan
aFnan
aFnan
aFnan
aFnan
aFnan
aFnan
aFnan
aFnan
aFnan
aFnan
aFnan
aFnan
aFnan
aFnan
aFnan
aFnan
aFnan
aFnan
aFnan
aFnan
aFnan
aFnan
aFnan
aFnan
aFnan
aFnan
aFnan
aFnan
aFnan
asg97
g0
(g98
g2
Ntp459
Rp460
(dp461
g102
Nsg103
g456
sg104
I00
sg105
I00
sg106
Nsbsg107
g0
(g108
g109
(g110
g111
tp462
tp463
Rp464
sg115
VStdCt
p465
sbag0
(g35
g2
Ntp466
Rp467
(dp468
g39
I00
sg40
g4
sg41
(lp469
(lp470
g218
ag221
aa(lp471
g241
ag244
aa(lp472
g248
ag251
aa(lp473
g255
ag258
aa(lp474
g304
ag307
aa(lp475
g325
ag328
aaNaNaNaNaNaNaNaNaNaNaNaNaNaNaNaNaNaNaNaNaNaNaNaNaNaNaNaNaNaNaNaNaNaNaNaNaNaNaNaNaNaNaNaNaNaNaNaNasg97
g0
(g98
g2
Ntp476
Rp477
(dp478
g102
Vif run:\u000a      tabularize(s, 'Groups', 1, 'MeanCt', \u000a          new_category_colnm='BioRuns',\u000a          values_colnm_prefix='Gene_')\u000a      BioRuns = s.getColumnValues('BioRuns')\u000a      Gene_I = s.getColumnValues('Gene_I')\u000a      Gene_R1 = s.getColumnValues('Gene_R1')\u000a      Gene_R2 = s.getColumnValues('Gene_R2')
p479
sg103
g467
sg104
I00
sg105
I00
sg106
Vif run:\u000a      tabularize(s, 'Groups', 1, 'MeanCt', \u000a          new_category_colnm='BioRuns',\u000a          values_colnm_prefix='Gene_')\u000a      BioRuns = s.getColumnValues('BioRuns')\u000a      Gene_I = s.getColumnValues('Gene_I')\u000a      Gene_R1 = s.getColumnValues('Gene_R1')\u000a      Gene_R2 = s.getColumnValues('Gene_R2')
p480
sbsg107
g0
(g108
g109
(g110
g111
tp481
tp482
Rp483
sg115
VBioRuns
p484
sbag0
(g35
g2
Ntp485
Rp486
(dp487
g39
I00
sg40
g4
sg41
(lp488
F18.2
aF22.4
aF21.9
aF23.4
aF23.4
aF18.9
aFnan
aFnan
aFnan
aFnan
aFnan
aFnan
aFnan
aFnan
aFnan
aFnan
aFnan
aFnan
aFnan
aFnan
aFnan
aFnan
aFnan
aFnan
aFnan
aFnan
aFnan
aFnan
aFnan
aFnan
aFnan
aFnan
aFnan
aFnan
aFnan
aFnan
aFnan
aFnan
aFnan
aFnan
aFnan
aFnan
aFnan
aFnan
aFnan
aFnan
aFnan
aFnan
aFnan
aFnan
aFnan
aFnan
aFnan
aFnan
asg97
g0
(g98
g2
Ntp489
Rp490
(dp491
g102
Nsg103
g486
sg104
I00
sg105
I00
sg106
Nsbsg107
g0
(g108
g109
(g110
g111
tp492
tp493
Rp494
sg115
S'Gene_I'
p495
sbag0
(g35
g2
Ntp496
Rp497
(dp498
g39
I00
sg40
g4
sg41
(lp499
F18.3
aF19.9
aF21.9
aF23.9
aF23.5
aF18.8
aFnan
aFnan
aFnan
aFnan
aFnan
aFnan
aFnan
aFnan
aFnan
aFnan
aFnan
aFnan
aFnan
aFnan
aFnan
aFnan
aFnan
aFnan
aFnan
aFnan
aFnan
aFnan
aFnan
aFnan
aFnan
aFnan
aFnan
aFnan
aFnan
aFnan
aFnan
aFnan
aFnan
aFnan
aFnan
aFnan
aFnan
aFnan
aFnan
aFnan
aFnan
aFnan
aFnan
aFnan
aFnan
aFnan
aFnan
aFnan
asg97
g0
(g98
g2
Ntp500
Rp501
(dp502
g102
Nsg103
g497
sg104
I00
sg105
I00
sg106
Nsbsg107
g494
sg115
S'Gene_R1'
p503
sbag0
(g35
g2
Ntp504
Rp505
(dp506
g39
I00
sg40
g4
sg41
(lp507
F19.8
aF21.9
aF23.6
aF24.5
aF26.3
aF20.4
aFnan
aFnan
aFnan
aFnan
aFnan
aFnan
aFnan
aFnan
aFnan
aFnan
aFnan
aFnan
aFnan
aFnan
aFnan
aFnan
aFnan
aFnan
aFnan
aFnan
aFnan
aFnan
aFnan
aFnan
aFnan
aFnan
aFnan
aFnan
aFnan
aFnan
aFnan
aFnan
aFnan
aFnan
aFnan
aFnan
aFnan
aFnan
aFnan
aFnan
aFnan
aFnan
aFnan
aFnan
aFnan
aFnan
aFnan
aFnan
asg97
g0
(g98
g2
Ntp508
Rp509
(dp510
g102
Nsg103
g505
sg104
I00
sg105
I00
sg106
Nsbsg107
g494
sg115
S'Gene_R2'
p511
sbag0
(g35
g2
Ntp512
Rp513
(dp514
g39
I00
sg40
g4
sg41
(lp515
F1.07177
aF0.17678
aF1.0
aF1.41421
aF1.07177
aF0.93303
aFnan
aFnan
aFnan
aFnan
aFnan
aFnan
aFnan
aFnan
aFnan
aFnan
aFnan
aFnan
aFnan
aFnan
aFnan
aFnan
aFnan
aFnan
aFnan
aFnan
aFnan
aFnan
aFnan
aFnan
aFnan
aFnan
aFnan
aFnan
aFnan
aFnan
aFnan
aFnan
aFnan
aFnan
aFnan
aFnan
aFnan
aFnan
aFnan
aFnan
aFnan
aFnan
aFnan
aFnan
aFnan
aFnan
aFnan
aFnan
asg97
g0
(g98
g2
Ntp516
Rp517
(dp518
g102
VExprR1 = roundValues(2**(Gene_R1 - Gene_I),5)
p519
sg103
g513
sg104
I01
sg105
I00
sg106
VroundValues(2**(Gene_R1 - Gene_I),5)
p520
sbsg107
g0
(g108
g109
(g110
g111
tp521
tp522
Rp523
sg115
VExprR1
p524
sbag0
(g35
g2
Ntp525
Rp526
(dp527
g39
I00
sg40
g4
sg41
(lp528
F3.03143
aF0.70711
aF3.24901
aF2.14355
aF7.46426
aF2.82843
aFnan
aFnan
aFnan
aFnan
aFnan
aFnan
aFnan
aFnan
aFnan
aFnan
aFnan
aFnan
aFnan
aFnan
aFnan
aFnan
aFnan
aFnan
aFnan
aFnan
aFnan
aFnan
aFnan
aFnan
aFnan
aFnan
aFnan
aFnan
aFnan
aFnan
aFnan
aFnan
aFnan
aFnan
aFnan
aFnan
aFnan
aFnan
aFnan
aFnan
aFnan
aFnan
aFnan
aFnan
aFnan
aFnan
aFnan
aFnan
asg97
g0
(g98
g2
Ntp529
Rp530
(dp531
g102
VExprR2 = roundValues(2**(Gene_R2 - Gene_I),5)
p532
sg103
g526
sg104
I01
sg105
I00
sg106
VroundValues(2**(Gene_R2 - Gene_I),5)
p533
sbsg107
g0
(g108
g109
(g110
g111
tp534
tp535
Rp536
sg115
VExprR2
p537
sbag0
(g35
g2
Ntp538
Rp539
(dp540
g39
I00
sg40
g4
sg41
(lp541
F1.802
aF0.354
aF1.803
aF1.741
aF2.828
aF1.625
aFnan
aFnan
aFnan
aFnan
aFnan
aFnan
aFnan
aFnan
aFnan
aFnan
aFnan
aFnan
aFnan
aFnan
aFnan
aFnan
aFnan
aFnan
aFnan
aFnan
aFnan
aFnan
aFnan
aFnan
aFnan
aFnan
aFnan
aFnan
aFnan
aFnan
aFnan
aFnan
aFnan
aFnan
aFnan
aFnan
aFnan
aFnan
aFnan
aFnan
aFnan
aFnan
aFnan
aFnan
aFnan
aFnan
aFnan
aFnan
asg97
g0
(g98
g2
Ntp542
Rp543
(dp544
g102
Vif run:\u000a  GeoMean = roundValues(np.sqrt(ExprR1*ExprR2), 3)\u000as.setColumnVisibility(['BioRuns', 'Gene_I', 'Gene_R1', 'Gene_R2', 'ExprR1', 'ExprR2', 'GeoMean'], is_visible=show_block2)
p545
sg103
g539
sg104
I00
sg105
I00
sg106
Vif run:\u000a  GeoMean = roundValues(np.sqrt(ExprR1*ExprR2), 3)\u000as.setColumnVisibility(['BioRuns', 'Gene_I', 'Gene_R1', 'Gene_R2', 'ExprR1', 'ExprR2', 'GeoMean'], is_visible=show_block2)
p546
sbsg107
g0
(g108
g109
(g110
g111
tp547
tp548
Rp549
sg115
VGeoMean
p550
sbasS'_columns'
p551
(lp552
g0
(g35
g2
Ntp553
Rp554
(dp555
g39
I01
sg40
g4
sg41
(lp556
S'1'
p557
aS'2'
p558
aS'3'
p559
aS'4'
p560
aS'5'
p561
aS'6'
p562
aS'7'
p563
aS'8'
p564
aS'9'
p565
aS'10'
p566
aS'11'
p567
aS'12'
p568
aS'13'
p569
aS'14'
p570
aS'15'
p571
aS'16'
p572
aS'17'
p573
aS'18'
p574
aS'19'
p575
aS'20'
p576
aS'21'
p577
aS'22'
p578
aS'23'
p579
aS'24'
p580
aS'25'
p581
aS'26'
p582
aS'27'
p583
aS'28'
p584
aS'29'
p585
aS'30'
p586
aS'31'
p587
aS'32'
p588
aS'33'
p589
aS'34'
p590
aS'35'
p591
aS'36'
p592
aS'37'
p593
aS'38'
p594
aS'39'
p595
aS'40'
p596
aS'41'
p597
aS'42'
p598
aS'43'
p599
aS'44'
p600
aS'45'
p601
aS'46'
p602
aS'47'
p603
aS'48'
p604
aS'49'
p605
aS'50'
p606
aS'51'
p607
aS'52'
p608
aS'53'
p609
aS'54'
p610
asg97
g0
(g98
g2
Ntp611
Rp612
(dp613
g102
Nsg103
g554
sg104
I00
sg105
I00
sg106
Nsbsg107
g0
(g108
g109
(g110
g111
tp614
tp615
Rp616
sg115
S'row'
p617
sbag0
(g35
g2
Ntp618
Rp619
(dp620
g39
I00
sg40
g4
sg41
(lp621
Vgene
p622
aVrun
p623
aVshow_raw
p624
aVshow_block1
p625
aVshow_block2
p626
aVshow_block3
p627
aVmax_std
p628
aVmin_eff
p629
aVnan
p630
aVnan
p631
aVnan
p632
aVnan
p633
aVnan
p634
aVnan
p635
aVnan
p636
aVnan
p637
aVnan
p638
aVnan
p639
aVnan
p640
aVnan
p641
aVnan
p642
aVnan
p643
aVnan
p644
aVnan
p645
aVnan
p646
aVnan
p647
aVnan
p648
aVnan
p649
aVnan
p650
aVnan
p651
aVnan
p652
aVnan
p653
aVnan
p654
aVnan
p655
aVnan
p656
aVnan
p657
aVnan
p658
aVnan
p659
aVnan
p660
aVnan
p661
aVnan
p662
aVnan
p663
aVnan
p664
aVnan
p665
aVnan
p666
aVnan
p667
aVnan
p668
aVnan
p669
aVnan
p670
aVnan
p671
aVnan
p672
aVnan
p673
aVnan
p674
aVnan
p675
asg97
g0
(g98
g2
Ntp676
Rp677
(dp678
g102
Nsg103
g619
sg104
I00
sg105
I00
sg106
Nsbsg107
g0
(g108
g109
(g110
g111
tp679
tp680
Rp681
sg115
VParmNames
p682
sbag0
(g35
g2
Ntp683
Rp684
(dp685
g39
I00
sg40
g4
sg41
(lp686
VGene2
p687
aVTrue
p688
aVFalse
p689
aVFalse
p690
aVFalse
p691
aVTrue
p692
aV0.5
p693
aV0.7
p694
aV
p695
ag695
aVnan
p696
aVnan
p697
aVnan
p698
aVnan
p699
aVnan
p700
aVnan
p701
aVnan
p702
aVnan
p703
aVnan
p704
aVnan
p705
aVnan
p706
aVnan
p707
aVnan
p708
aVnan
p709
aVnan
p710
aVnan
p711
aVnan
p712
aVnan
p713
aVnan
p714
aVnan
p715
aVnan
p716
aVnan
p717
aVnan
p718
aVnan
p719
aVnan
p720
aVnan
p721
aVnan
p722
aVnan
p723
aVnan
p724
aVnan
p725
aVnan
p726
aVnan
p727
aVnan
p728
aVnan
p729
aVnan
p730
aVnan
p731
aVnan
p732
aVnan
p733
aVnan
p734
aVnan
p735
aVnan
p736
aVnan
p737
aVnan
p738
aVnan
p739
asg97
g0
(g98
g2
Ntp740
Rp741
(dp742
g102
Vxlsx_path = '/mnt/hgfs/josephhellerstein/home/Technical/SciSheets/CaseStudies/Kristen/workbooks/data.xlsx'\u000as.setColumnVisibility()\u000agene = ParmValues[0]\u000arun = ParmValues[1] == 'True'\u000ashow_raw = ParmValues[2] == 'True'\u000ashow_block1 = ParmValues[3] == 'True'\u000ashow_block2 = ParmValues[4] == 'True'\u000ashow_block3 = ParmValues[5] == 'True'\u000amax_std  = float(ParmValues[6])\u000amin_eff = float(ParmValues[7])\u000aworksheet = gene + "-I"\u000aif False:\u000a  Groups = []\u000a  GroupedCt = []\u000a  GroupedEff = []\u000a  MeanCt = []\u000a  Imp = []\u000a  s.deleteColumn('Ct')\u000a  s.deleteColumn('RunType')\u000a  s.deleteColumn('BRpl')\u000a  s.deleteColumn('TRpl')\u000a  s.deleteColumn('Treatment')\u000a  s.deleteColumn('SmplName')\u000a  s.deleteColumn('Eff')\u000aif run:\u000a  importExcelToTable(s, xlsx_path, worksheet=worksheet)\u000a  BRpl = s.getColumnValues('BRpl')\u000a  Ct = s.getColumnValues('Ct')\u000a  Eff = s.getColumnValues('Eff')\u000a  RunType = s.getColumnValues('RunType')\u000a  TRpl = s.getColumnValues('TRpl')\u000a  Treatment = s.getColumnValues('Treatment')\u000as.setColumnVisibility(['SmplName'], False)\u000as.setColumnVisibility(['BRpl', 'Ct', 'Eff', 'RunType', 'TRpl', 'Treatment'], is_visible=show_raw)
p743
sg103
g684
sg104
I00
sg105
I00
sg106
Vxlsx_path = '/mnt/hgfs/josephhellerstein/home/Technical/SciSheets/CaseStudies/Kristen/workbooks/data.xlsx'\u000as.setColumnVisibility()\u000agene = ParmValues[0]\u000arun = ParmValues[1] == 'True'\u000ashow_raw = ParmValues[2] == 'True'\u000ashow_block1 = ParmValues[3] == 'True'\u000ashow_block2 = ParmValues[4] == 'True'\u000ashow_block3 = ParmValues[5] == 'True'\u000amax_std  = float(ParmValues[6])\u000amin_eff = float(ParmValues[7])\u000aworksheet = gene + "-I"\u000aif False:\u000a  Groups = []\u000a  GroupedCt = []\u000a  GroupedEff = []\u000a  MeanCt = []\u000a  Imp = []\u000a  s.deleteColumn('Ct')\u000a  s.deleteColumn('RunType')\u000a  s.deleteColumn('BRpl')\u000a  s.deleteColumn('TRpl')\u000a  s.deleteColumn('Treatment')\u000a  s.deleteColumn('SmplName')\u000a  s.deleteColumn('Eff')\u000aif run:\u000a  importExcelToTable(s, xlsx_path, worksheet=worksheet)\u000a  BRpl = s.getColumnValues('BRpl')\u000a  Ct = s.getColumnValues('Ct')\u000a  Eff = s.getColumnValues('Eff')\u000a  RunType = s.getColumnValues('RunType')\u000a  TRpl = s.getColumnValues('TRpl')\u000a  Treatment = s.getColumnValues('Treatment')\u000as.setColumnVisibility(['SmplName'], False)\u000as.setColumnVisibility(['BRpl', 'Ct', 'Eff', 'RunType', 'TRpl', 'Treatment'], is_visible=show_raw)
p744
sbsg107
g0
(g108
g109
(g110
g111
tp745
tp746
Rp747
sg115
VParmValues
p748
sbag206
ag354
ag383
ag412
ag443
ag456
ag467
ag486
ag497
ag505
ag513
ag526
ag539
ag0
(g35
g2
Ntp749
Rp750
(dp751
g39
I00
sg40
g4
sg41
(lp752
F0.0
aF1.0
aF2.0
aF3.0
aFnan
aFnan
aFnan
aFnan
aFnan
aFnan
aFnan
aFnan
aFnan
aFnan
aFnan
aFnan
aFnan
aFnan
aFnan
aFnan
aFnan
aFnan
aFnan
aFnan
aFnan
aFnan
aFnan
aFnan
aFnan
aFnan
aFnan
aFnan
aFnan
aFnan
aFnan
aFnan
aFnan
aFnan
aFnan
aFnan
aFnan
aFnan
aFnan
aFnan
aFnan
aFnan
aFnan
aFnan
aFnan
aFnan
aFnan
aFnan
aFnan
aFnan
asg97
g0
(g98
g2
Ntp753
Rp754
(dp755
g102
Vif run:\u000a  cat_vals = [br[0] for br in pruneNulls(BioRuns)]\u000a  clean_geo = [x for x in GeoMean if x is not None]\u000a  GeoGroups, groupedGeoMeans = groupBy(cat_vals, clean_geo)\u000a  GroupedGeoMeans = roundValues(groupedGeoMeans, 3)
p756
sg103
g750
sg104
I00
sg105
I00
sg106
Vif run:\u000a  cat_vals = [br[0] for br in pruneNulls(BioRuns)]\u000a  clean_geo = [x for x in GeoMean if x is not None]\u000a  GeoGroups, groupedGeoMeans = groupBy(cat_vals, clean_geo)\u000a  GroupedGeoMeans = roundValues(groupedGeoMeans, 3)
p757
sbsg107
g0
(g108
g109
(g110
g111
tp758
tp759
Rp760
sg115
VGeoGroups
p761
sbag0
(g35
g2
Ntp762
Rp763
(dp764
g39
I00
sg40
g4
sg41
(lp765
cnumpy.core.multiarray
_reconstruct
p766
(g110
(I0
tp767
S'b'
p768
tp769
Rp770
(I1
(I1
tp771
g210
(S'f8'
p772
I0
I1
tp773
Rp774
(I3
S'<'
p775
NNNI-1
I-1
I0
tp776
bI00
S'\xa2E\xb6\xf3\xfd\xd4\xfc?'
p777
tp778
bag766
(g110
(I0
tp779
g768
tp780
Rp781
(I1
(I3
tp782
g774
I00
S'\x0e-\xb2\x9d\xef\xa7\xd6?\x0c\x02+\x87\x16\xd9\xfc?B`\xe5\xd0"\xdb\xfb?'
p783
tp784
bag766
(g110
(I0
tp785
g768
tp786
Rp787
(I1
(I1
tp788
g774
I00
S'9\xb4\xc8v\xbe\x9f\x06@'
p789
tp790
bag766
(g110
(I0
tp791
g768
tp792
Rp793
(I1
(I1
tp794
g774
I00
S'\x00\x00\x00\x00\x00\x00\xfa?'
p795
tp796
baNaNaNaNaNaNaNaNaNaNaNaNaNaNaNaNaNaNaNaNaNaNaNaNaNaNaNaNaNaNaNaNaNaNaNaNaNaNaNaNaNaNaNaNaNaNaNaNaNaNasg97
g0
(g98
g2
Ntp797
Rp798
(dp799
g102
Nsg103
g763
sg104
I00
sg105
I00
sg106
Nsbsg107
g0
(g108
g109
(g110
g111
tp800
tp801
Rp802
sg115
VGroupedGeoMeans
p803
sbag0
(g35
g2
Ntp804
Rp805
(dp806
g39
I00
sg40
g4
sg41
(lp807
g766
(g110
(I0
tp808
g768
tp809
Rp810
(I1
(I1
tp811
g774
I00
S'\x00\x00\x00\x00\x00\x00\xf0?'
p812
tp813
bag766
(g110
(I0
tp814
g768
tp815
Rp816
(I1
(I3
tp817
g774
I00
S'J\x0c\x02+\x87\x16\xc9?j\xbct\x93\x18\x04\xf0?\xb6\xf3\xfd\xd4x\xe9\xee?'
p818
tp819
bag766
(g110
(I0
tp820
g768
tp821
Rp822
(I1
(I1
tp823
g774
I00
S'\xb4\xc8v\xbe\x9f\x1a\xf9?'
p824
tp825
bag766
(g110
(I0
tp826
g768
tp827
Rp828
(I1
(I1
tp829
g774
I00
S'w\xbe\x9f\x1a/\xdd\xec?'
p830
tp831
baNaNaNaNaNaNaNaNaNaNaNaNaNaNaNaNaNaNaNaNaNaNaNaNaNaNaNaNaNaNaNaNaNaNaNaNaNaNaNaNaNaNaNaNaNaNaNaNaNaNasg97
g0
(g98
g2
Ntp832
Rp833
(dp834
g102
Vif run:\u000a  ref = np.mean(GroupedGeoMeans[0])\u000a  NrmlGeoGroupedMeans = [ [x/ref for x in g] for g in GroupedGeoMeans if g is not None]  \u000a  NrmlGeoGroupedMeans = roundValues(NrmlGeoGroupedMeans, 3)
p835
sg103
g805
sg104
I00
sg105
I00
sg106
Vif run:\u000a  ref = np.mean(GroupedGeoMeans[0])\u000a  NrmlGeoGroupedMeans = [ [x/ref for x in g] for g in GroupedGeoMeans if g is not None]  \u000a  NrmlGeoGroupedMeans = roundValues(NrmlGeoGroupedMeans, 3)
p836
sbsg107
g0
(g108
g109
(g110
g111
tp837
tp838
Rp839
sg115
VNrmlGeoGroupedMeans
p840
sbag0
(g35
g2
Ntp841
Rp842
(dp843
g39
I00
sg40
g4
sg41
(lp844
F1.0
aF0.721
aF1.569
aF0.902
aFnan
aFnan
aFnan
aFnan
aFnan
aFnan
aFnan
aFnan
aFnan
aFnan
aFnan
aFnan
aFnan
aFnan
aFnan
aFnan
aFnan
aFnan
aFnan
aFnan
aFnan
aFnan
aFnan
aFnan
aFnan
aFnan
aFnan
aFnan
aFnan
aFnan
aFnan
aFnan
aFnan
aFnan
aFnan
aFnan
aFnan
aFnan
aFnan
aFnan
aFnan
aFnan
aFnan
aFnan
aFnan
aFnan
aFnan
aFnan
aFnan
aFnan
asg97
g0
(g98
g2
Ntp845
Rp846
(dp847
g102
Vif run:\u000a  MeanNrmlGeoGroups = [round(np.mean(g), 3) for g in NrmlGeoGroupedMeans]
p848
sg103
g842
sg104
I00
sg105
I00
sg106
Vif run:\u000a  MeanNrmlGeoGroups = [round(np.mean(g), 3) for g in NrmlGeoGroupedMeans]
p849
sbsg107
g0
(g108
g109
(g110
g111
tp850
tp851
Rp852
sg115
VMeanNrmlGeoGroups
p853
sbag0
(g35
g2
Ntp854
Rp855
(dp856
g39
I00
sg40
g4
sg41
(lp857
Fnan
aF0.455
aFnan
aFnan
aFnan
aFnan
aFnan
aFnan
aFnan
aFnan
aFnan
aFnan
aFnan
aFnan
aFnan
aFnan
aFnan
aFnan
aFnan
aFnan
aFnan
aFnan
aFnan
aFnan
aFnan
aFnan
aFnan
aFnan
aFnan
aFnan
aFnan
aFnan
aFnan
aFnan
aFnan
aFnan
aFnan
aFnan
aFnan
aFnan
aFnan
aFnan
aFnan
aFnan
aFnan
aFnan
aFnan
aFnan
aFnan
aFnan
aFnan
aFnan
aFnan
aFnan
asg97
g0
(g98
g2
Ntp858
Rp859
(dp860
g102
Vif run:\u000a  StdNrmlGeoGroups = [round(np.std(g, ddof=1), 3) for g in NrmlGeoGroupedMeans]\u000as.setColumnVisibility(['GeoGroups', 'GroupedGeoMeans', 'NrmlGeoGroupedMeans', 'MeanNrmlGeoGroups', 'StdNrmlGeoGroups'], is_visible=show_block3)\u000a#s.setColumnVisibility()
p861
sg103
g855
sg104
I00
sg105
I00
sg106
Vif run:\u000a  StdNrmlGeoGroups = [round(np.std(g, ddof=1), 3) for g in NrmlGeoGroupedMeans]\u000as.setColumnVisibility(['GeoGroups', 'GroupedGeoMeans', 'NrmlGeoGroupedMeans', 'MeanNrmlGeoGroups', 'StdNrmlGeoGroups'], is_visible=show_block3)\u000a#s.setColumnVisibility()
p862
sbsg107
g0
(g108
g109
(g110
g111
tp863
tp864
Rp865
sg115
VStdNrmlGeoGroups
p866
sbag118
ag126
ag134
ag142
ag37
ag187
ag198
asg30
V/home/ubuntu/SciSheets/mysite/user/guest/tables/kristen_single_gene.pcl
p867
sg115
VSingleGene
p868
sb.