ccopy_reg
_reconstructor
p0
(cscisheets.ui.dt_table
DTTable
p1
c__builtin__
object
p2
Ntp3
Rp4
(dp5
S'_versioned_file'
p6
g0
(cmysite.helpers.versioned_file
VersionedFile
p7
g2
Ntp8
Rp9
(dp10
S'_redo_stack'
p11
g0
(cmysite.helpers.file_stack
FileStack
p12
g2
Ntp13
Rp14
(dp15
S'_dirpath'
p16
S'/home/ubuntu/SciSheets/mysite/user/guest/tables/backup'
p17
sS'_max_depth'
p18
I5
sS'_filename_pfx'
p19
Vkristen_single_gene.r
p20
sbsS'_max_versions'
p21
I5
sS'_undo_stack'
p22
g0
(g12
g2
Ntp23
Rp24
(dp25
g16
g17
sg18
I5
sg19
Vkristen_single_gene.u
p26
sbsS'_checkpoint_history'
p27
(lp28
VCell/Update
p29
aVCell/Update
p30
aVCell/Update
p31
aVCell/Update
p32
aVCell/Update
p33
aVCell/Update
p34
aVCell/Update
p35
aVCell/Update
p36
aVCell/Update
p37
aVCell/Update
p38
aVCell/Update
p39
aVCell/Update
p40
aVColumn/Formula
p41
aVColumn/Formula
p42
aVColumn/Append
p43
aVColumn/Formula
p44
aVColumn/Delete
p45
aVCell/Update
p46
aVColumn/Formula
p47
aVCell/Update
p48
aVCell/Update
p49
aVColumn/Formula
p50
aVColumn/Formula
p51
aVCell/Update
p52
aVColumn/Formula
p53
aVColumn/Formula
p54
aVCell/Update
p55
aVCell/Update
p56
aVCell/Update
p57
aVCell/Update
p58
aVColumn/Formula
p59
aVCell/Update
p60
aVCell/Update
p61
aVCell/Update
p62
aVColumn/Formula
p63
aVCell/Update
p64
aVColumn/Formula
p65
aVColumn/Formula
p66
aVCell/Update
p67
aVCell/Update
p68
aVCell/Update
p69
aVCell/Update
p70
aVCell/Update
p71
aVCell/Update
p72
aVCell/Update
p73
aVCell/Update
p74
aVCell/Update
p75
aVColumn/Formula
p76
aVCell/Update
p77
aVCell/Update
p78
aVCell/Update
p79
aVCell/Update
p80
aVCell/Update
p81
aVCell/Update
p82
aVCell/Update
p83
aVCell/Update
p84
aVCell/Update
p85
aVCell/Update
p86
aVCell/Update
p87
aVCell/Update
p88
aVColumn/Formula
p89
aVColumn/Formula
p90
aVColumn/Formula
p91
aVCell/Update
p92
aVCell/Update
p93
aVCell/Update
p94
aVCell/Update
p95
aVCell/Update
p96
aVColumn/Formula
p97
aVCell/Update
p98
aVCell/Update
p99
aVCell/Update
p100
aVCell/Update
p101
aVCell/Update
p102
aVCell/Update
p103
aVCell/Update
p104
aVColumn/Formula
p105
aVColumn/Formula
p106
aVColumn/Formula
p107
aVCell/Update
p108
aVCell/Update
p109
aVColumn/Formula
p110
aVCell/Update
p111
aVCell/Update
p112
aVCell/Update
p113
aVCell/Update
p114
aVCell/Update
p115
aVCell/Update
p116
aVCell/Update
p117
aVCell/Update
p118
aVColumn/Formula
p119
aVCell/Update
p120
aVColumn/Formula
p121
aVColumn/Formula
p122
aVColumn/Formula
p123
aVCell/Update
p124
aVCell/Update
p125
aVColumn/Formula
p126
aVColumn/Formula
p127
aVColumn/Formula
p128
aVColumn/Formula
p129
aVCell/Update
p130
aVColumn/Formula
p131
aVColumn/Formula
p132
aVColumn/Formula
p133
aVCell/Update
p134
aVCell/Update
p135
aVCell/Update
p136
aVCell/Update
p137
aVCell/Update
p138
aVCell/Update
p139
aVCell/Update
p140
aVCell/Update
p141
aVCell/Update
p142
aVCell/Update
p143
aVColumn/Formula
p144
aVColumn/Formula
p145
aVColumn/Formula
p146
aVColumn/Formula
p147
aVCell/Update
p148
aVCell/Update
p149
aVColumn/Formula
p150
aVCell/Update
p151
aVCell/Update
p152
aVCell/Update
p153
aVCell/Update
p154
aVCell/Update
p155
aVCell/Update
p156
aVCell/Update
p157
aVCell/Update
p158
aVCell/Update
p159
aVCell/Update
p160
aVCell/Update
p161
aVCell/Update
p162
aVCell/Update
p163
aVColumn/Formula
p164
aVColumn/Formula
p165
aVCell/Update
p166
aVCell/Update
p167
aVCell/Update
p168
aVColumn/Formula
p169
aVCell/Update
p170
aVCell/Update
p171
aVCell/Update
p172
aVCell/Update
p173
aVColumn/Formula
p174
aVColumn/Formula
p175
aVColumn/Formula
p176
aVColumn/Formula
p177
aVCell/Update
p178
aVColumn/Formula
p179
aVCell/Update
p180
aVCell/Update
p181
aVCell/Update
p182
aVCell/Update
p183
aVCell/Update
p184
aVCell/Update
p185
aVCell/Update
p186
aVCell/Update
p187
aVCell/Update
p188
aVColumn/Formula
p189
aVCell/Update
p190
aVCell/Update
p191
aVCell/Update
p192
aVCell/Update
p193
aVCell/Update
p194
aVCell/Update
p195
aVCell/Update
p196
aVCell/Update
p197
aVCell/Update
p198
aVCell/Update
p199
aVCell/Update
p200
aVCell/Update
p201
aVCell/Update
p202
aVCell/Update
p203
aVCell/Update
p204
aVCell/Update
p205
aVCell/Update
p206
aVCell/Update
p207
aVCell/Update
p208
aVCell/Update
p209
aVCell/Update
p210
aVCell/Update
p211
aVCell/Update
p212
aVCell/Update
p213
aVCell/Update
p214
aVCell/Update
p215
aVCell/Update
p216
aVCell/Update
p217
aVCell/Update
p218
aVCell/Update
p219
aVCell/Update
p220
aVCell/Update
p221
aVCell/Update
p222
aVCell/Update
p223
aVCell/Update
p224
aVCell/Update
p225
aVCell/Update
p226
aVCell/Update
p227
aVCell/Update
p228
aVCell/Update
p229
aVCell/Update
p230
aVCell/Update
p231
aVCell/Update
p232
aVCell/Update
p233
aVCell/Update
p234
aVCell/Update
p235
aVCell/Update
p236
aVCell/Update
p237
aVCell/Update
p238
aVCell/Update
p239
aVCell/Update
p240
aVCell/Update
p241
aVCell/Update
p242
aVCell/Update
p243
aVCell/Update
p244
aVCell/Update
p245
aVCell/Update
p246
aVCell/Update
p247
aVCell/Update
p248
aVCell/Update
p249
aVCell/Update
p250
aVCell/Update
p251
aVCell/Update
p252
aVCell/Update
p253
aVCell/Update
p254
aVCell/Update
p255
aVCell/Update
p256
aVCell/Update
p257
aVCell/Update
p258
aVCell/Update
p259
aVCell/Update
p260
aVCell/Update
p261
aVCell/Update
p262
aVCell/Update
p263
aVCell/Update
p264
aVCell/Update
p265
aVCell/Update
p266
aVCell/Update
p267
aVCell/Update
p268
aVCell/Update
p269
aVCell/Update
p270
aVCell/Update
p271
aVColumn/Formula
p272
aVColumn/Formula
p273
aVCell/Update
p274
aVCell/Update
p275
aVCell/Update
p276
aVCell/Update
p277
aVColumn/Formula
p278
aVColumn/Formula
p279
aVColumn/Formula
p280
aVCell/Update
p281
aVCell/Update
p282
aVCell/Update
p283
aVCell/Update
p284
aVCell/Update
p285
asS'_filepath'
p286
V/home/ubuntu/SciSheets/mysite/user/guest/tables/kristen_single_gene.pcl
p287
sS'_backup_dir'
p288
g17
sbsS'_namespace'
p289
(dp290
sS'_hidden_columns'
p291
(lp292
g0
(cscisheets.core.column
Column
p293
g2
Ntp294
Rp295
(dp296
S'_asis'
p297
I00
sS'_owning_table'
p298
g4
sS'_cells'
p299
(lp300
(lp301
cnumpy.core.multiarray
scalar
p302
(cnumpy
dtype
p303
(S'i8'
p304
I0
I1
tp305
Rp306
(I3
S'<'
p307
NNNI-1
I-1
I0
tp308
bS'\x00\x00\x00\x00\x00\x00\x00\x00'
p309
tp310
Rp311
aVI
p312
ag302
(g306
S'\x01\x00\x00\x00\x00\x00\x00\x00'
p313
tp314
Rp315
aa(lp316
g302
(g306
S'\x00\x00\x00\x00\x00\x00\x00\x00'
p317
tp318
Rp319
aVR1
p320
ag302
(g306
S'\x01\x00\x00\x00\x00\x00\x00\x00'
p321
tp322
Rp323
aa(lp324
g302
(g306
S'\x00\x00\x00\x00\x00\x00\x00\x00'
p325
tp326
Rp327
aVR2
p328
ag302
(g306
S'\x01\x00\x00\x00\x00\x00\x00\x00'
p329
tp330
Rp331
aa(lp332
g302
(g306
S'\x01\x00\x00\x00\x00\x00\x00\x00'
p333
tp334
Rp335
ag312
ag302
(g306
S'\x01\x00\x00\x00\x00\x00\x00\x00'
p336
tp337
Rp338
aa(lp339
g302
(g306
S'\x01\x00\x00\x00\x00\x00\x00\x00'
p340
tp341
Rp342
ag312
ag302
(g306
S'\x02\x00\x00\x00\x00\x00\x00\x00'
p343
tp344
Rp345
aa(lp346
g302
(g306
S'\x01\x00\x00\x00\x00\x00\x00\x00'
p347
tp348
Rp349
ag312
ag302
(g306
S'\x03\x00\x00\x00\x00\x00\x00\x00'
p350
tp351
Rp352
aa(lp353
g302
(g306
S'\x01\x00\x00\x00\x00\x00\x00\x00'
p354
tp355
Rp356
ag320
ag302
(g306
S'\x01\x00\x00\x00\x00\x00\x00\x00'
p357
tp358
Rp359
aa(lp360
g302
(g306
S'\x01\x00\x00\x00\x00\x00\x00\x00'
p361
tp362
Rp363
ag320
ag302
(g306
S'\x02\x00\x00\x00\x00\x00\x00\x00'
p364
tp365
Rp366
aa(lp367
g302
(g306
S'\x01\x00\x00\x00\x00\x00\x00\x00'
p368
tp369
Rp370
ag320
ag302
(g306
S'\x03\x00\x00\x00\x00\x00\x00\x00'
p371
tp372
Rp373
aa(lp374
g302
(g306
S'\x01\x00\x00\x00\x00\x00\x00\x00'
p375
tp376
Rp377
ag328
ag302
(g306
S'\x01\x00\x00\x00\x00\x00\x00\x00'
p378
tp379
Rp380
aa(lp381
g302
(g306
S'\x01\x00\x00\x00\x00\x00\x00\x00'
p382
tp383
Rp384
ag328
ag302
(g306
S'\x02\x00\x00\x00\x00\x00\x00\x00'
p385
tp386
Rp387
aa(lp388
g302
(g306
S'\x01\x00\x00\x00\x00\x00\x00\x00'
p389
tp390
Rp391
ag328
ag302
(g306
S'\x03\x00\x00\x00\x00\x00\x00\x00'
p392
tp393
Rp394
aa(lp395
g302
(g306
S'\x02\x00\x00\x00\x00\x00\x00\x00'
p396
tp397
Rp398
ag312
ag302
(g306
S'\x01\x00\x00\x00\x00\x00\x00\x00'
p399
tp400
Rp401
aa(lp402
g302
(g306
S'\x02\x00\x00\x00\x00\x00\x00\x00'
p403
tp404
Rp405
ag320
ag302
(g306
S'\x01\x00\x00\x00\x00\x00\x00\x00'
p406
tp407
Rp408
aa(lp409
g302
(g306
S'\x02\x00\x00\x00\x00\x00\x00\x00'
p410
tp411
Rp412
ag328
ag302
(g306
S'\x01\x00\x00\x00\x00\x00\x00\x00'
p413
tp414
Rp415
aa(lp416
g302
(g306
S'\x03\x00\x00\x00\x00\x00\x00\x00'
p417
tp418
Rp419
ag312
ag302
(g306
S'\x01\x00\x00\x00\x00\x00\x00\x00'
p420
tp421
Rp422
aa(lp423
g302
(g306
S'\x03\x00\x00\x00\x00\x00\x00\x00'
p424
tp425
Rp426
ag320
ag302
(g306
S'\x01\x00\x00\x00\x00\x00\x00\x00'
p427
tp428
Rp429
aa(lp430
g302
(g306
S'\x03\x00\x00\x00\x00\x00\x00\x00'
p431
tp432
Rp433
ag328
ag302
(g306
S'\x01\x00\x00\x00\x00\x00\x00\x00'
p434
tp435
Rp436
aaNaNaNaNaNaNaNaNaNaNaNaNaNaNaNaNaNaNaNaNaNaNaNaNaNaNaNaNaNaNaNaNaNaNaNaNaNaNaNaNaNaNaNaNaNaNasS'_formula_statement'
p437
g0
(cscisheets.core.helpers.formula_statement
FormulaStatement
p438
g2
Ntp439
Rp440
(dp441
S'_statement'
p442
Vsel = Eff > min_eff\u000agrouping_columns =   [\u000a    Treatment[sel],\u000a     RunType[sel], \u000a    BRpl[sel],      \u000a  ]\u000aGroups, groupedCt = groupBy(\u000a     grouping_columns, Ct[sel])\u000aGroups, groupedEff = groupBy(\u000a     grouping_columns, Eff[sel])\u000aGroups = [[g[0], g[1], g[2]] for g in Groups]\u000aGroupedCt = roundValues(groupedCt,2)\u000aGroupedEff = roundValues(groupedEff,2)
p443
sS'_name'
p444
VGroups
p445
sS'_isExpression'
p446
I00
sS'_isStatement'
p447
I00
sS'_formula'
p448
Vsel = Eff > min_eff\u000agrouping_columns =   [\u000a    Treatment[sel],\u000a     RunType[sel], \u000a    BRpl[sel],      \u000a  ]\u000aGroups, groupedCt = groupBy(\u000a     grouping_columns, Ct[sel])\u000aGroups, groupedEff = groupBy(\u000a     grouping_columns, Eff[sel])\u000aGroups = [[g[0], g[1], g[2]] for g in Groups]\u000aGroupedCt = roundValues(groupedCt,2)\u000aGroupedEff = roundValues(groupedEff,2)
p449
sbsS'_data_class'
p450
g0
(cscisheets.core.helpers.api_util
DataClass
p451
c__builtin__
tuple
p452
(cnumpy
ndarray
p453
cscisheets.core.helpers.api_util
makeArray
p454
tp455
tp456
Rp457
sg444
g445
sbag0
(g293
g2
Ntp458
Rp459
(dp460
g297
I00
sg298
g4
sg299
(lp461
(lp462
F0.92
aF0.91
aF0.91
aa(lp463
F0.83
aF0.83
aF0.85
aa(lp464
F0.82
aF0.85
aF0.82
aa(lp465
F0.85
aF0.84
aF0.85
aa(lp466
F0.87
aF0.78
aF0.85
aa(lp467
F0.84
aF0.84
aF0.77
aa(lp468
F0.92
aF0.98
aF0.9
aa(lp469
F0.9
aF0.83
aF0.84
aa(lp470
F0.87
aF0.85
aF0.83
aa(lp471
F0.79
aF0.84
aF0.86
aa(lp472
F0.83
aF0.82
aF0.83
aa(lp473
F0.81
aF0.82
aF0.8
aa(lp474
F0.84
aF0.79
aF0.81
aa(lp475
F0.77
aF0.87
aF0.81
aa(lp476
F0.78
aF0.77
aF0.79
aa(lp477
F0.88
aF0.86
aF0.89
aa(lp478
F0.87
aF0.9
aF0.86
aa(lp479
F0.82
aF0.82
aF0.79
aaNaNaNaNaNaNaNaNaNaNaNaNaNaNaNaNaNaNaNaNaNaNaNaNaNaNaNaNaNaNaNaNaNaNaNaNaNaNaNaNaNaNaNaNaNaNasg437
g0
(g438
g2
Ntp480
Rp481
(dp482
g442
NsS'_column'
p483
g459
sg446
I00
sg447
I00
sg448
Nsbsg450
g0
(g451
g452
(g453
g454
tp484
tp485
Rp486
sg444
VGroupedEff
p487
sbag0
(g293
g2
Ntp488
Rp489
(dp490
g297
I00
sg298
g4
sg299
(lp491
(lp492
F18.31
aF18.29
aF18.15
aa(lp493
F18.24
aF18.22
aF18.36
aa(lp494
F19.72
aF19.75
aF20.01
aa(lp495
F22.42
aF22.5
aF22.44
aa(lp496
F21.92
aF22.03
aF21.94
aa(lp497
F23.4
aF23.47
aF23.41
aa(lp498
F19.92
aF19.85
aF20.0
aa(lp499
F21.86
aF22.09
aF21.84
aa(lp500
F23.89
aF23.54
aF24.27
aa(lp501
F22.18
aF21.71
aF21.75
aa(lp502
F23.88
aF23.42
aF23.63
aa(lp503
F24.59
aF24.61
aF24.34
aa(lp504
F23.48
aF23.31
aF23.45
aa(lp505
F23.22
aF23.8
aF23.49
aa(lp506
F26.37
aF26.36
aF26.17
aa(lp507
F18.82
aF18.97
aF18.92
aa(lp508
F18.91
aF18.78
aF18.8
aa(lp509
F20.5
aF20.47
aF20.28
aaNaNaNaNaNaNaNaNaNaNaNaNaNaNaNaNaNaNaNaNaNaNaNaNaNaNaNaNaNaNaNaNaNaNaNaNaNaNaNaNaNaNaNaNaNaNasg437
g0
(g438
g2
Ntp510
Rp511
(dp512
g442
Nsg483
g489
sg446
I00
sg447
I00
sg448
Nsbsg450
g0
(g451
g452
(g453
g454
tp513
tp514
Rp515
sg444
VGroupedCt
p516
sbag0
(g293
g2
Ntp517
Rp518
(dp519
g297
I00
sg298
g4
sg299
(lp520
(lp521
F18.3
aF18.3
aF18.1
aa(lp522
F18.2
aF18.2
aF18.4
aa(lp523
F19.7
aF19.8
aF20.0
aa(lp524
F22.4
aF22.5
aF22.4
aa(lp525
F21.9
aF22.0
aF21.9
aa(lp526
F23.4
aF23.5
aF23.4
aa(lp527
F19.9
aF19.9
aF20.0
aa(lp528
F21.9
aF22.1
aF21.8
aa(lp529
F23.9
aF23.5
aF24.3
aa(lp530
F22.2
aF21.7
aF21.8
aa(lp531
F23.9
aF23.4
aF23.6
aa(lp532
F24.6
aF24.6
aF24.3
aa(lp533
F23.5
aF23.3
aF23.4
aa(lp534
F23.2
aF23.8
aF23.5
aa(lp535
F26.4
aF26.4
aF26.2
aa(lp536
F18.8
aF19.0
aF18.9
aa(lp537
F18.9
aF18.8
aF18.8
aa(lp538
F20.5
aF20.5
aF20.3
aaNaNaNaNaNaNaNaNaNaNaNaNaNaNaNaNaNaNaNaNaNaNaNaNaNaNaNaNaNaNaNaNaNaNaNaNaNaNaNaNaNaNaNaNaNaNasg437
g0
(g438
g2
Ntp539
Rp540
(dp541
g442
Vlength = len(Groups)\u000aStdFilteredGroupedCt = roundValues([filterExtremes(g, max_std, 2) for g in pruneNulls(GroupedCt,    required_length=length)])\u000a 
p542
sg444
VStdFilteredGroupedCt
p543
sg446
I00
sg447
I00
sg448
Vlength = len(Groups)\u000aStdFilteredGroupedCt = roundValues([filterExtremes(g, max_std, 2) for g in pruneNulls(GroupedCt,    required_length=length)])\u000a 
p544
sbsg450
g0
(g451
g452
(g453
g454
tp545
tp546
Rp547
sg444
g543
sbag0
(g293
g2
Ntp548
Rp549
(dp550
g297
I00
sg298
g4
sg299
(lp551
F18.2
aF18.3
aF19.8
aF22.4
aF21.9
aF23.4
aF19.9
aF21.9
aF23.9
aF21.9
aF23.6
aF24.5
aF23.4
aF23.5
aF26.3
aF18.9
aF18.8
aF20.4
aFnan
aFnan
aFnan
aFnan
aFnan
aFnan
aFnan
aFnan
aFnan
aFnan
aFnan
aFnan
aFnan
aFnan
aFnan
aFnan
aFnan
aFnan
aFnan
aFnan
aFnan
aFnan
aFnan
aFnan
aFnan
aFnan
aFnan
aFnan
aFnan
aFnan
aFnan
aFnan
aFnan
aFnan
aFnan
aFnan
aFnan
aFnan
aFnan
aFnan
aFnan
aFnan
aFnan
aFnan
aFnan
aFnan
asg437
g0
(g438
g2
Ntp552
Rp553
(dp554
g442
VMeanCt = [np.mean(g) for g in StdFilteredGroupedCt]\u000aMeanCt = roundValues(MeanCt,1)\u000aStdCt = [np.std(g, ddof=1) for g in StdFilteredGroupedCt]\u000aStdCt = roundValues(StdCt,3)
p555
sg444
VMeanCt
p556
sg446
I00
sg447
I00
sg448
VMeanCt = [np.mean(g) for g in StdFilteredGroupedCt]\u000aMeanCt = roundValues(MeanCt,1)\u000aStdCt = [np.std(g, ddof=1) for g in StdFilteredGroupedCt]\u000aStdCt = roundValues(StdCt,3)
p557
sbsg450
g0
(g451
g452
(g453
g454
tp558
tp559
Rp560
sg444
g556
sbag0
(g293
g2
Ntp561
Rp562
(dp563
g297
I00
sg298
g4
sg299
(lp564
F0.115
aF0.115
aF0.153
aF0.058
aF0.058
aF0.058
aF0.058
aF0.153
aF0.4
aF0.265
aF0.252
aF0.173
aF0.1
aF0.3
aF0.115
aF0.1
aF0.058
aF0.115
aFnan
aFnan
aFnan
aFnan
aFnan
aFnan
aFnan
aFnan
aFnan
aFnan
aFnan
aFnan
aFnan
aFnan
aFnan
aFnan
aFnan
aFnan
aFnan
aFnan
aFnan
aFnan
aFnan
aFnan
aFnan
aFnan
aFnan
aFnan
aFnan
aFnan
aFnan
aFnan
aFnan
aFnan
aFnan
aFnan
aFnan
aFnan
aFnan
aFnan
aFnan
aFnan
aFnan
aFnan
aFnan
aFnan
asg437
g0
(g438
g2
Ntp565
Rp566
(dp567
g442
Nsg483
g562
sg446
I00
sg447
I00
sg448
Nsbsg450
g0
(g451
g452
(g453
g454
tp568
tp569
Rp570
sg444
VStdCt
p571
sbag0
(g293
g2
Ntp572
Rp573
(dp574
g297
I00
sg298
g4
sg299
(lp575
(lp576
g302
(g306
S'\x00\x00\x00\x00\x00\x00\x00\x00'
p577
tp578
Rp579
ag302
(g306
S'\x01\x00\x00\x00\x00\x00\x00\x00'
p580
tp581
Rp582
aa(lp583
g302
(g306
S'\x01\x00\x00\x00\x00\x00\x00\x00'
p584
tp585
Rp586
ag302
(g306
S'\x01\x00\x00\x00\x00\x00\x00\x00'
p587
tp588
Rp589
aa(lp590
g302
(g306
S'\x01\x00\x00\x00\x00\x00\x00\x00'
p591
tp592
Rp593
ag302
(g306
S'\x02\x00\x00\x00\x00\x00\x00\x00'
p594
tp595
Rp596
aa(lp597
g302
(g306
S'\x01\x00\x00\x00\x00\x00\x00\x00'
p598
tp599
Rp600
ag302
(g306
S'\x03\x00\x00\x00\x00\x00\x00\x00'
p601
tp602
Rp603
aa(lp604
g302
(g306
S'\x02\x00\x00\x00\x00\x00\x00\x00'
p605
tp606
Rp607
ag302
(g306
S'\x01\x00\x00\x00\x00\x00\x00\x00'
p608
tp609
Rp610
aa(lp611
g302
(g306
S'\x03\x00\x00\x00\x00\x00\x00\x00'
p612
tp613
Rp614
ag302
(g306
S'\x01\x00\x00\x00\x00\x00\x00\x00'
p615
tp616
Rp617
aaNaNaNaNaNaNaNaNaNaNaNaNaNaNaNaNaNaNaNaNaNaNaNaNaNaNaNaNaNaNaNaNaNaNaNaNaNaNaNaNaNaNaNaNaNaNaNaNaNaNaNaNaNaNaNaNaNaNasg437
g0
(g438
g2
Ntp618
Rp619
(dp620
g442
Vdummy = tabularize(s, 'Groups', 1, 'MeanCt', \u000a          new_category_colnm='BioRuns',\u000a          values_colnm_prefix='Gene_')
p621
sg444
VBioRuns
p622
sg446
I00
sg447
I00
sg448
Vdummy = tabularize(s, 'Groups', 1, 'MeanCt', \u000a          new_category_colnm='BioRuns',\u000a          values_colnm_prefix='Gene_')
p623
sbsg450
g0
(g451
g452
(g453
g454
tp624
tp625
Rp626
sg444
g622
sbag0
(g293
g2
Ntp627
Rp628
(dp629
g297
I00
sg298
g4
sg299
(lp630
F18.2
aF22.4
aF21.9
aF23.4
aF23.4
aF18.9
aFnan
aFnan
aFnan
aFnan
aFnan
aFnan
aFnan
aFnan
aFnan
aFnan
aFnan
aFnan
aFnan
aFnan
aFnan
aFnan
aFnan
aFnan
aFnan
aFnan
aFnan
aFnan
aFnan
aFnan
aFnan
aFnan
aFnan
aFnan
aFnan
aFnan
aFnan
aFnan
aFnan
aFnan
aFnan
aFnan
aFnan
aFnan
aFnan
aFnan
aFnan
aFnan
aFnan
aFnan
aFnan
aFnan
aFnan
aFnan
aFnan
aFnan
aFnan
aFnan
aFnan
aFnan
aFnan
aFnan
aFnan
aFnan
asg437
g0
(g438
g2
Ntp631
Rp632
(dp633
g442
Nsg483
g628
sg446
I00
sg447
I00
sg448
Nsbsg450
g0
(g451
g452
(g453
g454
tp634
tp635
Rp636
sg444
S'Gene_I'
p637
sbag0
(g293
g2
Ntp638
Rp639
(dp640
g297
I00
sg298
g4
sg299
(lp641
F18.3
aF19.9
aF21.9
aF23.9
aF23.5
aF18.8
aFnan
aFnan
aFnan
aFnan
aFnan
aFnan
aFnan
aFnan
aFnan
aFnan
aFnan
aFnan
aFnan
aFnan
aFnan
aFnan
aFnan
aFnan
aFnan
aFnan
aFnan
aFnan
aFnan
aFnan
aFnan
aFnan
aFnan
aFnan
aFnan
aFnan
aFnan
aFnan
aFnan
aFnan
aFnan
aFnan
aFnan
aFnan
aFnan
aFnan
aFnan
aFnan
aFnan
aFnan
aFnan
aFnan
aFnan
aFnan
aFnan
aFnan
aFnan
aFnan
aFnan
aFnan
aFnan
aFnan
aFnan
aFnan
asg437
g0
(g438
g2
Ntp642
Rp643
(dp644
g442
Nsg483
g639
sg446
I00
sg447
I00
sg448
Nsbsg450
g636
sg444
S'Gene_R1'
p645
sbag0
(g293
g2
Ntp646
Rp647
(dp648
g297
I00
sg298
g4
sg299
(lp649
F19.8
aF21.9
aF23.6
aF24.5
aF26.3
aF20.4
aFnan
aFnan
aFnan
aFnan
aFnan
aFnan
aFnan
aFnan
aFnan
aFnan
aFnan
aFnan
aFnan
aFnan
aFnan
aFnan
aFnan
aFnan
aFnan
aFnan
aFnan
aFnan
aFnan
aFnan
aFnan
aFnan
aFnan
aFnan
aFnan
aFnan
aFnan
aFnan
aFnan
aFnan
aFnan
aFnan
aFnan
aFnan
aFnan
aFnan
aFnan
aFnan
aFnan
aFnan
aFnan
aFnan
aFnan
aFnan
aFnan
aFnan
aFnan
aFnan
aFnan
aFnan
aFnan
aFnan
aFnan
aFnan
asg437
g0
(g438
g2
Ntp650
Rp651
(dp652
g442
Nsg483
g647
sg446
I00
sg447
I00
sg448
Nsbsg450
g636
sg444
S'Gene_R2'
p653
sbag0
(g293
g2
Ntp654
Rp655
(dp656
g297
I00
sg298
g4
sg299
(lp657
F1.07177
aF0.17678
aF1.0
aF1.41421
aF1.07177
aF0.93303
aFnan
aFnan
aFnan
aFnan
aFnan
aFnan
aFnan
aFnan
aFnan
aFnan
aFnan
aFnan
aFnan
aFnan
aFnan
aFnan
aFnan
aFnan
aFnan
aFnan
aFnan
aFnan
aFnan
aFnan
aFnan
aFnan
aFnan
aFnan
aFnan
aFnan
aFnan
aFnan
aFnan
aFnan
aFnan
aFnan
aFnan
aFnan
aFnan
aFnan
aFnan
aFnan
aFnan
aFnan
aFnan
aFnan
aFnan
aFnan
aFnan
aFnan
aFnan
aFnan
aFnan
aFnan
aFnan
aFnan
aFnan
aFnan
asg437
g0
(g438
g2
Ntp658
Rp659
(dp660
g442
VExprR1 = roundValues(2**(Gene_R1 - Gene_I),5)
p661
sg444
VExprR1
p662
sg446
I01
sg447
I00
sg448
VroundValues(2**(Gene_R1 - Gene_I),5)
p663
sbsg450
g0
(g451
g452
(g453
g454
tp664
tp665
Rp666
sg444
g662
sbag0
(g293
g2
Ntp667
Rp668
(dp669
g297
I00
sg298
g4
sg299
(lp670
F3.03143
aF0.70711
aF3.24901
aF2.14355
aF7.46426
aF2.82843
aFnan
aFnan
aFnan
aFnan
aFnan
aFnan
aFnan
aFnan
aFnan
aFnan
aFnan
aFnan
aFnan
aFnan
aFnan
aFnan
aFnan
aFnan
aFnan
aFnan
aFnan
aFnan
aFnan
aFnan
aFnan
aFnan
aFnan
aFnan
aFnan
aFnan
aFnan
aFnan
aFnan
aFnan
aFnan
aFnan
aFnan
aFnan
aFnan
aFnan
aFnan
aFnan
aFnan
aFnan
aFnan
aFnan
aFnan
aFnan
aFnan
aFnan
aFnan
aFnan
aFnan
aFnan
aFnan
aFnan
aFnan
aFnan
asg437
g0
(g438
g2
Ntp671
Rp672
(dp673
g442
VExprR2 = roundValues(2**(Gene_R2 - Gene_I),5)
p674
sg444
VExprR2
p675
sg446
I01
sg447
I00
sg448
VroundValues(2**(Gene_R2 - Gene_I),5)
p676
sbsg450
g0
(g451
g452
(g453
g454
tp677
tp678
Rp679
sg444
g675
sbag0
(g293
g2
Ntp680
Rp681
(dp682
g297
I00
sg298
g4
sg299
(lp683
F1.802
aF0.354
aF1.803
aF1.741
aF2.828
aF1.625
aFnan
aFnan
aFnan
aFnan
aFnan
aFnan
aFnan
aFnan
aFnan
aFnan
aFnan
aFnan
aFnan
aFnan
aFnan
aFnan
aFnan
aFnan
aFnan
aFnan
aFnan
aFnan
aFnan
aFnan
aFnan
aFnan
aFnan
aFnan
aFnan
aFnan
aFnan
aFnan
aFnan
aFnan
aFnan
aFnan
aFnan
aFnan
aFnan
aFnan
aFnan
aFnan
aFnan
aFnan
aFnan
aFnan
aFnan
aFnan
aFnan
aFnan
aFnan
aFnan
aFnan
aFnan
aFnan
aFnan
aFnan
aFnan
asg437
g0
(g438
g2
Ntp684
Rp685
(dp686
g442
VGeoMean = roundValues(np.sqrt(ExprR1*ExprR2), 3)
p687
sg444
VGeoMean
p688
sg446
I01
sg447
I00
sg448
VroundValues(np.sqrt(ExprR1*ExprR2), 3)
p689
sbsg450
g0
(g451
g452
(g453
g454
tp690
tp691
Rp692
sg444
g688
sbag0
(g293
g2
Ntp693
Rp694
(dp695
g297
I00
sg298
g4
sg299
(lp696
F1.0
aF1.0
aF1.0
aF1.0
aF1.0
aF1.0
aF1.0
aF1.0
aF1.0
aF1.0
aF1.0
aF1.0
aF2.0
aF2.0
aF2.0
aF3.0
aF3.0
aF3.0
aF1.0
aF1.0
aF1.0
aF2.0
aF2.0
aF2.0
aF3.0
aF3.0
aF3.0
aF1.0
aF1.0
aF1.0
aF2.0
aF2.0
aF2.0
aF3.0
aF3.0
aF3.0
aF1.0
aF1.0
aF1.0
aF1.0
aF1.0
aF1.0
aF1.0
aF1.0
aF1.0
aF1.0
aF1.0
aF1.0
aF1.0
aF1.0
aF1.0
aF1.0
aF1.0
aF1.0
aFnan
aFnan
aFnan
aFnan
aFnan
aFnan
aFnan
aFnan
aFnan
aFnan
asg437
g0
(g438
g2
Ntp697
Rp698
(dp699
g442
Nsg444
S'BRpl'
p700
sg446
I00
sg447
I00
sg448
Nsbsg450
g0
(g451
g452
(g453
g454
tp701
tp702
Rp703
sg444
g700
sbag0
(g293
g2
Ntp704
Rp705
(dp706
g297
I00
sg298
g4
sg299
(lp707
F18.31
aF18.29
aF18.15
aF18.24
aF18.22
aF18.36
aF19.72
aF19.75
aF20.01
aF22.42
aF22.5
aF22.44
aF21.92
aF22.03
aF21.94
aF23.4
aF23.47
aF23.41
aF19.92
aF19.85
aF20.0
aF21.86
aF22.09
aF21.84
aF23.89
aF23.54
aF24.27
aF22.18
aF21.71
aF21.75
aF23.88
aF23.42
aF23.63
aF24.59
aF24.61
aF24.34
aF23.48
aF23.31
aF23.45
aF23.22
aF23.8
aF23.49
aF26.37
aF26.36
aF26.17
aF18.82
aF18.97
aF18.92
aF18.91
aF18.78
aF18.8
aF20.5
aF20.47
aF20.28
aFnan
aFnan
aFnan
aFnan
aFnan
aFnan
aFnan
aFnan
aFnan
aFnan
asg437
g0
(g438
g2
Ntp708
Rp709
(dp710
g442
Nsg444
S'Ct'
p711
sg446
I00
sg447
I00
sg448
Nsbsg450
g703
sg444
g711
sbag0
(g293
g2
Ntp712
Rp713
(dp714
g297
I00
sg298
g4
sg299
(lp715
F0.919
aF0.9106
aF0.9129
aF0.8266
aF0.8343
aF0.8496
aF0.8157
aF0.8543
aF0.8208
aF0.8453
aF0.8426
aF0.8524
aF0.8658
aF0.7809
aF0.8512
aF0.8442
aF0.8357
aF0.7658
aF0.9179
aF0.9783
aF0.8971
aF0.8957
aF0.8287
aF0.8387
aF0.8746
aF0.8493
aF0.8349
aF0.7857
aF0.8427
aF0.8637
aF0.8281
aF0.8203
aF0.8288
aF0.8138
aF0.8242
aF0.804
aF0.8352
aF0.7886
aF0.8105
aF0.7701
aF0.8746
aF0.8139
aF0.7795
aF0.7676
aF0.7947
aF0.876
aF0.8597
aF0.8873
aF0.8715
aF0.8977
aF0.856
aF0.8179
aF0.8173
aF0.7894
aFnan
aFnan
aFnan
aFnan
aFnan
aFnan
aFnan
aFnan
aFnan
aFnan
asg437
g0
(g438
g2
Ntp716
Rp717
(dp718
g442
Nsg444
S'Eff'
p719
sg446
I00
sg447
I00
sg448
Nsbsg450
g703
sg444
g719
sbag0
(g293
g2
Ntp720
Rp721
(dp722
g297
I00
sg298
g4
sg299
(lp723
g312
ag312
ag312
aVR1
p724
aVR1
p725
aVR1
p726
aVR2
p727
aVR2
p728
aVR2
p729
ag312
ag312
ag312
ag312
ag312
ag312
ag312
ag312
ag312
aVR1
p730
aVR1
p731
aVR1
p732
aVR1
p733
aVR1
p734
aVR1
p735
aVR1
p736
aVR1
p737
aVR1
p738
aVR2
p739
aVR2
p740
aVR2
p741
aVR2
p742
aVR2
p743
aVR2
p744
aVR2
p745
aVR2
p746
aVR2
p747
ag312
ag312
ag312
aVR1
p748
aVR1
p749
aVR1
p750
aVR2
p751
aVR2
p752
aVR2
p753
ag312
ag312
ag312
aVR1
p754
aVR1
p755
aVR1
p756
aVR2
p757
aVR2
p758
aVR2
p759
aNaNaNaNaNaNaNaNaNaNasg437
g0
(g438
g2
Ntp760
Rp761
(dp762
g442
Nsg444
S'RunType'
p763
sg446
I00
sg447
I00
sg448
Nsbsg450
g703
sg444
g763
sbag0
(g293
g2
Ntp764
Rp765
(dp766
g297
I00
sg298
g4
sg299
(lp767
Va
p768
aVb
p769
aVc
p770
ag768
ag769
ag770
ag768
ag769
ag770
ag768
ag769
ag770
ag768
ag769
ag770
ag768
ag769
ag770
ag768
ag769
ag770
ag768
ag769
ag770
ag768
ag769
ag770
ag768
ag769
ag770
ag768
ag769
ag770
ag768
ag769
ag770
ag768
ag769
ag770
ag768
ag769
ag770
ag768
ag769
ag770
ag768
ag769
ag770
ag768
ag769
ag770
ag768
ag769
ag770
aNaNaNaNaNaNaNaNaNaNasg437
g0
(g438
g2
Ntp771
Rp772
(dp773
g442
Nsg444
S'TRpl'
p774
sg446
I00
sg447
I00
sg448
Nsbsg450
g703
sg444
g774
sbag0
(g293
g2
Ntp775
Rp776
(dp777
g297
I00
sg298
g4
sg299
(lp778
F0.0
aF0.0
aF0.0
aF0.0
aF0.0
aF0.0
aF0.0
aF0.0
aF0.0
aF1.0
aF1.0
aF1.0
aF1.0
aF1.0
aF1.0
aF1.0
aF1.0
aF1.0
aF1.0
aF1.0
aF1.0
aF1.0
aF1.0
aF1.0
aF1.0
aF1.0
aF1.0
aF1.0
aF1.0
aF1.0
aF1.0
aF1.0
aF1.0
aF1.0
aF1.0
aF1.0
aF2.0
aF2.0
aF2.0
aF2.0
aF2.0
aF2.0
aF2.0
aF2.0
aF2.0
aF3.0
aF3.0
aF3.0
aF3.0
aF3.0
aF3.0
aF3.0
aF3.0
aF3.0
aFnan
aFnan
aFnan
aFnan
aFnan
aFnan
aFnan
aFnan
aFnan
aFnan
asg437
g0
(g438
g2
Ntp779
Rp780
(dp781
g442
Nsg444
S'Treatment'
p782
sg446
I00
sg447
I00
sg448
Nsbsg450
g703
sg444
g782
sbasS'_is_evaluate_formulas'
p783
I01
sS'_prologue'
p784
g0
(g438
g2
Ntp785
Rp786
(dp787
g442
V# Prologue\u000aimport math as mt\u000aimport numpy as np\u000afrom os import listdir\u000afrom os.path import isfile, join\u000aimport pandas as pd\u000aimport scipy as sp\u000afrom numpy import nan  # Must follow sympy import \u000a\u000axlsx_path = '/mnt/hgfs/josephhellerstein/home/Technical/SciSheets/CaseStudies/Kristen/workbooks/data.xlsx'\u000agene = ParmValues[0]\u000arun = ParmValues[1] == 'True'\u000ashow_raw = ParmValues[2] == 'True'\u000ashow_block1 = ParmValues[3] == 'True'\u000ashow_block2 = ParmValues[4] == 'True'\u000ashow_block3 = ParmValues[5] == 'True'\u000ashow_params = ParmValues[8] == 'True'\u000a#show_params = True\u000amax_std  = float(ParmValues[6])\u000amin_eff = float(ParmValues[7])\u000aworksheet = gene + "-I"\u000as.getTable().setIsEvaluateFormulas(run)\u000as.setColumnVisibility()\u000as.setColumnVisibility(['Groups', 'GroupedEff', 'GroupedCt', 'StdFilteredGroupedCt', 'MeanCt', 'StdCt'], is_visible=show_block1)\u000as.setColumnVisibility(['BioRuns', 'Gene_I', 'Gene_R1', 'Gene_R2', 'ExprR1', 'ExprR2', 'GeoMean'], is_visible=show_block2)\u000as.setColumnVisibility(['GeoGroups', 'GroupedGeoMeans', 'NrmlGeoGroupedMeans', 'MeanNrmlGeoGroups', 'StdNrmlGeoGroups'], is_visible=show_block3)\u000aif False:\u000a  Groups = []\u000a  GroupedCt = []\u000a  GroupedEff = []\u000a  MeanCt = []\u000a  Imp = []\u000a  s.deleteColumn('Ct')\u000a  s.deleteColumn('RunType')\u000a  s.deleteColumn('BRpl')\u000a  s.deleteColumn('TRpl')\u000a  s.deleteColumn('Treatment')\u000a  s.deleteColumn('Eff')\u000aif run:\u000a  importExcelToTable(s, xlsx_path, worksheet=worksheet,\u000a      column_position='ParmValues',\u000a      names=['Treatment', 'RunType', 'BRpl', 'TRpl', 'Eff', 'Ct'])\u000as.setColumnVisibility(['BRpl', 'Ct', 'Eff', 'RunType', 'TRpl', 'Treatment'], is_visible=show_raw)\u000as.setColumnVisibility(['ParmNames', 'ParmValues'], show_params)
p788
sg444
VSingleGene
p789
sg446
I00
sg447
I00
sg448
V# Prologue\u000aimport math as mt\u000aimport numpy as np\u000afrom os import listdir\u000afrom os.path import isfile, join\u000aimport pandas as pd\u000aimport scipy as sp\u000afrom numpy import nan  # Must follow sympy import \u000a\u000axlsx_path = '/mnt/hgfs/josephhellerstein/home/Technical/SciSheets/CaseStudies/Kristen/workbooks/data.xlsx'\u000agene = ParmValues[0]\u000arun = ParmValues[1] == 'True'\u000ashow_raw = ParmValues[2] == 'True'\u000ashow_block1 = ParmValues[3] == 'True'\u000ashow_block2 = ParmValues[4] == 'True'\u000ashow_block3 = ParmValues[5] == 'True'\u000ashow_params = ParmValues[8] == 'True'\u000a#show_params = True\u000amax_std  = float(ParmValues[6])\u000amin_eff = float(ParmValues[7])\u000aworksheet = gene + "-I"\u000as.getTable().setIsEvaluateFormulas(run)\u000as.setColumnVisibility()\u000as.setColumnVisibility(['Groups', 'GroupedEff', 'GroupedCt', 'StdFilteredGroupedCt', 'MeanCt', 'StdCt'], is_visible=show_block1)\u000as.setColumnVisibility(['BioRuns', 'Gene_I', 'Gene_R1', 'Gene_R2', 'ExprR1', 'ExprR2', 'GeoMean'], is_visible=show_block2)\u000as.setColumnVisibility(['GeoGroups', 'GroupedGeoMeans', 'NrmlGeoGroupedMeans', 'MeanNrmlGeoGroups', 'StdNrmlGeoGroups'], is_visible=show_block3)\u000aif False:\u000a  Groups = []\u000a  GroupedCt = []\u000a  GroupedEff = []\u000a  MeanCt = []\u000a  Imp = []\u000a  s.deleteColumn('Ct')\u000a  s.deleteColumn('RunType')\u000a  s.deleteColumn('BRpl')\u000a  s.deleteColumn('TRpl')\u000a  s.deleteColumn('Treatment')\u000a  s.deleteColumn('Eff')\u000aif run:\u000a  importExcelToTable(s, xlsx_path, worksheet=worksheet,\u000a      column_position='ParmValues',\u000a      names=['Treatment', 'RunType', 'BRpl', 'TRpl', 'Eff', 'Ct'])\u000as.setColumnVisibility(['BRpl', 'Ct', 'Eff', 'RunType', 'TRpl', 'Treatment'], is_visible=show_raw)\u000as.setColumnVisibility(['ParmNames', 'ParmValues'], show_params)
p790
sbsS'_epilogue'
p791
g0
(g438
g2
Ntp792
Rp793
(dp794
g442
V# Epilogue\u000aif run:\u000a  worksheet = "%s-O" % gene\u000a  exportTableToExcel(s, xlsx_path, worksheet=worksheet, columns=['GeoGroups', 'MeanNrmlGeoGroups', 'StdNrmlGeoGroups'])\u000a
p795
sg444
g789
sg446
I00
sg447
I00
sg448
V# Epilogue\u000aif run:\u000a  worksheet = "%s-O" % gene\u000a  exportTableToExcel(s, xlsx_path, worksheet=worksheet, columns=['GeoGroups', 'MeanNrmlGeoGroups', 'StdNrmlGeoGroups'])\u000a
p796
sbsg444
g789
sS'_columns'
p797
(lp798
g0
(g293
g2
Ntp799
Rp800
(dp801
g297
I01
sg298
g4
sg299
(lp802
S'1'
p803
aS'2'
p804
aS'3'
p805
aS'4'
p806
aS'5'
p807
aS'6'
p808
aS'7'
p809
aS'8'
p810
aS'9'
p811
aS'10'
p812
aS'11'
p813
aS'12'
p814
aS'13'
p815
aS'14'
p816
aS'15'
p817
aS'16'
p818
aS'17'
p819
aS'18'
p820
aS'19'
p821
aS'20'
p822
aS'21'
p823
aS'22'
p824
aS'23'
p825
aS'24'
p826
aS'25'
p827
aS'26'
p828
aS'27'
p829
aS'28'
p830
aS'29'
p831
aS'30'
p832
aS'31'
p833
aS'32'
p834
aS'33'
p835
aS'34'
p836
aS'35'
p837
aS'36'
p838
aS'37'
p839
aS'38'
p840
aS'39'
p841
aS'40'
p842
aS'41'
p843
aS'42'
p844
aS'43'
p845
aS'44'
p846
aS'45'
p847
aS'46'
p848
aS'47'
p849
aS'48'
p850
aS'49'
p851
aS'50'
p852
aS'51'
p853
aS'52'
p854
aS'53'
p855
aS'54'
p856
aS'55'
p857
aS'56'
p858
aS'57'
p859
aS'58'
p860
aS'59'
p861
aS'60'
p862
aS'61'
p863
aS'62'
p864
aS'63'
p865
aS'64'
p866
asg437
g0
(g438
g2
Ntp867
Rp868
(dp869
g442
Nsg483
g800
sg446
I00
sg447
I00
sg448
Nsbsg450
g0
(g451
g452
(g453
g454
tp870
tp871
Rp872
sg444
S'row'
p873
sbag0
(g293
g2
Ntp874
Rp875
(dp876
g297
I00
sg298
g4
sg299
(lp877
Vgene
p878
aVrun
p879
aVshow_raw
p880
aVshow_block1
p881
aVshow_block2
p882
aVshow_block3
p883
aVmax_std
p884
aVmin_eff
p885
aVshow_params
p886
aVnan
p887
aVnan
p888
aVnan
p889
aVnan
p890
aVnan
p891
aVnan
p892
aVnan
p893
aVnan
p894
aVnan
p895
aVnan
p896
aVnan
p897
aVnan
p898
aVnan
p899
aVnan
p900
aVnan
p901
aVnan
p902
aVnan
p903
aVnan
p904
aVnan
p905
aVnan
p906
aVnan
p907
aVnan
p908
aVnan
p909
aVnan
p910
aVnan
p911
aVnan
p912
aVnan
p913
aVnan
p914
aVnan
p915
aVnan
p916
aVnan
p917
aVnan
p918
aVnan
p919
aVnan
p920
aVnan
p921
aVnan
p922
aVnan
p923
aVnan
p924
aVnan
p925
aVnan
p926
aVnan
p927
aVnan
p928
aVnan
p929
aVnan
p930
aVnan
p931
aNaNaNaNaNaNaNaNaNaNasg437
g0
(g438
g2
Ntp932
Rp933
(dp934
g442
Nsg483
g875
sg446
I00
sg447
I00
sg448
Nsbsg450
g0
(g451
g452
(g453
g454
tp935
tp936
Rp937
sg444
VParmNames
p938
sbag0
(g293
g2
Ntp939
Rp940
(dp941
g297
I00
sg298
g4
sg299
(lp942
VGene2
p943
aVTrue
p944
aVFalse
p945
aVFalse
p946
aVFalse
p947
aVTrue
p948
aF0.5
aV0.7
p949
aVTrue
p950
aV
p951
aVnan
p952
aVnan
p953
aVnan
p954
aVnan
p955
aVnan
p956
aVnan
p957
aVnan
p958
aVnan
p959
aVnan
p960
aVnan
p961
aVnan
p962
aVnan
p963
aVnan
p964
aVnan
p965
aVnan
p966
aVnan
p967
aVnan
p968
aVnan
p969
aVnan
p970
aVnan
p971
aVnan
p972
aVnan
p973
aVnan
p974
aVnan
p975
aVnan
p976
aVnan
p977
aVnan
p978
aVnan
p979
aVnan
p980
aVnan
p981
aVnan
p982
aVnan
p983
aVnan
p984
aVnan
p985
aVnan
p986
aVnan
p987
aVnan
p988
aVnan
p989
aVnan
p990
aVnan
p991
aVnan
p992
aVnan
p993
aVnan
p994
aVnan
p995
aNaNaNaNaNaNaNaNaNaNasg437
g0
(g438
g2
Ntp996
Rp997
(dp998
g442
Nsg444
VParmValues
p999
sg446
I00
sg447
I00
sg448
Nsbsg450
g0
(g451
g452
(g453
g454
tp1000
tp1001
Rp1002
sg444
g999
sbag776
ag721
ag694
ag765
ag713
ag705
ag295
ag459
ag489
ag518
ag549
ag562
ag573
ag628
ag639
ag647
ag655
ag668
ag681
ag0
(g293
g2
Ntp1003
Rp1004
(dp1005
g297
I00
sg298
g4
sg299
(lp1006
(lp1007
g302
(g306
S'\x00\x00\x00\x00\x00\x00\x00\x00'
p1008
tp1009
Rp1010
aa(lp1011
g302
(g306
S'\x01\x00\x00\x00\x00\x00\x00\x00'
p1012
tp1013
Rp1014
aa(lp1015
g302
(g306
S'\x02\x00\x00\x00\x00\x00\x00\x00'
p1016
tp1017
Rp1018
aa(lp1019
g302
(g306
S'\x03\x00\x00\x00\x00\x00\x00\x00'
p1020
tp1021
Rp1022
aaNaNaNaNaNaNaNaNaNaNaNaNaNaNaNaNaNaNaNaNaNaNaNaNaNaNaNaNaNaNaNaNaNaNaNaNaNaNaNaNaNaNaNaNaNaNaNaNaNaNaNaNaNaNaNaNaNaNaNaNasg437
g0
(g438
g2
Ntp1023
Rp1024
(dp1025
g442
Vcat_vals = [br[0] for br in pruneNulls(BioRuns)]\u000aclean_geo = [x for x in GeoMean if x is not None]\u000aGeoGroups, groupedGeoMeans = groupBy(cat_vals, clean_geo)\u000aGroupedGeoMeans = roundValues(groupedGeoMeans, 3)\u000aGeoGroups = [[x] for x in GeoGroups]
p1026
sg444
VGeoGroups
p1027
sg446
I00
sg447
I00
sg448
Vcat_vals = [br[0] for br in pruneNulls(BioRuns)]\u000aclean_geo = [x for x in GeoMean if x is not None]\u000aGeoGroups, groupedGeoMeans = groupBy(cat_vals, clean_geo)\u000aGroupedGeoMeans = roundValues(groupedGeoMeans, 3)\u000aGeoGroups = [[x] for x in GeoGroups]
p1028
sbsg450
g0
(g451
g452
(g453
g454
tp1029
tp1030
Rp1031
sg444
g1027
sbag0
(g293
g2
Ntp1032
Rp1033
(dp1034
g297
I00
sg298
g4
sg299
(lp1035
cnumpy.core.multiarray
_reconstruct
p1036
(g453
(I0
tp1037
S'b'
p1038
tp1039
Rp1040
(I1
(I1
tp1041
g303
(S'f8'
p1042
I0
I1
tp1043
Rp1044
(I3
S'<'
p1045
NNNI-1
I-1
I0
tp1046
bI00
S'\xa2E\xb6\xf3\xfd\xd4\xfc?'
p1047
tp1048
bag1036
(g453
(I0
tp1049
g1038
tp1050
Rp1051
(I1
(I3
tp1052
g1044
I00
S'\x0e-\xb2\x9d\xef\xa7\xd6?\x0c\x02+\x87\x16\xd9\xfc?B`\xe5\xd0"\xdb\xfb?'
p1053
tp1054
bag1036
(g453
(I0
tp1055
g1038
tp1056
Rp1057
(I1
(I1
tp1058
g1044
I00
S'9\xb4\xc8v\xbe\x9f\x06@'
p1059
tp1060
bag1036
(g453
(I0
tp1061
g1038
tp1062
Rp1063
(I1
(I1
tp1064
g1044
I00
S'\x00\x00\x00\x00\x00\x00\xfa?'
p1065
tp1066
baNaNaNaNaNaNaNaNaNaNaNaNaNaNaNaNaNaNaNaNaNaNaNaNaNaNaNaNaNaNaNaNaNaNaNaNaNaNaNaNaNaNaNaNaNaNaNaNaNaNaNaNaNaNaNaNaNaNaNaNasg437
g0
(g438
g2
Ntp1067
Rp1068
(dp1069
g442
Nsg483
g1033
sg446
I00
sg447
I00
sg448
Nsbsg450
g0
(g451
g452
(g453
g454
tp1070
tp1071
Rp1072
sg444
VGroupedGeoMeans
p1073
sbag0
(g293
g2
Ntp1074
Rp1075
(dp1076
g297
I00
sg298
g4
sg299
(lp1077
g1036
(g453
(I0
tp1078
g1038
tp1079
Rp1080
(I1
(I1
tp1081
g1044
I00
S'\x00\x00\x00\x00\x00\x00\xf0?'
p1082
tp1083
bag1036
(g453
(I0
tp1084
g1038
tp1085
Rp1086
(I1
(I3
tp1087
g1044
I00
S'J\x0c\x02+\x87\x16\xc9?j\xbct\x93\x18\x04\xf0?\xb6\xf3\xfd\xd4x\xe9\xee?'
p1088
tp1089
bag1036
(g453
(I0
tp1090
g1038
tp1091
Rp1092
(I1
(I1
tp1093
g1044
I00
S'\xb4\xc8v\xbe\x9f\x1a\xf9?'
p1094
tp1095
bag1036
(g453
(I0
tp1096
g1038
tp1097
Rp1098
(I1
(I1
tp1099
g1044
I00
S'w\xbe\x9f\x1a/\xdd\xec?'
p1100
tp1101
baNaNaNaNaNaNaNaNaNaNaNaNaNaNaNaNaNaNaNaNaNaNaNaNaNaNaNaNaNaNaNaNaNaNaNaNaNaNaNaNaNaNaNaNaNaNaNaNaNaNaNaNaNaNaNaNaNaNaNaNasg437
g0
(g438
g2
Ntp1102
Rp1103
(dp1104
g442
Vref = np.mean(GroupedGeoMeans[0])\u000aNrmlGeoGroupedMeans = [ [x/ref for x in g] for g in GroupedGeoMeans if g is not None]  \u000aNrmlGeoGroupedMeans = roundValues(NrmlGeoGroupedMeans, 3)
p1105
sg444
VNrmlGeoGroupedMeans
p1106
sg446
I00
sg447
I00
sg448
Vref = np.mean(GroupedGeoMeans[0])\u000aNrmlGeoGroupedMeans = [ [x/ref for x in g] for g in GroupedGeoMeans if g is not None]  \u000aNrmlGeoGroupedMeans = roundValues(NrmlGeoGroupedMeans, 3)
p1107
sbsg450
g0
(g451
g452
(g453
g454
tp1108
tp1109
Rp1110
sg444
g1106
sbag0
(g293
g2
Ntp1111
Rp1112
(dp1113
g297
I00
sg298
g4
sg299
(lp1114
F1.0
aF0.721
aF1.569
aF0.902
aFnan
aFnan
aFnan
aFnan
aFnan
aFnan
aFnan
aFnan
aFnan
aFnan
aFnan
aFnan
aFnan
aFnan
aFnan
aFnan
aFnan
aFnan
aFnan
aFnan
aFnan
aFnan
aFnan
aFnan
aFnan
aFnan
aFnan
aFnan
aFnan
aFnan
aFnan
aFnan
aFnan
aFnan
aFnan
aFnan
aFnan
aFnan
aFnan
aFnan
aFnan
aFnan
aFnan
aFnan
aFnan
aFnan
aFnan
aFnan
aFnan
aFnan
aFnan
aFnan
aFnan
aFnan
aFnan
aFnan
aFnan
aFnan
aFnan
aFnan
asg437
g0
(g438
g2
Ntp1115
Rp1116
(dp1117
g442
VMeanNrmlGeoGroups = [round(np.mean(g), 3) for g in NrmlGeoGroupedMeans]
p1118
sg444
VMeanNrmlGeoGroups
p1119
sg446
I01
sg447
I00
sg448
V[round(np.mean(g), 3) for g in NrmlGeoGroupedMeans]
p1120
sbsg450
g0
(g451
g452
(g453
g454
tp1121
tp1122
Rp1123
sg444
g1119
sbag0
(g293
g2
Ntp1124
Rp1125
(dp1126
g297
I00
sg298
g4
sg299
(lp1127
Fnan
aF0.263
aFnan
aFnan
aFnan
aFnan
aFnan
aFnan
aFnan
aFnan
aFnan
aFnan
aFnan
aFnan
aFnan
aFnan
aFnan
aFnan
aFnan
aFnan
aFnan
aFnan
aFnan
aFnan
aFnan
aFnan
aFnan
aFnan
aFnan
aFnan
aFnan
aFnan
aFnan
aFnan
aFnan
aFnan
aFnan
aFnan
aFnan
aFnan
aFnan
aFnan
aFnan
aFnan
aFnan
aFnan
aFnan
aFnan
aFnan
aFnan
aFnan
aFnan
aFnan
aFnan
aFnan
aFnan
aFnan
aFnan
aFnan
aFnan
aFnan
aFnan
aFnan
aFnan
asg437
g0
(g438
g2
Ntp1128
Rp1129
(dp1130
g442
VStdNrmlGeoGroups = [round(np.std(g, ddof=1)/np.sqrt(len(g)), 3) for g in NrmlGeoGroupedMeans]\u000a
p1131
sg444
VStdNrmlGeoGroups
p1132
sg446
I01
sg447
I00
sg448
V[round(np.std(g, ddof=1)/np.sqrt(len(g)), 3) for g in NrmlGeoGroupedMeans]\u000a
p1133
sbsg450
g0
(g451
g452
(g453
g454
tp1134
tp1135
Rp1136
sg444
g1132
sbasg286
V/home/ubuntu/SciSheets/mysite/user/guest/tables/kristen_single_gene.pcl
p1137
sb.