ccopy_reg
_reconstructor
p0
(cscisheets.ui.dt_table
DTTable
p1
c__builtin__
object
p2
Ntp3
Rp4
(dp5
S'_versioned_file'
p6
g0
(cmysite.helpers.versioned_file
VersionedFile
p7
g2
Ntp8
Rp9
(dp10
S'_redo_stack'
p11
g0
(cmysite.helpers.file_stack
FileStack
p12
g2
Ntp13
Rp14
(dp15
S'_dirpath'
p16
S'/home/ubuntu/SciSheets/mysite/user/guest/tables/backup'
p17
sS'_max_depth'
p18
I5
sS'_filename_pfx'
p19
Vkristen_single_gene.r
p20
sbsS'_max_versions'
p21
I5
sS'_undo_stack'
p22
g0
(g12
g2
Ntp23
Rp24
(dp25
g16
g17
sg18
I5
sg19
Vkristen_single_gene.u
p26
sbsS'_checkpoint_history'
p27
(lp28
VCell/Update
p29
aVCell/Update
p30
aVCell/Update
p31
aVCell/Update
p32
aVCell/Update
p33
aVCell/Update
p34
aVCell/Update
p35
aVCell/Update
p36
aVCell/Update
p37
aVCell/Update
p38
aVCell/Update
p39
aVCell/Update
p40
aVColumn/Formula
p41
aVColumn/Formula
p42
aVColumn/Append
p43
aVColumn/Formula
p44
aVColumn/Delete
p45
aVCell/Update
p46
aVColumn/Formula
p47
aVCell/Update
p48
aVCell/Update
p49
aVColumn/Formula
p50
aVColumn/Formula
p51
aVCell/Update
p52
aVColumn/Formula
p53
aVColumn/Formula
p54
aVCell/Update
p55
aVCell/Update
p56
aVCell/Update
p57
aVCell/Update
p58
aVColumn/Formula
p59
aVCell/Update
p60
aVCell/Update
p61
aVCell/Update
p62
aVColumn/Formula
p63
aVCell/Update
p64
aVColumn/Formula
p65
aVColumn/Formula
p66
aVCell/Update
p67
aVCell/Update
p68
aVCell/Update
p69
aVCell/Update
p70
aVCell/Update
p71
aVCell/Update
p72
aVCell/Update
p73
aVCell/Update
p74
aVCell/Update
p75
aVColumn/Formula
p76
aVCell/Update
p77
aVCell/Update
p78
aVCell/Update
p79
aVCell/Update
p80
aVCell/Update
p81
aVCell/Update
p82
aVCell/Update
p83
aVCell/Update
p84
aVCell/Update
p85
aVCell/Update
p86
aVCell/Update
p87
aVCell/Update
p88
aVColumn/Formula
p89
aVColumn/Formula
p90
aVColumn/Formula
p91
aVCell/Update
p92
aVCell/Update
p93
aVCell/Update
p94
aVCell/Update
p95
aVCell/Update
p96
aVColumn/Formula
p97
aVCell/Update
p98
aVCell/Update
p99
aVCell/Update
p100
aVCell/Update
p101
aVCell/Update
p102
aVCell/Update
p103
aVCell/Update
p104
aVColumn/Formula
p105
aVColumn/Formula
p106
aVColumn/Formula
p107
aVCell/Update
p108
aVCell/Update
p109
aVColumn/Formula
p110
aVCell/Update
p111
aVCell/Update
p112
aVCell/Update
p113
aVCell/Update
p114
aVCell/Update
p115
aVCell/Update
p116
aVCell/Update
p117
aVCell/Update
p118
aVColumn/Formula
p119
aVCell/Update
p120
aVColumn/Formula
p121
aVColumn/Formula
p122
aVColumn/Formula
p123
aVCell/Update
p124
aVCell/Update
p125
aVColumn/Formula
p126
aVColumn/Formula
p127
aVColumn/Formula
p128
aVColumn/Formula
p129
aVCell/Update
p130
aVColumn/Formula
p131
aVColumn/Formula
p132
aVColumn/Formula
p133
aVCell/Update
p134
aVCell/Update
p135
aVCell/Update
p136
aVCell/Update
p137
aVCell/Update
p138
aVCell/Update
p139
aVCell/Update
p140
aVCell/Update
p141
aVCell/Update
p142
aVCell/Update
p143
aVColumn/Formula
p144
aVColumn/Formula
p145
aVColumn/Formula
p146
aVColumn/Formula
p147
aVCell/Update
p148
aVCell/Update
p149
aVColumn/Formula
p150
aVCell/Update
p151
aVCell/Update
p152
aVCell/Update
p153
aVCell/Update
p154
aVCell/Update
p155
aVCell/Update
p156
aVCell/Update
p157
aVCell/Update
p158
aVCell/Update
p159
aVCell/Update
p160
aVCell/Update
p161
aVCell/Update
p162
aVCell/Update
p163
aVColumn/Formula
p164
aVColumn/Formula
p165
aVCell/Update
p166
aVCell/Update
p167
aVCell/Update
p168
aVColumn/Formula
p169
aVCell/Update
p170
aVCell/Update
p171
aVCell/Update
p172
aVCell/Update
p173
aVColumn/Formula
p174
aVColumn/Formula
p175
aVColumn/Formula
p176
aVColumn/Formula
p177
aVCell/Update
p178
aVColumn/Formula
p179
aVCell/Update
p180
aVCell/Update
p181
aVCell/Update
p182
aVCell/Update
p183
aVCell/Update
p184
aVCell/Update
p185
aVCell/Update
p186
aVCell/Update
p187
aVCell/Update
p188
aVColumn/Formula
p189
aVCell/Update
p190
aVCell/Update
p191
aVCell/Update
p192
aVCell/Update
p193
aVCell/Update
p194
aVCell/Update
p195
aVCell/Update
p196
aVCell/Update
p197
aVCell/Update
p198
aVCell/Update
p199
aVCell/Update
p200
aVCell/Update
p201
aVCell/Update
p202
aVCell/Update
p203
aVCell/Update
p204
aVCell/Update
p205
aVCell/Update
p206
aVCell/Update
p207
aVCell/Update
p208
aVCell/Update
p209
aVCell/Update
p210
aVCell/Update
p211
aVCell/Update
p212
aVCell/Update
p213
aVCell/Update
p214
aVCell/Update
p215
asS'_filepath'
p216
V/home/ubuntu/SciSheets/mysite/user/guest/tables/kristen_single_gene.pcl
p217
sS'_backup_dir'
p218
g17
sbsS'_namespace'
p219
(dp220
sS'_hidden_columns'
p221
(lp222
g0
(cscisheets.core.column
Column
p223
g2
Ntp224
Rp225
(dp226
S'_asis'
p227
I00
sS'_owning_table'
p228
g4
sS'_cells'
p229
(lp230
(lp231
cnumpy.core.multiarray
scalar
p232
(cnumpy
dtype
p233
(S'i8'
p234
I0
I1
tp235
Rp236
(I3
S'<'
p237
NNNI-1
I-1
I0
tp238
bS'\x00\x00\x00\x00\x00\x00\x00\x00'
p239
tp240
Rp241
aVI
p242
ag232
(g236
S'\x01\x00\x00\x00\x00\x00\x00\x00'
p243
tp244
Rp245
aa(lp246
g232
(g236
S'\x00\x00\x00\x00\x00\x00\x00\x00'
p247
tp248
Rp249
aVR1
p250
ag232
(g236
S'\x01\x00\x00\x00\x00\x00\x00\x00'
p251
tp252
Rp253
aa(lp254
g232
(g236
S'\x00\x00\x00\x00\x00\x00\x00\x00'
p255
tp256
Rp257
aVR2
p258
ag232
(g236
S'\x01\x00\x00\x00\x00\x00\x00\x00'
p259
tp260
Rp261
aa(lp262
g232
(g236
S'\x01\x00\x00\x00\x00\x00\x00\x00'
p263
tp264
Rp265
ag242
ag232
(g236
S'\x01\x00\x00\x00\x00\x00\x00\x00'
p266
tp267
Rp268
aa(lp269
g232
(g236
S'\x01\x00\x00\x00\x00\x00\x00\x00'
p270
tp271
Rp272
ag242
ag232
(g236
S'\x02\x00\x00\x00\x00\x00\x00\x00'
p273
tp274
Rp275
aa(lp276
g232
(g236
S'\x01\x00\x00\x00\x00\x00\x00\x00'
p277
tp278
Rp279
ag242
ag232
(g236
S'\x03\x00\x00\x00\x00\x00\x00\x00'
p280
tp281
Rp282
aa(lp283
g232
(g236
S'\x01\x00\x00\x00\x00\x00\x00\x00'
p284
tp285
Rp286
ag250
ag232
(g236
S'\x01\x00\x00\x00\x00\x00\x00\x00'
p287
tp288
Rp289
aa(lp290
g232
(g236
S'\x01\x00\x00\x00\x00\x00\x00\x00'
p291
tp292
Rp293
ag250
ag232
(g236
S'\x02\x00\x00\x00\x00\x00\x00\x00'
p294
tp295
Rp296
aa(lp297
g232
(g236
S'\x01\x00\x00\x00\x00\x00\x00\x00'
p298
tp299
Rp300
ag250
ag232
(g236
S'\x03\x00\x00\x00\x00\x00\x00\x00'
p301
tp302
Rp303
aa(lp304
g232
(g236
S'\x01\x00\x00\x00\x00\x00\x00\x00'
p305
tp306
Rp307
ag258
ag232
(g236
S'\x01\x00\x00\x00\x00\x00\x00\x00'
p308
tp309
Rp310
aa(lp311
g232
(g236
S'\x01\x00\x00\x00\x00\x00\x00\x00'
p312
tp313
Rp314
ag258
ag232
(g236
S'\x02\x00\x00\x00\x00\x00\x00\x00'
p315
tp316
Rp317
aa(lp318
g232
(g236
S'\x01\x00\x00\x00\x00\x00\x00\x00'
p319
tp320
Rp321
ag258
ag232
(g236
S'\x03\x00\x00\x00\x00\x00\x00\x00'
p322
tp323
Rp324
aa(lp325
g232
(g236
S'\x02\x00\x00\x00\x00\x00\x00\x00'
p326
tp327
Rp328
ag242
ag232
(g236
S'\x01\x00\x00\x00\x00\x00\x00\x00'
p329
tp330
Rp331
aa(lp332
g232
(g236
S'\x02\x00\x00\x00\x00\x00\x00\x00'
p333
tp334
Rp335
ag250
ag232
(g236
S'\x01\x00\x00\x00\x00\x00\x00\x00'
p336
tp337
Rp338
aa(lp339
g232
(g236
S'\x02\x00\x00\x00\x00\x00\x00\x00'
p340
tp341
Rp342
ag258
ag232
(g236
S'\x01\x00\x00\x00\x00\x00\x00\x00'
p343
tp344
Rp345
aa(lp346
g232
(g236
S'\x03\x00\x00\x00\x00\x00\x00\x00'
p347
tp348
Rp349
ag242
ag232
(g236
S'\x01\x00\x00\x00\x00\x00\x00\x00'
p350
tp351
Rp352
aa(lp353
g232
(g236
S'\x03\x00\x00\x00\x00\x00\x00\x00'
p354
tp355
Rp356
ag250
ag232
(g236
S'\x01\x00\x00\x00\x00\x00\x00\x00'
p357
tp358
Rp359
aa(lp360
g232
(g236
S'\x03\x00\x00\x00\x00\x00\x00\x00'
p361
tp362
Rp363
ag258
ag232
(g236
S'\x01\x00\x00\x00\x00\x00\x00\x00'
p364
tp365
Rp366
aaNaNaNaNaNaNaNaNaNaNaNaNaNaNaNaNaNaNaNaNaNaNaNaNaNaNaNaNaNaNaNaNaNaNaNaNasS'_formula_statement'
p367
g0
(cscisheets.core.helpers.formula_statement
FormulaStatement
p368
g2
Ntp369
Rp370
(dp371
S'_statement'
p372
Vsel = Eff > min_eff\u000agrouping_columns =   [\u000a    Treatment[sel],\u000a     RunType[sel], \u000a    BRpl[sel],      \u000a  ]\u000aGroups, groupedCt = groupBy(\u000a     grouping_columns, Ct[sel])\u000aGroups, groupedEff = groupBy(\u000a     grouping_columns, Eff[sel])\u000aGroups = [[g[0], g[1], g[2]] for g in Groups]\u000aGroupedCt = roundValues(groupedCt,2)\u000aGroupedEff = roundValues(groupedEff,2)
p373
sS'_name'
p374
VGroups
p375
sS'_isExpression'
p376
I00
sS'_isStatement'
p377
I00
sS'_formula'
p378
Vsel = Eff > min_eff\u000agrouping_columns =   [\u000a    Treatment[sel],\u000a     RunType[sel], \u000a    BRpl[sel],      \u000a  ]\u000aGroups, groupedCt = groupBy(\u000a     grouping_columns, Ct[sel])\u000aGroups, groupedEff = groupBy(\u000a     grouping_columns, Eff[sel])\u000aGroups = [[g[0], g[1], g[2]] for g in Groups]\u000aGroupedCt = roundValues(groupedCt,2)\u000aGroupedEff = roundValues(groupedEff,2)
p379
sbsS'_data_class'
p380
g0
(cscisheets.core.helpers.api_util
DataClass
p381
c__builtin__
tuple
p382
(cnumpy
ndarray
p383
cscisheets.core.helpers.api_util
makeArray
p384
tp385
tp386
Rp387
sg374
g375
sbag0
(g223
g2
Ntp388
Rp389
(dp390
g227
I00
sg228
g4
sg229
(lp391
(lp392
F0.84
aF0.89
aF0.9
aa(lp393
F0.83
aF0.83
aF0.85
aa(lp394
F0.82
aF0.85
aF0.82
aa(lp395
F0.94
aF0.83
aF0.84
aa(lp396
F0.8
aF0.84
aF0.79
aa(lp397
F0.83
aF0.8
aF0.83
aa(lp398
F0.92
aF0.98
aF0.9
aa(lp399
F0.9
aF0.83
aF0.84
aa(lp400
F0.87
aF0.85
aF0.83
aa(lp401
F0.79
aF0.84
aF0.86
aa(lp402
F0.83
aF0.82
aF0.83
aa(lp403
F0.81
aF0.82
aF0.8
aa(lp404
F0.84
aF0.8
aF0.81
aa(lp405
F0.77
aF0.87
aF0.81
aa(lp406
F0.78
aF0.77
aF0.79
aa(lp407
F0.85
aF0.85
aF0.84
aa(lp408
F0.87
aF0.9
aF0.86
aa(lp409
F0.82
aF0.82
aF0.79
aaNaNaNaNaNaNaNaNaNaNaNaNaNaNaNaNaNaNaNaNaNaNaNaNaNaNaNaNaNaNaNaNaNaNaNaNasg367
g0
(g368
g2
Ntp410
Rp411
(dp412
g372
NsS'_column'
p413
g389
sg376
I00
sg377
I00
sg378
Nsbsg380
g0
(g381
g382
(g383
g384
tp414
tp415
Rp416
sg374
VGroupedEff
p417
sbag0
(g223
g2
Ntp418
Rp419
(dp420
g227
I00
sg228
g4
sg229
(lp421
(lp422
F23.0
aF22.86
aF22.8
aa(lp423
F18.24
aF18.22
aF18.36
aa(lp424
F19.72
aF19.75
aF20.01
aa(lp425
F26.68
aF27.13
aF27.21
aa(lp426
F26.76
aF26.71
aF26.19
aa(lp427
F29.98
aF30.12
aF29.41
aa(lp428
F19.92
aF19.85
aF20.0
aa(lp429
F21.86
aF22.09
aF21.84
aa(lp430
F23.89
aF23.54
aF24.27
aa(lp431
F22.18
aF21.71
aF21.75
aa(lp432
F23.88
aF23.42
aF23.63
aa(lp433
F24.59
aF24.61
aF24.34
aa(lp434
F29.95
aF30.45
aF29.88
aa(lp435
F23.22
aF23.8
aF23.49
aa(lp436
F26.37
aF26.36
aF26.17
aa(lp437
F24.8
aF24.97
aF24.63
aa(lp438
F18.91
aF18.78
aF18.8
aa(lp439
F20.5
aF20.47
aF20.28
aaNaNaNaNaNaNaNaNaNaNaNaNaNaNaNaNaNaNaNaNaNaNaNaNaNaNaNaNaNaNaNaNaNaNaNaNasg367
g0
(g368
g2
Ntp440
Rp441
(dp442
g372
Nsg413
g419
sg376
I00
sg377
I00
sg378
Nsbsg380
g0
(g381
g382
(g383
g384
tp443
tp444
Rp445
sg374
VGroupedCt
p446
sbag0
(g223
g2
Ntp447
Rp448
(dp449
g227
I00
sg228
g4
sg229
(lp450
(lp451
F23.0
aF22.9
aF22.8
aa(lp452
F18.2
aF18.2
aF18.4
aa(lp453
F19.7
aF19.8
aF20.0
aa(lp454
F26.7
aF27.1
aF27.2
aa(lp455
F26.8
aF26.7
aF26.2
aa(lp456
F30.0
aF30.1
aF29.4
aa(lp457
F19.9
aF19.9
aF20.0
aa(lp458
F21.9
aF22.1
aF21.8
aa(lp459
F23.9
aF23.5
aF24.3
aa(lp460
F22.2
aF21.7
aF21.8
aa(lp461
F23.9
aF23.4
aF23.6
aa(lp462
F24.6
aF24.6
aF24.3
aa(lp463
F29.9
aF30.4
aF29.9
aa(lp464
F23.2
aF23.8
aF23.5
aa(lp465
F26.4
aF26.4
aF26.2
aa(lp466
F24.8
aF25.0
aF24.6
aa(lp467
F18.9
aF18.8
aF18.8
aa(lp468
F20.5
aF20.5
aF20.3
aaNaNaNaNaNaNaNaNaNaNaNaNaNaNaNaNaNaNaNaNaNaNaNaNaNaNaNaNaNaNaNaNaNaNaNaNasg367
g0
(g368
g2
Ntp469
Rp470
(dp471
g372
Vlength = len(Groups)\u000aStdFilteredGroupedCt = roundValues([filterExtremes(g, max_std, 2) for g in pruneNulls(GroupedCt,    required_length=length)])\u000a 
p472
sg374
VStdFilteredGroupedCt
p473
sg376
I00
sg377
I00
sg378
Vlength = len(Groups)\u000aStdFilteredGroupedCt = roundValues([filterExtremes(g, max_std, 2) for g in pruneNulls(GroupedCt,    required_length=length)])\u000a 
p474
sbsg380
g0
(g381
g382
(g383
g384
tp475
tp476
Rp477
sg374
g473
sbag0
(g223
g2
Ntp478
Rp479
(dp480
g227
I00
sg228
g4
sg229
(lp481
F22.9
aF18.3
aF19.8
aF27.0
aF26.6
aF29.8
aF19.9
aF21.9
aF23.9
aF21.9
aF23.6
aF24.5
aF30.1
aF23.5
aF26.3
aF24.8
aF18.8
aF20.4
aFnan
aFnan
aFnan
aFnan
aFnan
aFnan
aFnan
aFnan
aFnan
aFnan
aFnan
aFnan
aFnan
aFnan
aFnan
aFnan
aFnan
aFnan
aFnan
aFnan
aFnan
aFnan
aFnan
aFnan
aFnan
aFnan
aFnan
aFnan
aFnan
aFnan
aFnan
aFnan
aFnan
aFnan
aFnan
aFnan
asg367
g0
(g368
g2
Ntp482
Rp483
(dp484
g372
VMeanCt = [np.mean(g) for g in StdFilteredGroupedCt]\u000aMeanCt = roundValues(MeanCt,1)\u000aStdCt = [np.std(g, ddof=1) for g in StdFilteredGroupedCt]\u000aStdCt = roundValues(StdCt,3)
p485
sg374
VMeanCt
p486
sg376
I00
sg377
I00
sg378
VMeanCt = [np.mean(g) for g in StdFilteredGroupedCt]\u000aMeanCt = roundValues(MeanCt,1)\u000aStdCt = [np.std(g, ddof=1) for g in StdFilteredGroupedCt]\u000aStdCt = roundValues(StdCt,3)
p487
sbsg380
g0
(g381
g382
(g383
g384
tp488
tp489
Rp490
sg374
g486
sbag0
(g223
g2
Ntp491
Rp492
(dp493
g227
I00
sg228
g4
sg229
(lp494
F0.1
aF0.115
aF0.153
aF0.265
aF0.321
aF0.379
aF0.058
aF0.153
aF0.4
aF0.265
aF0.252
aF0.173
aF0.289
aF0.3
aF0.115
aF0.2
aF0.058
aF0.115
aFnan
aFnan
aFnan
aFnan
aFnan
aFnan
aFnan
aFnan
aFnan
aFnan
aFnan
aFnan
aFnan
aFnan
aFnan
aFnan
aFnan
aFnan
aFnan
aFnan
aFnan
aFnan
aFnan
aFnan
aFnan
aFnan
aFnan
aFnan
aFnan
aFnan
aFnan
aFnan
aFnan
aFnan
aFnan
aFnan
asg367
g0
(g368
g2
Ntp495
Rp496
(dp497
g372
Nsg413
g492
sg376
I00
sg377
I00
sg378
Nsbsg380
g0
(g381
g382
(g383
g384
tp498
tp499
Rp500
sg374
VStdCt
p501
sbag0
(g223
g2
Ntp502
Rp503
(dp504
g227
I00
sg228
g4
sg229
(lp505
(lp506
g232
(g236
S'\x00\x00\x00\x00\x00\x00\x00\x00'
p507
tp508
Rp509
ag232
(g236
S'\x01\x00\x00\x00\x00\x00\x00\x00'
p510
tp511
Rp512
aa(lp513
g232
(g236
S'\x01\x00\x00\x00\x00\x00\x00\x00'
p514
tp515
Rp516
ag232
(g236
S'\x01\x00\x00\x00\x00\x00\x00\x00'
p517
tp518
Rp519
aa(lp520
g232
(g236
S'\x01\x00\x00\x00\x00\x00\x00\x00'
p521
tp522
Rp523
ag232
(g236
S'\x02\x00\x00\x00\x00\x00\x00\x00'
p524
tp525
Rp526
aa(lp527
g232
(g236
S'\x01\x00\x00\x00\x00\x00\x00\x00'
p528
tp529
Rp530
ag232
(g236
S'\x03\x00\x00\x00\x00\x00\x00\x00'
p531
tp532
Rp533
aa(lp534
g232
(g236
S'\x02\x00\x00\x00\x00\x00\x00\x00'
p535
tp536
Rp537
ag232
(g236
S'\x01\x00\x00\x00\x00\x00\x00\x00'
p538
tp539
Rp540
aa(lp541
g232
(g236
S'\x03\x00\x00\x00\x00\x00\x00\x00'
p542
tp543
Rp544
ag232
(g236
S'\x01\x00\x00\x00\x00\x00\x00\x00'
p545
tp546
Rp547
aaNaNaNaNaNaNaNaNaNaNaNaNaNaNaNaNaNaNaNaNaNaNaNaNaNaNaNaNaNaNaNaNaNaNaNaNaNaNaNaNaNaNaNaNaNaNaNaNasg367
g0
(g368
g2
Ntp548
Rp549
(dp550
g372
Vdummy = tabularize(s, 'Groups', 1, 'MeanCt', \u000a          new_category_colnm='BioRuns',\u000a          values_colnm_prefix='Gene_')
p551
sg374
VBioRuns
p552
sg376
I00
sg377
I00
sg378
Vdummy = tabularize(s, 'Groups', 1, 'MeanCt', \u000a          new_category_colnm='BioRuns',\u000a          values_colnm_prefix='Gene_')
p553
sbsg380
g0
(g381
g382
(g383
g384
tp554
tp555
Rp556
sg374
g552
sbag0
(g223
g2
Ntp557
Rp558
(dp559
g227
I00
sg228
g4
sg229
(lp560
F22.9
aF27.0
aF26.6
aF29.8
aF30.1
aF24.8
aFnan
aFnan
aFnan
aFnan
aFnan
aFnan
aFnan
aFnan
aFnan
aFnan
aFnan
aFnan
aFnan
aFnan
aFnan
aFnan
aFnan
aFnan
aFnan
aFnan
aFnan
aFnan
aFnan
aFnan
aFnan
aFnan
aFnan
aFnan
aFnan
aFnan
aFnan
aFnan
aFnan
aFnan
aFnan
aFnan
aFnan
aFnan
aFnan
aFnan
aFnan
aFnan
aFnan
aFnan
aFnan
aFnan
aFnan
aFnan
asg367
g0
(g368
g2
Ntp561
Rp562
(dp563
g372
Nsg413
g558
sg376
I00
sg377
I00
sg378
Nsbsg380
g0
(g381
g382
(g383
g384
tp564
tp565
Rp566
sg374
S'Gene_I'
p567
sbag0
(g223
g2
Ntp568
Rp569
(dp570
g227
I00
sg228
g4
sg229
(lp571
F18.3
aF19.9
aF21.9
aF23.9
aF23.5
aF18.8
aFnan
aFnan
aFnan
aFnan
aFnan
aFnan
aFnan
aFnan
aFnan
aFnan
aFnan
aFnan
aFnan
aFnan
aFnan
aFnan
aFnan
aFnan
aFnan
aFnan
aFnan
aFnan
aFnan
aFnan
aFnan
aFnan
aFnan
aFnan
aFnan
aFnan
aFnan
aFnan
aFnan
aFnan
aFnan
aFnan
aFnan
aFnan
aFnan
aFnan
aFnan
aFnan
aFnan
aFnan
aFnan
aFnan
aFnan
aFnan
asg367
g0
(g368
g2
Ntp572
Rp573
(dp574
g372
Nsg413
g569
sg376
I00
sg377
I00
sg378
Nsbsg380
g566
sg374
S'Gene_R1'
p575
sbag0
(g223
g2
Ntp576
Rp577
(dp578
g227
I00
sg228
g4
sg229
(lp579
F19.8
aF21.9
aF23.6
aF24.5
aF26.3
aF20.4
aFnan
aFnan
aFnan
aFnan
aFnan
aFnan
aFnan
aFnan
aFnan
aFnan
aFnan
aFnan
aFnan
aFnan
aFnan
aFnan
aFnan
aFnan
aFnan
aFnan
aFnan
aFnan
aFnan
aFnan
aFnan
aFnan
aFnan
aFnan
aFnan
aFnan
aFnan
aFnan
aFnan
aFnan
aFnan
aFnan
aFnan
aFnan
aFnan
aFnan
aFnan
aFnan
aFnan
aFnan
aFnan
aFnan
aFnan
aFnan
asg367
g0
(g368
g2
Ntp580
Rp581
(dp582
g372
Nsg413
g577
sg376
I00
sg377
I00
sg378
Nsbsg380
g566
sg374
S'Gene_R2'
p583
sbag0
(g223
g2
Ntp584
Rp585
(dp586
g227
I00
sg228
g4
sg229
(lp587
F0.04123
aF0.00729
aF0.03847
aF0.01675
aF0.01031
aF0.01563
aFnan
aFnan
aFnan
aFnan
aFnan
aFnan
aFnan
aFnan
aFnan
aFnan
aFnan
aFnan
aFnan
aFnan
aFnan
aFnan
aFnan
aFnan
aFnan
aFnan
aFnan
aFnan
aFnan
aFnan
aFnan
aFnan
aFnan
aFnan
aFnan
aFnan
aFnan
aFnan
aFnan
aFnan
aFnan
aFnan
aFnan
aFnan
aFnan
aFnan
aFnan
aFnan
aFnan
aFnan
aFnan
aFnan
aFnan
aFnan
asg367
g0
(g368
g2
Ntp588
Rp589
(dp590
g372
VExprR1 = roundValues(2**(Gene_R1 - Gene_I),5)
p591
sg374
VExprR1
p592
sg376
I01
sg377
I00
sg378
VroundValues(2**(Gene_R1 - Gene_I),5)
p593
sbsg380
g0
(g381
g382
(g383
g384
tp594
tp595
Rp596
sg374
g592
sbag0
(g223
g2
Ntp597
Rp598
(dp599
g227
I00
sg228
g4
sg229
(lp600
F0.11663
aF0.02916
aF0.125
aF0.02538
aF0.07179
aF0.04737
aFnan
aFnan
aFnan
aFnan
aFnan
aFnan
aFnan
aFnan
aFnan
aFnan
aFnan
aFnan
aFnan
aFnan
aFnan
aFnan
aFnan
aFnan
aFnan
aFnan
aFnan
aFnan
aFnan
aFnan
aFnan
aFnan
aFnan
aFnan
aFnan
aFnan
aFnan
aFnan
aFnan
aFnan
aFnan
aFnan
aFnan
aFnan
aFnan
aFnan
aFnan
aFnan
aFnan
aFnan
aFnan
aFnan
aFnan
aFnan
asg367
g0
(g368
g2
Ntp601
Rp602
(dp603
g372
VExprR2 = roundValues(2**(Gene_R2 - Gene_I),5)
p604
sg374
VExprR2
p605
sg376
I01
sg377
I00
sg378
VroundValues(2**(Gene_R2 - Gene_I),5)
p606
sbsg380
g0
(g381
g382
(g383
g384
tp607
tp608
Rp609
sg374
g605
sbag0
(g223
g2
Ntp610
Rp611
(dp612
g227
I00
sg228
g4
sg229
(lp613
F0.069
aF0.015
aF0.069
aF0.021
aF0.027
aF0.027
aFnan
aFnan
aFnan
aFnan
aFnan
aFnan
aFnan
aFnan
aFnan
aFnan
aFnan
aFnan
aFnan
aFnan
aFnan
aFnan
aFnan
aFnan
aFnan
aFnan
aFnan
aFnan
aFnan
aFnan
aFnan
aFnan
aFnan
aFnan
aFnan
aFnan
aFnan
aFnan
aFnan
aFnan
aFnan
aFnan
aFnan
aFnan
aFnan
aFnan
aFnan
aFnan
aFnan
aFnan
aFnan
aFnan
aFnan
aFnan
asg367
g0
(g368
g2
Ntp614
Rp615
(dp616
g372
VGeoMean = roundValues(np.sqrt(ExprR1*ExprR2), 3)
p617
sg374
VGeoMean
p618
sg376
I01
sg377
I00
sg378
VroundValues(np.sqrt(ExprR1*ExprR2), 3)
p619
sbsg380
g0
(g381
g382
(g383
g384
tp620
tp621
Rp622
sg374
g618
sbag0
(g223
g2
Ntp623
Rp624
(dp625
g227
I00
sg228
g4
sg229
(lp626
(lp627
g232
(g236
S'\x00\x00\x00\x00\x00\x00\x00\x00'
p628
tp629
Rp630
aa(lp631
g232
(g236
S'\x01\x00\x00\x00\x00\x00\x00\x00'
p632
tp633
Rp634
aa(lp635
g232
(g236
S'\x02\x00\x00\x00\x00\x00\x00\x00'
p636
tp637
Rp638
aa(lp639
g232
(g236
S'\x03\x00\x00\x00\x00\x00\x00\x00'
p640
tp641
Rp642
aaNaNaNaNaNaNaNaNaNaNaNaNaNaNaNaNaNaNaNaNaNaNaNaNaNaNaNaNaNaNaNaNaNaNaNaNaNaNaNaNaNaNaNaNaNaNaNaNaNaNasg367
g0
(g368
g2
Ntp643
Rp644
(dp645
g372
Vcat_vals = [br[0] for br in pruneNulls(BioRuns)]\u000aclean_geo = [x for x in GeoMean if x is not None]\u000aGeoGroups, groupedGeoMeans = groupBy(cat_vals, clean_geo)\u000aGroupedGeoMeans = roundValues(groupedGeoMeans, 3)\u000aGeoGroups = [[x] for x in GeoGroups]
p646
sg374
VGeoGroups
p647
sg376
I00
sg377
I00
sg378
Vcat_vals = [br[0] for br in pruneNulls(BioRuns)]\u000aclean_geo = [x for x in GeoMean if x is not None]\u000aGeoGroups, groupedGeoMeans = groupBy(cat_vals, clean_geo)\u000aGroupedGeoMeans = roundValues(groupedGeoMeans, 3)\u000aGeoGroups = [[x] for x in GeoGroups]
p648
sbsg380
g0
(g381
g382
(g383
g384
tp649
tp650
Rp651
sg374
g647
sbag0
(g223
g2
Ntp652
Rp653
(dp654
g227
I00
sg228
g4
sg229
(lp655
cnumpy.core.multiarray
_reconstruct
p656
(g383
(I0
tp657
S'b'
p658
tp659
Rp660
(I1
(I1
tp661
g233
(S'f8'
p662
I0
I1
tp663
Rp664
(I3
S'<'
p665
NNNI-1
I-1
I0
tp666
bI00
S'D\x8bl\xe7\xfb\xa9\xb1?'
p667
tp668
bag656
(g383
(I0
tp669
g658
tp670
Rp671
(I1
(I3
tp672
g664
I00
S'\xb8\x1e\x85\xebQ\xb8\x8e?D\x8bl\xe7\xfb\xa9\xb1?\x1b/\xdd$\x06\x81\x95?'
p673
tp674
bag656
(g383
(I0
tp675
g658
tp676
Rp677
(I1
(I1
tp678
g664
I00
S'\xd9\xce\xf7S\xe3\xa5\x9b?'
p679
tp680
bag656
(g383
(I0
tp681
g658
tp682
Rp683
(I1
(I1
tp684
g664
I00
S'\xd9\xce\xf7S\xe3\xa5\x9b?'
p685
tp686
baNaNaNaNaNaNaNaNaNaNaNaNaNaNaNaNaNaNaNaNaNaNaNaNaNaNaNaNaNaNaNaNaNaNaNaNaNaNaNaNaNaNaNaNaNaNaNaNaNaNasg367
g0
(g368
g2
Ntp687
Rp688
(dp689
g372
Nsg413
g653
sg376
I00
sg377
I00
sg378
Nsbsg380
g0
(g381
g382
(g383
g384
tp690
tp691
Rp692
sg374
VGroupedGeoMeans
p693
sbag0
(g223
g2
Ntp694
Rp695
(dp696
g227
I00
sg228
g4
sg229
(lp697
g656
(g383
(I0
tp698
g658
tp699
Rp700
(I1
(I1
tp701
g664
I00
S'\x00\x00\x00\x00\x00\x00\xf0?'
p702
tp703
bag656
(g383
(I0
tp704
g658
tp705
Rp706
(I1
(I3
tp707
g664
I00
S'-\xb2\x9d\xef\xa7\xc6\xcb?\x00\x00\x00\x00\x00\x00\xf0?\xdb\xf9~j\xbct\xd3?'
p708
tp709
bag656
(g383
(I0
tp710
g658
tp711
Rp712
(I1
(I1
tp713
g664
I00
S'\xa0\x1a/\xdd$\x06\xd9?'
p714
tp715
bag656
(g383
(I0
tp716
g658
tp717
Rp718
(I1
(I1
tp719
g664
I00
S'\xa0\x1a/\xdd$\x06\xd9?'
p720
tp721
baNaNaNaNaNaNaNaNaNaNaNaNaNaNaNaNaNaNaNaNaNaNaNaNaNaNaNaNaNaNaNaNaNaNaNaNaNaNaNaNaNaNaNaNaNaNaNaNaNaNasg367
g0
(g368
g2
Ntp722
Rp723
(dp724
g372
Vref = np.mean(GroupedGeoMeans[0])\u000aNrmlGeoGroupedMeans = [ [x/ref for x in g] for g in GroupedGeoMeans if g is not None]  \u000aNrmlGeoGroupedMeans = roundValues(NrmlGeoGroupedMeans, 3)
p725
sg374
VNrmlGeoGroupedMeans
p726
sg376
I00
sg377
I00
sg378
Vref = np.mean(GroupedGeoMeans[0])\u000aNrmlGeoGroupedMeans = [ [x/ref for x in g] for g in GroupedGeoMeans if g is not None]  \u000aNrmlGeoGroupedMeans = roundValues(NrmlGeoGroupedMeans, 3)
p727
sbsg380
g0
(g381
g382
(g383
g384
tp728
tp729
Rp730
sg374
g726
sbag0
(g223
g2
Ntp731
Rp732
(dp733
g227
I00
sg228
g4
sg229
(lp734
F1.0
aF0.507
aF0.391
aF0.391
aFnan
aFnan
aFnan
aFnan
aFnan
aFnan
aFnan
aFnan
aFnan
aFnan
aFnan
aFnan
aFnan
aFnan
aFnan
aFnan
aFnan
aFnan
aFnan
aFnan
aFnan
aFnan
aFnan
aFnan
aFnan
aFnan
aFnan
aFnan
aFnan
aFnan
aFnan
aFnan
aFnan
aFnan
aFnan
aFnan
aFnan
aFnan
aFnan
aFnan
aFnan
aFnan
aFnan
aFnan
aFnan
aFnan
aFnan
aFnan
aFnan
aFnan
asg367
g0
(g368
g2
Ntp735
Rp736
(dp737
g372
VMeanNrmlGeoGroups = [round(np.mean(g), 3) for g in NrmlGeoGroupedMeans]
p738
sg374
VMeanNrmlGeoGroups
p739
sg376
I01
sg377
I00
sg378
V[round(np.mean(g), 3) for g in NrmlGeoGroupedMeans]
p740
sbsg380
g0
(g381
g382
(g383
g384
tp741
tp742
Rp743
sg374
g739
sbag0
(g223
g2
Ntp744
Rp745
(dp746
g227
I00
sg228
g4
sg229
(lp747
Fnan
aF0.248
aFnan
aFnan
aFnan
aFnan
aFnan
aFnan
aFnan
aFnan
aFnan
aFnan
aFnan
aFnan
aFnan
aFnan
aFnan
aFnan
aFnan
aFnan
aFnan
aFnan
aFnan
aFnan
aFnan
aFnan
aFnan
aFnan
aFnan
aFnan
aFnan
aFnan
aFnan
aFnan
aFnan
aFnan
aFnan
aFnan
aFnan
aFnan
aFnan
aFnan
aFnan
aFnan
aFnan
aFnan
aFnan
aFnan
aFnan
aFnan
aFnan
aFnan
aFnan
aFnan
asg367
g0
(g368
g2
Ntp748
Rp749
(dp750
g372
VStdNrmlGeoGroups = [round(np.std(g, ddof=1)/np.sqrt(len(g)), 3) for g in NrmlGeoGroupedMeans]\u000a
p751
sg374
VStdNrmlGeoGroups
p752
sg376
I01
sg377
I00
sg378
V[round(np.std(g, ddof=1)/np.sqrt(len(g)), 3) for g in NrmlGeoGroupedMeans]\u000a
p753
sbsg380
g0
(g381
g382
(g383
g384
tp754
tp755
Rp756
sg374
g752
sbasS'_is_evaluate_formulas'
p757
I01
sS'_prologue'
p758
g0
(g368
g2
Ntp759
Rp760
(dp761
g372
V# Prologue\u000aimport math as mt\u000aimport numpy as np\u000afrom os import listdir\u000afrom os.path import isfile, join\u000aimport pandas as pd\u000aimport scipy as sp\u000afrom numpy import nan  # Must follow sympy import \u000a\u000axlsx_path = '/mnt/hgfs/josephhellerstein/home/Technical/SciSheets/CaseStudies/Kristen/workbooks/data.xlsx'\u000agene = ParmValues[0]\u000arun = ParmValues[1] == 'True'\u000ashow_raw = ParmValues[2] == 'True'\u000ashow_block1 = ParmValues[3] == 'True'\u000ashow_block2 = ParmValues[4] == 'True'\u000ashow_block3 = ParmValues[5] == 'True'\u000amax_std  = float(ParmValues[6])\u000amin_eff = float(ParmValues[7])\u000aworksheet = gene + "-I"\u000as.getTable().setIsEvaluateFormulas(run)\u000as.setColumnVisibility()\u000as.setColumnVisibility(['Groups', 'GroupedEff', 'GroupedCt', 'StdFilteredGroupedCt', 'MeanCt', 'StdCt'], is_visible=show_block1)\u000as.setColumnVisibility(['BioRuns', 'Gene_I', 'Gene_R1', 'Gene_R2', 'ExprR1', 'ExprR2', 'GeoMean'], is_visible=show_block2)\u000as.setColumnVisibility(['GeoGroups', 'GroupedGeoMeans', 'NrmlGeoGroupedMeans', 'MeanNrmlGeoGroups', 'StdNrmlGeoGroups'], is_visible=show_block3)\u000aif False:\u000a  Groups = []\u000a  GroupedCt = []\u000a  GroupedEff = []\u000a  MeanCt = []\u000a  Imp = []\u000a  s.deleteColumn('Ct')\u000a  s.deleteColumn('RunType')\u000a  s.deleteColumn('BRpl')\u000a  s.deleteColumn('TRpl')\u000a  s.deleteColumn('Treatment')\u000a  s.deleteColumn('Eff')\u000aif run:\u000a  importExcelToTable(s, xlsx_path, worksheet=worksheet,\u000a      column_position='ParmValues',\u000a      names=['Treatment', 'RunType', 'BRpl', 'TRpl', 'Eff', 'Ct'])\u000as.setColumnVisibility(['BRpl', 'Ct', 'Eff', 'RunType', 'TRpl', 'Treatment'], is_visible=show_raw)\u000a
p762
sg374
VSingleGene
p763
sg376
I00
sg377
I00
sg378
V# Prologue\u000aimport math as mt\u000aimport numpy as np\u000afrom os import listdir\u000afrom os.path import isfile, join\u000aimport pandas as pd\u000aimport scipy as sp\u000afrom numpy import nan  # Must follow sympy import \u000a\u000axlsx_path = '/mnt/hgfs/josephhellerstein/home/Technical/SciSheets/CaseStudies/Kristen/workbooks/data.xlsx'\u000agene = ParmValues[0]\u000arun = ParmValues[1] == 'True'\u000ashow_raw = ParmValues[2] == 'True'\u000ashow_block1 = ParmValues[3] == 'True'\u000ashow_block2 = ParmValues[4] == 'True'\u000ashow_block3 = ParmValues[5] == 'True'\u000amax_std  = float(ParmValues[6])\u000amin_eff = float(ParmValues[7])\u000aworksheet = gene + "-I"\u000as.getTable().setIsEvaluateFormulas(run)\u000as.setColumnVisibility()\u000as.setColumnVisibility(['Groups', 'GroupedEff', 'GroupedCt', 'StdFilteredGroupedCt', 'MeanCt', 'StdCt'], is_visible=show_block1)\u000as.setColumnVisibility(['BioRuns', 'Gene_I', 'Gene_R1', 'Gene_R2', 'ExprR1', 'ExprR2', 'GeoMean'], is_visible=show_block2)\u000as.setColumnVisibility(['GeoGroups', 'GroupedGeoMeans', 'NrmlGeoGroupedMeans', 'MeanNrmlGeoGroups', 'StdNrmlGeoGroups'], is_visible=show_block3)\u000aif False:\u000a  Groups = []\u000a  GroupedCt = []\u000a  GroupedEff = []\u000a  MeanCt = []\u000a  Imp = []\u000a  s.deleteColumn('Ct')\u000a  s.deleteColumn('RunType')\u000a  s.deleteColumn('BRpl')\u000a  s.deleteColumn('TRpl')\u000a  s.deleteColumn('Treatment')\u000a  s.deleteColumn('Eff')\u000aif run:\u000a  importExcelToTable(s, xlsx_path, worksheet=worksheet,\u000a      column_position='ParmValues',\u000a      names=['Treatment', 'RunType', 'BRpl', 'TRpl', 'Eff', 'Ct'])\u000as.setColumnVisibility(['BRpl', 'Ct', 'Eff', 'RunType', 'TRpl', 'Treatment'], is_visible=show_raw)\u000a
p764
sbsS'_epilogue'
p765
g0
(g368
g2
Ntp766
Rp767
(dp768
g372
V# Epilogue\u000aif run:\u000a  worksheet = "%s-O" % gene\u000a  exportTableToExcel(s, xlsx_path, worksheet=worksheet, columns=['GeoGroups', 'MeanNrmlGeoGroups', 'StdNrmlGeoGroups'])\u000a
p769
sg374
g763
sg376
I00
sg377
I00
sg378
V# Epilogue\u000aif run:\u000a  worksheet = "%s-O" % gene\u000a  exportTableToExcel(s, xlsx_path, worksheet=worksheet, columns=['GeoGroups', 'MeanNrmlGeoGroups', 'StdNrmlGeoGroups'])\u000a
p770
sbsg374
g763
sS'_columns'
p771
(lp772
g0
(g223
g2
Ntp773
Rp774
(dp775
g227
I01
sg228
g4
sg229
(lp776
S'1'
p777
aS'2'
p778
aS'3'
p779
aS'4'
p780
aS'5'
p781
aS'6'
p782
aS'7'
p783
aS'8'
p784
aS'9'
p785
aS'10'
p786
aS'11'
p787
aS'12'
p788
aS'13'
p789
aS'14'
p790
aS'15'
p791
aS'16'
p792
aS'17'
p793
aS'18'
p794
aS'19'
p795
aS'20'
p796
aS'21'
p797
aS'22'
p798
aS'23'
p799
aS'24'
p800
aS'25'
p801
aS'26'
p802
aS'27'
p803
aS'28'
p804
aS'29'
p805
aS'30'
p806
aS'31'
p807
aS'32'
p808
aS'33'
p809
aS'34'
p810
aS'35'
p811
aS'36'
p812
aS'37'
p813
aS'38'
p814
aS'39'
p815
aS'40'
p816
aS'41'
p817
aS'42'
p818
aS'43'
p819
aS'44'
p820
aS'45'
p821
aS'46'
p822
aS'47'
p823
aS'48'
p824
aS'49'
p825
aS'50'
p826
aS'51'
p827
aS'52'
p828
aS'53'
p829
aS'54'
p830
asg367
g0
(g368
g2
Ntp831
Rp832
(dp833
g372
Nsg413
g774
sg376
I00
sg377
I00
sg378
Nsbsg380
g0
(g381
g382
(g383
g384
tp834
tp835
Rp836
sg374
S'row'
p837
sbag0
(g223
g2
Ntp838
Rp839
(dp840
g227
I00
sg228
g4
sg229
(lp841
Vgene
p842
aVrun
p843
aVshow_raw
p844
aVshow_block1
p845
aVshow_block2
p846
aVshow_block3
p847
aVmax_std
p848
aVmin_eff
p849
aVnan
p850
aVnan
p851
aVnan
p852
aVnan
p853
aVnan
p854
aVnan
p855
aVnan
p856
aVnan
p857
aVnan
p858
aVnan
p859
aVnan
p860
aVnan
p861
aVnan
p862
aVnan
p863
aVnan
p864
aVnan
p865
aVnan
p866
aVnan
p867
aVnan
p868
aVnan
p869
aVnan
p870
aVnan
p871
aVnan
p872
aVnan
p873
aVnan
p874
aVnan
p875
aVnan
p876
aVnan
p877
aVnan
p878
aVnan
p879
aVnan
p880
aVnan
p881
aVnan
p882
aVnan
p883
aVnan
p884
aVnan
p885
aVnan
p886
aVnan
p887
aVnan
p888
aVnan
p889
aVnan
p890
aVnan
p891
aVnan
p892
aVnan
p893
aVnan
p894
aVnan
p895
asg367
g0
(g368
g2
Ntp896
Rp897
(dp898
g372
Nsg413
g839
sg376
I00
sg377
I00
sg378
Nsbsg380
g0
(g381
g382
(g383
g384
tp899
tp900
Rp901
sg374
VParmNames
p902
sbag0
(g223
g2
Ntp903
Rp904
(dp905
g227
I00
sg228
g4
sg229
(lp906
VGene1
p907
aVTrue
p908
aVTrue
p909
aVFalse
p910
aVFalse
p911
aVFalse
p912
aV0.5
p913
aV0.7
p914
aV
p915
ag915
aVnan
p916
aVnan
p917
aVnan
p918
aVnan
p919
aVnan
p920
aVnan
p921
aVnan
p922
aVnan
p923
aVnan
p924
aVnan
p925
aVnan
p926
aVnan
p927
aVnan
p928
aVnan
p929
aVnan
p930
aVnan
p931
aVnan
p932
aVnan
p933
aVnan
p934
aVnan
p935
aVnan
p936
aVnan
p937
aVnan
p938
aVnan
p939
aVnan
p940
aVnan
p941
aVnan
p942
aVnan
p943
aVnan
p944
aVnan
p945
aVnan
p946
aVnan
p947
aVnan
p948
aVnan
p949
aVnan
p950
aVnan
p951
aVnan
p952
aVnan
p953
aVnan
p954
aVnan
p955
aVnan
p956
aVnan
p957
aVnan
p958
aVnan
p959
asg367
g0
(g368
g2
Ntp960
Rp961
(dp962
g372
Nsg374
VParmValues
p963
sg376
I00
sg377
I00
sg378
Nsbsg380
g0
(g381
g382
(g383
g384
tp964
tp965
Rp966
sg374
g963
sbag0
(g223
g2
Ntp967
Rp968
(dp969
g227
I00
sg228
g4
sg229
(lp970
I0
aI0
aI0
aI0
aI0
aI0
aI0
aI0
aI0
aI1
aI1
aI1
aI1
aI1
aI1
aI1
aI1
aI1
aI1
aI1
aI1
aI1
aI1
aI1
aI1
aI1
aI1
aI1
aI1
aI1
aI1
aI1
aI1
aI1
aI1
aI1
aI2
aI2
aI2
aI2
aI2
aI2
aI2
aI2
aI2
aI3
aI3
aI3
aI3
aI3
aI3
aI3
aI3
aI3
asg367
g0
(g368
g2
Ntp971
Rp972
(dp973
g372
Nsg374
S'Treatment'
p974
sg376
I00
sg377
I00
sg378
Nsbsg380
g0
(g381
g382
(g383
g384
tp975
tp976
Rp977
sg374
g974
sbag0
(g223
g2
Ntp978
Rp979
(dp980
g227
I00
sg228
g4
sg229
(lp981
g242
ag242
ag242
aVR1
p982
aVR1
p983
aVR1
p984
aVR2
p985
aVR2
p986
aVR2
p987
ag242
ag242
ag242
ag242
ag242
ag242
ag242
ag242
ag242
aVR1
p988
aVR1
p989
aVR1
p990
aVR1
p991
aVR1
p992
aVR1
p993
aVR1
p994
aVR1
p995
aVR1
p996
aVR2
p997
aVR2
p998
aVR2
p999
aVR2
p1000
aVR2
p1001
aVR2
p1002
aVR2
p1003
aVR2
p1004
aVR2
p1005
ag242
ag242
ag242
aVR1
p1006
aVR1
p1007
aVR1
p1008
aVR2
p1009
aVR2
p1010
aVR2
p1011
ag242
ag242
ag242
aVR1
p1012
aVR1
p1013
aVR1
p1014
aVR2
p1015
aVR2
p1016
aVR2
p1017
asg367
g0
(g368
g2
Ntp1018
Rp1019
(dp1020
g372
Nsg374
S'RunType'
p1021
sg376
I00
sg377
I00
sg378
Nsbsg380
g977
sg374
g1021
sbag0
(g223
g2
Ntp1022
Rp1023
(dp1024
g227
I00
sg228
g4
sg229
(lp1025
I1
aI1
aI1
aI1
aI1
aI1
aI1
aI1
aI1
aI1
aI1
aI1
aI2
aI2
aI2
aI3
aI3
aI3
aI1
aI1
aI1
aI2
aI2
aI2
aI3
aI3
aI3
aI1
aI1
aI1
aI2
aI2
aI2
aI3
aI3
aI3
aI1
aI1
aI1
aI1
aI1
aI1
aI1
aI1
aI1
aI1
aI1
aI1
aI1
aI1
aI1
aI1
aI1
aI1
asg367
g0
(g368
g2
Ntp1026
Rp1027
(dp1028
g372
Nsg374
S'BRpl'
p1029
sg376
I00
sg377
I00
sg378
Nsbsg380
g977
sg374
g1029
sbag0
(g223
g2
Ntp1030
Rp1031
(dp1032
g227
I00
sg228
g4
sg229
(lp1033
Va
p1034
aVb
p1035
aVc
p1036
ag1034
ag1035
ag1036
ag1034
ag1035
ag1036
ag1034
ag1035
ag1036
ag1034
ag1035
ag1036
ag1034
ag1035
ag1036
ag1034
ag1035
ag1036
ag1034
ag1035
ag1036
ag1034
ag1035
ag1036
ag1034
ag1035
ag1036
ag1034
ag1035
ag1036
ag1034
ag1035
ag1036
ag1034
ag1035
ag1036
ag1034
ag1035
ag1036
ag1034
ag1035
ag1036
ag1034
ag1035
ag1036
ag1034
ag1035
ag1036
ag1034
ag1035
ag1036
asg367
g0
(g368
g2
Ntp1037
Rp1038
(dp1039
g372
Nsg374
S'TRpl'
p1040
sg376
I00
sg377
I00
sg378
Nsbsg380
g977
sg374
g1040
sbag0
(g223
g2
Ntp1041
Rp1042
(dp1043
g227
I00
sg228
g4
sg229
(lp1044
F0.8371
aF0.891
aF0.8956
aF0.8266
aF0.8343
aF0.8496
aF0.8157
aF0.8543
aF0.8208
aF0.9399
aF0.8296
aF0.8361
aF0.8039
aF0.8399
aF0.7935
aF0.8264
aF0.7974
aF0.8252
aF0.9179
aF0.9783
aF0.8971
aF0.8957
aF0.8287
aF0.8387
aF0.8746
aF0.8493
aF0.8349
aF0.7857
aF0.8427
aF0.8637
aF0.8281
aF0.8203
aF0.8288
aF0.8138
aF0.8242
aF0.804
aF0.8418
aF0.7959
aF0.8071
aF0.7701
aF0.8746
aF0.8139
aF0.7795
aF0.7676
aF0.7947
aF0.8513
aF0.8485
aF0.8401
aF0.8715
aF0.8977
aF0.856
aF0.8179
aF0.8173
aF0.7894
asg367
g0
(g368
g2
Ntp1045
Rp1046
(dp1047
g372
Nsg374
S'Eff'
p1048
sg376
I00
sg377
I00
sg378
Nsbsg380
g977
sg374
g1048
sbag0
(g223
g2
Ntp1049
Rp1050
(dp1051
g227
I00
sg228
g4
sg229
(lp1052
F23.0
aF22.86
aF22.8
aF18.24
aF18.22
aF18.36
aF19.72
aF19.75
aF20.01
aF26.68
aF27.13
aF27.21
aF26.76
aF26.71
aF26.19
aF29.98
aF30.12
aF29.41
aF19.92
aF19.85
aF20.0
aF21.86
aF22.09
aF21.84
aF23.89
aF23.54
aF24.27
aF22.18
aF21.71
aF21.75
aF23.88
aF23.42
aF23.63
aF24.59
aF24.61
aF24.34
aF29.95
aF30.45
aF29.88
aF23.22
aF23.8
aF23.49
aF26.37
aF26.36
aF26.17
aF24.8
aF24.97
aF24.63
aF18.91
aF18.78
aF18.8
aF20.5
aF20.47
aF20.28
asg367
g0
(g368
g2
Ntp1053
Rp1054
(dp1055
g372
Nsg374
S'Ct'
p1056
sg376
I00
sg377
I00
sg378
Nsbsg380
g977
sg374
g1056
sbag225
ag389
ag419
ag448
ag479
ag492
ag503
ag558
ag569
ag577
ag585
ag598
ag611
ag624
ag653
ag695
ag732
ag745
asg216
V/home/ubuntu/SciSheets/mysite/user/guest/tables/kristen_single_gene.pcl
p1057
sb.