ccopy_reg
_reconstructor
p0
(cscisheets.ui.dt_table
DTTable
p1
c__builtin__
object
p2
Ntp3
Rp4
(dp5
S'_versioned_file'
p6
g0
(cmysite.helpers.versioned_file
VersionedFile
p7
g2
Ntp8
Rp9
(dp10
S'_redo_stack'
p11
g0
(cmysite.helpers.file_stack
FileStack
p12
g2
Ntp13
Rp14
(dp15
S'_dirpath'
p16
S'/home/ubuntu/SciSheets/mysite/user/guest/tables/backup'
p17
sS'_max_depth'
p18
I5
sS'_filename_pfx'
p19
Vkristen_single_gene.r
p20
sbsS'_max_versions'
p21
I5
sS'_undo_stack'
p22
g0
(g12
g2
Ntp23
Rp24
(dp25
g16
g17
sg18
I5
sg19
Vkristen_single_gene.u
p26
sbsS'_checkpoint_history'
p27
(lp28
VCell/Update
p29
aVCell/Update
p30
aVCell/Update
p31
aVCell/Update
p32
aVCell/Update
p33
aVCell/Update
p34
aVCell/Update
p35
aVCell/Update
p36
aVCell/Update
p37
aVCell/Update
p38
aVCell/Update
p39
aVCell/Update
p40
aVColumn/Formula
p41
aVColumn/Formula
p42
aVColumn/Append
p43
aVColumn/Formula
p44
aVColumn/Delete
p45
aVCell/Update
p46
aVColumn/Formula
p47
aVCell/Update
p48
aVCell/Update
p49
aVColumn/Formula
p50
aVColumn/Formula
p51
aVCell/Update
p52
aVColumn/Formula
p53
aVColumn/Formula
p54
aVCell/Update
p55
aVCell/Update
p56
aVCell/Update
p57
aVCell/Update
p58
aVColumn/Formula
p59
aVCell/Update
p60
aVCell/Update
p61
aVCell/Update
p62
aVColumn/Formula
p63
aVCell/Update
p64
aVColumn/Formula
p65
aVColumn/Formula
p66
aVCell/Update
p67
aVCell/Update
p68
aVCell/Update
p69
aVCell/Update
p70
aVCell/Update
p71
aVCell/Update
p72
aVCell/Update
p73
aVCell/Update
p74
aVCell/Update
p75
aVColumn/Formula
p76
aVCell/Update
p77
aVCell/Update
p78
aVCell/Update
p79
aVCell/Update
p80
aVCell/Update
p81
aVCell/Update
p82
aVCell/Update
p83
aVCell/Update
p84
aVCell/Update
p85
aVCell/Update
p86
aVCell/Update
p87
aVCell/Update
p88
aVColumn/Formula
p89
aVColumn/Formula
p90
aVColumn/Formula
p91
aVCell/Update
p92
aVCell/Update
p93
aVCell/Update
p94
aVCell/Update
p95
aVCell/Update
p96
aVColumn/Formula
p97
aVCell/Update
p98
aVCell/Update
p99
aVCell/Update
p100
aVCell/Update
p101
aVCell/Update
p102
aVCell/Update
p103
aVCell/Update
p104
aVColumn/Formula
p105
aVColumn/Formula
p106
aVColumn/Formula
p107
aVCell/Update
p108
aVCell/Update
p109
aVColumn/Formula
p110
aVCell/Update
p111
aVCell/Update
p112
aVCell/Update
p113
aVCell/Update
p114
aVCell/Update
p115
aVCell/Update
p116
aVCell/Update
p117
aVCell/Update
p118
aVColumn/Formula
p119
aVCell/Update
p120
aVColumn/Formula
p121
aVColumn/Formula
p122
aVColumn/Formula
p123
aVCell/Update
p124
aVCell/Update
p125
aVColumn/Formula
p126
aVColumn/Formula
p127
aVColumn/Formula
p128
aVColumn/Formula
p129
aVCell/Update
p130
aVColumn/Formula
p131
aVColumn/Formula
p132
aVColumn/Formula
p133
aVCell/Update
p134
aVCell/Update
p135
aVCell/Update
p136
aVCell/Update
p137
aVCell/Update
p138
aVCell/Update
p139
aVCell/Update
p140
aVCell/Update
p141
aVCell/Update
p142
aVCell/Update
p143
aVColumn/Formula
p144
aVColumn/Formula
p145
aVColumn/Formula
p146
aVColumn/Formula
p147
aVCell/Update
p148
aVCell/Update
p149
aVColumn/Formula
p150
aVCell/Update
p151
aVCell/Update
p152
aVCell/Update
p153
aVCell/Update
p154
aVCell/Update
p155
aVCell/Update
p156
aVCell/Update
p157
aVCell/Update
p158
aVCell/Update
p159
aVCell/Update
p160
aVCell/Update
p161
aVCell/Update
p162
aVCell/Update
p163
aVColumn/Formula
p164
aVColumn/Formula
p165
aVCell/Update
p166
aVCell/Update
p167
aVCell/Update
p168
aVColumn/Formula
p169
aVCell/Update
p170
aVCell/Update
p171
aVCell/Update
p172
aVCell/Update
p173
aVColumn/Formula
p174
aVColumn/Formula
p175
aVColumn/Formula
p176
aVColumn/Formula
p177
aVCell/Update
p178
aVColumn/Formula
p179
aVCell/Update
p180
aVCell/Update
p181
aVCell/Update
p182
aVCell/Update
p183
aVCell/Update
p184
aVCell/Update
p185
aVCell/Update
p186
aVCell/Update
p187
aVCell/Update
p188
aVColumn/Formula
p189
aVCell/Update
p190
aVCell/Update
p191
aVCell/Update
p192
aVCell/Update
p193
aVCell/Update
p194
aVCell/Update
p195
aVCell/Update
p196
aVCell/Update
p197
aVCell/Update
p198
aVCell/Update
p199
aVCell/Update
p200
aVCell/Update
p201
aVCell/Update
p202
aVCell/Update
p203
aVCell/Update
p204
aVCell/Update
p205
aVCell/Update
p206
aVCell/Update
p207
aVCell/Update
p208
aVCell/Update
p209
aVCell/Update
p210
aVCell/Update
p211
aVCell/Update
p212
aVCell/Update
p213
aVCell/Update
p214
aVCell/Update
p215
aVCell/Update
p216
aVCell/Update
p217
aVCell/Update
p218
aVCell/Update
p219
aVCell/Update
p220
aVCell/Update
p221
aVCell/Update
p222
aVCell/Update
p223
aVCell/Update
p224
aVCell/Update
p225
aVCell/Update
p226
aVCell/Update
p227
aVCell/Update
p228
aVCell/Update
p229
aVCell/Update
p230
aVCell/Update
p231
aVCell/Update
p232
aVCell/Update
p233
aVCell/Update
p234
aVCell/Update
p235
aVCell/Update
p236
aVCell/Update
p237
aVCell/Update
p238
aVCell/Update
p239
aVCell/Update
p240
aVCell/Update
p241
aVCell/Update
p242
aVCell/Update
p243
aVCell/Update
p244
aVCell/Update
p245
aVCell/Update
p246
aVCell/Update
p247
aVCell/Update
p248
aVCell/Update
p249
aVCell/Update
p250
aVCell/Update
p251
aVCell/Update
p252
aVCell/Update
p253
aVCell/Update
p254
aVCell/Update
p255
aVCell/Update
p256
aVCell/Update
p257
aVCell/Update
p258
aVCell/Update
p259
aVCell/Update
p260
aVCell/Update
p261
aVCell/Update
p262
aVCell/Update
p263
aVCell/Update
p264
aVCell/Update
p265
aVCell/Update
p266
aVCell/Update
p267
aVCell/Update
p268
aVCell/Update
p269
aVCell/Update
p270
aVCell/Update
p271
aVCell/Update
p272
aVCell/Update
p273
aVCell/Update
p274
aVCell/Update
p275
aVCell/Update
p276
aVColumn/Formula
p277
asS'_filepath'
p278
V/home/ubuntu/SciSheets/mysite/user/guest/tables/kristen_single_gene.pcl
p279
sS'_backup_dir'
p280
g17
sbsS'_namespace'
p281
(dp282
sS'_hidden_columns'
p283
(lp284
sS'_is_evaluate_formulas'
p285
I01
sS'_prologue'
p286
g0
(cscisheets.core.helpers.formula_statement
FormulaStatement
p287
g2
Ntp288
Rp289
(dp290
S'_statement'
p291
V# Prologue\u000aimport math as mt\u000aimport numpy as np\u000afrom os import listdir\u000afrom os.path import isfile, join\u000aimport pandas as pd\u000aimport scipy as sp\u000afrom numpy import nan  # Must follow sympy import \u000a\u000axlsx_path = '/mnt/hgfs/josephhellerstein/home/Technical/SciSheets/CaseStudies/Kristen/workbooks/data.xlsx'\u000agene = ParmValues[0]\u000arun = ParmValues[1] == 'True'\u000ashow_raw = ParmValues[2] == 'True'\u000ashow_block1 = ParmValues[3] == 'True'\u000ashow_block2 = ParmValues[4] == 'True'\u000ashow_block3 = ParmValues[5] == 'True'\u000ashow_params = ParmValues[8] == 'True'\u000a#show_params = True\u000amax_std  = float(ParmValues[6])\u000amin_eff = float(ParmValues[7])\u000aworksheet = gene + "-I"\u000as.getTable().setIsEvaluateFormulas(run)\u000as.setColumnVisibility()\u000as.setColumnVisibility(['Groups', 'GroupedEff', 'GroupedCt', 'StdFilteredGroupedCt', 'MeanCt', 'StdCt'], is_visible=show_block1)\u000as.setColumnVisibility(['BioRuns', 'Gene_I', 'Gene_R1', 'Gene_R2', 'ExprR1', 'ExprR2', 'GeoMean'], is_visible=show_block2)\u000as.setColumnVisibility(['GeoGroups', 'GroupedGeoMeans', 'NrmlGeoGroupedMeans', 'MeanNrmlGeoGroups', 'StdNrmlGeoGroups'], is_visible=show_block3)\u000aif False:\u000a  Groups = []\u000a  GroupedCt = []\u000a  GroupedEff = []\u000a  MeanCt = []\u000a  Imp = []\u000a  s.deleteColumn('Ct')\u000a  s.deleteColumn('RunType')\u000a  s.deleteColumn('BRpl')\u000a  s.deleteColumn('TRpl')\u000a  s.deleteColumn('Treatment')\u000a  s.deleteColumn('Eff')\u000aif run:\u000a  importExcelToTable(s, xlsx_path, worksheet=worksheet,\u000a      column_position='ParmValues',\u000a      names=['Treatment', 'RunType', 'BRpl', 'TRpl', 'Eff', 'Ct'])\u000as.setColumnVisibility(['BRpl', 'Ct', 'Eff', 'RunType', 'TRpl', 'Treatment'], is_visible=show_raw)\u000as.setColumnVisibility(['ParmNames', 'ParmValues'], show_params)
p292
sS'_name'
p293
VSingleGene
p294
sS'_isExpression'
p295
I00
sS'_isStatement'
p296
I00
sS'_formula'
p297
V# Prologue\u000aimport math as mt\u000aimport numpy as np\u000afrom os import listdir\u000afrom os.path import isfile, join\u000aimport pandas as pd\u000aimport scipy as sp\u000afrom numpy import nan  # Must follow sympy import \u000a\u000axlsx_path = '/mnt/hgfs/josephhellerstein/home/Technical/SciSheets/CaseStudies/Kristen/workbooks/data.xlsx'\u000agene = ParmValues[0]\u000arun = ParmValues[1] == 'True'\u000ashow_raw = ParmValues[2] == 'True'\u000ashow_block1 = ParmValues[3] == 'True'\u000ashow_block2 = ParmValues[4] == 'True'\u000ashow_block3 = ParmValues[5] == 'True'\u000ashow_params = ParmValues[8] == 'True'\u000a#show_params = True\u000amax_std  = float(ParmValues[6])\u000amin_eff = float(ParmValues[7])\u000aworksheet = gene + "-I"\u000as.getTable().setIsEvaluateFormulas(run)\u000as.setColumnVisibility()\u000as.setColumnVisibility(['Groups', 'GroupedEff', 'GroupedCt', 'StdFilteredGroupedCt', 'MeanCt', 'StdCt'], is_visible=show_block1)\u000as.setColumnVisibility(['BioRuns', 'Gene_I', 'Gene_R1', 'Gene_R2', 'ExprR1', 'ExprR2', 'GeoMean'], is_visible=show_block2)\u000as.setColumnVisibility(['GeoGroups', 'GroupedGeoMeans', 'NrmlGeoGroupedMeans', 'MeanNrmlGeoGroups', 'StdNrmlGeoGroups'], is_visible=show_block3)\u000aif False:\u000a  Groups = []\u000a  GroupedCt = []\u000a  GroupedEff = []\u000a  MeanCt = []\u000a  Imp = []\u000a  s.deleteColumn('Ct')\u000a  s.deleteColumn('RunType')\u000a  s.deleteColumn('BRpl')\u000a  s.deleteColumn('TRpl')\u000a  s.deleteColumn('Treatment')\u000a  s.deleteColumn('Eff')\u000aif run:\u000a  importExcelToTable(s, xlsx_path, worksheet=worksheet,\u000a      column_position='ParmValues',\u000a      names=['Treatment', 'RunType', 'BRpl', 'TRpl', 'Eff', 'Ct'])\u000as.setColumnVisibility(['BRpl', 'Ct', 'Eff', 'RunType', 'TRpl', 'Treatment'], is_visible=show_raw)\u000as.setColumnVisibility(['ParmNames', 'ParmValues'], show_params)
p298
sbsS'_epilogue'
p299
g0
(g287
g2
Ntp300
Rp301
(dp302
g291
V# Epilogue\u000aif run:\u000a  worksheet = "%s-O" % gene\u000a  exportTableToExcel(s, xlsx_path, worksheet=worksheet, columns=['GeoGroups', 'MeanNrmlGeoGroups', 'StdNrmlGeoGroups'])\u000a
p303
sg293
g294
sg295
I00
sg296
I00
sg297
V# Epilogue\u000aif run:\u000a  worksheet = "%s-O" % gene\u000a  exportTableToExcel(s, xlsx_path, worksheet=worksheet, columns=['GeoGroups', 'MeanNrmlGeoGroups', 'StdNrmlGeoGroups'])\u000a
p304
sbsg293
g294
sS'_columns'
p305
(lp306
g0
(cscisheets.core.column
Column
p307
g2
Ntp308
Rp309
(dp310
S'_asis'
p311
I01
sS'_owning_table'
p312
g4
sS'_cells'
p313
(lp314
S'1'
p315
aS'2'
p316
aS'3'
p317
aS'4'
p318
aS'5'
p319
aS'6'
p320
aS'7'
p321
aS'8'
p322
aS'9'
p323
aS'10'
p324
aS'11'
p325
aS'12'
p326
aS'13'
p327
aS'14'
p328
aS'15'
p329
aS'16'
p330
aS'17'
p331
aS'18'
p332
aS'19'
p333
aS'20'
p334
aS'21'
p335
aS'22'
p336
aS'23'
p337
aS'24'
p338
aS'25'
p339
aS'26'
p340
aS'27'
p341
aS'28'
p342
aS'29'
p343
aS'30'
p344
aS'31'
p345
aS'32'
p346
aS'33'
p347
aS'34'
p348
aS'35'
p349
aS'36'
p350
aS'37'
p351
aS'38'
p352
aS'39'
p353
aS'40'
p354
aS'41'
p355
aS'42'
p356
aS'43'
p357
aS'44'
p358
aS'45'
p359
aS'46'
p360
aS'47'
p361
aS'48'
p362
aS'49'
p363
aS'50'
p364
aS'51'
p365
aS'52'
p366
aS'53'
p367
aS'54'
p368
aS'55'
p369
aS'56'
p370
aS'57'
p371
aS'58'
p372
aS'59'
p373
aS'60'
p374
aS'61'
p375
aS'62'
p376
aS'63'
p377
aS'64'
p378
asS'_formula_statement'
p379
g0
(g287
g2
Ntp380
Rp381
(dp382
g291
NsS'_column'
p383
g309
sg295
I00
sg296
I00
sg297
NsbsS'_data_class'
p384
g0
(cscisheets.core.helpers.api_util
DataClass
p385
c__builtin__
tuple
p386
(cnumpy
ndarray
p387
cscisheets.core.helpers.api_util
makeArray
p388
tp389
tp390
Rp391
sg293
S'row'
p392
sbag0
(g307
g2
Ntp393
Rp394
(dp395
g311
I00
sg312
g4
sg313
(lp396
Vgene
p397
aVrun
p398
aVshow_raw
p399
aVshow_block1
p400
aVshow_block2
p401
aVshow_block3
p402
aVmax_std
p403
aVmin_eff
p404
aVshow_params
p405
aVnan
p406
aVnan
p407
aVnan
p408
aVnan
p409
aVnan
p410
aVnan
p411
aVnan
p412
aVnan
p413
aVnan
p414
aVnan
p415
aVnan
p416
aVnan
p417
aVnan
p418
aVnan
p419
aVnan
p420
aVnan
p421
aVnan
p422
aVnan
p423
aVnan
p424
aVnan
p425
aVnan
p426
aVnan
p427
aVnan
p428
aVnan
p429
aVnan
p430
aVnan
p431
aVnan
p432
aVnan
p433
aVnan
p434
aVnan
p435
aVnan
p436
aVnan
p437
aVnan
p438
aVnan
p439
aVnan
p440
aVnan
p441
aVnan
p442
aVnan
p443
aVnan
p444
aVnan
p445
aVnan
p446
aVnan
p447
aVnan
p448
aVnan
p449
aVnan
p450
aNaNaNaNaNaNaNaNaNaNasg379
g0
(g287
g2
Ntp451
Rp452
(dp453
g291
Nsg383
g394
sg295
I00
sg296
I00
sg297
Nsbsg384
g0
(g385
g386
(g387
g388
tp454
tp455
Rp456
sg293
VParmNames
p457
sbag0
(g307
g2
Ntp458
Rp459
(dp460
g311
I00
sg312
g4
sg313
(lp461
VGene1
p462
aVTrue
p463
aVTrue
p464
aVTrue
p465
aVTrue
p466
aVTrue
p467
aV0.5
p468
aF0.85
aVTrue
p469
aV
p470
aVnan
p471
aVnan
p472
aVnan
p473
aVnan
p474
aVnan
p475
aVnan
p476
aVnan
p477
aVnan
p478
aVnan
p479
aVnan
p480
aVnan
p481
aVnan
p482
aVnan
p483
aVnan
p484
aVnan
p485
aVnan
p486
aVnan
p487
aVnan
p488
aVnan
p489
aVnan
p490
aVnan
p491
aVnan
p492
aVnan
p493
aVnan
p494
aVnan
p495
aVnan
p496
aVnan
p497
aVnan
p498
aVnan
p499
aVnan
p500
aVnan
p501
aVnan
p502
aVnan
p503
aVnan
p504
aVnan
p505
aVnan
p506
aVnan
p507
aVnan
p508
aVnan
p509
aVnan
p510
aVnan
p511
aVnan
p512
aVnan
p513
aVnan
p514
aNaNaNaNaNaNaNaNaNaNasg379
g0
(g287
g2
Ntp515
Rp516
(dp517
g291
Nsg293
VParmValues
p518
sg295
I00
sg296
I00
sg297
Nsbsg384
g0
(g385
g386
(g387
g388
tp519
tp520
Rp521
sg293
g518
sbag0
(g307
g2
Ntp522
Rp523
(dp524
g311
I00
sg312
g4
sg313
(lp525
I0
aI0
aI0
aI0
aI0
aI0
aI0
aI0
aI0
aI0
aI1
aI1
aI1
aI1
aI1
aI1
aI1
aI1
aI1
aI1
aI1
aI1
aI1
aI1
aI1
aI1
aI1
aI1
aI1
aI1
aI1
aI1
aI1
aI1
aI1
aI1
aI1
aI2
aI2
aI2
aI2
aI2
aI2
aI2
aI2
aI2
aI3
aI3
aI3
aI3
aI3
aI3
aI3
aI3
aI3
aI4
aI4
aI4
aI4
aI4
aI4
aI4
aI4
aI4
asg379
g0
(g287
g2
Ntp526
Rp527
(dp528
g291
Nsg293
S'Treatment'
p529
sg295
I00
sg296
I00
sg297
Nsbsg384
g0
(g385
g386
(g387
g388
tp530
tp531
Rp532
sg293
g529
sbag0
(g307
g2
Ntp533
Rp534
(dp535
g311
I00
sg312
g4
sg313
(lp536
VI
p537
ag537
ag537
ag537
aVR1
p538
aVR1
p539
aVR1
p540
aVR2
p541
aVR2
p542
aVR2
p543
ag537
ag537
ag537
ag537
ag537
ag537
ag537
ag537
ag537
aVR1
p544
aVR1
p545
aVR1
p546
aVR1
p547
aVR1
p548
aVR1
p549
aVR1
p550
aVR1
p551
aVR1
p552
aVR2
p553
aVR2
p554
aVR2
p555
aVR2
p556
aVR2
p557
aVR2
p558
aVR2
p559
aVR2
p560
aVR2
p561
ag537
ag537
ag537
aVR1
p562
aVR1
p563
aVR1
p564
aVR2
p565
aVR2
p566
aVR2
p567
ag537
ag537
ag537
aVR1
p568
aVR1
p569
aVR1
p570
aVR2
p571
aVR2
p572
aVR2
p573
ag537
ag537
ag537
aVR1
p574
aVR1
p575
aVR1
p576
aVR2
p577
aVR2
p578
aVR2
p579
asg379
g0
(g287
g2
Ntp580
Rp581
(dp582
g291
Nsg293
S'RunType'
p583
sg295
I00
sg296
I00
sg297
Nsbsg384
g532
sg293
g583
sbag0
(g307
g2
Ntp584
Rp585
(dp586
g311
I00
sg312
g4
sg313
(lp587
I1
aI1
aI1
aI1
aI1
aI1
aI1
aI1
aI1
aI1
aI1
aI1
aI1
aI2
aI2
aI2
aI3
aI3
aI3
aI1
aI1
aI1
aI2
aI2
aI2
aI3
aI3
aI3
aI1
aI1
aI1
aI2
aI2
aI2
aI3
aI3
aI3
aI1
aI1
aI1
aI1
aI1
aI1
aI1
aI1
aI1
aI1
aI1
aI1
aI1
aI1
aI1
aI1
aI1
aI1
aI1
aI1
aI1
aI1
aI1
aI1
aI1
aI1
aI1
asg379
g0
(g287
g2
Ntp588
Rp589
(dp590
g291
Nsg293
S'BRpl'
p591
sg295
I00
sg296
I00
sg297
Nsbsg384
g532
sg293
g591
sbag0
(g307
g2
Ntp592
Rp593
(dp594
g311
I00
sg312
g4
sg313
(lp595
Va
p596
aVb
p597
aVc
p598
aVd
p599
ag596
ag597
ag598
ag596
ag597
ag598
ag596
ag597
ag598
ag596
ag597
ag598
ag596
ag597
ag598
ag596
ag597
ag598
ag596
ag597
ag598
ag596
ag597
ag598
ag596
ag597
ag598
ag596
ag597
ag598
ag596
ag597
ag598
ag596
ag597
ag598
ag596
ag597
ag598
ag596
ag597
ag598
ag596
ag597
ag598
ag596
ag597
ag598
ag596
ag597
ag598
ag596
ag597
ag598
ag596
ag597
ag598
ag596
ag597
ag598
asg379
g0
(g287
g2
Ntp600
Rp601
(dp602
g291
Nsg293
S'TRpl'
p603
sg295
I00
sg296
I00
sg297
Nsbsg384
g532
sg293
g603
sbag0
(g307
g2
Ntp604
Rp605
(dp606
g311
I00
sg312
g4
sg313
(lp607
F0.8371
aF0.891
aF0.8956
aF0.8671
aF0.8266
aF0.8343
aF0.8496
aF0.8157
aF0.8543
aF0.8208
aF0.9399
aF0.8296
aF0.8361
aF0.8039
aF0.8399
aF0.7935
aF0.8264
aF0.7974
aF0.8252
aF0.9179
aF0.9783
aF0.8971
aF0.8957
aF0.8287
aF0.8387
aF0.8746
aF0.8493
aF0.8349
aF0.7857
aF0.8427
aF0.8637
aF0.8281
aF0.8203
aF0.8288
aF0.8138
aF0.8242
aF0.804
aF0.8418
aF0.7959
aF0.8071
aF0.7701
aF0.8746
aF0.8139
aF0.7795
aF0.7676
aF0.7947
aF0.8513
aF0.8485
aF0.8401
aF0.8715
aF0.8977
aF0.856
aF0.8179
aF0.8173
aF0.7894
aF0.8513
aF0.8485
aF0.8401
aF0.8715
aF0.8977
aF0.856
aF0.8179
aF0.8173
aF0.7894
asg379
g0
(g287
g2
Ntp608
Rp609
(dp610
g291
Nsg293
S'Eff'
p611
sg295
I00
sg296
I00
sg297
Nsbsg384
g532
sg293
g611
sbag0
(g307
g2
Ntp612
Rp613
(dp614
g311
I00
sg312
g4
sg313
(lp615
F23.0
aF22.86
aF22.8
aF23.0
aF18.24
aF18.22
aF18.36
aF19.72
aF19.75
aF20.01
aF26.68
aF27.13
aF27.21
aF26.76
aF26.71
aF26.19
aF29.98
aF30.12
aF29.41
aF19.92
aF19.85
aF20.0
aF21.86
aF22.09
aF21.84
aF23.89
aF23.54
aF24.27
aF22.18
aF21.71
aF21.75
aF23.88
aF23.42
aF23.63
aF24.59
aF24.61
aF24.34
aF29.95
aF30.45
aF29.88
aF23.22
aF23.8
aF23.49
aF26.37
aF26.36
aF26.17
aF24.8
aF24.97
aF24.63
aF18.91
aF18.78
aF18.8
aF20.5
aF20.47
aF20.28
aF24.8
aF24.97
aF24.63
aF18.91
aF18.78
aF18.8
aF20.5
aF20.47
aF20.28
asg379
g0
(g287
g2
Ntp616
Rp617
(dp618
g291
Nsg293
S'Ct'
p619
sg295
I00
sg296
I00
sg297
Nsbsg384
g532
sg293
g619
sbag0
(g307
g2
Ntp620
Rp621
(dp622
g311
I00
sg312
g4
sg313
(lp623
(lp624
cnumpy.core.multiarray
scalar
p625
(cnumpy
dtype
p626
(S'i8'
p627
I0
I1
tp628
Rp629
(I3
S'<'
p630
NNNI-1
I-1
I0
tp631
bS'\x00\x00\x00\x00\x00\x00\x00\x00'
p632
tp633
Rp634
ag537
ag625
(g629
S'\x01\x00\x00\x00\x00\x00\x00\x00'
p635
tp636
Rp637
aa(lp638
g625
(g629
S'\x00\x00\x00\x00\x00\x00\x00\x00'
p639
tp640
Rp641
aVR2
p642
ag625
(g629
S'\x01\x00\x00\x00\x00\x00\x00\x00'
p643
tp644
Rp645
aa(lp646
g625
(g629
S'\x01\x00\x00\x00\x00\x00\x00\x00'
p647
tp648
Rp649
ag537
ag625
(g629
S'\x01\x00\x00\x00\x00\x00\x00\x00'
p650
tp651
Rp652
aa(lp653
g625
(g629
S'\x01\x00\x00\x00\x00\x00\x00\x00'
p654
tp655
Rp656
aVR1
p657
ag625
(g629
S'\x01\x00\x00\x00\x00\x00\x00\x00'
p658
tp659
Rp660
aa(lp661
g625
(g629
S'\x01\x00\x00\x00\x00\x00\x00\x00'
p662
tp663
Rp664
ag657
ag625
(g629
S'\x02\x00\x00\x00\x00\x00\x00\x00'
p665
tp666
Rp667
aa(lp668
g625
(g629
S'\x01\x00\x00\x00\x00\x00\x00\x00'
p669
tp670
Rp671
ag657
ag625
(g629
S'\x03\x00\x00\x00\x00\x00\x00\x00'
p672
tp673
Rp674
aa(lp675
g625
(g629
S'\x01\x00\x00\x00\x00\x00\x00\x00'
p676
tp677
Rp678
ag642
ag625
(g629
S'\x01\x00\x00\x00\x00\x00\x00\x00'
p679
tp680
Rp681
aa(lp682
g625
(g629
S'\x02\x00\x00\x00\x00\x00\x00\x00'
p683
tp684
Rp685
ag657
ag625
(g629
S'\x01\x00\x00\x00\x00\x00\x00\x00'
p686
tp687
Rp688
aa(lp689
g625
(g629
S'\x03\x00\x00\x00\x00\x00\x00\x00'
p690
tp691
Rp692
ag537
ag625
(g629
S'\x01\x00\x00\x00\x00\x00\x00\x00'
p693
tp694
Rp695
aa(lp696
g625
(g629
S'\x03\x00\x00\x00\x00\x00\x00\x00'
p697
tp698
Rp699
ag657
ag625
(g629
S'\x01\x00\x00\x00\x00\x00\x00\x00'
p700
tp701
Rp702
aa(lp703
g625
(g629
S'\x04\x00\x00\x00\x00\x00\x00\x00'
p704
tp705
Rp706
ag537
ag625
(g629
S'\x01\x00\x00\x00\x00\x00\x00\x00'
p707
tp708
Rp709
aa(lp710
g625
(g629
S'\x04\x00\x00\x00\x00\x00\x00\x00'
p711
tp712
Rp713
ag657
ag625
(g629
S'\x01\x00\x00\x00\x00\x00\x00\x00'
p714
tp715
Rp716
aaNaNaNaNaNaNaNaNaNaNaNaNaNaNaNaNaNaNaNaNaNaNaNaNaNaNaNaNaNaNaNaNaNaNaNaNaNaNaNaNaNaNaNaNaNaNaNaNaNaNaNaNasg379
g0
(g287
g2
Ntp717
Rp718
(dp719
g291
Vsel = Eff > min_eff\u000agrouping_columns =   [\u000a    Treatment[sel],\u000a     RunType[sel], \u000a    BRpl[sel],      \u000a  ]\u000aGroups, groupedCt = groupBy(\u000a     grouping_columns, Ct[sel])\u000aGroups, groupedEff = groupBy(\u000a     grouping_columns, Eff[sel])\u000aGroups = [[g[0], g[1], g[2]] for g in Groups]\u000aGroupedCt = roundValues(groupedCt,2)\u000aGroupedEff = roundValues(groupedEff,2)
p720
sg293
VGroups
p721
sg295
I00
sg296
I00
sg297
Vsel = Eff > min_eff\u000agrouping_columns =   [\u000a    Treatment[sel],\u000a     RunType[sel], \u000a    BRpl[sel],      \u000a  ]\u000aGroups, groupedCt = groupBy(\u000a     grouping_columns, Ct[sel])\u000aGroups, groupedEff = groupBy(\u000a     grouping_columns, Eff[sel])\u000aGroups = [[g[0], g[1], g[2]] for g in Groups]\u000aGroupedCt = roundValues(groupedCt,2)\u000aGroupedEff = roundValues(groupedEff,2)
p722
sbsg384
g0
(g385
g386
(g387
g388
tp723
tp724
Rp725
sg293
g721
sbag0
(g307
g2
Ntp726
Rp727
(dp728
g311
I00
sg312
g4
sg313
(lp729
cnumpy.core.multiarray
_reconstruct
p730
(g387
(I0
tp731
S'b'
p732
tp733
Rp734
(I1
(I3
tp735
g626
(S'f8'
p736
I0
I1
tp737
Rp738
(I3
S'<'
p739
NNNI-1
I-1
I0
tp740
bI00
S'{\x14\xaeG\xe1z\xec?\xcd\xcc\xcc\xcc\xcc\xcc\xec?\xd7\xa3p=\n\xd7\xeb?'
p741
tp742
bag730
(g387
(I0
tp743
g732
tp744
Rp745
(I1
(I1
tp746
g738
I00
S'333333\xeb?'
p747
tp748
bag730
(g387
(I0
tp749
g732
tp750
Rp751
(I1
(I1
tp752
g738
I00
S'\x14\xaeG\xe1z\x14\xee?'
p753
tp754
bag730
(g387
(I0
tp755
g732
tp756
Rp757
(I1
(I3
tp758
g738
I00
S'q=\n\xd7\xa3p\xed?\\\x8f\xc2\xf5(\\\xef?\xcd\xcc\xcc\xcc\xcc\xcc\xec?'
p759
tp760
bag730
(g387
(I0
tp761
g732
tp762
Rp763
(I1
(I1
tp764
g738
I00
S'\xcd\xcc\xcc\xcc\xcc\xcc\xec?'
p765
tp766
bag730
(g387
(I0
tp767
g732
tp768
Rp769
(I1
(I1
tp770
g738
I00
S'\xd7\xa3p=\n\xd7\xeb?'
p771
tp772
bag730
(g387
(I0
tp773
g732
tp774
Rp775
(I1
(I1
tp776
g738
I00
S'\x85\xebQ\xb8\x1e\x85\xeb?'
p777
tp778
bag730
(g387
(I0
tp779
g732
tp780
Rp781
(I1
(I1
tp782
g738
I00
S'\xd7\xa3p=\n\xd7\xeb?'
p783
tp784
bag730
(g387
(I0
tp785
g732
tp786
Rp787
(I1
(I1
tp788
g738
I00
S'333333\xeb?'
p789
tp790
bag730
(g387
(I0
tp791
g732
tp792
Rp793
(I1
(I3
tp794
g738
I00
S'\xd7\xa3p=\n\xd7\xeb?\xcd\xcc\xcc\xcc\xcc\xcc\xec?\x85\xebQ\xb8\x1e\x85\xeb?'
p795
tp796
bag730
(g387
(I0
tp797
g732
tp798
Rp799
(I1
(I1
tp800
g738
I00
S'333333\xeb?'
p801
tp802
bag730
(g387
(I0
tp803
g732
tp804
Rp805
(I1
(I3
tp806
g738
I00
S'\xd7\xa3p=\n\xd7\xeb?\xcd\xcc\xcc\xcc\xcc\xcc\xec?\x85\xebQ\xb8\x1e\x85\xeb?'
p807
tp808
baNaNaNaNaNaNaNaNaNaNaNaNaNaNaNaNaNaNaNaNaNaNaNaNaNaNaNaNaNaNaNaNaNaNaNaNaNaNaNaNaNaNaNaNaNaNaNaNaNaNaNaNasg379
g0
(g287
g2
Ntp809
Rp810
(dp811
g291
Nsg383
g727
sg295
I00
sg296
I00
sg297
Nsbsg384
g0
(g385
g386
(g387
g388
tp812
tp813
Rp814
sg293
VGroupedEff
p815
sbag0
(g307
g2
Ntp816
Rp817
(dp818
g311
I00
sg312
g4
sg313
(lp819
g730
(g387
(I0
tp820
g732
tp821
Rp822
(I1
(I3
tp823
g738
I00
S'\\\x8f\xc2\xf5(\xdc6@\xcd\xcc\xcc\xcc\xcc\xcc6@\x00\x00\x00\x00\x00\x007@'
p824
tp825
bag730
(g387
(I0
tp826
g732
tp827
Rp828
(I1
(I1
tp829
g738
I00
S'\x00\x00\x00\x00\x00\xc03@'
p830
tp831
bag730
(g387
(I0
tp832
g732
tp833
Rp834
(I1
(I1
tp835
g738
I00
S'\xaeG\xe1z\x14\xae:@'
p836
tp837
bag730
(g387
(I0
tp838
g732
tp839
Rp840
(I1
(I3
tp841
g738
I00
S'\xecQ\xb8\x1e\x85\xeb3@\x9a\x99\x99\x99\x99\xd93@\x00\x00\x00\x00\x00\x004@'
p842
tp843
bag730
(g387
(I0
tp844
g732
tp845
Rp846
(I1
(I1
tp847
g738
I00
S'\\\x8f\xc2\xf5(\xdc5@'
p848
tp849
bag730
(g387
(I0
tp850
g732
tp851
Rp852
(I1
(I1
tp853
g738
I00
S'\xa4p=\n\xd7\xe37@'
p854
tp855
bag730
(g387
(I0
tp856
g732
tp857
Rp858
(I1
(I1
tp859
g738
I00
S'\x00\x00\x00\x00\x00\xc05@'
p860
tp861
bag730
(g387
(I0
tp862
g732
tp863
Rp864
(I1
(I1
tp865
g738
I00
S'\xcd\xcc\xcc\xcc\xcc\xcc7@'
p866
tp867
bag730
(g387
(I0
tp868
g732
tp869
Rp870
(I1
(I1
tp871
g738
I00
S'\xcd\xcc\xcc\xcc\xcc\xcc8@'
p872
tp873
bag730
(g387
(I0
tp874
g732
tp875
Rp876
(I1
(I3
tp877
g738
I00
S')\\\x8f\xc2\xf5\xe82@H\xe1z\x14\xae\xc72@\xcd\xcc\xcc\xcc\xcc\xcc2@'
p878
tp879
bag730
(g387
(I0
tp880
g732
tp881
Rp882
(I1
(I1
tp883
g738
I00
S'\xcd\xcc\xcc\xcc\xcc\xcc8@'
p884
tp885
bag730
(g387
(I0
tp886
g732
tp887
Rp888
(I1
(I3
tp889
g738
I00
S')\\\x8f\xc2\xf5\xe82@H\xe1z\x14\xae\xc72@\xcd\xcc\xcc\xcc\xcc\xcc2@'
p890
tp891
baNaNaNaNaNaNaNaNaNaNaNaNaNaNaNaNaNaNaNaNaNaNaNaNaNaNaNaNaNaNaNaNaNaNaNaNaNaNaNaNaNaNaNaNaNaNaNaNaNaNaNaNasg379
g0
(g287
g2
Ntp892
Rp893
(dp894
g291
Nsg383
g817
sg295
I00
sg296
I00
sg297
Nsbsg384
g0
(g385
g386
(g387
g388
tp895
tp896
Rp897
sg293
VGroupedCt
p898
sbag0
(g307
g2
Ntp899
Rp900
(dp901
g311
I00
sg312
g4
sg313
(lp902
g730
(g387
(I0
tp903
g732
tp904
Rp905
(I1
(I3
tp906
g738
I00
S'fffff\xe66@\xcd\xcc\xcc\xcc\xcc\xcc6@\x00\x00\x00\x00\x00\x007@'
p907
tp908
bag730
(g387
(I0
tp909
g732
tp910
Rp911
(I1
(I1
tp912
g738
I00
S'\xcd\xcc\xcc\xcc\xcc\xcc3@'
p913
tp914
bag730
(g387
(I0
tp915
g732
tp916
Rp917
(I1
(I1
tp918
g738
I00
S'33333\xb3:@'
p919
tp920
bag730
(g387
(I0
tp921
g732
tp922
Rp923
(I1
(I3
tp924
g738
I00
S'fffff\xe63@fffff\xe63@\x00\x00\x00\x00\x00\x004@'
p925
tp926
bag730
(g387
(I0
tp927
g732
tp928
Rp929
(I1
(I1
tp930
g738
I00
S'fffff\xe65@'
p931
tp932
bag730
(g387
(I0
tp933
g732
tp934
Rp935
(I1
(I1
tp936
g738
I00
S'fffff\xe67@'
p937
tp938
bag730
(g387
(I0
tp939
g732
tp940
Rp941
(I1
(I1
tp942
g738
I00
S'\xcd\xcc\xcc\xcc\xcc\xcc5@'
p943
tp944
bag730
(g387
(I0
tp945
g732
tp946
Rp947
(I1
(I1
tp948
g738
I00
S'\xcd\xcc\xcc\xcc\xcc\xcc7@'
p949
tp950
bag730
(g387
(I0
tp951
g732
tp952
Rp953
(I1
(I1
tp954
g738
I00
S'\xcd\xcc\xcc\xcc\xcc\xcc8@'
p955
tp956
bag730
(g387
(I0
tp957
g732
tp958
Rp959
(I1
(I3
tp960
g738
I00
S'fffff\xe62@\xcd\xcc\xcc\xcc\xcc\xcc2@\xcd\xcc\xcc\xcc\xcc\xcc2@'
p961
tp962
bag730
(g387
(I0
tp963
g732
tp964
Rp965
(I1
(I1
tp966
g738
I00
S'\xcd\xcc\xcc\xcc\xcc\xcc8@'
p967
tp968
bag730
(g387
(I0
tp969
g732
tp970
Rp971
(I1
(I3
tp972
g738
I00
S'fffff\xe62@\xcd\xcc\xcc\xcc\xcc\xcc2@\xcd\xcc\xcc\xcc\xcc\xcc2@'
p973
tp974
baNaNaNaNaNaNaNaNaNaNaNaNaNaNaNaNaNaNaNaNaNaNaNaNaNaNaNaNaNaNaNaNaNaNaNaNaNaNaNaNaNaNaNaNaNaNaNaNaNaNaNaNasg379
g0
(g287
g2
Ntp975
Rp976
(dp977
g291
Vlength = len(Groups)\u000aStdFilteredGroupedCt = roundValues([filterExtremes(g, max_std, 2) for g in pruneNulls(GroupedCt,    required_length=length)])\u000a 
p978
sg293
VStdFilteredGroupedCt
p979
sg295
I00
sg296
I00
sg297
Vlength = len(Groups)\u000aStdFilteredGroupedCt = roundValues([filterExtremes(g, max_std, 2) for g in pruneNulls(GroupedCt,    required_length=length)])\u000a 
p980
sbsg384
g0
(g385
g386
(g387
g388
tp981
tp982
Rp983
sg293
g979
sbag0
(g307
g2
Ntp984
Rp985
(dp986
g311
I00
sg312
g4
sg313
(lp987
F22.9
aF19.8
aF26.7
aF19.9
aF21.9
aF23.9
aF21.8
aF23.8
aF24.8
aF18.8
aF24.8
aF18.8
aFnan
aFnan
aFnan
aFnan
aFnan
aFnan
aFnan
aFnan
aFnan
aFnan
aFnan
aFnan
aFnan
aFnan
aFnan
aFnan
aFnan
aFnan
aFnan
aFnan
aFnan
aFnan
aFnan
aFnan
aFnan
aFnan
aFnan
aFnan
aFnan
aFnan
aFnan
aFnan
aFnan
aFnan
aFnan
aFnan
aFnan
aFnan
aFnan
aFnan
aFnan
aFnan
aFnan
aFnan
aFnan
aFnan
aFnan
aFnan
aFnan
aFnan
aFnan
aFnan
asg379
g0
(g287
g2
Ntp988
Rp989
(dp990
g291
VMeanCt = [np.mean(g) for g in StdFilteredGroupedCt]\u000aMeanCt = roundValues(MeanCt,1)\u000aStdCt = [np.std(g, ddof=1) for g in StdFilteredGroupedCt]\u000aStdCt = roundValues(StdCt,3)
p991
sg293
VMeanCt
p992
sg295
I00
sg296
I00
sg297
VMeanCt = [np.mean(g) for g in StdFilteredGroupedCt]\u000aMeanCt = roundValues(MeanCt,1)\u000aStdCt = [np.std(g, ddof=1) for g in StdFilteredGroupedCt]\u000aStdCt = roundValues(StdCt,3)
p993
sbsg384
g0
(g385
g386
(g387
g388
tp994
tp995
Rp996
sg293
g992
sbag0
(g307
g2
Ntp997
Rp998
(dp999
g311
I00
sg312
g4
sg313
(lp1000
F0.1
aFnan
aFnan
aF0.058
aFnan
aFnan
aFnan
aFnan
aFnan
aF0.058
aFnan
aF0.058
aFnan
aFnan
aFnan
aFnan
aFnan
aFnan
aFnan
aFnan
aFnan
aFnan
aFnan
aFnan
aFnan
aFnan
aFnan
aFnan
aFnan
aFnan
aFnan
aFnan
aFnan
aFnan
aFnan
aFnan
aFnan
aFnan
aFnan
aFnan
aFnan
aFnan
aFnan
aFnan
aFnan
aFnan
aFnan
aFnan
aFnan
aFnan
aFnan
aFnan
aFnan
aFnan
aFnan
aFnan
aFnan
aFnan
aFnan
aFnan
aFnan
aFnan
aFnan
aFnan
asg379
g0
(g287
g2
Ntp1001
Rp1002
(dp1003
g291
Nsg383
g998
sg295
I00
sg296
I00
sg297
Nsbsg384
g0
(g385
g386
(g387
g388
tp1004
tp1005
Rp1006
sg293
VStdCt
p1007
sbag0
(g307
g2
Ntp1008
Rp1009
(dp1010
g311
I00
sg312
g4
sg313
(lp1011
(lp1012
g625
(g629
S'\x00\x00\x00\x00\x00\x00\x00\x00'
p1013
tp1014
Rp1015
ag625
(g629
S'\x01\x00\x00\x00\x00\x00\x00\x00'
p1016
tp1017
Rp1018
aa(lp1019
g625
(g629
S'\x01\x00\x00\x00\x00\x00\x00\x00'
p1020
tp1021
Rp1022
ag625
(g629
S'\x01\x00\x00\x00\x00\x00\x00\x00'
p1023
tp1024
Rp1025
aa(lp1026
g625
(g629
S'\x01\x00\x00\x00\x00\x00\x00\x00'
p1027
tp1028
Rp1029
ag625
(g629
S'\x02\x00\x00\x00\x00\x00\x00\x00'
p1030
tp1031
Rp1032
aa(lp1033
g625
(g629
S'\x01\x00\x00\x00\x00\x00\x00\x00'
p1034
tp1035
Rp1036
ag625
(g629
S'\x03\x00\x00\x00\x00\x00\x00\x00'
p1037
tp1038
Rp1039
aa(lp1040
g625
(g629
S'\x02\x00\x00\x00\x00\x00\x00\x00'
p1041
tp1042
Rp1043
ag625
(g629
S'\x01\x00\x00\x00\x00\x00\x00\x00'
p1044
tp1045
Rp1046
aa(lp1047
g625
(g629
S'\x03\x00\x00\x00\x00\x00\x00\x00'
p1048
tp1049
Rp1050
ag625
(g629
S'\x01\x00\x00\x00\x00\x00\x00\x00'
p1051
tp1052
Rp1053
aa(lp1054
g625
(g629
S'\x04\x00\x00\x00\x00\x00\x00\x00'
p1055
tp1056
Rp1057
ag625
(g629
S'\x01\x00\x00\x00\x00\x00\x00\x00'
p1058
tp1059
Rp1060
aaNaNaNaNaNaNaNaNaNaNaNaNaNaNaNaNaNaNaNaNaNaNaNaNaNaNaNaNaNaNaNaNaNaNaNaNaNaNaNaNaNaNaNaNaNaNaNaNaNaNaNaNaNaNaNaNaNasg379
g0
(g287
g2
Ntp1061
Rp1062
(dp1063
g291
Vdummy = tabularize(s, 'Groups', 1, 'MeanCt', \u000a          new_category_colnm='BioRuns',\u000a          values_colnm_prefix='Gene_')
p1064
sg293
VBioRuns
p1065
sg295
I00
sg296
I00
sg297
Vdummy = tabularize(s, 'Groups', 1, 'MeanCt', \u000a          new_category_colnm='BioRuns',\u000a          values_colnm_prefix='Gene_')
p1066
sbsg384
g0
(g385
g386
(g387
g388
tp1067
tp1068
Rp1069
sg293
g1065
sbag0
(g307
g2
Ntp1070
Rp1071
(dp1072
g311
I00
sg312
g4
sg313
(lp1073
F22.9
aF26.7
aFnan
aFnan
aFnan
aF24.8
aF24.8
aFnan
aFnan
aFnan
aFnan
aFnan
aFnan
aFnan
aFnan
aFnan
aFnan
aFnan
aFnan
aFnan
aFnan
aFnan
aFnan
aFnan
aFnan
aFnan
aFnan
aFnan
aFnan
aFnan
aFnan
aFnan
aFnan
aFnan
aFnan
aFnan
aFnan
aFnan
aFnan
aFnan
aFnan
aFnan
aFnan
aFnan
aFnan
aFnan
aFnan
aFnan
aFnan
aFnan
aFnan
aFnan
aFnan
aFnan
aFnan
aFnan
aFnan
aFnan
aFnan
aFnan
aFnan
aFnan
aFnan
aFnan
asg379
g0
(g287
g2
Ntp1074
Rp1075
(dp1076
g291
Nsg383
g1071
sg295
I00
sg296
I00
sg297
Nsbsg384
g0
(g385
g386
(g387
g388
tp1077
tp1078
Rp1079
sg293
S'Gene_I'
p1080
sbag0
(g307
g2
Ntp1081
Rp1082
(dp1083
g311
I00
sg312
g4
sg313
(lp1084
Fnan
aF19.9
aF21.9
aF23.9
aF23.8
aF18.8
aF18.8
aFnan
aFnan
aFnan
aFnan
aFnan
aFnan
aFnan
aFnan
aFnan
aFnan
aFnan
aFnan
aFnan
aFnan
aFnan
aFnan
aFnan
aFnan
aFnan
aFnan
aFnan
aFnan
aFnan
aFnan
aFnan
aFnan
aFnan
aFnan
aFnan
aFnan
aFnan
aFnan
aFnan
aFnan
aFnan
aFnan
aFnan
aFnan
aFnan
aFnan
aFnan
aFnan
aFnan
aFnan
aFnan
aFnan
aFnan
aFnan
aFnan
aFnan
aFnan
aFnan
aFnan
aFnan
aFnan
aFnan
aFnan
asg379
g0
(g287
g2
Ntp1085
Rp1086
(dp1087
g291
Nsg383
g1082
sg295
I00
sg296
I00
sg297
Nsbsg384
g1079
sg293
S'Gene_R1'
p1088
sbag0
(g307
g2
Ntp1089
Rp1090
(dp1091
g311
I00
sg312
g4
sg313
(lp1092
F19.8
aF21.8
aFnan
aFnan
aFnan
aFnan
aFnan
aFnan
aFnan
aFnan
aFnan
aFnan
aFnan
aFnan
aFnan
aFnan
aFnan
aFnan
aFnan
aFnan
aFnan
aFnan
aFnan
aFnan
aFnan
aFnan
aFnan
aFnan
aFnan
aFnan
aFnan
aFnan
aFnan
aFnan
aFnan
aFnan
aFnan
aFnan
aFnan
aFnan
aFnan
aFnan
aFnan
aFnan
aFnan
aFnan
aFnan
aFnan
aFnan
aFnan
aFnan
aFnan
aFnan
aFnan
aFnan
aFnan
aFnan
aFnan
aFnan
aFnan
aFnan
aFnan
aFnan
aFnan
asg379
g0
(g287
g2
Ntp1093
Rp1094
(dp1095
g291
Nsg383
g1090
sg295
I00
sg296
I00
sg297
Nsbsg384
g1079
sg293
S'Gene_R2'
p1096
sbag0
(g307
g2
Ntp1097
Rp1098
(dp1099
g311
I00
sg312
g4
sg313
(lp1100
Fnan
aF0.00897
aFnan
aFnan
aFnan
aF0.01563
aF0.01563
aFnan
aFnan
aFnan
aFnan
aFnan
aFnan
aFnan
aFnan
aFnan
aFnan
aFnan
aFnan
aFnan
aFnan
aFnan
aFnan
aFnan
aFnan
aFnan
aFnan
aFnan
aFnan
aFnan
aFnan
aFnan
aFnan
aFnan
aFnan
aFnan
aFnan
aFnan
aFnan
aFnan
aFnan
aFnan
aFnan
aFnan
aFnan
aFnan
aFnan
aFnan
aFnan
aFnan
aFnan
aFnan
aFnan
aFnan
aFnan
aFnan
aFnan
aFnan
aFnan
aFnan
aFnan
aFnan
aFnan
aFnan
asg379
g0
(g287
g2
Ntp1101
Rp1102
(dp1103
g291
VExprR1 = roundValues(2**(Gene_R1 - Gene_I),5)
p1104
sg293
VExprR1
p1105
sg295
I01
sg296
I00
sg297
VroundValues(2**(Gene_R1 - Gene_I),5)
p1106
sbsg384
g0
(g385
g386
(g387
g388
tp1107
tp1108
Rp1109
sg293
g1105
sbag0
(g307
g2
Ntp1110
Rp1111
(dp1112
g311
I00
sg312
g4
sg313
(lp1113
F0.11663
aF0.03349
aFnan
aFnan
aFnan
aFnan
aFnan
aFnan
aFnan
aFnan
aFnan
aFnan
aFnan
aFnan
aFnan
aFnan
aFnan
aFnan
aFnan
aFnan
aFnan
aFnan
aFnan
aFnan
aFnan
aFnan
aFnan
aFnan
aFnan
aFnan
aFnan
aFnan
aFnan
aFnan
aFnan
aFnan
aFnan
aFnan
aFnan
aFnan
aFnan
aFnan
aFnan
aFnan
aFnan
aFnan
aFnan
aFnan
aFnan
aFnan
aFnan
aFnan
aFnan
aFnan
aFnan
aFnan
aFnan
aFnan
aFnan
aFnan
aFnan
aFnan
aFnan
aFnan
asg379
g0
(g287
g2
Ntp1114
Rp1115
(dp1116
g291
VExprR2 = roundValues(2**(Gene_R2 - Gene_I),5)
p1117
sg293
VExprR2
p1118
sg295
I01
sg296
I00
sg297
VroundValues(2**(Gene_R2 - Gene_I),5)
p1119
sbsg384
g0
(g385
g386
(g387
g388
tp1120
tp1121
Rp1122
sg293
g1118
sbag0
(g307
g2
Ntp1123
Rp1124
(dp1125
g311
I00
sg312
g4
sg313
(lp1126
Fnan
aF0.017
aFnan
aFnan
aFnan
aFnan
aFnan
aFnan
aFnan
aFnan
aFnan
aFnan
aFnan
aFnan
aFnan
aFnan
aFnan
aFnan
aFnan
aFnan
aFnan
aFnan
aFnan
aFnan
aFnan
aFnan
aFnan
aFnan
aFnan
aFnan
aFnan
aFnan
aFnan
aFnan
aFnan
aFnan
aFnan
aFnan
aFnan
aFnan
aFnan
aFnan
aFnan
aFnan
aFnan
aFnan
aFnan
aFnan
aFnan
aFnan
aFnan
aFnan
aFnan
aFnan
aFnan
aFnan
aFnan
aFnan
aFnan
aFnan
aFnan
aFnan
aFnan
aFnan
asg379
g0
(g287
g2
Ntp1127
Rp1128
(dp1129
g291
VGeoMean = roundValues(np.sqrt(ExprR1*ExprR2), 3)
p1130
sg293
VGeoMean
p1131
sg295
I01
sg296
I00
sg297
VroundValues(np.sqrt(ExprR1*ExprR2), 3)
p1132
sbsg384
g0
(g385
g386
(g387
g388
tp1133
tp1134
Rp1135
sg293
g1131
sbag0
(g307
g2
Ntp1136
Rp1137
(dp1138
g311
I00
sg312
g4
sg313
(lp1139
(lp1140
g625
(g629
S'\x00\x00\x00\x00\x00\x00\x00\x00'
p1141
tp1142
Rp1143
aa(lp1144
g625
(g629
S'\x01\x00\x00\x00\x00\x00\x00\x00'
p1145
tp1146
Rp1147
aa(lp1148
g625
(g629
S'\x02\x00\x00\x00\x00\x00\x00\x00'
p1149
tp1150
Rp1151
aa(lp1152
g625
(g629
S'\x03\x00\x00\x00\x00\x00\x00\x00'
p1153
tp1154
Rp1155
aa(lp1156
g625
(g629
S'\x04\x00\x00\x00\x00\x00\x00\x00'
p1157
tp1158
Rp1159
aaNaNaNaNaNaNaNaNaNaNaNaNaNaNaNaNaNaNaNaNaNaNaNaNaNaNaNaNaNaNaNaNaNaNaNaNaNaNaNaNaNaNaNaNaNaNaNaNaNaNaNaNaNaNaNaNaNaNaNasg379
g0
(g287
g2
Ntp1160
Rp1161
(dp1162
g291
Vcat_vals = [br[0] for br in pruneNulls(BioRuns)]\u000aclean_geo = [x for x in GeoMean if x is not None]\u000aGeoGroups, groupedGeoMeans = groupBy(cat_vals, clean_geo)\u000aGroupedGeoMeans = roundValues(groupedGeoMeans, 3)\u000aGeoGroups = [[x] for x in GeoGroups]
p1163
sg293
VGeoGroups
p1164
sg295
I00
sg296
I00
sg297
Vcat_vals = [br[0] for br in pruneNulls(BioRuns)]\u000aclean_geo = [x for x in GeoMean if x is not None]\u000aGeoGroups, groupedGeoMeans = groupBy(cat_vals, clean_geo)\u000aGroupedGeoMeans = roundValues(groupedGeoMeans, 3)\u000aGeoGroups = [[x] for x in GeoGroups]
p1165
sbsg384
g0
(g385
g386
(g387
g388
tp1166
tp1167
Rp1168
sg293
g1164
sbag0
(g307
g2
Ntp1169
Rp1170
(dp1171
g311
I00
sg312
g4
sg313
(lp1172
g730
(g387
(I0
tp1173
g732
tp1174
Rp1175
(I1
(I1
tp1176
g738
I00
S'\x00\x00\x00\x00\x00\x00\xf8\x7f'
p1177
tp1178
bag730
(g387
(I0
tp1179
g732
tp1180
Rp1181
(I1
(I3
tp1182
g738
I00
S'\x9c\xc4 \xb0rh\x91?\x00\x00\x00\x00\x00\x00\xf8\x7f\x00\x00\x00\x00\x00\x00\xf8\x7f'
p1183
tp1184
bag730
(g387
(I0
tp1185
g732
tp1186
Rp1187
(I1
(I1
tp1188
g738
I00
S'\x00\x00\x00\x00\x00\x00\xf8\x7f'
p1189
tp1190
bag730
(g387
(I0
tp1191
g732
tp1192
Rp1193
(I1
(I1
tp1194
g738
I00
S'\x00\x00\x00\x00\x00\x00\xf8\x7f'
p1195
tp1196
bag730
(g387
(I0
tp1197
g732
tp1198
Rp1199
(I1
(I1
tp1200
g738
I00
S'\x00\x00\x00\x00\x00\x00\xf8\x7f'
p1201
tp1202
baNaNaNaNaNaNaNaNaNaNaNaNaNaNaNaNaNaNaNaNaNaNaNaNaNaNaNaNaNaNaNaNaNaNaNaNaNaNaNaNaNaNaNaNaNaNaNaNaNaNaNaNaNaNaNaNaNaNaNasg379
g0
(g287
g2
Ntp1203
Rp1204
(dp1205
g291
Nsg383
g1170
sg295
I00
sg296
I00
sg297
Nsbsg384
g0
(g385
g386
(g387
g388
tp1206
tp1207
Rp1208
sg293
VGroupedGeoMeans
p1209
sbag0
(g307
g2
Ntp1210
Rp1211
(dp1212
g311
I00
sg312
g4
sg313
(lp1213
g730
(g387
(I0
tp1214
g732
tp1215
Rp1216
(I1
(I1
tp1217
g738
I00
S'\x00\x00\x00\x00\x00\x00\xf8\x7f'
p1218
tp1219
bag730
(g387
(I0
tp1220
g732
tp1221
Rp1222
(I1
(I3
tp1223
g738
I00
S'\x00\x00\x00\x00\x00\x00\xf8\x7f\x00\x00\x00\x00\x00\x00\xf8\x7f\x00\x00\x00\x00\x00\x00\xf8\x7f'
p1224
tp1225
bag730
(g387
(I0
tp1226
g732
tp1227
Rp1228
(I1
(I1
tp1229
g738
I00
S'\x00\x00\x00\x00\x00\x00\xf8\x7f'
p1230
tp1231
bag730
(g387
(I0
tp1232
g732
tp1233
Rp1234
(I1
(I1
tp1235
g738
I00
S'\x00\x00\x00\x00\x00\x00\xf8\x7f'
p1236
tp1237
bag730
(g387
(I0
tp1238
g732
tp1239
Rp1240
(I1
(I1
tp1241
g738
I00
S'\x00\x00\x00\x00\x00\x00\xf8\x7f'
p1242
tp1243
baNaNaNaNaNaNaNaNaNaNaNaNaNaNaNaNaNaNaNaNaNaNaNaNaNaNaNaNaNaNaNaNaNaNaNaNaNaNaNaNaNaNaNaNaNaNaNaNaNaNaNaNaNaNaNaNaNaNaNasg379
g0
(g287
g2
Ntp1244
Rp1245
(dp1246
g291
Vref = np.mean(GroupedGeoMeans[0])\u000aNrmlGeoGroupedMeans = [ [x/ref for x in g] for g in GroupedGeoMeans if g is not None]  \u000aNrmlGeoGroupedMeans = roundValues(NrmlGeoGroupedMeans, 3)
p1247
sg293
VNrmlGeoGroupedMeans
p1248
sg295
I00
sg296
I00
sg297
Vref = np.mean(GroupedGeoMeans[0])\u000aNrmlGeoGroupedMeans = [ [x/ref for x in g] for g in GroupedGeoMeans if g is not None]  \u000aNrmlGeoGroupedMeans = roundValues(NrmlGeoGroupedMeans, 3)
p1249
sbsg384
g0
(g385
g386
(g387
g388
tp1250
tp1251
Rp1252
sg293
g1248
sbag0
(g307
g2
Ntp1253
Rp1254
(dp1255
g311
I00
sg312
g4
sg313
(lp1256
Fnan
aFnan
aFnan
aFnan
aFnan
aFnan
aFnan
aFnan
aFnan
aFnan
aFnan
aFnan
aFnan
aFnan
aFnan
aFnan
aFnan
aFnan
aFnan
aFnan
aFnan
aFnan
aFnan
aFnan
aFnan
aFnan
aFnan
aFnan
aFnan
aFnan
aFnan
aFnan
aFnan
aFnan
aFnan
aFnan
aFnan
aFnan
aFnan
aFnan
aFnan
aFnan
aFnan
aFnan
aFnan
aFnan
aFnan
aFnan
aFnan
aFnan
aFnan
aFnan
aFnan
aFnan
aFnan
aFnan
aFnan
aFnan
aFnan
aFnan
aFnan
aFnan
aFnan
aFnan
asg379
g0
(g287
g2
Ntp1257
Rp1258
(dp1259
g291
VMeanNrmlGeoGroups = [round(np.mean(g), 3) for g in NrmlGeoGroupedMeans]
p1260
sg293
VMeanNrmlGeoGroups
p1261
sg295
I01
sg296
I00
sg297
V[round(np.mean(g), 3) for g in NrmlGeoGroupedMeans]
p1262
sbsg384
g0
(g385
g386
(g387
g388
tp1263
tp1264
Rp1265
sg293
g1261
sbag0
(g307
g2
Ntp1266
Rp1267
(dp1268
g311
I00
sg312
g4
sg313
(lp1269
Fnan
aFnan
aFnan
aFnan
aFnan
aFnan
aFnan
aFnan
aFnan
aFnan
aFnan
aFnan
aFnan
aFnan
aFnan
aFnan
aFnan
aFnan
aFnan
aFnan
aFnan
aFnan
aFnan
aFnan
aFnan
aFnan
aFnan
aFnan
aFnan
aFnan
aFnan
aFnan
aFnan
aFnan
aFnan
aFnan
aFnan
aFnan
aFnan
aFnan
aFnan
aFnan
aFnan
aFnan
aFnan
aFnan
aFnan
aFnan
aFnan
aFnan
aFnan
aFnan
aFnan
aFnan
aFnan
aFnan
aFnan
aFnan
aFnan
aFnan
aFnan
aFnan
aFnan
aFnan
asg379
g0
(g287
g2
Ntp1270
Rp1271
(dp1272
g291
VStdNrmlGeoGroups = [round(np.std(g, ddof=1)/np.sqrt(len(g)), 3) for g in NrmlGeoGroupedMeans]\u000a
p1273
sg293
VStdNrmlGeoGroups
p1274
sg295
I01
sg296
I00
sg297
V[round(np.std(g, ddof=1)/np.sqrt(len(g)), 3) for g in NrmlGeoGroupedMeans]\u000a
p1275
sbsg384
g0
(g385
g386
(g387
g388
tp1276
tp1277
Rp1278
sg293
g1274
sbasg278
V/home/ubuntu/SciSheets/mysite/user/guest/tables/kristen_single_gene.pcl
p1279
sb.