ccopy_reg
_reconstructor
p0
(cscisheets.ui.dt_table
DTTable
p1
c__builtin__
object
p2
Ntp3
Rp4
(dp5
S'_versioned_file'
p6
g0
(cmysite.helpers.versioned_file
VersionedFile
p7
g2
Ntp8
Rp9
(dp10
S'_redo_stack'
p11
g0
(cmysite.helpers.file_stack
FileStack
p12
g2
Ntp13
Rp14
(dp15
S'_dirpath'
p16
S'/home/ubuntu/SciSheets/mysite/user/guest/tables/backup'
p17
sS'_max_depth'
p18
I5
sS'_filename_pfx'
p19
Vkristen_single_gene.r
p20
sbsS'_max_versions'
p21
I5
sS'_undo_stack'
p22
g0
(g12
g2
Ntp23
Rp24
(dp25
g16
g17
sg18
I5
sg19
Vkristen_single_gene.u
p26
sbsS'_checkpoint_history'
p27
(lp28
VCell/Update
p29
aVCell/Update
p30
aVCell/Update
p31
aVCell/Update
p32
aVCell/Update
p33
aVCell/Update
p34
aVCell/Update
p35
aVCell/Update
p36
aVCell/Update
p37
aVCell/Update
p38
aVCell/Update
p39
aVCell/Update
p40
aVColumn/Formula
p41
aVColumn/Formula
p42
aVColumn/Append
p43
aVColumn/Formula
p44
aVColumn/Delete
p45
aVCell/Update
p46
aVColumn/Formula
p47
aVCell/Update
p48
aVCell/Update
p49
aVColumn/Formula
p50
aVColumn/Formula
p51
aVCell/Update
p52
aVColumn/Formula
p53
aVColumn/Formula
p54
aVCell/Update
p55
aVCell/Update
p56
aVCell/Update
p57
aVCell/Update
p58
aVColumn/Formula
p59
aVCell/Update
p60
aVCell/Update
p61
aVCell/Update
p62
aVColumn/Formula
p63
aVCell/Update
p64
aVColumn/Formula
p65
aVColumn/Formula
p66
aVCell/Update
p67
aVCell/Update
p68
aVCell/Update
p69
aVCell/Update
p70
aVCell/Update
p71
aVCell/Update
p72
aVCell/Update
p73
aVCell/Update
p74
aVCell/Update
p75
aVColumn/Formula
p76
aVCell/Update
p77
aVCell/Update
p78
aVCell/Update
p79
aVCell/Update
p80
aVCell/Update
p81
aVCell/Update
p82
aVCell/Update
p83
aVCell/Update
p84
aVCell/Update
p85
aVCell/Update
p86
aVCell/Update
p87
aVCell/Update
p88
aVColumn/Formula
p89
aVColumn/Formula
p90
asS'_filepath'
p91
V/home/ubuntu/SciSheets/mysite/user/guest/tables/kristen_single_gene.pcl
p92
sS'_backup_dir'
p93
g17
sbsS'_namespace'
p94
(dp95
sS'_hidden_columns'
p96
(lp97
g0
(cscisheets.core.column
Column
p98
g2
Ntp99
Rp100
(dp101
S'_asis'
p102
I00
sS'_owning_table'
p103
g4
sS'_cells'
p104
(lp105
VSEP1 2012 P17F4 a
p106
aVSEP1 2012 P17F4 b
p107
aVSEP1 2012 P17F4 c
p108
aVSEP1 2012 P17F5 a
p109
aVSEP1 2012 P17F5 b
p110
aVSEP1 2012 P17F5 c
p111
aVSEP1 2012 P1F3 SEP1a
p112
aVSEP1 2012 P1F3 SEP1b
p113
aVSEP1 2012 P1F3 SEP1c
p114
aVSEP1-2 2012 P11aF2 a
p115
aVSEP1-2 2012 P11aF2 b
p116
aVSEP1-2 2012 P11aF2 c
p117
aVSEP1-3 2012 P15F2 a
p118
aVSEP1-3 2012 P15F2 b
p119
aVSEP1-3 2012 P15F2 c
p120
aVuntreated 2012 P12F1 SEP1 1:2a
p121
aVuntreated 2012 P12F1 SEP1 1:2b
p122
aVuntreated 2012 P12F1 SEP1 1:2c
p123
aVSEP1 2012 P17F4 ACTa
p124
aVSEP1 2012 P17F4 ACTb
p125
aVSEP1 2012 P17F4 ACTc
p126
aVSEP1 2012 P17F5 ACTa
p127
aVSEP1 2012 P17F5 ACTb
p128
aVSEP1 2012 P17F5 ACTc
p129
aVSEP1 2012 P1F3 ACTa
p130
aVSEP1 2012 P1F3 ACTb
p131
aVSEP1 2012 P1F3 ACTc
p132
aVSEP1-2 2012 P11aF2 ACTa
p133
aVSEP1-2 2012 P11aF2 ACTb
p134
aVSEP1-2 2012 P11aF2 ACTc
p135
aVSEP1-3 2012 P15F2 ACTa
p136
aVSEP1-3 2012 P15F2 ACTb
p137
aVSEP1-3 2012 P15F2 ACTc
p138
aVuntreated 2012 P12F1 ACTa
p139
aVuntreated 2012 P12F1 ACTb
p140
aVuntreated 2012 P12F1 ACTc
p141
aVSEP1 2012 P17F4 EEF1a
p142
aVSEP1 2012 P17F4 EEF1b
p143
aVSEP1 2012 P17F4 EEF1c
p144
aVSEP1 2012 P17F5 EEF1a
p145
aVSEP1 2012 P17F5 EEF1b
p146
aVSEP1 2012 P17F5 EEF1c
p147
aVSEP1 2012 P1F3 EEF1a
p148
aVSEP1 2012 P1F3 EEF1b
p149
aVSEP1 2012 P1F3 EEF1c
p150
aVSEP1-2 2012 P11aF2 EEF1a
p151
aVSEP1-2 2012 P11aF2 EEF1b
p152
aVSEP1-2 2012 P11aF2 EEF1c
p153
aVSEP1-3 2012 P15F2 EEF1a
p154
aVSEP1-3 2012 P15F2 EEF1b
p155
aVSEP1-3 2012 P15F2 EEF1c
p156
aVuntreated 2012 P12F1 EEF1a
p157
aVuntreated 2012 P12F1 EEF1b
p158
aVuntreated 2012 P12F1 EEF1c
p159
asS'_formula_statement'
p160
g0
(cscisheets.core.column
FormulaStatement
p161
g2
Ntp162
Rp163
(dp164
S'_statement'
p165
NsS'_column'
p166
g100
sS'_isExpression'
p167
I00
sS'_isStatement'
p168
I00
sS'_formula'
p169
NsbsS'_data_class'
p170
g0
(cscisheets.core.helpers.api_util
DataClass
p171
c__builtin__
tuple
p172
(cnumpy
ndarray
p173
cscisheets.core.helpers.api_util
makeArray
p174
tp175
tp176
Rp177
sS'_name'
p178
S'SmplName'
p179
sbag0
(g98
g2
Ntp180
Rp181
(dp182
g102
I00
sg103
g4
sg104
(lp183
I1
aI1
aI1
aI2
aI2
aI2
aI3
aI3
aI3
aI1
aI1
aI1
aI1
aI1
aI1
aI1
aI1
aI1
aI1
aI1
aI1
aI2
aI2
aI2
aI3
aI3
aI3
aI1
aI1
aI1
aI1
aI1
aI1
aI1
aI1
aI1
aI1
aI1
aI1
aI2
aI2
aI2
aI3
aI3
aI3
aI1
aI1
aI1
aI1
aI1
aI1
aI1
aI1
aI1
asg160
g0
(g161
g2
Ntp184
Rp185
(dp186
g165
Nsg166
g181
sg167
I00
sg168
I00
sg169
Nsbsg170
g177
sg178
S'BRpl'
p187
sbag0
(g98
g2
Ntp188
Rp189
(dp190
g102
I00
sg103
g4
sg104
(lp191
F26.68
aF27.13
aF27.21
aF26.76
aF26.71
aF26.19
aF29.98
aF30.12
aF29.41
aF29.95
aF30.45
aF29.88
aF24.8
aF24.97
aF24.63
aF23.0
aF22.86
aF22.8
aF19.92
aF19.85
aF20.0
aF21.86
aF22.09
aF21.84
aF23.89
aF23.54
aF24.27
aF23.22
aF23.8
aF23.49
aF18.91
aF18.78
aF18.8
aF18.24
aF18.22
aF18.36
aF22.18
aF21.71
aF21.75
aF23.88
aF23.42
aF23.63
aF24.59
aF24.61
aF24.34
aF26.37
aF26.36
aF26.17
aF20.5
aF20.47
aF20.28
aF19.72
aF19.75
aF20.01
asg160
g0
(g161
g2
Ntp192
Rp193
(dp194
g165
Nsg166
g189
sg167
I00
sg168
I00
sg169
Nsbsg170
g177
sg178
S'Ct'
p195
sbag0
(g98
g2
Ntp196
Rp197
(dp198
g102
I00
sg103
g4
sg104
(lp199
F0.9399
aF0.8296
aF0.8361
aF0.8039
aF0.8399
aF0.7935
aF0.8264
aF0.7974
aF0.8252
aF0.8418
aF0.7959
aF0.8071
aF0.8513
aF0.8485
aF0.8401
aF0.8371
aF0.891
aF0.8956
aF0.9179
aF0.9783
aF0.8971
aF0.8957
aF0.8287
aF0.8387
aF0.8746
aF0.8493
aF0.8349
aF0.7701
aF0.8746
aF0.8139
aF0.8715
aF0.8977
aF0.856
aF0.8266
aF0.8343
aF0.8496
aF0.7857
aF0.8427
aF0.8637
aF0.8281
aF0.8203
aF0.8288
aF0.8138
aF0.8242
aF0.804
aF0.7795
aF0.7676
aF0.7947
aF0.8179
aF0.8173
aF0.7894
aF0.8157
aF0.8543
aF0.8208
asg160
g0
(g161
g2
Ntp200
Rp201
(dp202
g165
Nsg166
g197
sg167
I00
sg168
I00
sg169
Nsbsg170
g177
sg178
S'Eff'
p203
sbag0
(g98
g2
Ntp204
Rp205
(dp206
g102
I00
sg103
g4
sg104
(lp207
VI
p208
ag208
ag208
ag208
ag208
ag208
ag208
ag208
ag208
ag208
ag208
ag208
ag208
ag208
ag208
ag208
ag208
ag208
aVR1
p209
aVR1
p210
aVR1
p211
aVR1
p212
aVR1
p213
aVR1
p214
aVR1
p215
aVR1
p216
aVR1
p217
aVR1
p218
aVR1
p219
aVR1
p220
aVR1
p221
aVR1
p222
aVR1
p223
aVR1
p224
aVR1
p225
aVR1
p226
aVR2
p227
aVR2
p228
aVR2
p229
aVR2
p230
aVR2
p231
aVR2
p232
aVR2
p233
aVR2
p234
aVR2
p235
aVR2
p236
aVR2
p237
aVR2
p238
aVR2
p239
aVR2
p240
aVR2
p241
aVR2
p242
aVR2
p243
aVR2
p244
asg160
g0
(g161
g2
Ntp245
Rp246
(dp247
g165
Nsg166
g205
sg167
I00
sg168
I00
sg169
Nsbsg170
g177
sg178
S'RunType'
p248
sbag0
(g98
g2
Ntp249
Rp250
(dp251
g102
I00
sg103
g4
sg104
(lp252
Va
p253
aVb
p254
aVc
p255
ag253
ag254
ag255
ag253
ag254
ag255
ag253
ag254
ag255
ag253
ag254
ag255
ag253
ag254
ag255
ag253
ag254
ag255
ag253
ag254
ag255
ag253
ag254
ag255
ag253
ag254
ag255
ag253
ag254
ag255
ag253
ag254
ag255
ag253
ag254
ag255
ag253
ag254
ag255
ag253
ag254
ag255
ag253
ag254
ag255
ag253
ag254
ag255
ag253
ag254
ag255
asg160
g0
(g161
g2
Ntp256
Rp257
(dp258
g165
Nsg166
g250
sg167
I00
sg168
I00
sg169
Nsbsg170
g177
sg178
S'TRpl'
p259
sbag0
(g98
g2
Ntp260
Rp261
(dp262
g102
I00
sg103
g4
sg104
(lp263
I1
aI1
aI1
aI1
aI1
aI1
aI1
aI1
aI1
aI2
aI2
aI2
aI3
aI3
aI3
aI0
aI0
aI0
aI1
aI1
aI1
aI1
aI1
aI1
aI1
aI1
aI1
aI2
aI2
aI2
aI3
aI3
aI3
aI0
aI0
aI0
aI1
aI1
aI1
aI1
aI1
aI1
aI1
aI1
aI1
aI2
aI2
aI2
aI3
aI3
aI3
aI0
aI0
aI0
asg160
g0
(g161
g2
Ntp264
Rp265
(dp266
g165
Nsg166
g261
sg167
I00
sg168
I00
sg169
Nsbsg170
g177
sg178
S'Treatment'
p267
sbag0
(g98
g2
Ntp268
Rp269
(dp270
g102
I00
sg103
g4
sg104
(lp271
(cnumpy.core.multiarray
scalar
p272
(cnumpy
dtype
p273
(S'i8'
p274
I0
I1
tp275
Rp276
(I3
S'<'
p277
NNNI-1
I-1
I0
tp278
bS'\x00\x00\x00\x00\x00\x00\x00\x00'
p279
tp280
Rp281
g208
g272
(g276
S'\x01\x00\x00\x00\x00\x00\x00\x00'
p282
tp283
Rp284
tp285
a(g272
(g276
S'\x00\x00\x00\x00\x00\x00\x00\x00'
p286
tp287
Rp288
VR1
p289
g272
(g276
S'\x01\x00\x00\x00\x00\x00\x00\x00'
p290
tp291
Rp292
tp293
a(g272
(g276
S'\x00\x00\x00\x00\x00\x00\x00\x00'
p294
tp295
Rp296
VR2
p297
g272
(g276
S'\x01\x00\x00\x00\x00\x00\x00\x00'
p298
tp299
Rp300
tp301
a(g272
(g276
S'\x01\x00\x00\x00\x00\x00\x00\x00'
p302
tp303
Rp304
g208
g272
(g276
S'\x01\x00\x00\x00\x00\x00\x00\x00'
p305
tp306
Rp307
tp308
a(g272
(g276
S'\x01\x00\x00\x00\x00\x00\x00\x00'
p309
tp310
Rp311
g208
g272
(g276
S'\x02\x00\x00\x00\x00\x00\x00\x00'
p312
tp313
Rp314
tp315
a(g272
(g276
S'\x01\x00\x00\x00\x00\x00\x00\x00'
p316
tp317
Rp318
g208
g272
(g276
S'\x03\x00\x00\x00\x00\x00\x00\x00'
p319
tp320
Rp321
tp322
a(g272
(g276
S'\x01\x00\x00\x00\x00\x00\x00\x00'
p323
tp324
Rp325
g289
g272
(g276
S'\x01\x00\x00\x00\x00\x00\x00\x00'
p326
tp327
Rp328
tp329
a(g272
(g276
S'\x01\x00\x00\x00\x00\x00\x00\x00'
p330
tp331
Rp332
g289
g272
(g276
S'\x02\x00\x00\x00\x00\x00\x00\x00'
p333
tp334
Rp335
tp336
a(g272
(g276
S'\x01\x00\x00\x00\x00\x00\x00\x00'
p337
tp338
Rp339
g289
g272
(g276
S'\x03\x00\x00\x00\x00\x00\x00\x00'
p340
tp341
Rp342
tp343
a(g272
(g276
S'\x01\x00\x00\x00\x00\x00\x00\x00'
p344
tp345
Rp346
g297
g272
(g276
S'\x01\x00\x00\x00\x00\x00\x00\x00'
p347
tp348
Rp349
tp350
a(g272
(g276
S'\x01\x00\x00\x00\x00\x00\x00\x00'
p351
tp352
Rp353
g297
g272
(g276
S'\x02\x00\x00\x00\x00\x00\x00\x00'
p354
tp355
Rp356
tp357
a(g272
(g276
S'\x01\x00\x00\x00\x00\x00\x00\x00'
p358
tp359
Rp360
g297
g272
(g276
S'\x03\x00\x00\x00\x00\x00\x00\x00'
p361
tp362
Rp363
tp364
a(g272
(g276
S'\x02\x00\x00\x00\x00\x00\x00\x00'
p365
tp366
Rp367
g208
g272
(g276
S'\x01\x00\x00\x00\x00\x00\x00\x00'
p368
tp369
Rp370
tp371
a(g272
(g276
S'\x02\x00\x00\x00\x00\x00\x00\x00'
p372
tp373
Rp374
g289
g272
(g276
S'\x01\x00\x00\x00\x00\x00\x00\x00'
p375
tp376
Rp377
tp378
a(g272
(g276
S'\x02\x00\x00\x00\x00\x00\x00\x00'
p379
tp380
Rp381
g297
g272
(g276
S'\x01\x00\x00\x00\x00\x00\x00\x00'
p382
tp383
Rp384
tp385
a(g272
(g276
S'\x03\x00\x00\x00\x00\x00\x00\x00'
p386
tp387
Rp388
g208
g272
(g276
S'\x01\x00\x00\x00\x00\x00\x00\x00'
p389
tp390
Rp391
tp392
a(g272
(g276
S'\x03\x00\x00\x00\x00\x00\x00\x00'
p393
tp394
Rp395
g289
g272
(g276
S'\x01\x00\x00\x00\x00\x00\x00\x00'
p396
tp397
Rp398
tp399
a(g272
(g276
S'\x03\x00\x00\x00\x00\x00\x00\x00'
p400
tp401
Rp402
g297
g272
(g276
S'\x01\x00\x00\x00\x00\x00\x00\x00'
p403
tp404
Rp405
tp406
aNaNaNaNaNaNaNaNaNaNaNaNaNaNaNaNaNaNaNaNaNaNaNaNaNaNaNaNaNaNaNaNaNaNaNaNasg160
g0
(g161
g2
Ntp407
Rp408
(dp409
g165
Vif run:\u000a  sel = Eff > min_eff\u000a  grouping_columns =   [\u000a      Treatment[sel],\u000a       RunType[sel], \u000a      BRpl[sel],      \u000a    ]\u000a  if True:\u000a    Groups, groupedCt = groupBy(\u000a      grouping_columns, Ct[sel])\u000a    Groups, groupedEff = groupBy(\u000a      grouping_columns, Eff[sel])\u000a    GroupedCt = roundValues(groupedCt,2)\u000a    GroupedEff = roundValues(groupedEff,2)
p410
sg166
g269
sg167
I00
sg168
I00
sg169
Vif run:\u000a  sel = Eff > min_eff\u000a  grouping_columns =   [\u000a      Treatment[sel],\u000a       RunType[sel], \u000a      BRpl[sel],      \u000a    ]\u000a  if True:\u000a    Groups, groupedCt = groupBy(\u000a      grouping_columns, Ct[sel])\u000a    Groups, groupedEff = groupBy(\u000a      grouping_columns, Eff[sel])\u000a    GroupedCt = roundValues(groupedCt,2)\u000a    GroupedEff = roundValues(groupedEff,2)
p411
sbsg170
g0
(g171
g172
(g173
g174
tp412
tp413
Rp414
sg178
VGroups
p415
sbag0
(g98
g2
Ntp416
Rp417
(dp418
g102
I00
sg103
g4
sg104
(lp419
(lp420
F0.84
aF0.89
aF0.9
aa(lp421
F0.83
aF0.83
aF0.85
aa(lp422
F0.82
aF0.85
aF0.82
aa(lp423
F0.94
aF0.83
aF0.84
aa(lp424
F0.8
aF0.84
aF0.79
aa(lp425
F0.83
aF0.8
aF0.83
aa(lp426
F0.92
aF0.98
aF0.9
aa(lp427
F0.9
aF0.83
aF0.84
aa(lp428
F0.87
aF0.85
aF0.83
aa(lp429
F0.79
aF0.84
aF0.86
aa(lp430
F0.83
aF0.82
aF0.83
aa(lp431
F0.81
aF0.82
aF0.8
aa(lp432
F0.84
aF0.8
aF0.81
aa(lp433
F0.77
aF0.87
aF0.81
aa(lp434
F0.78
aF0.77
aF0.79
aa(lp435
F0.85
aF0.85
aF0.84
aa(lp436
F0.87
aF0.9
aF0.86
aa(lp437
F0.82
aF0.82
aF0.79
aaNaNaNaNaNaNaNaNaNaNaNaNaNaNaNaNaNaNaNaNaNaNaNaNaNaNaNaNaNaNaNaNaNaNaNaNasg160
g0
(g161
g2
Ntp438
Rp439
(dp440
g165
Nsg166
g417
sg167
I00
sg168
I00
sg169
Nsbsg170
g0
(g171
g172
(g173
g174
tp441
tp442
Rp443
sg178
VGroupedEff
p444
sbag0
(g98
g2
Ntp445
Rp446
(dp447
g102
I00
sg103
g4
sg104
(lp448
(lp449
F23.0
aF22.86
aF22.8
aa(lp450
F18.24
aF18.22
aF18.36
aa(lp451
F19.72
aF19.75
aF20.01
aa(lp452
F26.68
aF27.13
aF27.21
aa(lp453
F26.76
aF26.71
aF26.19
aa(lp454
F29.98
aF30.12
aF29.41
aa(lp455
F19.92
aF19.85
aF20.0
aa(lp456
F21.86
aF22.09
aF21.84
aa(lp457
F23.89
aF23.54
aF24.27
aa(lp458
F22.18
aF21.71
aF21.75
aa(lp459
F23.88
aF23.42
aF23.63
aa(lp460
F24.59
aF24.61
aF24.34
aa(lp461
F29.95
aF30.45
aF29.88
aa(lp462
F23.22
aF23.8
aF23.49
aa(lp463
F26.37
aF26.36
aF26.17
aa(lp464
F24.8
aF24.97
aF24.63
aa(lp465
F18.91
aF18.78
aF18.8
aa(lp466
F20.5
aF20.47
aF20.28
aaNaNaNaNaNaNaNaNaNaNaNaNaNaNaNaNaNaNaNaNaNaNaNaNaNaNaNaNaNaNaNaNaNaNaNaNasg160
g0
(g161
g2
Ntp467
Rp468
(dp469
g165
Nsg166
g446
sg167
I00
sg168
I00
sg169
Nsbsg170
g0
(g171
g172
(g173
g174
tp470
tp471
Rp472
sg178
VGroupedCt
p473
sbag0
(g98
g2
Ntp474
Rp475
(dp476
g102
I00
sg103
g4
sg104
(lp477
(lp478
F23.0
aF22.9
aF22.8
aa(lp479
F18.2
aF18.2
aF18.4
aa(lp480
F19.7
aF19.8
aF20.0
aa(lp481
F26.7
aF27.1
aF27.2
aa(lp482
F26.8
aF26.7
aF26.2
aa(lp483
F30.0
aF30.1
aF29.4
aa(lp484
F19.9
aF19.9
aF20.0
aa(lp485
F21.9
aF22.1
aF21.8
aa(lp486
F23.9
aF23.5
aF24.3
aa(lp487
F22.2
aF21.7
aF21.8
aa(lp488
F23.9
aF23.4
aF23.6
aa(lp489
F24.6
aF24.6
aF24.3
aa(lp490
F29.9
aF30.4
aF29.9
aa(lp491
F23.2
aF23.8
aF23.5
aa(lp492
F26.4
aF26.4
aF26.2
aa(lp493
F24.8
aF25.0
aF24.6
aa(lp494
F18.9
aF18.8
aF18.8
aa(lp495
F20.5
aF20.5
aF20.3
aaNaNaNaNaNaNaNaNaNaNaNaNaNaNaNaNaNaNaNaNaNaNaNaNaNaNaNaNaNaNaNaNaNaNaNaNasg160
g0
(g161
g2
Ntp496
Rp497
(dp498
g165
Vif run:\u000a  length = len(Groups)\u000a  StdFilteredGroupedCt = roundValues([filterExtremes(g, max_std, 2) for g in pruneNulls(GroupedCt, required_length=length)])\u000a 
p499
sg166
g475
sg167
I00
sg168
I00
sg169
Vif run:\u000a  length = len(Groups)\u000a  StdFilteredGroupedCt = roundValues([filterExtremes(g, max_std, 2) for g in pruneNulls(GroupedCt, required_length=length)])\u000a 
p500
sbsg170
g0
(g171
g172
(g173
g174
tp501
tp502
Rp503
sg178
VStdFilteredGroupedCt
p504
sbag0
(g98
g2
Ntp505
Rp506
(dp507
g102
I00
sg103
g4
sg104
(lp508
F22.9
aF18.3
aF19.8
aF27.0
aF26.6
aF29.8
aF19.9
aF21.9
aF23.9
aF21.9
aF23.6
aF24.5
aF30.1
aF23.5
aF26.3
aF24.8
aF18.8
aF20.4
aFnan
aFnan
aFnan
aFnan
aFnan
aFnan
aFnan
aFnan
aFnan
aFnan
aFnan
aFnan
aFnan
aFnan
aFnan
aFnan
aFnan
aFnan
aFnan
aFnan
aFnan
aFnan
aFnan
aFnan
aFnan
aFnan
aFnan
aFnan
aFnan
aFnan
aFnan
aFnan
aFnan
aFnan
aFnan
aFnan
asg160
g0
(g161
g2
Ntp509
Rp510
(dp511
g165
Vif run:\u000a  MeanCt = [np.mean(g) for g in StdFilteredGroupedCt]\u000a  MeanCt = roundValues(MeanCt,1)\u000a  StdCt = [np.std(g, ddof=1) for g in StdFilteredGroupedCt]\u000a  StdCt = roundValues(StdCt,3)\u000as.setColumnVisibility(['Groups', 'GroupedEff', 'GroupedCt', 'StdFilteredGroupedCt', 'MeanCt', 'StdCt'], is_visible=show_block1)
p512
sg166
g506
sg167
I00
sg168
I00
sg169
Vif run:\u000a  MeanCt = [np.mean(g) for g in StdFilteredGroupedCt]\u000a  MeanCt = roundValues(MeanCt,1)\u000a  StdCt = [np.std(g, ddof=1) for g in StdFilteredGroupedCt]\u000a  StdCt = roundValues(StdCt,3)\u000as.setColumnVisibility(['Groups', 'GroupedEff', 'GroupedCt', 'StdFilteredGroupedCt', 'MeanCt', 'StdCt'], is_visible=show_block1)
p513
sbsg170
g0
(g171
g172
(g173
g174
tp514
tp515
Rp516
sg178
VMeanCt
p517
sbag0
(g98
g2
Ntp518
Rp519
(dp520
g102
I00
sg103
g4
sg104
(lp521
F0.1
aF0.115
aF0.153
aF0.265
aF0.321
aF0.379
aF0.058
aF0.153
aF0.4
aF0.265
aF0.252
aF0.173
aF0.289
aF0.3
aF0.115
aF0.2
aF0.058
aF0.115
aFnan
aFnan
aFnan
aFnan
aFnan
aFnan
aFnan
aFnan
aFnan
aFnan
aFnan
aFnan
aFnan
aFnan
aFnan
aFnan
aFnan
aFnan
aFnan
aFnan
aFnan
aFnan
aFnan
aFnan
aFnan
aFnan
aFnan
aFnan
aFnan
aFnan
aFnan
aFnan
aFnan
aFnan
aFnan
aFnan
asg160
g0
(g161
g2
Ntp522
Rp523
(dp524
g165
Nsg166
g519
sg167
I00
sg168
I00
sg169
Nsbsg170
g0
(g171
g172
(g173
g174
tp525
tp526
Rp527
sg178
VStdCt
p528
sbag0
(g98
g2
Ntp529
Rp530
(dp531
g102
I00
sg103
g4
sg104
(lp532
(lp533
g272
(g276
S'\x00\x00\x00\x00\x00\x00\x00\x00'
p534
tp535
Rp536
ag272
(g276
S'\x01\x00\x00\x00\x00\x00\x00\x00'
p537
tp538
Rp539
aa(lp540
g272
(g276
S'\x01\x00\x00\x00\x00\x00\x00\x00'
p541
tp542
Rp543
ag272
(g276
S'\x01\x00\x00\x00\x00\x00\x00\x00'
p544
tp545
Rp546
aa(lp547
g272
(g276
S'\x01\x00\x00\x00\x00\x00\x00\x00'
p548
tp549
Rp550
ag272
(g276
S'\x02\x00\x00\x00\x00\x00\x00\x00'
p551
tp552
Rp553
aa(lp554
g272
(g276
S'\x01\x00\x00\x00\x00\x00\x00\x00'
p555
tp556
Rp557
ag272
(g276
S'\x03\x00\x00\x00\x00\x00\x00\x00'
p558
tp559
Rp560
aa(lp561
g272
(g276
S'\x02\x00\x00\x00\x00\x00\x00\x00'
p562
tp563
Rp564
ag272
(g276
S'\x01\x00\x00\x00\x00\x00\x00\x00'
p565
tp566
Rp567
aa(lp568
g272
(g276
S'\x03\x00\x00\x00\x00\x00\x00\x00'
p569
tp570
Rp571
ag272
(g276
S'\x01\x00\x00\x00\x00\x00\x00\x00'
p572
tp573
Rp574
aaNaNaNaNaNaNaNaNaNaNaNaNaNaNaNaNaNaNaNaNaNaNaNaNaNaNaNaNaNaNaNaNaNaNaNaNaNaNaNaNaNaNaNaNaNaNaNaNasg160
g0
(g161
g2
Ntp575
Rp576
(dp577
g165
Vif run:\u000a      tabularize(s, 'Groups', 1, 'MeanCt', \u000a          new_category_colnm='BioRuns',\u000a          values_colnm_prefix='Gene_')
p578
sg166
g530
sg167
I00
sg168
I00
sg169
Vif run:\u000a      tabularize(s, 'Groups', 1, 'MeanCt', \u000a          new_category_colnm='BioRuns',\u000a          values_colnm_prefix='Gene_')
p579
sbsg170
g0
(g171
g172
(g173
g174
tp580
tp581
Rp582
sg178
VBioRuns
p583
sbag0
(g98
g2
Ntp584
Rp585
(dp586
g102
I00
sg103
g4
sg104
(lp587
F22.9
aF27.0
aF26.6
aF29.8
aF30.1
aF24.8
aFnan
aFnan
aFnan
aFnan
aFnan
aFnan
aFnan
aFnan
aFnan
aFnan
aFnan
aFnan
aFnan
aFnan
aFnan
aFnan
aFnan
aFnan
aFnan
aFnan
aFnan
aFnan
aFnan
aFnan
aFnan
aFnan
aFnan
aFnan
aFnan
aFnan
aFnan
aFnan
aFnan
aFnan
aFnan
aFnan
aFnan
aFnan
aFnan
aFnan
aFnan
aFnan
aFnan
aFnan
aFnan
aFnan
aFnan
aFnan
asg160
g0
(g161
g2
Ntp588
Rp589
(dp590
g165
Nsg166
g585
sg167
I00
sg168
I00
sg169
Nsbsg170
g0
(g171
g172
(g173
g174
tp591
tp592
Rp593
sg178
S'Gene_I'
p594
sbag0
(g98
g2
Ntp595
Rp596
(dp597
g102
I00
sg103
g4
sg104
(lp598
F18.3
aF19.9
aF21.9
aF23.9
aF23.5
aF18.8
aFnan
aFnan
aFnan
aFnan
aFnan
aFnan
aFnan
aFnan
aFnan
aFnan
aFnan
aFnan
aFnan
aFnan
aFnan
aFnan
aFnan
aFnan
aFnan
aFnan
aFnan
aFnan
aFnan
aFnan
aFnan
aFnan
aFnan
aFnan
aFnan
aFnan
aFnan
aFnan
aFnan
aFnan
aFnan
aFnan
aFnan
aFnan
aFnan
aFnan
aFnan
aFnan
aFnan
aFnan
aFnan
aFnan
aFnan
aFnan
asg160
g0
(g161
g2
Ntp599
Rp600
(dp601
g165
Nsg166
g596
sg167
I00
sg168
I00
sg169
Nsbsg170
g593
sg178
S'Gene_R1'
p602
sbag0
(g98
g2
Ntp603
Rp604
(dp605
g102
I00
sg103
g4
sg104
(lp606
F19.8
aF21.9
aF23.6
aF24.5
aF26.3
aF20.4
aFnan
aFnan
aFnan
aFnan
aFnan
aFnan
aFnan
aFnan
aFnan
aFnan
aFnan
aFnan
aFnan
aFnan
aFnan
aFnan
aFnan
aFnan
aFnan
aFnan
aFnan
aFnan
aFnan
aFnan
aFnan
aFnan
aFnan
aFnan
aFnan
aFnan
aFnan
aFnan
aFnan
aFnan
aFnan
aFnan
aFnan
aFnan
aFnan
aFnan
aFnan
aFnan
aFnan
aFnan
aFnan
aFnan
aFnan
aFnan
asg160
g0
(g161
g2
Ntp607
Rp608
(dp609
g165
Nsg166
g604
sg167
I00
sg168
I00
sg169
Nsbsg170
g593
sg178
S'Gene_R2'
p610
sbag0
(g98
g2
Ntp611
Rp612
(dp613
g102
I00
sg103
g4
sg104
(lp614
F0.04123
aF0.00729
aF0.03847
aF0.01675
aF0.01031
aF0.01563
aFnan
aFnan
aFnan
aFnan
aFnan
aFnan
aFnan
aFnan
aFnan
aFnan
aFnan
aFnan
aFnan
aFnan
aFnan
aFnan
aFnan
aFnan
aFnan
aFnan
aFnan
aFnan
aFnan
aFnan
aFnan
aFnan
aFnan
aFnan
aFnan
aFnan
aFnan
aFnan
aFnan
aFnan
aFnan
aFnan
aFnan
aFnan
aFnan
aFnan
aFnan
aFnan
aFnan
aFnan
aFnan
aFnan
aFnan
aFnan
asg160
g0
(g161
g2
Ntp615
Rp616
(dp617
g165
VExprR1 = roundValues(2**(Gene_R1 - Gene_I),5)
p618
sg166
g612
sg167
I01
sg168
I00
sg169
VroundValues(2**(Gene_R1 - Gene_I),5)
p619
sbsg170
g0
(g171
g172
(g173
g174
tp620
tp621
Rp622
sg178
VExprR1
p623
sbag0
(g98
g2
Ntp624
Rp625
(dp626
g102
I00
sg103
g4
sg104
(lp627
F0.11663
aF0.02916
aF0.125
aF0.02538
aF0.07179
aF0.04737
aFnan
aFnan
aFnan
aFnan
aFnan
aFnan
aFnan
aFnan
aFnan
aFnan
aFnan
aFnan
aFnan
aFnan
aFnan
aFnan
aFnan
aFnan
aFnan
aFnan
aFnan
aFnan
aFnan
aFnan
aFnan
aFnan
aFnan
aFnan
aFnan
aFnan
aFnan
aFnan
aFnan
aFnan
aFnan
aFnan
aFnan
aFnan
aFnan
aFnan
aFnan
aFnan
aFnan
aFnan
aFnan
aFnan
aFnan
aFnan
asg160
g0
(g161
g2
Ntp628
Rp629
(dp630
g165
VExprR2 = roundValues(2**(Gene_R2 - Gene_I),5)
p631
sg166
g625
sg167
I01
sg168
I00
sg169
VroundValues(2**(Gene_R2 - Gene_I),5)
p632
sbsg170
g0
(g171
g172
(g173
g174
tp633
tp634
Rp635
sg178
VExprR2
p636
sbag0
(g98
g2
Ntp637
Rp638
(dp639
g102
I00
sg103
g4
sg104
(lp640
F0.069
aF0.015
aF0.069
aF0.021
aF0.027
aF0.027
aFnan
aFnan
aFnan
aFnan
aFnan
aFnan
aFnan
aFnan
aFnan
aFnan
aFnan
aFnan
aFnan
aFnan
aFnan
aFnan
aFnan
aFnan
aFnan
aFnan
aFnan
aFnan
aFnan
aFnan
aFnan
aFnan
aFnan
aFnan
aFnan
aFnan
aFnan
aFnan
aFnan
aFnan
aFnan
aFnan
aFnan
aFnan
aFnan
aFnan
aFnan
aFnan
aFnan
aFnan
aFnan
aFnan
aFnan
aFnan
asg160
g0
(g161
g2
Ntp641
Rp642
(dp643
g165
Vif run:\u000a  GeoMean = roundValues(np.sqrt(ExprR1*ExprR2), 3)\u000as.setColumnVisibility(['BioRuns', 'Gene_I', 'Gene_R1', 'Gene_R2', 'ExprR1', 'ExprR2', 'GeoMean'], is_visible=show_block2)
p644
sg166
g638
sg167
I00
sg168
I00
sg169
Vif run:\u000a  GeoMean = roundValues(np.sqrt(ExprR1*ExprR2), 3)\u000as.setColumnVisibility(['BioRuns', 'Gene_I', 'Gene_R1', 'Gene_R2', 'ExprR1', 'ExprR2', 'GeoMean'], is_visible=show_block2)
p645
sbsg170
g0
(g171
g172
(g173
g174
tp646
tp647
Rp648
sg178
VGeoMean
p649
sbasg178
VSingleGene
p650
sS'_columns'
p651
(lp652
g0
(g98
g2
Ntp653
Rp654
(dp655
g102
I01
sg103
g4
sg104
(lp656
S'1'
p657
aS'2'
p658
aS'3'
p659
aS'4'
p660
aS'5'
p661
aS'6'
p662
aS'7'
p663
aS'8'
p664
aS'9'
p665
aS'10'
p666
aS'11'
p667
aS'12'
p668
aS'13'
p669
aS'14'
p670
aS'15'
p671
aS'16'
p672
aS'17'
p673
aS'18'
p674
aS'19'
p675
aS'20'
p676
aS'21'
p677
aS'22'
p678
aS'23'
p679
aS'24'
p680
aS'25'
p681
aS'26'
p682
aS'27'
p683
aS'28'
p684
aS'29'
p685
aS'30'
p686
aS'31'
p687
aS'32'
p688
aS'33'
p689
aS'34'
p690
aS'35'
p691
aS'36'
p692
aS'37'
p693
aS'38'
p694
aS'39'
p695
aS'40'
p696
aS'41'
p697
aS'42'
p698
aS'43'
p699
aS'44'
p700
aS'45'
p701
aS'46'
p702
aS'47'
p703
aS'48'
p704
aS'49'
p705
aS'50'
p706
aS'51'
p707
aS'52'
p708
aS'53'
p709
aS'54'
p710
asg160
g0
(g161
g2
Ntp711
Rp712
(dp713
g165
Nsg166
g654
sg167
I00
sg168
I00
sg169
Nsbsg170
g0
(g171
g172
(g173
g174
tp714
tp715
Rp716
sg178
S'row'
p717
sbag0
(g98
g2
Ntp718
Rp719
(dp720
g102
I00
sg103
g4
sg104
(lp721
Vgene
p722
aVrun
p723
aVshow_raw
p724
aVshow_block1
p725
aVshow_block2
p726
aVshow_block3
p727
aVmax_std
p728
aVmin_eff
p729
aVnan
p730
aVnan
p731
aVnan
p732
aVnan
p733
aVnan
p734
aVnan
p735
aVnan
p736
aVnan
p737
aVnan
p738
aVnan
p739
aVnan
p740
aVnan
p741
aVnan
p742
aVnan
p743
aVnan
p744
aVnan
p745
aVnan
p746
aVnan
p747
aVnan
p748
aVnan
p749
aVnan
p750
aVnan
p751
aVnan
p752
aVnan
p753
aVnan
p754
aVnan
p755
aVnan
p756
aVnan
p757
aVnan
p758
aVnan
p759
aVnan
p760
aVnan
p761
aVnan
p762
aVnan
p763
aVnan
p764
aVnan
p765
aVnan
p766
aVnan
p767
aVnan
p768
aVnan
p769
aVnan
p770
aVnan
p771
aVnan
p772
aVnan
p773
aVnan
p774
aVnan
p775
asg160
g0
(g161
g2
Ntp776
Rp777
(dp778
g165
Nsg166
g719
sg167
I00
sg168
I00
sg169
Nsbsg170
g0
(g171
g172
(g173
g174
tp779
tp780
Rp781
sg178
VParmNames
p782
sbag0
(g98
g2
Ntp783
Rp784
(dp785
g102
I00
sg103
g4
sg104
(lp786
VGene1
p787
aVTrue
p788
aVFalse
p789
aVFalse
p790
aVFalse
p791
aVTrue
p792
aV0.5
p793
aV0.7
p794
aV
p795
ag795
aVnan
p796
aVnan
p797
aVnan
p798
aVnan
p799
aVnan
p800
aVnan
p801
aVnan
p802
aVnan
p803
aVnan
p804
aVnan
p805
aVnan
p806
aVnan
p807
aVnan
p808
aVnan
p809
aVnan
p810
aVnan
p811
aVnan
p812
aVnan
p813
aVnan
p814
aVnan
p815
aVnan
p816
aVnan
p817
aVnan
p818
aVnan
p819
aVnan
p820
aVnan
p821
aVnan
p822
aVnan
p823
aVnan
p824
aVnan
p825
aVnan
p826
aVnan
p827
aVnan
p828
aVnan
p829
aVnan
p830
aVnan
p831
aVnan
p832
aVnan
p833
aVnan
p834
aVnan
p835
aVnan
p836
aVnan
p837
aVnan
p838
aVnan
p839
asg160
g0
(g161
g2
Ntp840
Rp841
(dp842
g165
Vxlsx_path = '/mnt/hgfs/josephhellerstein/home/Technical/SciSheets/CaseStudies/Kristen/workbooks/data.xlsx'\u000as.setColumnVisibility()\u000agene = ParmValues[0]\u000arun = ParmValues[1] == 'True'\u000ashow_raw = ParmValues[2] == 'True'\u000ashow_block1 = ParmValues[3] == 'True'\u000ashow_block2 = ParmValues[4] == 'True'\u000ashow_block3 = ParmValues[5] == 'True'\u000amax_std  = float(ParmValues[6])\u000amin_eff = float(ParmValues[7])\u000aworksheet = gene + "-I"\u000aif False:\u000a  Groups = []\u000a  GroupedCt = []\u000a  GroupedEff = []\u000a  MeanCt = []\u000a  Imp = []\u000a  s.deleteColumn('Ct')\u000a  s.deleteColumn('RunType')\u000a  s.deleteColumn('BRpl')\u000a  s.deleteColumn('TRpl')\u000a  s.deleteColumn('Treatment')\u000a  s.deleteColumn('SmplName')\u000a  s.deleteColumn('Eff')\u000aif run:\u000a  importExcelToTable(s, xlsx_path, worksheet=worksheet)\u000as.setColumnVisibility(['SmplName'], False)\u000as.setColumnVisibility(['BRpl', 'Ct', 'Eff', 'RunType', 'TRpl', 'Treatment'], is_visible=show_raw)
p843
sg166
g784
sg167
I00
sg168
I00
sg169
Vxlsx_path = '/mnt/hgfs/josephhellerstein/home/Technical/SciSheets/CaseStudies/Kristen/workbooks/data.xlsx'\u000as.setColumnVisibility()\u000agene = ParmValues[0]\u000arun = ParmValues[1] == 'True'\u000ashow_raw = ParmValues[2] == 'True'\u000ashow_block1 = ParmValues[3] == 'True'\u000ashow_block2 = ParmValues[4] == 'True'\u000ashow_block3 = ParmValues[5] == 'True'\u000amax_std  = float(ParmValues[6])\u000amin_eff = float(ParmValues[7])\u000aworksheet = gene + "-I"\u000aif False:\u000a  Groups = []\u000a  GroupedCt = []\u000a  GroupedEff = []\u000a  MeanCt = []\u000a  Imp = []\u000a  s.deleteColumn('Ct')\u000a  s.deleteColumn('RunType')\u000a  s.deleteColumn('BRpl')\u000a  s.deleteColumn('TRpl')\u000a  s.deleteColumn('Treatment')\u000a  s.deleteColumn('SmplName')\u000a  s.deleteColumn('Eff')\u000aif run:\u000a  importExcelToTable(s, xlsx_path, worksheet=worksheet)\u000as.setColumnVisibility(['SmplName'], False)\u000as.setColumnVisibility(['BRpl', 'Ct', 'Eff', 'RunType', 'TRpl', 'Treatment'], is_visible=show_raw)
p844
sbsg170
g0
(g171
g172
(g173
g174
tp845
tp846
Rp847
sg178
VParmValues
p848
sbag269
ag417
ag446
ag475
ag506
ag519
ag530
ag585
ag596
ag604
ag612
ag625
ag638
ag0
(g98
g2
Ntp849
Rp850
(dp851
g102
I00
sg103
g4
sg104
(lp852
F0.0
aF1.0
aF2.0
aF3.0
aFnan
aFnan
aFnan
aFnan
aFnan
aFnan
aFnan
aFnan
aFnan
aFnan
aFnan
aFnan
aFnan
aFnan
aFnan
aFnan
aFnan
aFnan
aFnan
aFnan
aFnan
aFnan
aFnan
aFnan
aFnan
aFnan
aFnan
aFnan
aFnan
aFnan
aFnan
aFnan
aFnan
aFnan
aFnan
aFnan
aFnan
aFnan
aFnan
aFnan
aFnan
aFnan
aFnan
aFnan
aFnan
aFnan
aFnan
aFnan
aFnan
aFnan
asg160
g0
(g161
g2
Ntp853
Rp854
(dp855
g165
Vif run:\u000a  cat_vals = [br[0] for br in pruneNulls(BioRuns)]\u000a  clean_geo = [x for x in GeoMean if x is not None]\u000a  GeoGroups, groupedGeoMeans = groupBy(cat_vals, clean_geo)\u000a  GroupedGeoMeans = roundValues(groupedGeoMeans, 3)
p856
sg166
g850
sg167
I00
sg168
I00
sg169
Vif run:\u000a  cat_vals = [br[0] for br in pruneNulls(BioRuns)]\u000a  clean_geo = [x for x in GeoMean if x is not None]\u000a  GeoGroups, groupedGeoMeans = groupBy(cat_vals, clean_geo)\u000a  GroupedGeoMeans = roundValues(groupedGeoMeans, 3)
p857
sbsg170
g0
(g171
g172
(g173
g174
tp858
tp859
Rp860
sg178
VGeoGroups
p861
sbag0
(g98
g2
Ntp862
Rp863
(dp864
g102
I00
sg103
g4
sg104
(lp865
cnumpy.core.multiarray
_reconstruct
p866
(g173
(I0
tp867
S'b'
p868
tp869
Rp870
(I1
(I1
tp871
g273
(S'f8'
p872
I0
I1
tp873
Rp874
(I3
S'<'
p875
NNNI-1
I-1
I0
tp876
bI00
S'D\x8bl\xe7\xfb\xa9\xb1?'
p877
tp878
bag866
(g173
(I0
tp879
g868
tp880
Rp881
(I1
(I3
tp882
g874
I00
S'\xb8\x1e\x85\xebQ\xb8\x8e?D\x8bl\xe7\xfb\xa9\xb1?\x1b/\xdd$\x06\x81\x95?'
p883
tp884
bag866
(g173
(I0
tp885
g868
tp886
Rp887
(I1
(I1
tp888
g874
I00
S'\xd9\xce\xf7S\xe3\xa5\x9b?'
p889
tp890
bag866
(g173
(I0
tp891
g868
tp892
Rp893
(I1
(I1
tp894
g874
I00
S'\xd9\xce\xf7S\xe3\xa5\x9b?'
p895
tp896
baNaNaNaNaNaNaNaNaNaNaNaNaNaNaNaNaNaNaNaNaNaNaNaNaNaNaNaNaNaNaNaNaNaNaNaNaNaNaNaNaNaNaNaNaNaNaNaNaNaNasg160
g0
(g161
g2
Ntp897
Rp898
(dp899
g165
Nsg166
g863
sg167
I00
sg168
I00
sg169
Nsbsg170
g0
(g171
g172
(g173
g174
tp900
tp901
Rp902
sg178
VGroupedGeoMeans
p903
sbag0
(g98
g2
Ntp904
Rp905
(dp906
g102
I00
sg103
g4
sg104
(lp907
g866
(g173
(I0
tp908
g868
tp909
Rp910
(I1
(I1
tp911
g874
I00
S'\x00\x00\x00\x00\x00\x00\xf0?'
p912
tp913
bag866
(g173
(I0
tp914
g868
tp915
Rp916
(I1
(I3
tp917
g874
I00
S'-\xb2\x9d\xef\xa7\xc6\xcb?\x00\x00\x00\x00\x00\x00\xf0?\xdb\xf9~j\xbct\xd3?'
p918
tp919
bag866
(g173
(I0
tp920
g868
tp921
Rp922
(I1
(I1
tp923
g874
I00
S'\xa0\x1a/\xdd$\x06\xd9?'
p924
tp925
bag866
(g173
(I0
tp926
g868
tp927
Rp928
(I1
(I1
tp929
g874
I00
S'\xa0\x1a/\xdd$\x06\xd9?'
p930
tp931
baNaNaNaNaNaNaNaNaNaNaNaNaNaNaNaNaNaNaNaNaNaNaNaNaNaNaNaNaNaNaNaNaNaNaNaNaNaNaNaNaNaNaNaNaNaNaNaNaNaNasg160
g0
(g161
g2
Ntp932
Rp933
(dp934
g165
Vif run:\u000a  ref = np.mean(GroupedGeoMeans[0])\u000a  NrmlGeoGroupedMeans = [ [x/ref for x in g] for g in GroupedGeoMeans if g is not None]  \u000a  NrmlGeoGroupedMeans = roundValues(NrmlGeoGroupedMeans, 3)
p935
sg166
g905
sg167
I00
sg168
I00
sg169
Vif run:\u000a  ref = np.mean(GroupedGeoMeans[0])\u000a  NrmlGeoGroupedMeans = [ [x/ref for x in g] for g in GroupedGeoMeans if g is not None]  \u000a  NrmlGeoGroupedMeans = roundValues(NrmlGeoGroupedMeans, 3)
p936
sbsg170
g0
(g171
g172
(g173
g174
tp937
tp938
Rp939
sg178
VNrmlGeoGroupedMeans
p940
sbag0
(g98
g2
Ntp941
Rp942
(dp943
g102
I00
sg103
g4
sg104
(lp944
F1.0
aF0.507
aF0.391
aF0.391
aFnan
aFnan
aFnan
aFnan
aFnan
aFnan
aFnan
aFnan
aFnan
aFnan
aFnan
aFnan
aFnan
aFnan
aFnan
aFnan
aFnan
aFnan
aFnan
aFnan
aFnan
aFnan
aFnan
aFnan
aFnan
aFnan
aFnan
aFnan
aFnan
aFnan
aFnan
aFnan
aFnan
aFnan
aFnan
aFnan
aFnan
aFnan
aFnan
aFnan
aFnan
aFnan
aFnan
aFnan
aFnan
aFnan
aFnan
aFnan
aFnan
aFnan
asg160
g0
(g161
g2
Ntp945
Rp946
(dp947
g165
Vif run:\u000a  MeanNrmlGeoGroups = [round(np.mean(g), 3) for g in NrmlGeoGroupedMeans]
p948
sg166
g942
sg167
I00
sg168
I00
sg169
Vif run:\u000a  MeanNrmlGeoGroups = [round(np.mean(g), 3) for g in NrmlGeoGroupedMeans]
p949
sbsg170
g0
(g171
g172
(g173
g174
tp950
tp951
Rp952
sg178
VMeanNrmlGeoGroups
p953
sbag0
(g98
g2
Ntp954
Rp955
(dp956
g102
I00
sg103
g4
sg104
(lp957
Fnan
aF0.429
aFnan
aFnan
aFnan
aFnan
aFnan
aFnan
aFnan
aFnan
aFnan
aFnan
aFnan
aFnan
aFnan
aFnan
aFnan
aFnan
aFnan
aFnan
aFnan
aFnan
aFnan
aFnan
aFnan
aFnan
aFnan
aFnan
aFnan
aFnan
aFnan
aFnan
aFnan
aFnan
aFnan
aFnan
aFnan
aFnan
aFnan
aFnan
aFnan
aFnan
aFnan
aFnan
aFnan
aFnan
aFnan
aFnan
aFnan
aFnan
aFnan
aFnan
aFnan
aFnan
asg160
g0
(g161
g2
Ntp958
Rp959
(dp960
g165
Vif run:\u000a  StdNrmlGeoGroups = [round(np.std(g, ddof=1), 3) for g in NrmlGeoGroupedMeans]\u000as.setColumnVisibility(['GeoGroups', 'GroupedGeoMeans', 'NrmlGeoGroupedMeans', 'MeanNrmlGeoGroups', 'StdNrmlGeoGroups'], is_visible=show_block3)\u000a#s.setColumnVisibility()
p961
sg166
g955
sg167
I00
sg168
I00
sg169
Vif run:\u000a  StdNrmlGeoGroups = [round(np.std(g, ddof=1), 3) for g in NrmlGeoGroupedMeans]\u000as.setColumnVisibility(['GeoGroups', 'GroupedGeoMeans', 'NrmlGeoGroupedMeans', 'MeanNrmlGeoGroups', 'StdNrmlGeoGroups'], is_visible=show_block3)\u000a#s.setColumnVisibility()
p962
sbsg170
g0
(g171
g172
(g173
g174
tp963
tp964
Rp965
sg178
VStdNrmlGeoGroups
p966
sbag181
ag189
ag197
ag205
ag100
ag250
ag261
asg91
V/home/ubuntu/SciSheets/mysite/user/guest/tables/kristen_single_gene.pcl
p967
sb.