ccopy_reg
_reconstructor
p0
(cscisheets.ui.dt_table
DTTable
p1
c__builtin__
object
p2
Ntp3
Rp4
(dp5
S'_versioned_file'
p6
g0
(cmysite.helpers.versioned_file
VersionedFile
p7
g2
Ntp8
Rp9
(dp10
S'_redo_stack'
p11
g0
(cmysite.helpers.file_stack
FileStack
p12
g2
Ntp13
Rp14
(dp15
S'_dirpath'
p16
S'/home/ubuntu/SciSheets/mysite/user/guest/tables/backup'
p17
sS'_max_depth'
p18
I5
sS'_filename_pfx'
p19
Vkristen_single_gene.r
p20
sbsS'_max_versions'
p21
I5
sS'_undo_stack'
p22
g0
(g12
g2
Ntp23
Rp24
(dp25
g16
g17
sg18
I5
sg19
Vkristen_single_gene.u
p26
sbsS'_checkpoint_history'
p27
(lp28
VCell/Update
p29
aVCell/Update
p30
asS'_filepath'
p31
V/home/ubuntu/SciSheets/mysite/user/guest/tables/kristen_single_gene.pcl
p32
sS'_backup_dir'
p33
g17
sbsS'_hidden_columns'
p34
(lp35
sS'_columns'
p36
(lp37
g0
(cscisheets.core.column
Column
p38
g2
Ntp39
Rp40
(dp41
S'_asis'
p42
I01
sS'_owning_table'
p43
g4
sS'_cells'
p44
(lp45
S'1'
p46
aS'2'
p47
aS'3'
p48
aS'4'
p49
aS'5'
p50
aS'6'
p51
aS'7'
p52
aS'8'
p53
aS'9'
p54
aS'10'
p55
aS'11'
p56
aS'12'
p57
aS'13'
p58
aS'14'
p59
aS'15'
p60
aS'16'
p61
aS'17'
p62
aS'18'
p63
aS'19'
p64
aS'20'
p65
aS'21'
p66
aS'22'
p67
aS'23'
p68
aS'24'
p69
aS'25'
p70
aS'26'
p71
aS'27'
p72
aS'28'
p73
aS'29'
p74
aS'30'
p75
aS'31'
p76
aS'32'
p77
aS'33'
p78
aS'34'
p79
aS'35'
p80
aS'36'
p81
aS'37'
p82
aS'38'
p83
aS'39'
p84
aS'40'
p85
aS'41'
p86
aS'42'
p87
aS'43'
p88
aS'44'
p89
aS'45'
p90
aS'46'
p91
aS'47'
p92
aS'48'
p93
aS'49'
p94
aS'50'
p95
aS'51'
p96
aS'52'
p97
aS'53'
p98
aS'54'
p99
asS'_formula_statement'
p100
g0
(cscisheets.core.column
FormulaStatement
p101
g2
Ntp102
Rp103
(dp104
S'_statement'
p105
NsS'_column'
p106
g40
sS'_isExpression'
p107
I00
sS'_isStatement'
p108
I00
sS'_formula'
p109
NsbsS'_data_class'
p110
g0
(cscisheets.core.helpers.api_util
DataClass
p111
c__builtin__
tuple
p112
(cnumpy
ndarray
p113
cscisheets.core.helpers.api_util
makeArray
p114
tp115
tp116
Rp117
sS'_name'
p118
S'row'
p119
sbag0
(g38
g2
Ntp120
Rp121
(dp122
g42
I00
sg43
g4
sg44
(lp123
Vgene
p124
aVrun
p125
aVshow_raw
p126
aVshow_block1
p127
aVshow_block2
p128
aVshow_block3
p129
aVmax_std
p130
aVmin_eff
p131
aVnan
p132
aVnan
p133
aVnan
p134
aVnan
p135
aVnan
p136
aVnan
p137
aVnan
p138
aVnan
p139
aVnan
p140
aVnan
p141
aVnan
p142
aVnan
p143
aVnan
p144
aVnan
p145
aVnan
p146
aVnan
p147
aVnan
p148
aVnan
p149
aVnan
p150
aVnan
p151
aVnan
p152
aVnan
p153
aVnan
p154
aVnan
p155
aVnan
p156
aVnan
p157
aVnan
p158
aVnan
p159
aVnan
p160
aVnan
p161
aVnan
p162
aVnan
p163
aVnan
p164
aVnan
p165
aVnan
p166
aVnan
p167
aVnan
p168
aVnan
p169
aVnan
p170
aVnan
p171
aVnan
p172
aVnan
p173
aVnan
p174
aVnan
p175
aVnan
p176
aVnan
p177
asg100
g0
(g101
g2
Ntp178
Rp179
(dp180
g105
Nsg106
g121
sg107
I00
sg108
I00
sg109
Nsbsg110
g0
(g111
g112
(g113
g114
tp181
tp182
Rp183
sg118
VParmNames
p184
sbag0
(g38
g2
Ntp185
Rp186
(dp187
g42
I00
sg43
g4
sg44
(lp188
VGene1
p189
aVTrue
p190
aVFalse
p191
aVFalse
p192
aVFalse
p193
aVTrue
p194
aV0.5
p195
aV0.7
p196
aV
p197
ag197
aVnan
p198
aVnan
p199
aVnan
p200
aVnan
p201
aVnan
p202
aVnan
p203
aVnan
p204
aVnan
p205
aVnan
p206
aVnan
p207
aVnan
p208
aVnan
p209
aVnan
p210
aVnan
p211
aVnan
p212
aVnan
p213
aVnan
p214
aVnan
p215
aVnan
p216
aVnan
p217
aVnan
p218
aVnan
p219
aVnan
p220
aVnan
p221
aVnan
p222
aVnan
p223
aVnan
p224
aVnan
p225
aVnan
p226
aVnan
p227
aVnan
p228
aVnan
p229
aVnan
p230
aVnan
p231
aVnan
p232
aVnan
p233
aVnan
p234
aVnan
p235
aVnan
p236
aVnan
p237
aVnan
p238
aVnan
p239
aVnan
p240
aVnan
p241
asg100
g0
(g101
g2
Ntp242
Rp243
(dp244
g105
Vxlsx_path = '/mnt/hgfs/josephhellerstein/home/Technical/SciSheets/CaseStudies/Kristen/workbooks/data.xlsx'\u000as.setColumnVisibility()\u000agene = ParmValues[0]\u000arun = ParmValues[1] == 'True'\u000ashow_raw = ParmValues[2] == 'True'\u000ashow_block1 = ParmValues[3] == 'True'\u000ashow_block2 = ParmValues[4] == 'True'\u000ashow_block3 = ParmValues[5] == 'True'\u000amax_std  = float(ParmValues[6])\u000amin_eff = float(ParmValues[7])\u000aworksheet = gene + "-I"\u000aif False:\u000a  Groups = []\u000a  GroupedCt = []\u000a  GroupedEff = []\u000a  MeanCt = []\u000a  Imp = []\u000a  s.deleteColumn('Ct')\u000a  s.deleteColumn('RunType')\u000a  s.deleteColumn('BRpl')\u000a  s.deleteColumn('TRpl')\u000a  s.deleteColumn('Treatment')\u000a  s.deleteColumn('SmplName')\u000a  s.deleteColumn('Eff')\u000aif run:\u000a  importExcelToTable(s, xlsx_path, worksheet=worksheet)\u000a  BRpl = s.getColumnValues('BRpl')\u000a  Ct = s.getColumnValues('Ct')\u000a  Eff = s.getColumnValues('Eff')\u000a  RunType = s.getColumnValues('RunType')\u000a  TRpl = s.getColumnValues('TRpl')\u000a  Treatment = s.getColumnValues('Treatment')\u000as.setColumnVisibility(['SmplName'], False)\u000as.setColumnVisibility(['BRpl', 'Ct', 'Eff', 'RunType', 'TRpl', 'Treatment'], is_visible=show_raw)
p245
sg106
g186
sg107
I00
sg108
I00
sg109
Vxlsx_path = '/mnt/hgfs/josephhellerstein/home/Technical/SciSheets/CaseStudies/Kristen/workbooks/data.xlsx'\u000as.setColumnVisibility()\u000agene = ParmValues[0]\u000arun = ParmValues[1] == 'True'\u000ashow_raw = ParmValues[2] == 'True'\u000ashow_block1 = ParmValues[3] == 'True'\u000ashow_block2 = ParmValues[4] == 'True'\u000ashow_block3 = ParmValues[5] == 'True'\u000amax_std  = float(ParmValues[6])\u000amin_eff = float(ParmValues[7])\u000aworksheet = gene + "-I"\u000aif False:\u000a  Groups = []\u000a  GroupedCt = []\u000a  GroupedEff = []\u000a  MeanCt = []\u000a  Imp = []\u000a  s.deleteColumn('Ct')\u000a  s.deleteColumn('RunType')\u000a  s.deleteColumn('BRpl')\u000a  s.deleteColumn('TRpl')\u000a  s.deleteColumn('Treatment')\u000a  s.deleteColumn('SmplName')\u000a  s.deleteColumn('Eff')\u000aif run:\u000a  importExcelToTable(s, xlsx_path, worksheet=worksheet)\u000a  BRpl = s.getColumnValues('BRpl')\u000a  Ct = s.getColumnValues('Ct')\u000a  Eff = s.getColumnValues('Eff')\u000a  RunType = s.getColumnValues('RunType')\u000a  TRpl = s.getColumnValues('TRpl')\u000a  Treatment = s.getColumnValues('Treatment')\u000as.setColumnVisibility(['SmplName'], False)\u000as.setColumnVisibility(['BRpl', 'Ct', 'Eff', 'RunType', 'TRpl', 'Treatment'], is_visible=show_raw)
p246
sbsg110
g0
(g111
g112
(g113
g114
tp247
tp248
Rp249
sg118
VParmValues
p250
sbag0
(g38
g2
Ntp251
Rp252
(dp253
g42
I00
sg43
g4
sg44
(lp254
(cnumpy.core.multiarray
scalar
p255
(cnumpy
dtype
p256
(S'i8'
p257
I0
I1
tp258
Rp259
(I3
S'<'
p260
NNNI-1
I-1
I0
tp261
bS'\x00\x00\x00\x00\x00\x00\x00\x00'
p262
tp263
Rp264
VI
p265
g255
(g259
S'\x01\x00\x00\x00\x00\x00\x00\x00'
p266
tp267
Rp268
tp269
a(g255
(g259
S'\x00\x00\x00\x00\x00\x00\x00\x00'
p270
tp271
Rp272
VR1
p273
g255
(g259
S'\x01\x00\x00\x00\x00\x00\x00\x00'
p274
tp275
Rp276
tp277
a(g255
(g259
S'\x00\x00\x00\x00\x00\x00\x00\x00'
p278
tp279
Rp280
VR2
p281
g255
(g259
S'\x01\x00\x00\x00\x00\x00\x00\x00'
p282
tp283
Rp284
tp285
a(g255
(g259
S'\x01\x00\x00\x00\x00\x00\x00\x00'
p286
tp287
Rp288
g265
g255
(g259
S'\x01\x00\x00\x00\x00\x00\x00\x00'
p289
tp290
Rp291
tp292
a(g255
(g259
S'\x01\x00\x00\x00\x00\x00\x00\x00'
p293
tp294
Rp295
g265
g255
(g259
S'\x02\x00\x00\x00\x00\x00\x00\x00'
p296
tp297
Rp298
tp299
a(g255
(g259
S'\x01\x00\x00\x00\x00\x00\x00\x00'
p300
tp301
Rp302
g265
g255
(g259
S'\x03\x00\x00\x00\x00\x00\x00\x00'
p303
tp304
Rp305
tp306
a(g255
(g259
S'\x01\x00\x00\x00\x00\x00\x00\x00'
p307
tp308
Rp309
g273
g255
(g259
S'\x01\x00\x00\x00\x00\x00\x00\x00'
p310
tp311
Rp312
tp313
a(g255
(g259
S'\x01\x00\x00\x00\x00\x00\x00\x00'
p314
tp315
Rp316
g273
g255
(g259
S'\x02\x00\x00\x00\x00\x00\x00\x00'
p317
tp318
Rp319
tp320
a(g255
(g259
S'\x01\x00\x00\x00\x00\x00\x00\x00'
p321
tp322
Rp323
g273
g255
(g259
S'\x03\x00\x00\x00\x00\x00\x00\x00'
p324
tp325
Rp326
tp327
a(g255
(g259
S'\x01\x00\x00\x00\x00\x00\x00\x00'
p328
tp329
Rp330
g281
g255
(g259
S'\x01\x00\x00\x00\x00\x00\x00\x00'
p331
tp332
Rp333
tp334
a(g255
(g259
S'\x01\x00\x00\x00\x00\x00\x00\x00'
p335
tp336
Rp337
g281
g255
(g259
S'\x02\x00\x00\x00\x00\x00\x00\x00'
p338
tp339
Rp340
tp341
a(g255
(g259
S'\x01\x00\x00\x00\x00\x00\x00\x00'
p342
tp343
Rp344
g281
g255
(g259
S'\x03\x00\x00\x00\x00\x00\x00\x00'
p345
tp346
Rp347
tp348
a(g255
(g259
S'\x02\x00\x00\x00\x00\x00\x00\x00'
p349
tp350
Rp351
g265
g255
(g259
S'\x01\x00\x00\x00\x00\x00\x00\x00'
p352
tp353
Rp354
tp355
a(g255
(g259
S'\x02\x00\x00\x00\x00\x00\x00\x00'
p356
tp357
Rp358
g273
g255
(g259
S'\x01\x00\x00\x00\x00\x00\x00\x00'
p359
tp360
Rp361
tp362
a(g255
(g259
S'\x02\x00\x00\x00\x00\x00\x00\x00'
p363
tp364
Rp365
g281
g255
(g259
S'\x01\x00\x00\x00\x00\x00\x00\x00'
p366
tp367
Rp368
tp369
a(g255
(g259
S'\x03\x00\x00\x00\x00\x00\x00\x00'
p370
tp371
Rp372
g265
g255
(g259
S'\x01\x00\x00\x00\x00\x00\x00\x00'
p373
tp374
Rp375
tp376
a(g255
(g259
S'\x03\x00\x00\x00\x00\x00\x00\x00'
p377
tp378
Rp379
g273
g255
(g259
S'\x01\x00\x00\x00\x00\x00\x00\x00'
p380
tp381
Rp382
tp383
a(g255
(g259
S'\x03\x00\x00\x00\x00\x00\x00\x00'
p384
tp385
Rp386
g281
g255
(g259
S'\x01\x00\x00\x00\x00\x00\x00\x00'
p387
tp388
Rp389
tp390
aNaNaNaNaNaNaNaNaNaNaNaNaNaNaNaNaNaNaNaNaNaNaNaNaNaNaNaNaNaNaNaNaNaNaNaNasg100
g0
(g101
g2
Ntp391
Rp392
(dp393
g105
Vif run:\u000a  sel = Eff > min_eff\u000a  grouping_columns =   [\u000a      Treatment[sel],\u000a       RunType[sel], \u000a      BRpl[sel],      \u000a    ]\u000a  if True:\u000a    Groups, groupedCt = groupBy(\u000a      grouping_columns, Ct[sel])\u000a    Groups, groupedEff = groupBy(\u000a      grouping_columns, Eff[sel])\u000a    GroupedCt = roundValues(groupedCt,2)\u000a    GroupedEff = roundValues(groupedEff,2)\u000a    s.setColumnValues('Groups', Groups)\u000a    s.setColumnValues('GroupedCt', GroupedCt)\u000a    s.setColumnValues('GroupedEff', GroupedEff)
p394
sg106
g252
sg107
I00
sg108
I00
sg109
Vif run:\u000a  sel = Eff > min_eff\u000a  grouping_columns =   [\u000a      Treatment[sel],\u000a       RunType[sel], \u000a      BRpl[sel],      \u000a    ]\u000a  if True:\u000a    Groups, groupedCt = groupBy(\u000a      grouping_columns, Ct[sel])\u000a    Groups, groupedEff = groupBy(\u000a      grouping_columns, Eff[sel])\u000a    GroupedCt = roundValues(groupedCt,2)\u000a    GroupedEff = roundValues(groupedEff,2)\u000a    s.setColumnValues('Groups', Groups)\u000a    s.setColumnValues('GroupedCt', GroupedCt)\u000a    s.setColumnValues('GroupedEff', GroupedEff)
p395
sbsg110
g0
(g111
g112
(g113
g114
tp396
tp397
Rp398
sg118
VGroups
p399
sbag0
(g38
g2
Ntp400
Rp401
(dp402
g42
I00
sg43
g4
sg44
(lp403
(lp404
F0.92
aF0.91
aF0.91
aa(lp405
F0.83
aF0.83
aF0.85
aa(lp406
F0.82
aF0.85
aF0.82
aa(lp407
F0.85
aF0.84
aF0.85
aa(lp408
F0.87
aF0.78
aF0.85
aa(lp409
F0.84
aF0.84
aF0.77
aa(lp410
F0.92
aF0.98
aF0.9
aa(lp411
F0.9
aF0.83
aF0.84
aa(lp412
F0.87
aF0.85
aF0.83
aa(lp413
F0.79
aF0.84
aF0.86
aa(lp414
F0.83
aF0.82
aF0.83
aa(lp415
F0.81
aF0.82
aF0.8
aa(lp416
F0.84
aF0.79
aF0.81
aa(lp417
F0.77
aF0.87
aF0.81
aa(lp418
F0.78
aF0.77
aF0.79
aa(lp419
F0.88
aF0.86
aF0.89
aa(lp420
F0.87
aF0.9
aF0.86
aa(lp421
F0.82
aF0.82
aF0.79
aaNaNaNaNaNaNaNaNaNaNaNaNaNaNaNaNaNaNaNaNaNaNaNaNaNaNaNaNaNaNaNaNaNaNaNaNasg100
g0
(g101
g2
Ntp422
Rp423
(dp424
g105
Nsg106
g401
sg107
I00
sg108
I00
sg109
Nsbsg110
g0
(g111
g112
(g113
g114
tp425
tp426
Rp427
sg118
VGroupedEff
p428
sbag0
(g38
g2
Ntp429
Rp430
(dp431
g42
I00
sg43
g4
sg44
(lp432
(lp433
F18.31
aF18.29
aF18.15
aa(lp434
F18.24
aF18.22
aF18.36
aa(lp435
F19.72
aF19.75
aF20.01
aa(lp436
F22.42
aF22.5
aF22.44
aa(lp437
F21.92
aF22.03
aF21.94
aa(lp438
F23.4
aF23.47
aF23.41
aa(lp439
F19.92
aF19.85
aF20.0
aa(lp440
F21.86
aF22.09
aF21.84
aa(lp441
F23.89
aF23.54
aF24.27
aa(lp442
F22.18
aF21.71
aF21.75
aa(lp443
F23.88
aF23.42
aF23.63
aa(lp444
F24.59
aF24.61
aF24.34
aa(lp445
F23.48
aF23.31
aF23.45
aa(lp446
F23.22
aF23.8
aF23.49
aa(lp447
F26.37
aF26.36
aF26.17
aa(lp448
F18.82
aF18.97
aF18.92
aa(lp449
F18.91
aF18.78
aF18.8
aa(lp450
F20.5
aF20.47
aF20.28
aaNaNaNaNaNaNaNaNaNaNaNaNaNaNaNaNaNaNaNaNaNaNaNaNaNaNaNaNaNaNaNaNaNaNaNaNasg100
g0
(g101
g2
Ntp451
Rp452
(dp453
g105
Nsg106
g430
sg107
I00
sg108
I00
sg109
Nsbsg110
g0
(g111
g112
(g113
g114
tp454
tp455
Rp456
sg118
VGroupedCt
p457
sbag0
(g38
g2
Ntp458
Rp459
(dp460
g42
I00
sg43
g4
sg44
(lp461
(lp462
F18.3
aF18.3
aF18.1
aa(lp463
F18.2
aF18.2
aF18.4
aa(lp464
F19.7
aF19.8
aF20.0
aa(lp465
F22.4
aF22.5
aF22.4
aa(lp466
F21.9
aF22.0
aF21.9
aa(lp467
F23.4
aF23.5
aF23.4
aa(lp468
F19.9
aF19.9
aF20.0
aa(lp469
F21.9
aF22.1
aF21.8
aa(lp470
F23.9
aF23.5
aF24.3
aa(lp471
F22.2
aF21.7
aF21.8
aa(lp472
F23.9
aF23.4
aF23.6
aa(lp473
F24.6
aF24.6
aF24.3
aa(lp474
F23.5
aF23.3
aF23.4
aa(lp475
F23.2
aF23.8
aF23.5
aa(lp476
F26.4
aF26.4
aF26.2
aa(lp477
F18.8
aF19.0
aF18.9
aa(lp478
F18.9
aF18.8
aF18.8
aa(lp479
F20.5
aF20.5
aF20.3
aaNaNaNaNaNaNaNaNaNaNaNaNaNaNaNaNaNaNaNaNaNaNaNaNaNaNaNaNaNaNaNaNaNaNaNaNasg100
g0
(g101
g2
Ntp480
Rp481
(dp482
g105
Vif run:\u000a  length = len(Groups)\u000a  StdFilteredGroupedCt = roundValues([filterExtremes(g, max_std, 2) for g in pruneNulls(GroupedCt, required_length=length)])\u000a  s.setColumnValues('StdFilteredGroupedCt', StdFilteredGroupedCt)
p483
sg106
g459
sg107
I00
sg108
I00
sg109
Vif run:\u000a  length = len(Groups)\u000a  StdFilteredGroupedCt = roundValues([filterExtremes(g, max_std, 2) for g in pruneNulls(GroupedCt, required_length=length)])\u000a  s.setColumnValues('StdFilteredGroupedCt', StdFilteredGroupedCt)
p484
sbsg110
g0
(g111
g112
(g113
g114
tp485
tp486
Rp487
sg118
VStdFilteredGroupedCt
p488
sbag0
(g38
g2
Ntp489
Rp490
(dp491
g42
I00
sg43
g4
sg44
(lp492
F18.2
aF18.3
aF19.8
aF22.4
aF21.9
aF23.4
aF19.9
aF21.9
aF23.9
aF21.9
aF23.6
aF24.5
aF23.4
aF23.5
aF26.3
aF18.9
aF18.8
aF20.4
aFnan
aFnan
aFnan
aFnan
aFnan
aFnan
aFnan
aFnan
aFnan
aFnan
aFnan
aFnan
aFnan
aFnan
aFnan
aFnan
aFnan
aFnan
aFnan
aFnan
aFnan
aFnan
aFnan
aFnan
aFnan
aFnan
aFnan
aFnan
aFnan
aFnan
aFnan
aFnan
aFnan
aFnan
aFnan
aFnan
asg100
g0
(g101
g2
Ntp493
Rp494
(dp495
g105
Vif run:\u000a  MeanCt = [np.mean(g) for g in StdFilteredGroupedCt]\u000a  MeanCt = roundValues(MeanCt,1)\u000a  s.setColumnValues('MeanCt', MeanCt)\u000a  StdCt = [np.std(g, ddof=1) for g in StdFilteredGroupedCt]\u000a  StdCt = roundValues(StdCt,3)\u000a  s.setColumnValues('StdCt', StdCt)\u000as.setColumnVisibility(['Groups', 'GroupedEff', 'GroupedCt', 'StdFilteredGroupedCt', 'MeanCt', 'StdCt'], is_visible=show_block1)
p496
sg106
g490
sg107
I00
sg108
I00
sg109
Vif run:\u000a  MeanCt = [np.mean(g) for g in StdFilteredGroupedCt]\u000a  MeanCt = roundValues(MeanCt,1)\u000a  s.setColumnValues('MeanCt', MeanCt)\u000a  StdCt = [np.std(g, ddof=1) for g in StdFilteredGroupedCt]\u000a  StdCt = roundValues(StdCt,3)\u000a  s.setColumnValues('StdCt', StdCt)\u000as.setColumnVisibility(['Groups', 'GroupedEff', 'GroupedCt', 'StdFilteredGroupedCt', 'MeanCt', 'StdCt'], is_visible=show_block1)
p497
sbsg110
g0
(g111
g112
(g113
g114
tp498
tp499
Rp500
sg118
VMeanCt
p501
sbag0
(g38
g2
Ntp502
Rp503
(dp504
g42
I00
sg43
g4
sg44
(lp505
F0.115
aF0.115
aF0.153
aF0.058
aF0.058
aF0.058
aF0.058
aF0.153
aF0.4
aF0.265
aF0.252
aF0.173
aF0.1
aF0.3
aF0.115
aF0.1
aF0.058
aF0.115
aFnan
aFnan
aFnan
aFnan
aFnan
aFnan
aFnan
aFnan
aFnan
aFnan
aFnan
aFnan
aFnan
aFnan
aFnan
aFnan
aFnan
aFnan
aFnan
aFnan
aFnan
aFnan
aFnan
aFnan
aFnan
aFnan
aFnan
aFnan
aFnan
aFnan
aFnan
aFnan
aFnan
aFnan
aFnan
aFnan
asg100
g0
(g101
g2
Ntp506
Rp507
(dp508
g105
Nsg106
g503
sg107
I00
sg108
I00
sg109
Nsbsg110
g0
(g111
g112
(g113
g114
tp509
tp510
Rp511
sg118
VStdCt
p512
sbag0
(g38
g2
Ntp513
Rp514
(dp515
g42
I00
sg43
g4
sg44
(lp516
(lp517
g264
ag268
aa(lp518
g288
ag291
aa(lp519
g295
ag298
aa(lp520
g302
ag305
aa(lp521
g351
ag354
aa(lp522
g372
ag375
aaNaNaNaNaNaNaNaNaNaNaNaNaNaNaNaNaNaNaNaNaNaNaNaNaNaNaNaNaNaNaNaNaNaNaNaNaNaNaNaNaNaNaNaNaNaNaNaNasg100
g0
(g101
g2
Ntp523
Rp524
(dp525
g105
Vif run:\u000a      tabularize(s, 'Groups', 1, 'MeanCt', \u000a          new_category_colnm='BioRuns',\u000a          values_colnm_prefix='Gene_')\u000a      BioRuns = s.getColumnValues('BioRuns')\u000a      Gene_I = s.getColumnValues('Gene_I')\u000a      Gene_R1 = s.getColumnValues('Gene_R1')\u000a      Gene_R2 = s.getColumnValues('Gene_R2')
p526
sg106
g514
sg107
I00
sg108
I00
sg109
Vif run:\u000a      tabularize(s, 'Groups', 1, 'MeanCt', \u000a          new_category_colnm='BioRuns',\u000a          values_colnm_prefix='Gene_')\u000a      BioRuns = s.getColumnValues('BioRuns')\u000a      Gene_I = s.getColumnValues('Gene_I')\u000a      Gene_R1 = s.getColumnValues('Gene_R1')\u000a      Gene_R2 = s.getColumnValues('Gene_R2')
p527
sbsg110
g0
(g111
g112
(g113
g114
tp528
tp529
Rp530
sg118
VBioRuns
p531
sbag0
(g38
g2
Ntp532
Rp533
(dp534
g42
I00
sg43
g4
sg44
(lp535
F18.2
aF22.4
aF21.9
aF23.4
aF23.4
aF18.9
aFnan
aFnan
aFnan
aFnan
aFnan
aFnan
aFnan
aFnan
aFnan
aFnan
aFnan
aFnan
aFnan
aFnan
aFnan
aFnan
aFnan
aFnan
aFnan
aFnan
aFnan
aFnan
aFnan
aFnan
aFnan
aFnan
aFnan
aFnan
aFnan
aFnan
aFnan
aFnan
aFnan
aFnan
aFnan
aFnan
aFnan
aFnan
aFnan
aFnan
aFnan
aFnan
aFnan
aFnan
aFnan
aFnan
aFnan
aFnan
asg100
g0
(g101
g2
Ntp536
Rp537
(dp538
g105
Nsg106
g533
sg107
I00
sg108
I00
sg109
Nsbsg110
g0
(g111
g112
(g113
g114
tp539
tp540
Rp541
sg118
S'Gene_I'
p542
sbag0
(g38
g2
Ntp543
Rp544
(dp545
g42
I00
sg43
g4
sg44
(lp546
F18.3
aF19.9
aF21.9
aF23.9
aF23.5
aF18.8
aFnan
aFnan
aFnan
aFnan
aFnan
aFnan
aFnan
aFnan
aFnan
aFnan
aFnan
aFnan
aFnan
aFnan
aFnan
aFnan
aFnan
aFnan
aFnan
aFnan
aFnan
aFnan
aFnan
aFnan
aFnan
aFnan
aFnan
aFnan
aFnan
aFnan
aFnan
aFnan
aFnan
aFnan
aFnan
aFnan
aFnan
aFnan
aFnan
aFnan
aFnan
aFnan
aFnan
aFnan
aFnan
aFnan
aFnan
aFnan
asg100
g0
(g101
g2
Ntp547
Rp548
(dp549
g105
Nsg106
g544
sg107
I00
sg108
I00
sg109
Nsbsg110
g541
sg118
S'Gene_R1'
p550
sbag0
(g38
g2
Ntp551
Rp552
(dp553
g42
I00
sg43
g4
sg44
(lp554
F19.8
aF21.9
aF23.6
aF24.5
aF26.3
aF20.4
aFnan
aFnan
aFnan
aFnan
aFnan
aFnan
aFnan
aFnan
aFnan
aFnan
aFnan
aFnan
aFnan
aFnan
aFnan
aFnan
aFnan
aFnan
aFnan
aFnan
aFnan
aFnan
aFnan
aFnan
aFnan
aFnan
aFnan
aFnan
aFnan
aFnan
aFnan
aFnan
aFnan
aFnan
aFnan
aFnan
aFnan
aFnan
aFnan
aFnan
aFnan
aFnan
aFnan
aFnan
aFnan
aFnan
aFnan
aFnan
asg100
g0
(g101
g2
Ntp555
Rp556
(dp557
g105
Nsg106
g552
sg107
I00
sg108
I00
sg109
Nsbsg110
g541
sg118
S'Gene_R2'
p558
sbag0
(g38
g2
Ntp559
Rp560
(dp561
g42
I00
sg43
g4
sg44
(lp562
F1.07177
aF0.17678
aF1.0
aF1.41421
aF1.07177
aF0.93303
aFnan
aFnan
aFnan
aFnan
aFnan
aFnan
aFnan
aFnan
aFnan
aFnan
aFnan
aFnan
aFnan
aFnan
aFnan
aFnan
aFnan
aFnan
aFnan
aFnan
aFnan
aFnan
aFnan
aFnan
aFnan
aFnan
aFnan
aFnan
aFnan
aFnan
aFnan
aFnan
aFnan
aFnan
aFnan
aFnan
aFnan
aFnan
aFnan
aFnan
aFnan
aFnan
aFnan
aFnan
aFnan
aFnan
aFnan
aFnan
asg100
g0
(g101
g2
Ntp563
Rp564
(dp565
g105
VExprR1 = roundValues(2**(Gene_R1 - Gene_I),5)
p566
sg106
g560
sg107
I01
sg108
I00
sg109
VroundValues(2**(Gene_R1 - Gene_I),5)
p567
sbsg110
g0
(g111
g112
(g113
g114
tp568
tp569
Rp570
sg118
VExprR1
p571
sbag0
(g38
g2
Ntp572
Rp573
(dp574
g42
I00
sg43
g4
sg44
(lp575
F3.03143
aF0.70711
aF3.24901
aF2.14355
aF7.46426
aF2.82843
aFnan
aFnan
aFnan
aFnan
aFnan
aFnan
aFnan
aFnan
aFnan
aFnan
aFnan
aFnan
aFnan
aFnan
aFnan
aFnan
aFnan
aFnan
aFnan
aFnan
aFnan
aFnan
aFnan
aFnan
aFnan
aFnan
aFnan
aFnan
aFnan
aFnan
aFnan
aFnan
aFnan
aFnan
aFnan
aFnan
aFnan
aFnan
aFnan
aFnan
aFnan
aFnan
aFnan
aFnan
aFnan
aFnan
aFnan
aFnan
asg100
g0
(g101
g2
Ntp576
Rp577
(dp578
g105
VExprR2 = roundValues(2**(Gene_R2 - Gene_I),5)
p579
sg106
g573
sg107
I01
sg108
I00
sg109
VroundValues(2**(Gene_R2 - Gene_I),5)
p580
sbsg110
g0
(g111
g112
(g113
g114
tp581
tp582
Rp583
sg118
VExprR2
p584
sbag0
(g38
g2
Ntp585
Rp586
(dp587
g42
I00
sg43
g4
sg44
(lp588
F1.802
aF0.354
aF1.803
aF1.741
aF2.828
aF1.625
aFnan
aFnan
aFnan
aFnan
aFnan
aFnan
aFnan
aFnan
aFnan
aFnan
aFnan
aFnan
aFnan
aFnan
aFnan
aFnan
aFnan
aFnan
aFnan
aFnan
aFnan
aFnan
aFnan
aFnan
aFnan
aFnan
aFnan
aFnan
aFnan
aFnan
aFnan
aFnan
aFnan
aFnan
aFnan
aFnan
aFnan
aFnan
aFnan
aFnan
aFnan
aFnan
aFnan
aFnan
aFnan
aFnan
aFnan
aFnan
asg100
g0
(g101
g2
Ntp589
Rp590
(dp591
g105
Vif run:\u000a  GeoMean = roundValues(np.sqrt(ExprR1*ExprR2), 3)\u000as.setColumnVisibility(['BioRuns', 'Gene_I', 'Gene_R1', 'Gene_R2', 'ExprR1', 'ExprR2', 'GeoMean'], is_visible=show_block2)
p592
sg106
g586
sg107
I00
sg108
I00
sg109
Vif run:\u000a  GeoMean = roundValues(np.sqrt(ExprR1*ExprR2), 3)\u000as.setColumnVisibility(['BioRuns', 'Gene_I', 'Gene_R1', 'Gene_R2', 'ExprR1', 'ExprR2', 'GeoMean'], is_visible=show_block2)
p593
sbsg110
g0
(g111
g112
(g113
g114
tp594
tp595
Rp596
sg118
VGeoMean
p597
sbag0
(g38
g2
Ntp598
Rp599
(dp600
g42
I00
sg43
g4
sg44
(lp601
F0.0
aF1.0
aF2.0
aF3.0
aFnan
aFnan
aFnan
aFnan
aFnan
aFnan
aFnan
aFnan
aFnan
aFnan
aFnan
aFnan
aFnan
aFnan
aFnan
aFnan
aFnan
aFnan
aFnan
aFnan
aFnan
aFnan
aFnan
aFnan
aFnan
aFnan
aFnan
aFnan
aFnan
aFnan
aFnan
aFnan
aFnan
aFnan
aFnan
aFnan
aFnan
aFnan
aFnan
aFnan
aFnan
aFnan
aFnan
aFnan
aFnan
aFnan
aFnan
aFnan
aFnan
aFnan
asg100
g0
(g101
g2
Ntp602
Rp603
(dp604
g105
Vif run:\u000a  cat_vals = [br[0] for br in pruneNulls(BioRuns)]\u000a  clean_geo = [x for x in GeoMean if x is not None]\u000a  GeoGroups, groupedGeoMeans = groupBy(cat_vals, clean_geo)\u000a  GroupedGeoMeans = roundValues(groupedGeoMeans, 3)
p605
sg106
g599
sg107
I00
sg108
I00
sg109
Vif run:\u000a  cat_vals = [br[0] for br in pruneNulls(BioRuns)]\u000a  clean_geo = [x for x in GeoMean if x is not None]\u000a  GeoGroups, groupedGeoMeans = groupBy(cat_vals, clean_geo)\u000a  GroupedGeoMeans = roundValues(groupedGeoMeans, 3)
p606
sbsg110
g0
(g111
g112
(g113
g114
tp607
tp608
Rp609
sg118
VGeoGroups
p610
sbag0
(g38
g2
Ntp611
Rp612
(dp613
g42
I00
sg43
g4
sg44
(lp614
cnumpy.core.multiarray
_reconstruct
p615
(g113
(I0
tp616
S'b'
p617
tp618
Rp619
(I1
(I1
tp620
g256
(S'f8'
p621
I0
I1
tp622
Rp623
(I3
S'<'
p624
NNNI-1
I-1
I0
tp625
bI00
S'\xa2E\xb6\xf3\xfd\xd4\xfc?'
p626
tp627
bag615
(g113
(I0
tp628
g617
tp629
Rp630
(I1
(I3
tp631
g623
I00
S'\x0e-\xb2\x9d\xef\xa7\xd6?\x0c\x02+\x87\x16\xd9\xfc?B`\xe5\xd0"\xdb\xfb?'
p632
tp633
bag615
(g113
(I0
tp634
g617
tp635
Rp636
(I1
(I1
tp637
g623
I00
S'9\xb4\xc8v\xbe\x9f\x06@'
p638
tp639
bag615
(g113
(I0
tp640
g617
tp641
Rp642
(I1
(I1
tp643
g623
I00
S'\x00\x00\x00\x00\x00\x00\xfa?'
p644
tp645
baNaNaNaNaNaNaNaNaNaNaNaNaNaNaNaNaNaNaNaNaNaNaNaNaNaNaNaNaNaNaNaNaNaNaNaNaNaNaNaNaNaNaNaNaNaNaNaNaNaNasg100
g0
(g101
g2
Ntp646
Rp647
(dp648
g105
Nsg106
g612
sg107
I00
sg108
I00
sg109
Nsbsg110
g0
(g111
g112
(g113
g114
tp649
tp650
Rp651
sg118
VGroupedGeoMeans
p652
sbag0
(g38
g2
Ntp653
Rp654
(dp655
g42
I00
sg43
g4
sg44
(lp656
g615
(g113
(I0
tp657
g617
tp658
Rp659
(I1
(I1
tp660
g623
I00
S'\x00\x00\x00\x00\x00\x00\xf0?'
p661
tp662
bag615
(g113
(I0
tp663
g617
tp664
Rp665
(I1
(I3
tp666
g623
I00
S'J\x0c\x02+\x87\x16\xc9?j\xbct\x93\x18\x04\xf0?\xb6\xf3\xfd\xd4x\xe9\xee?'
p667
tp668
bag615
(g113
(I0
tp669
g617
tp670
Rp671
(I1
(I1
tp672
g623
I00
S'\xb4\xc8v\xbe\x9f\x1a\xf9?'
p673
tp674
bag615
(g113
(I0
tp675
g617
tp676
Rp677
(I1
(I1
tp678
g623
I00
S'w\xbe\x9f\x1a/\xdd\xec?'
p679
tp680
baNaNaNaNaNaNaNaNaNaNaNaNaNaNaNaNaNaNaNaNaNaNaNaNaNaNaNaNaNaNaNaNaNaNaNaNaNaNaNaNaNaNaNaNaNaNaNaNaNaNasg100
g0
(g101
g2
Ntp681
Rp682
(dp683
g105
Vif run:\u000a  ref = np.mean(GroupedGeoMeans[0])\u000a  NrmlGeoGroupedMeans = [ [x/ref for x in g] for g in GroupedGeoMeans if g is not None]  \u000a  NrmlGeoGroupedMeans = roundValues(NrmlGeoGroupedMeans, 3)
p684
sg106
g654
sg107
I00
sg108
I00
sg109
Vif run:\u000a  ref = np.mean(GroupedGeoMeans[0])\u000a  NrmlGeoGroupedMeans = [ [x/ref for x in g] for g in GroupedGeoMeans if g is not None]  \u000a  NrmlGeoGroupedMeans = roundValues(NrmlGeoGroupedMeans, 3)
p685
sbsg110
g0
(g111
g112
(g113
g114
tp686
tp687
Rp688
sg118
VNrmlGeoGroupedMeans
p689
sbag0
(g38
g2
Ntp690
Rp691
(dp692
g42
I00
sg43
g4
sg44
(lp693
F1.0
aF0.721
aF1.569
aF0.902
aFnan
aFnan
aFnan
aFnan
aFnan
aFnan
aFnan
aFnan
aFnan
aFnan
aFnan
aFnan
aFnan
aFnan
aFnan
aFnan
aFnan
aFnan
aFnan
aFnan
aFnan
aFnan
aFnan
aFnan
aFnan
aFnan
aFnan
aFnan
aFnan
aFnan
aFnan
aFnan
aFnan
aFnan
aFnan
aFnan
aFnan
aFnan
aFnan
aFnan
aFnan
aFnan
aFnan
aFnan
aFnan
aFnan
aFnan
aFnan
aFnan
aFnan
asg100
g0
(g101
g2
Ntp694
Rp695
(dp696
g105
Vif run:\u000a  MeanNrmlGeoGroups = [round(np.mean(g), 3) for g in NrmlGeoGroupedMeans]
p697
sg106
g691
sg107
I00
sg108
I00
sg109
Vif run:\u000a  MeanNrmlGeoGroups = [round(np.mean(g), 3) for g in NrmlGeoGroupedMeans]
p698
sbsg110
g0
(g111
g112
(g113
g114
tp699
tp700
Rp701
sg118
VMeanNrmlGeoGroups
p702
sbag0
(g38
g2
Ntp703
Rp704
(dp705
g42
I00
sg43
g4
sg44
(lp706
Fnan
aF0.455
aFnan
aFnan
aFnan
aFnan
aFnan
aFnan
aFnan
aFnan
aFnan
aFnan
aFnan
aFnan
aFnan
aFnan
aFnan
aFnan
aFnan
aFnan
aFnan
aFnan
aFnan
aFnan
aFnan
aFnan
aFnan
aFnan
aFnan
aFnan
aFnan
aFnan
aFnan
aFnan
aFnan
aFnan
aFnan
aFnan
aFnan
aFnan
aFnan
aFnan
aFnan
aFnan
aFnan
aFnan
aFnan
aFnan
aFnan
aFnan
aFnan
aFnan
aFnan
aFnan
asg100
g0
(g101
g2
Ntp707
Rp708
(dp709
g105
Vif run:\u000a  StdNrmlGeoGroups = [round(np.std(g, ddof=1), 3) for g in NrmlGeoGroupedMeans]\u000as.setColumnVisibility(['GeoGroups', 'GroupedGeoMeans', 'NrmlGeoGroupedMeans', 'MeanNrmlGeoGroups', 'StdNrmlGeoGroups'], is_visible=show_block3)\u000a#s.setColumnVisibility()
p710
sg106
g704
sg107
I00
sg108
I00
sg109
Vif run:\u000a  StdNrmlGeoGroups = [round(np.std(g, ddof=1), 3) for g in NrmlGeoGroupedMeans]\u000as.setColumnVisibility(['GeoGroups', 'GroupedGeoMeans', 'NrmlGeoGroupedMeans', 'MeanNrmlGeoGroups', 'StdNrmlGeoGroups'], is_visible=show_block3)\u000a#s.setColumnVisibility()
p711
sbsg110
g0
(g111
g112
(g113
g114
tp712
tp713
Rp714
sg118
VStdNrmlGeoGroups
p715
sbag0
(g38
g2
Ntp716
Rp717
(dp718
g42
I00
sg43
g4
sg44
(lp719
I1
aI1
aI1
aI2
aI2
aI2
aI3
aI3
aI3
aI1
aI1
aI1
aI1
aI1
aI1
aI1
aI1
aI1
aI1
aI1
aI1
aI2
aI2
aI2
aI3
aI3
aI3
aI1
aI1
aI1
aI1
aI1
aI1
aI1
aI1
aI1
aI1
aI1
aI1
aI2
aI2
aI2
aI3
aI3
aI3
aI1
aI1
aI1
aI1
aI1
aI1
aI1
aI1
aI1
asg100
g0
(g101
g2
Ntp720
Rp721
(dp722
g105
Nsg106
g717
sg107
I00
sg108
I00
sg109
Nsbsg110
g0
(g111
g112
(g113
g114
tp723
tp724
Rp725
sg118
S'BRpl'
p726
sbag0
(g38
g2
Ntp727
Rp728
(dp729
g42
I00
sg43
g4
sg44
(lp730
F22.42
aF22.5
aF22.44
aF21.92
aF22.03
aF21.94
aF23.4
aF23.47
aF23.41
aF23.48
aF23.31
aF23.45
aF18.82
aF18.97
aF18.92
aF18.31
aF18.29
aF18.15
aF19.92
aF19.85
aF20.0
aF21.86
aF22.09
aF21.84
aF23.89
aF23.54
aF24.27
aF23.22
aF23.8
aF23.49
aF18.91
aF18.78
aF18.8
aF18.24
aF18.22
aF18.36
aF22.18
aF21.71
aF21.75
aF23.88
aF23.42
aF23.63
aF24.59
aF24.61
aF24.34
aF26.37
aF26.36
aF26.17
aF20.5
aF20.47
aF20.28
aF19.72
aF19.75
aF20.01
asg100
g0
(g101
g2
Ntp731
Rp732
(dp733
g105
Nsg106
g728
sg107
I00
sg108
I00
sg109
Nsbsg110
g725
sg118
S'Ct'
p734
sbag0
(g38
g2
Ntp735
Rp736
(dp737
g42
I00
sg43
g4
sg44
(lp738
F0.8453
aF0.8426
aF0.8524
aF0.8658
aF0.7809
aF0.8512
aF0.8442
aF0.8357
aF0.7658
aF0.8352
aF0.7886
aF0.8105
aF0.876
aF0.8597
aF0.8873
aF0.919
aF0.9106
aF0.9129
aF0.9179
aF0.9783
aF0.8971
aF0.8957
aF0.8287
aF0.8387
aF0.8746
aF0.8493
aF0.8349
aF0.7701
aF0.8746
aF0.8139
aF0.8715
aF0.8977
aF0.856
aF0.8266
aF0.8343
aF0.8496
aF0.7857
aF0.8427
aF0.8637
aF0.8281
aF0.8203
aF0.8288
aF0.8138
aF0.8242
aF0.804
aF0.7795
aF0.7676
aF0.7947
aF0.8179
aF0.8173
aF0.7894
aF0.8157
aF0.8543
aF0.8208
asg100
g0
(g101
g2
Ntp739
Rp740
(dp741
g105
Nsg106
g736
sg107
I00
sg108
I00
sg109
Nsbsg110
g725
sg118
S'Eff'
p742
sbag0
(g38
g2
Ntp743
Rp744
(dp745
g42
I00
sg43
g4
sg44
(lp746
g265
ag265
ag265
ag265
ag265
ag265
ag265
ag265
ag265
ag265
ag265
ag265
ag265
ag265
ag265
ag265
ag265
ag265
aVR1
p747
ag747
ag747
ag747
ag747
ag747
ag747
ag747
ag747
ag747
ag747
ag747
ag747
ag747
ag747
ag747
ag747
ag747
aVR2
p748
ag748
ag748
ag748
ag748
ag748
ag748
ag748
ag748
ag748
ag748
ag748
ag748
ag748
ag748
ag748
ag748
ag748
asg100
g0
(g101
g2
Ntp749
Rp750
(dp751
g105
Nsg106
g744
sg107
I00
sg108
I00
sg109
Nsbsg110
g725
sg118
S'RunType'
p752
sbag0
(g38
g2
Ntp753
Rp754
(dp755
g42
I00
sg43
g4
sg44
(lp756
VSEP1 2012 P17F4 3a
p757
aVSEP1 2012 P17F4 b
p758
aVSEP1 2012 P17F4 c
p759
aVSEP1 2012 P17F5 a
p760
aVSEP1 2012 P17F5 b
p761
aVSEP1 2012 P17F5 c
p762
aVSEP1 2012 P1F3 SEP1a
p763
aVSEP1 2012 P1F3 SEP1b
p764
aVSEP1 2012 P1F3 SEP1c
p765
aVSEP1-2 2012 P11aF2 a
p766
aVSEP1-2 2012 P11aF2 b
p767
aVSEP1-2 2012 P11aF2 c
p768
aVSEP1-3 2012 P15F2 a
p769
aVSEP1-3 2012 P15F2 b
p770
aVSEP1-3 2012 P15F2 c
p771
aVuntreated 2012 P12F1 SEP3-3 1:2a
p772
aVuntreated 2012 P12F1 SEP3-3 1:2b
p773
aVuntreated 2012 P12F1 SEP3-3 1:2c
p774
aVSEP1 2012 P17F4 ACTa
p775
aVSEP1 2012 P17F4 ACTb
p776
aVSEP1 2012 P17F4 ACTc
p777
aVSEP1 2012 P17F5 ACTa
p778
aVSEP1 2012 P17F5 ACTb
p779
aVSEP1 2012 P17F5 ACTc
p780
aVSEP1 2012 P1F3 ACTa
p781
aVSEP1 2012 P1F3 ACTb
p782
aVSEP1 2012 P1F3 ACTc
p783
aVSEP1-2 2012 P11aF2 ACTa
p784
aVSEP1-2 2012 P11aF2 ACTb
p785
aVSEP1-2 2012 P11aF2 ACTc
p786
aVSEP1-3 2012 P15F2 ACTa
p787
aVSEP1-3 2012 P15F2 ACTb
p788
aVSEP1-3 2012 P15F2 ACTc
p789
aVuntreated 2012 P12F1 ACTa
p790
aVuntreated 2012 P12F1 ACTb
p791
aVuntreated 2012 P12F1 ACTc
p792
aVSEP1 2012 P17F4 EEF1a
p793
aVSEP1 2012 P17F4 EEF1b
p794
aVSEP1 2012 P17F4 EEF1c
p795
aVSEP1 2012 P17F5 EEF1a
p796
aVSEP1 2012 P17F5 EEF1b
p797
aVSEP1 2012 P17F5 EEF1c
p798
aVSEP1 2012 P1F3 EEF1a
p799
aVSEP1 2012 P1F3 EEF1b
p800
aVSEP1 2012 P1F3 EEF1c
p801
aVSEP1-2 2012 P11aF2 EEF1a
p802
aVSEP1-2 2012 P11aF2 EEF1b
p803
aVSEP1-2 2012 P11aF2 EEF1c
p804
aVSEP1-3 2012 P15F2 EEF1a
p805
aVSEP1-3 2012 P15F2 EEF1b
p806
aVSEP1-3 2012 P15F2 EEF1c
p807
aVuntreated 2012 P12F1 EEF1a
p808
aVuntreated 2012 P12F1 EEF1b
p809
aVuntreated 2012 P12F1 EEF1c
p810
asg100
g0
(g101
g2
Ntp811
Rp812
(dp813
g105
Nsg106
g754
sg107
I00
sg108
I00
sg109
Nsbsg110
g725
sg118
S'SmplName'
p814
sbag0
(g38
g2
Ntp815
Rp816
(dp817
g42
I00
sg43
g4
sg44
(lp818
Va
p819
aVb
p820
aVc
p821
ag819
ag820
ag821
ag819
ag820
ag821
ag819
ag820
ag821
ag819
ag820
ag821
ag819
ag820
ag821
ag819
ag820
ag821
ag819
ag820
ag821
ag819
ag820
ag821
ag819
ag820
ag821
ag819
ag820
ag821
ag819
ag820
ag821
ag819
ag820
ag821
ag819
ag820
ag821
ag819
ag820
ag821
ag819
ag820
ag821
ag819
ag820
ag821
ag819
ag820
ag821
asg100
g0
(g101
g2
Ntp822
Rp823
(dp824
g105
Nsg106
g816
sg107
I00
sg108
I00
sg109
Nsbsg110
g725
sg118
S'TRpl'
p825
sbag0
(g38
g2
Ntp826
Rp827
(dp828
g42
I00
sg43
g4
sg44
(lp829
I1
aI1
aI1
aI1
aI1
aI1
aI1
aI1
aI1
aI2
aI2
aI2
aI3
aI3
aI3
aI0
aI0
aI0
aI1
aI1
aI1
aI1
aI1
aI1
aI1
aI1
aI1
aI2
aI2
aI2
aI3
aI3
aI3
aI0
aI0
aI0
aI1
aI1
aI1
aI1
aI1
aI1
aI1
aI1
aI1
aI2
aI2
aI2
aI3
aI3
aI3
aI0
aI0
aI0
asg100
g0
(g101
g2
Ntp830
Rp831
(dp832
g105
Nsg106
g827
sg107
I00
sg108
I00
sg109
Nsbsg110
g725
sg118
S'Treatment'
p833
sbasg31
V/home/ubuntu/SciSheets/mysite/user/guest/tables/kristen_single_gene.pcl
p834
sg118
VSingleGene
p835
sb.