ccopy_reg
_reconstructor
p0
(cscisheets.ui.dt_table
DTTable
p1
c__builtin__
object
p2
Ntp3
Rp4
(dp5
S'_hidden_columns'
p6
(lp7
g0
(cscisheets.core.column
Column
p8
g2
Ntp9
Rp10
(dp11
S'_asis'
p12
I00
sS'_owning_table'
p13
g4
sS'_cells'
p14
(lp15
VSEP1 2012 P17F4 a
p16
aVSEP1 2012 P17F4 b
p17
aVSEP1 2012 P17F4 c
p18
aVSEP1 2012 P17F5 a
p19
aVSEP1 2012 P17F5 b
p20
aVSEP1 2012 P17F5 c
p21
aVSEP1 2012 P1F3 SEP1a
p22
aVSEP1 2012 P1F3 SEP1b
p23
aVSEP1 2012 P1F3 SEP1c
p24
aVSEP1-2 2012 P11aF2 a
p25
aVSEP1-2 2012 P11aF2 b
p26
aVSEP1-2 2012 P11aF2 c
p27
aVSEP1-3 2012 P15F2 a
p28
aVSEP1-3 2012 P15F2 b
p29
aVSEP1-3 2012 P15F2 c
p30
aVuntreated 2012 P12F1 SEP1 1:2a
p31
aVuntreated 2012 P12F1 SEP1 1:2b
p32
aVuntreated 2012 P12F1 SEP1 1:2c
p33
aVSEP1 2012 P17F4 ACTa
p34
aVSEP1 2012 P17F4 ACTb
p35
aVSEP1 2012 P17F4 ACTc
p36
aVSEP1 2012 P17F5 ACTa
p37
aVSEP1 2012 P17F5 ACTb
p38
aVSEP1 2012 P17F5 ACTc
p39
aVSEP1 2012 P1F3 ACTa
p40
aVSEP1 2012 P1F3 ACTb
p41
aVSEP1 2012 P1F3 ACTc
p42
aVSEP1-2 2012 P11aF2 ACTa
p43
aVSEP1-2 2012 P11aF2 ACTb
p44
aVSEP1-2 2012 P11aF2 ACTc
p45
aVSEP1-3 2012 P15F2 ACTa
p46
aVSEP1-3 2012 P15F2 ACTb
p47
aVSEP1-3 2012 P15F2 ACTc
p48
aVuntreated 2012 P12F1 ACTa
p49
aVuntreated 2012 P12F1 ACTb
p50
aVuntreated 2012 P12F1 ACTc
p51
aVSEP1 2012 P17F4 EEF1a
p52
aVSEP1 2012 P17F4 EEF1b
p53
aVSEP1 2012 P17F4 EEF1c
p54
aVSEP1 2012 P17F5 EEF1a
p55
aVSEP1 2012 P17F5 EEF1b
p56
aVSEP1 2012 P17F5 EEF1c
p57
aVSEP1 2012 P1F3 EEF1a
p58
aVSEP1 2012 P1F3 EEF1b
p59
aVSEP1 2012 P1F3 EEF1c
p60
aVSEP1-2 2012 P11aF2 EEF1a
p61
aVSEP1-2 2012 P11aF2 EEF1b
p62
aVSEP1-2 2012 P11aF2 EEF1c
p63
aVSEP1-3 2012 P15F2 EEF1a
p64
aVSEP1-3 2012 P15F2 EEF1b
p65
aVSEP1-3 2012 P15F2 EEF1c
p66
aVuntreated 2012 P12F1 EEF1a
p67
aVuntreated 2012 P12F1 EEF1b
p68
aVuntreated 2012 P12F1 EEF1c
p69
asS'_formula_statement'
p70
g0
(cscisheets.core.column
FormulaStatement
p71
g2
Ntp72
Rp73
(dp74
S'_statement'
p75
NsS'_column'
p76
g10
sS'_isExpression'
p77
I00
sS'_isStatement'
p78
I00
sS'_formula'
p79
NsbsS'_data_class'
p80
g0
(cscisheets.core.helpers.api_util
DataClass
p81
c__builtin__
tuple
p82
(cnumpy
ndarray
p83
cscisheets.core.helpers.api_util
makeArray
p84
tp85
tp86
Rp87
sS'_name'
p88
S'SmplName'
p89
sbag0
(g8
g2
Ntp90
Rp91
(dp92
g12
I00
sg13
g4
sg14
(lp93
I1
aI1
aI1
aI2
aI2
aI2
aI3
aI3
aI3
aI1
aI1
aI1
aI1
aI1
aI1
aI1
aI1
aI1
aI1
aI1
aI1
aI2
aI2
aI2
aI3
aI3
aI3
aI1
aI1
aI1
aI1
aI1
aI1
aI1
aI1
aI1
aI1
aI1
aI1
aI2
aI2
aI2
aI3
aI3
aI3
aI1
aI1
aI1
aI1
aI1
aI1
aI1
aI1
aI1
asg70
g0
(g71
g2
Ntp94
Rp95
(dp96
g75
Nsg76
g91
sg77
I00
sg78
I00
sg79
Nsbsg80
g87
sg88
S'BRpl'
p97
sbag0
(g8
g2
Ntp98
Rp99
(dp100
g12
I00
sg13
g4
sg14
(lp101
F26.68
aF27.13
aF27.21
aF26.76
aF26.71
aF26.19
aF29.98
aF30.12
aF29.41
aF29.95
aF30.45
aF29.88
aF24.8
aF24.97
aF24.63
aF23.0
aF22.86
aF22.8
aF19.92
aF19.85
aF20.0
aF21.86
aF22.09
aF21.84
aF23.89
aF23.54
aF24.27
aF23.22
aF23.8
aF23.49
aF18.91
aF18.78
aF18.8
aF18.24
aF18.22
aF18.36
aF22.18
aF21.71
aF21.75
aF23.88
aF23.42
aF23.63
aF24.59
aF24.61
aF24.34
aF26.37
aF26.36
aF26.17
aF20.5
aF20.47
aF20.28
aF19.72
aF19.75
aF20.01
asg70
g0
(g71
g2
Ntp102
Rp103
(dp104
g75
Nsg76
g99
sg77
I00
sg78
I00
sg79
Nsbsg80
g87
sg88
S'Ct'
p105
sbag0
(g8
g2
Ntp106
Rp107
(dp108
g12
I00
sg13
g4
sg14
(lp109
F0.9399
aF0.8296
aF0.8361
aF0.8039
aF0.8399
aF0.7935
aF0.8264
aF0.7974
aF0.8252
aF0.8418
aF0.7959
aF0.8071
aF0.8513
aF0.8485
aF0.8401
aF0.8371
aF0.891
aF0.8956
aF0.9179
aF0.9783
aF0.8971
aF0.8957
aF0.8287
aF0.8387
aF0.8746
aF0.8493
aF0.8349
aF0.7701
aF0.8746
aF0.8139
aF0.8715
aF0.8977
aF0.856
aF0.8266
aF0.8343
aF0.8496
aF0.7857
aF0.8427
aF0.8637
aF0.8281
aF0.8203
aF0.8288
aF0.8138
aF0.8242
aF0.804
aF0.7795
aF0.7676
aF0.7947
aF0.8179
aF0.8173
aF0.7894
aF0.8157
aF0.8543
aF0.8208
asg70
g0
(g71
g2
Ntp110
Rp111
(dp112
g75
Nsg76
g107
sg77
I00
sg78
I00
sg79
Nsbsg80
g87
sg88
S'Eff'
p113
sbag0
(g8
g2
Ntp114
Rp115
(dp116
g12
I00
sg13
g4
sg14
(lp117
VI
p118
ag118
ag118
ag118
ag118
ag118
ag118
ag118
ag118
ag118
ag118
ag118
ag118
ag118
ag118
ag118
ag118
ag118
aVR1
p119
aVR1
p120
aVR1
p121
aVR1
p122
aVR1
p123
aVR1
p124
aVR1
p125
aVR1
p126
aVR1
p127
aVR1
p128
aVR1
p129
aVR1
p130
aVR1
p131
aVR1
p132
aVR1
p133
aVR1
p134
aVR1
p135
aVR1
p136
aVR2
p137
aVR2
p138
aVR2
p139
aVR2
p140
aVR2
p141
aVR2
p142
aVR2
p143
aVR2
p144
aVR2
p145
aVR2
p146
aVR2
p147
aVR2
p148
aVR2
p149
aVR2
p150
aVR2
p151
aVR2
p152
aVR2
p153
aVR2
p154
asg70
g0
(g71
g2
Ntp155
Rp156
(dp157
g75
Nsg76
g115
sg77
I00
sg78
I00
sg79
Nsbsg80
g87
sg88
S'RunType'
p158
sbag0
(g8
g2
Ntp159
Rp160
(dp161
g12
I00
sg13
g4
sg14
(lp162
Va
p163
aVb
p164
aVc
p165
ag163
ag164
ag165
ag163
ag164
ag165
ag163
ag164
ag165
ag163
ag164
ag165
ag163
ag164
ag165
ag163
ag164
ag165
ag163
ag164
ag165
ag163
ag164
ag165
ag163
ag164
ag165
ag163
ag164
ag165
ag163
ag164
ag165
ag163
ag164
ag165
ag163
ag164
ag165
ag163
ag164
ag165
ag163
ag164
ag165
ag163
ag164
ag165
ag163
ag164
ag165
asg70
g0
(g71
g2
Ntp166
Rp167
(dp168
g75
Nsg76
g160
sg77
I00
sg78
I00
sg79
Nsbsg80
g87
sg88
S'TRpl'
p169
sbag0
(g8
g2
Ntp170
Rp171
(dp172
g12
I00
sg13
g4
sg14
(lp173
I1
aI1
aI1
aI1
aI1
aI1
aI1
aI1
aI1
aI2
aI2
aI2
aI3
aI3
aI3
aI0
aI0
aI0
aI1
aI1
aI1
aI1
aI1
aI1
aI1
aI1
aI1
aI2
aI2
aI2
aI3
aI3
aI3
aI0
aI0
aI0
aI1
aI1
aI1
aI1
aI1
aI1
aI1
aI1
aI1
aI2
aI2
aI2
aI3
aI3
aI3
aI0
aI0
aI0
asg70
g0
(g71
g2
Ntp174
Rp175
(dp176
g75
Nsg76
g171
sg77
I00
sg78
I00
sg79
Nsbsg80
g87
sg88
S'Treatment'
p177
sbag0
(g8
g2
Ntp178
Rp179
(dp180
g12
I00
sg13
g4
sg14
(lp181
(cnumpy.core.multiarray
scalar
p182
(cnumpy
dtype
p183
(S'i8'
p184
I0
I1
tp185
Rp186
(I3
S'<'
p187
NNNI-1
I-1
I0
tp188
bS'\x00\x00\x00\x00\x00\x00\x00\x00'
p189
tp190
Rp191
g182
(g183
(S'U1'
p192
I0
I1
tp193
Rp194
(I3
S'<'
p195
NNNI4
I4
I8
tp196
bS'I\x00\x00\x00'
p197
tp198
Rp199
g182
(g186
S'\x01\x00\x00\x00\x00\x00\x00\x00'
p200
tp201
Rp202
tp203
a(g182
(g186
S'\x00\x00\x00\x00\x00\x00\x00\x00'
p204
tp205
Rp206
g182
(g183
(S'U2'
p207
I0
I1
tp208
Rp209
(I3
S'<'
p210
NNNI8
I4
I8
tp211
bS'R\x00\x00\x001\x00\x00\x00'
p212
tp213
Rp214
g182
(g186
S'\x01\x00\x00\x00\x00\x00\x00\x00'
p215
tp216
Rp217
tp218
a(g182
(g186
S'\x00\x00\x00\x00\x00\x00\x00\x00'
p219
tp220
Rp221
g182
(g183
(S'U2'
p222
I0
I1
tp223
Rp224
(I3
S'<'
p225
NNNI8
I4
I8
tp226
bS'R\x00\x00\x002\x00\x00\x00'
p227
tp228
Rp229
g182
(g186
S'\x01\x00\x00\x00\x00\x00\x00\x00'
p230
tp231
Rp232
tp233
a(g182
(g186
S'\x01\x00\x00\x00\x00\x00\x00\x00'
p234
tp235
Rp236
g199
g182
(g186
S'\x01\x00\x00\x00\x00\x00\x00\x00'
p237
tp238
Rp239
tp240
a(g182
(g186
S'\x01\x00\x00\x00\x00\x00\x00\x00'
p241
tp242
Rp243
g199
g182
(g186
S'\x02\x00\x00\x00\x00\x00\x00\x00'
p244
tp245
Rp246
tp247
a(g182
(g186
S'\x01\x00\x00\x00\x00\x00\x00\x00'
p248
tp249
Rp250
g199
g182
(g186
S'\x03\x00\x00\x00\x00\x00\x00\x00'
p251
tp252
Rp253
tp254
a(g182
(g186
S'\x01\x00\x00\x00\x00\x00\x00\x00'
p255
tp256
Rp257
g214
g182
(g186
S'\x01\x00\x00\x00\x00\x00\x00\x00'
p258
tp259
Rp260
tp261
a(g182
(g186
S'\x01\x00\x00\x00\x00\x00\x00\x00'
p262
tp263
Rp264
g214
g182
(g186
S'\x02\x00\x00\x00\x00\x00\x00\x00'
p265
tp266
Rp267
tp268
a(g182
(g186
S'\x01\x00\x00\x00\x00\x00\x00\x00'
p269
tp270
Rp271
g214
g182
(g186
S'\x03\x00\x00\x00\x00\x00\x00\x00'
p272
tp273
Rp274
tp275
a(g182
(g186
S'\x01\x00\x00\x00\x00\x00\x00\x00'
p276
tp277
Rp278
g229
g182
(g186
S'\x01\x00\x00\x00\x00\x00\x00\x00'
p279
tp280
Rp281
tp282
a(g182
(g186
S'\x01\x00\x00\x00\x00\x00\x00\x00'
p283
tp284
Rp285
g229
g182
(g186
S'\x02\x00\x00\x00\x00\x00\x00\x00'
p286
tp287
Rp288
tp289
a(g182
(g186
S'\x01\x00\x00\x00\x00\x00\x00\x00'
p290
tp291
Rp292
g229
g182
(g186
S'\x03\x00\x00\x00\x00\x00\x00\x00'
p293
tp294
Rp295
tp296
a(g182
(g186
S'\x02\x00\x00\x00\x00\x00\x00\x00'
p297
tp298
Rp299
g199
g182
(g186
S'\x01\x00\x00\x00\x00\x00\x00\x00'
p300
tp301
Rp302
tp303
a(g182
(g186
S'\x02\x00\x00\x00\x00\x00\x00\x00'
p304
tp305
Rp306
g214
g182
(g186
S'\x01\x00\x00\x00\x00\x00\x00\x00'
p307
tp308
Rp309
tp310
a(g182
(g186
S'\x02\x00\x00\x00\x00\x00\x00\x00'
p311
tp312
Rp313
g229
g182
(g186
S'\x01\x00\x00\x00\x00\x00\x00\x00'
p314
tp315
Rp316
tp317
a(g182
(g186
S'\x03\x00\x00\x00\x00\x00\x00\x00'
p318
tp319
Rp320
g199
g182
(g186
S'\x01\x00\x00\x00\x00\x00\x00\x00'
p321
tp322
Rp323
tp324
a(g182
(g186
S'\x03\x00\x00\x00\x00\x00\x00\x00'
p325
tp326
Rp327
g214
g182
(g186
S'\x01\x00\x00\x00\x00\x00\x00\x00'
p328
tp329
Rp330
tp331
a(g182
(g186
S'\x03\x00\x00\x00\x00\x00\x00\x00'
p332
tp333
Rp334
g229
g182
(g186
S'\x01\x00\x00\x00\x00\x00\x00\x00'
p335
tp336
Rp337
tp338
aNaNaNaNaNaNaNaNaNaNaNaNaNaNaNaNaNaNaNaNaNaNaNaNaNaNaNaNaNaNaNaNaNaNaNaNasg70
g0
(g71
g2
Ntp339
Rp340
(dp341
g75
Vif run:\u000a  sel = Eff > min_eff\u000a  unfiltrd_grouping_columns =   [\u000a      Treatment,\u000a       RunType, \u000a      BRpl,      \u000a    ]\u000a  grouping_columns =   [x[sel] for x in unfiltrd_grouping_columns]\u000a  Groups, UnfilteredEff = groupBy(\u000a    unfiltrd_grouping_columns, Eff)\u000a  UnfilteredEff = roundValues(UnfilteredEff, 2)\u000a  Groups, groupedCt = groupBy(\u000a    grouping_columns, Ct[sel])\u000a  Groups, groupedEff = groupBy(\u000a    grouping_columns, Eff[sel])\u000a  GroupedCt = roundValues(groupedCt,2)\u000a  GroupedEff = roundValues(groupedEff,2)
p342
sg76
g179
sg77
I00
sg78
I00
sg79
Vif run:\u000a  sel = Eff > min_eff\u000a  unfiltrd_grouping_columns =   [\u000a      Treatment,\u000a       RunType, \u000a      BRpl,      \u000a    ]\u000a  grouping_columns =   [x[sel] for x in unfiltrd_grouping_columns]\u000a  Groups, UnfilteredEff = groupBy(\u000a    unfiltrd_grouping_columns, Eff)\u000a  UnfilteredEff = roundValues(UnfilteredEff, 2)\u000a  Groups, groupedCt = groupBy(\u000a    grouping_columns, Ct[sel])\u000a  Groups, groupedEff = groupBy(\u000a    grouping_columns, Eff[sel])\u000a  GroupedCt = roundValues(groupedCt,2)\u000a  GroupedEff = roundValues(groupedEff,2)
p343
sbsg80
g0
(g81
g82
(g83
g84
tp344
tp345
Rp346
sg88
VGroups
p347
sbag0
(g8
g2
Ntp348
Rp349
(dp350
g12
I00
sg13
g4
sg14
(lp351
(lp352
F0.84
aF0.89
aF0.9
aa(lp353
F0.83
aF0.83
aF0.85
aa(lp354
F0.82
aF0.85
aF0.82
aa(lp355
F0.94
aF0.83
aF0.84
aa(lp356
F0.8
aF0.84
aF0.79
aa(lp357
F0.83
aF0.8
aF0.83
aa(lp358
F0.92
aF0.98
aF0.9
aa(lp359
F0.9
aF0.83
aF0.84
aa(lp360
F0.87
aF0.85
aF0.83
aa(lp361
F0.79
aF0.84
aF0.86
aa(lp362
F0.83
aF0.82
aF0.83
aa(lp363
F0.81
aF0.82
aF0.8
aa(lp364
F0.84
aF0.8
aF0.81
aa(lp365
F0.77
aF0.87
aF0.81
aa(lp366
F0.78
aF0.77
aF0.79
aa(lp367
F0.85
aF0.85
aF0.84
aa(lp368
F0.87
aF0.9
aF0.86
aa(lp369
F0.82
aF0.82
aF0.79
aaNaNaNaNaNaNaNaNaNaNaNaNaNaNaNaNaNaNaNaNaNaNaNaNaNaNaNaNaNaNaNaNaNaNaNaNasg70
g0
(g71
g2
Ntp370
Rp371
(dp372
g75
Nsg76
g349
sg77
I00
sg78
I00
sg79
Nsbsg80
g0
(g81
g82
(g83
g84
tp373
tp374
Rp375
sg88
VGroupedEff
p376
sbag0
(g8
g2
Ntp377
Rp378
(dp379
g12
I00
sg13
g4
sg14
(lp380
(lp381
F23.0
aF22.86
aF22.8
aa(lp382
F18.24
aF18.22
aF18.36
aa(lp383
F19.72
aF19.75
aF20.01
aa(lp384
F26.68
aF27.13
aF27.21
aa(lp385
F26.76
aF26.71
aF26.19
aa(lp386
F29.98
aF30.12
aF29.41
aa(lp387
F19.92
aF19.85
aF20.0
aa(lp388
F21.86
aF22.09
aF21.84
aa(lp389
F23.89
aF23.54
aF24.27
aa(lp390
F22.18
aF21.71
aF21.75
aa(lp391
F23.88
aF23.42
aF23.63
aa(lp392
F24.59
aF24.61
aF24.34
aa(lp393
F29.95
aF30.45
aF29.88
aa(lp394
F23.22
aF23.8
aF23.49
aa(lp395
F26.37
aF26.36
aF26.17
aa(lp396
F24.8
aF24.97
aF24.63
aa(lp397
F18.91
aF18.78
aF18.8
aa(lp398
F20.5
aF20.47
aF20.28
aaNaNaNaNaNaNaNaNaNaNaNaNaNaNaNaNaNaNaNaNaNaNaNaNaNaNaNaNaNaNaNaNaNaNaNaNasg70
g0
(g71
g2
Ntp399
Rp400
(dp401
g75
Nsg76
g378
sg77
I00
sg78
I00
sg79
Nsbsg80
g0
(g81
g82
(g83
g84
tp402
tp403
Rp404
sg88
VGroupedCt
p405
sbag0
(g8
g2
Ntp406
Rp407
(dp408
g12
I00
sg13
g4
sg14
(lp409
(lp410
F23.0
aF22.9
aF22.8
aa(lp411
F18.2
aF18.2
aF18.4
aa(lp412
F19.7
aF19.8
aF20.0
aa(lp413
F26.7
aF27.1
aF27.2
aa(lp414
F26.8
aF26.7
aF26.2
aa(lp415
F30.0
aF30.1
aF29.4
aa(lp416
F19.9
aF19.9
aF20.0
aa(lp417
F21.9
aF22.1
aF21.8
aa(lp418
F23.9
aF23.5
aF24.3
aa(lp419
F22.2
aF21.7
aF21.8
aa(lp420
F23.9
aF23.4
aF23.6
aa(lp421
F24.6
aF24.6
aF24.3
aa(lp422
F29.9
aF30.4
aF29.9
aa(lp423
F23.2
aF23.8
aF23.5
aa(lp424
F26.4
aF26.4
aF26.2
aa(lp425
F24.8
aF25.0
aF24.6
aa(lp426
F18.9
aF18.8
aF18.8
aa(lp427
F20.5
aF20.5
aF20.3
aaNaNaNaNaNaNaNaNaNaNaNaNaNaNaNaNaNaNaNaNaNaNaNaNaNaNaNaNaNaNaNaNaNaNaNaNasg70
g0
(g71
g2
Ntp428
Rp429
(dp430
g75
Vif run:\u000a  StdFilteredGroupedCt = roundValues([filterExtremes(g, max_std, 2) for g in pruneNulls(GroupedCt)])
p431
sg76
g407
sg77
I00
sg78
I00
sg79
Vif run:\u000a  StdFilteredGroupedCt = roundValues([filterExtremes(g, max_std, 2) for g in pruneNulls(GroupedCt)])
p432
sbsg80
g0
(g81
g82
(g83
g84
tp433
tp434
Rp435
sg88
VStdFilteredGroupedCt
p436
sbag0
(g8
g2
Ntp437
Rp438
(dp439
g12
I00
sg13
g4
sg14
(lp440
F22.9
aF18.3
aF19.8
aF27.0
aF26.6
aF29.8
aF19.9
aF21.9
aF23.9
aF21.9
aF23.6
aF24.5
aF30.1
aF23.5
aF26.3
aF24.8
aF18.8
aF20.4
aFnan
aFnan
aFnan
aFnan
aFnan
aFnan
aFnan
aFnan
aFnan
aFnan
aFnan
aFnan
aFnan
aFnan
aFnan
aFnan
aFnan
aFnan
aFnan
aFnan
aFnan
aFnan
aFnan
aFnan
aFnan
aFnan
aFnan
aFnan
aFnan
aFnan
aFnan
aFnan
aFnan
aFnan
aFnan
aFnan
asg70
g0
(g71
g2
Ntp441
Rp442
(dp443
g75
Vif run:\u000a  MeanCt = [np.mean(g) for g in StdFilteredGroupedCt]\u000a  MeanCt = roundValues(MeanCt,1)\u000a  StdCt = [np.std(g, ddof=1) for g in StdFilteredGroupedCt]\u000a  StdCt = roundValues(StdCt,3)\u000as.setColumnVisibility(['Groups', 'GroupedEff', 'GroupedCt', 'StdFilteredGroupedCt', 'MeanCt', 'StdCt', 'UnfilteredEff'], is_visible=show_block1)
p444
sg76
g438
sg77
I00
sg78
I00
sg79
Vif run:\u000a  MeanCt = [np.mean(g) for g in StdFilteredGroupedCt]\u000a  MeanCt = roundValues(MeanCt,1)\u000a  StdCt = [np.std(g, ddof=1) for g in StdFilteredGroupedCt]\u000a  StdCt = roundValues(StdCt,3)\u000as.setColumnVisibility(['Groups', 'GroupedEff', 'GroupedCt', 'StdFilteredGroupedCt', 'MeanCt', 'StdCt', 'UnfilteredEff'], is_visible=show_block1)
p445
sbsg80
g0
(g81
g82
(g83
g84
tp446
tp447
Rp448
sg88
VMeanCt
p449
sbag0
(g8
g2
Ntp450
Rp451
(dp452
g12
I00
sg13
g4
sg14
(lp453
F0.1
aF0.115
aF0.153
aF0.265
aF0.321
aF0.379
aF0.058
aF0.153
aF0.4
aF0.265
aF0.252
aF0.173
aF0.289
aF0.3
aF0.115
aF0.2
aF0.058
aF0.115
aFnan
aFnan
aFnan
aFnan
aFnan
aFnan
aFnan
aFnan
aFnan
aFnan
aFnan
aFnan
aFnan
aFnan
aFnan
aFnan
aFnan
aFnan
aFnan
aFnan
aFnan
aFnan
aFnan
aFnan
aFnan
aFnan
aFnan
aFnan
aFnan
aFnan
aFnan
aFnan
aFnan
aFnan
aFnan
aFnan
asg70
g0
(g71
g2
Ntp454
Rp455
(dp456
g75
Nsg76
g451
sg77
I00
sg78
I00
sg79
Nsbsg80
g0
(g81
g82
(g83
g84
tp457
tp458
Rp459
sg88
VStdCt
p460
sbag0
(g8
g2
Ntp461
Rp462
(dp463
g12
I00
sg13
g4
sg14
(lp464
(lp465
F0.84
aF0.89
aF0.9
aa(lp466
F0.83
aF0.83
aF0.85
aa(lp467
F0.82
aF0.85
aF0.82
aa(lp468
F0.94
aF0.83
aF0.84
aa(lp469
F0.8
aF0.84
aF0.79
aa(lp470
F0.83
aF0.8
aF0.83
aa(lp471
F0.92
aF0.98
aF0.9
aa(lp472
F0.9
aF0.83
aF0.84
aa(lp473
F0.87
aF0.85
aF0.83
aa(lp474
F0.79
aF0.84
aF0.86
aa(lp475
F0.83
aF0.82
aF0.83
aa(lp476
F0.81
aF0.82
aF0.8
aa(lp477
F0.84
aF0.8
aF0.81
aa(lp478
F0.77
aF0.87
aF0.81
aa(lp479
F0.78
aF0.77
aF0.79
aa(lp480
F0.85
aF0.85
aF0.84
aa(lp481
F0.87
aF0.9
aF0.86
aa(lp482
F0.82
aF0.82
aF0.79
aaNaNaNaNaNaNaNaNaNaNaNaNaNaNaNaNaNaNaNaNaNaNaNaNaNaNaNaNaNaNaNaNaNaNaNaNasg70
g0
(g71
g2
Ntp483
Rp484
(dp485
g75
Nsg76
g462
sg77
I00
sg78
I00
sg79
Nsbsg80
g0
(g81
g82
(g83
g84
tp486
tp487
Rp488
sg88
VUnfilteredEff
p489
sbag0
(g8
g2
Ntp490
Rp491
(dp492
g12
I00
sg13
g4
sg14
(lp493
F0.0
aF1.0
aF2.0
aF3.0
aFnan
aFnan
aFnan
aFnan
aFnan
aFnan
aFnan
aFnan
aFnan
aFnan
aFnan
aFnan
aFnan
aFnan
aFnan
aFnan
aFnan
aFnan
aFnan
aFnan
aFnan
aFnan
aFnan
aFnan
aFnan
aFnan
aFnan
aFnan
aFnan
aFnan
aFnan
aFnan
aFnan
aFnan
aFnan
aFnan
aFnan
aFnan
aFnan
aFnan
aFnan
aFnan
aFnan
aFnan
aFnan
aFnan
aFnan
aFnan
aFnan
aFnan
asg70
g0
(g71
g2
Ntp494
Rp495
(dp496
g75
Vif run:\u000a  cat_vals = [br[0] for br in pruneNulls(BioRuns)]\u000a  clean_geo = pruneNulls(GeoMean)\u000a  GeoGroups, groupedGeoMeans = groupBy(cat_vals, clean_geo)\u000a  GroupedGeoMeans = roundValues(groupedGeoMeans, 3)
p497
sg76
g491
sg77
I00
sg78
I00
sg79
Vif run:\u000a  cat_vals = [br[0] for br in pruneNulls(BioRuns)]\u000a  clean_geo = pruneNulls(GeoMean)\u000a  GeoGroups, groupedGeoMeans = groupBy(cat_vals, clean_geo)\u000a  GroupedGeoMeans = roundValues(groupedGeoMeans, 3)
p498
sbsg80
g0
(g81
g82
(g83
g84
tp499
tp500
Rp501
sg88
VGeoGroups
p502
sbag0
(g8
g2
Ntp503
Rp504
(dp505
g12
I00
sg13
g4
sg14
(lp506
cnumpy.core.multiarray
_reconstruct
p507
(g83
(I0
tp508
S'b'
p509
tp510
Rp511
(I1
(I1
tp512
g183
(S'f8'
p513
I0
I1
tp514
Rp515
(I3
S'<'
p516
NNNI-1
I-1
I0
tp517
bI00
S'D\x8bl\xe7\xfb\xa9\xb1?'
p518
tp519
bag507
(g83
(I0
tp520
g509
tp521
Rp522
(I1
(I3
tp523
g515
I00
S'\xb8\x1e\x85\xebQ\xb8\x8e?D\x8bl\xe7\xfb\xa9\xb1?\x1b/\xdd$\x06\x81\x95?'
p524
tp525
bag507
(g83
(I0
tp526
g509
tp527
Rp528
(I1
(I1
tp529
g515
I00
S'\xd9\xce\xf7S\xe3\xa5\x9b?'
p530
tp531
bag507
(g83
(I0
tp532
g509
tp533
Rp534
(I1
(I1
tp535
g515
I00
S'\xd9\xce\xf7S\xe3\xa5\x9b?'
p536
tp537
baNaNaNaNaNaNaNaNaNaNaNaNaNaNaNaNaNaNaNaNaNaNaNaNaNaNaNaNaNaNaNaNaNaNaNaNaNaNaNaNaNaNaNaNaNaNaNaNaNaNasg70
g0
(g71
g2
Ntp538
Rp539
(dp540
g75
Nsg76
g504
sg77
I00
sg78
I00
sg79
Nsbsg80
g0
(g81
g82
(g83
g84
tp541
tp542
Rp543
sg88
VGroupedGeoMeans
p544
sbag0
(g8
g2
Ntp545
Rp546
(dp547
g12
I00
sg13
g4
sg14
(lp548
g507
(g83
(I0
tp549
g509
tp550
Rp551
(I1
(I1
tp552
g515
I00
S'\x00\x00\x00\x00\x00\x00\xf0?'
p553
tp554
bag507
(g83
(I0
tp555
g509
tp556
Rp557
(I1
(I3
tp558
g515
I00
S'-\xb2\x9d\xef\xa7\xc6\xcb?\x00\x00\x00\x00\x00\x00\xf0?\xdb\xf9~j\xbct\xd3?'
p559
tp560
bag507
(g83
(I0
tp561
g509
tp562
Rp563
(I1
(I1
tp564
g515
I00
S'\xa0\x1a/\xdd$\x06\xd9?'
p565
tp566
bag507
(g83
(I0
tp567
g509
tp568
Rp569
(I1
(I1
tp570
g515
I00
S'\xa0\x1a/\xdd$\x06\xd9?'
p571
tp572
baNaNaNaNaNaNaNaNaNaNaNaNaNaNaNaNaNaNaNaNaNaNaNaNaNaNaNaNaNaNaNaNaNaNaNaNaNaNaNaNaNaNaNaNaNaNaNaNaNaNasg70
g0
(g71
g2
Ntp573
Rp574
(dp575
g75
Vif run:\u000a  ref = np.mean(GroupedGeoMeans[0])\u000a  NrmlGeoGroupedMeans = []\u000a  truncated_group = [g for g in GroupedGeoMeans if g is not None]\u000a  for g in truncated_group:\u000a    new_g = [x/ref for x in g]\u000a    NrmlGeoGroupedMeans.append(new_g)\u000a  NrmlGeoGroupedMeans = roundValues(NrmlGeoGroupedMeans, 3)
p576
sg76
g546
sg77
I00
sg78
I00
sg79
Vif run:\u000a  ref = np.mean(GroupedGeoMeans[0])\u000a  NrmlGeoGroupedMeans = []\u000a  truncated_group = [g for g in GroupedGeoMeans if g is not None]\u000a  for g in truncated_group:\u000a    new_g = [x/ref for x in g]\u000a    NrmlGeoGroupedMeans.append(new_g)\u000a  NrmlGeoGroupedMeans = roundValues(NrmlGeoGroupedMeans, 3)
p577
sbsg80
g0
(g81
g82
(g83
g84
tp578
tp579
Rp580
sg88
VNrmlGeoGroupedMeans
p581
sbag0
(g8
g2
Ntp582
Rp583
(dp584
g12
I00
sg13
g4
sg14
(lp585
F1.0
aF0.507
aF0.391
aF0.391
aFnan
aFnan
aFnan
aFnan
aFnan
aFnan
aFnan
aFnan
aFnan
aFnan
aFnan
aFnan
aFnan
aFnan
aFnan
aFnan
aFnan
aFnan
aFnan
aFnan
aFnan
aFnan
aFnan
aFnan
aFnan
aFnan
aFnan
aFnan
aFnan
aFnan
aFnan
aFnan
aFnan
aFnan
aFnan
aFnan
aFnan
aFnan
aFnan
aFnan
aFnan
aFnan
aFnan
aFnan
aFnan
aFnan
aFnan
aFnan
aFnan
aFnan
asg70
g0
(g71
g2
Ntp586
Rp587
(dp588
g75
Vif run:\u000a  MeanNrmlGeoGroups = [round(np.mean(g), 3) for g in NrmlGeoGroupedMeans]
p589
sg76
g583
sg77
I00
sg78
I00
sg79
Vif run:\u000a  MeanNrmlGeoGroups = [round(np.mean(g), 3) for g in NrmlGeoGroupedMeans]
p590
sbsg80
g0
(g81
g82
(g83
g84
tp591
tp592
Rp593
sg88
VMeanNrmlGeoGroups
p594
sbag0
(g8
g2
Ntp595
Rp596
(dp597
g12
I00
sg13
g4
sg14
(lp598
Fnan
aF0.429
aFnan
aFnan
aFnan
aFnan
aFnan
aFnan
aFnan
aFnan
aFnan
aFnan
aFnan
aFnan
aFnan
aFnan
aFnan
aFnan
aFnan
aFnan
aFnan
aFnan
aFnan
aFnan
aFnan
aFnan
aFnan
aFnan
aFnan
aFnan
aFnan
aFnan
aFnan
aFnan
aFnan
aFnan
aFnan
aFnan
aFnan
aFnan
aFnan
aFnan
aFnan
aFnan
aFnan
aFnan
aFnan
aFnan
aFnan
aFnan
aFnan
aFnan
aFnan
aFnan
asg70
g0
(g71
g2
Ntp599
Rp600
(dp601
g75
Vif run:\u000a  StdNrmlGeoGroups = [round(np.std(g, ddof=1), 3) for g in NrmlGeoGroupedMeans]\u000as.setColumnVisibility(['GeoGroups', 'GroupedGeoMeans', 'NrmlGeoGroupedMeans', 'MeanNrmlGeoGroups', 'StdNrmlGeoGroups'], is_visible=show_block3)
p602
sg76
g596
sg77
I00
sg78
I00
sg79
Vif run:\u000a  StdNrmlGeoGroups = [round(np.std(g, ddof=1), 3) for g in NrmlGeoGroupedMeans]\u000as.setColumnVisibility(['GeoGroups', 'GroupedGeoMeans', 'NrmlGeoGroupedMeans', 'MeanNrmlGeoGroups', 'StdNrmlGeoGroups'], is_visible=show_block3)
p603
sbsg80
g0
(g81
g82
(g83
g84
tp604
tp605
Rp606
sg88
VStdNrmlGeoGroups
p607
sbasS'_columns'
p608
(lp609
g0
(g8
g2
Ntp610
Rp611
(dp612
g12
I01
sg13
g4
sg14
(lp613
S'1'
p614
aS'2'
p615
aS'3'
p616
aS'4'
p617
aS'5'
p618
aS'6'
p619
aS'7'
p620
aS'8'
p621
aS'9'
p622
aS'10'
p623
aS'11'
p624
aS'12'
p625
aS'13'
p626
aS'14'
p627
aS'15'
p628
aS'16'
p629
aS'17'
p630
aS'18'
p631
aS'19'
p632
aS'20'
p633
aS'21'
p634
aS'22'
p635
aS'23'
p636
aS'24'
p637
aS'25'
p638
aS'26'
p639
aS'27'
p640
aS'28'
p641
aS'29'
p642
aS'30'
p643
aS'31'
p644
aS'32'
p645
aS'33'
p646
aS'34'
p647
aS'35'
p648
aS'36'
p649
aS'37'
p650
aS'38'
p651
aS'39'
p652
aS'40'
p653
aS'41'
p654
aS'42'
p655
aS'43'
p656
aS'44'
p657
aS'45'
p658
aS'46'
p659
aS'47'
p660
aS'48'
p661
aS'49'
p662
aS'50'
p663
aS'51'
p664
aS'52'
p665
aS'53'
p666
aS'54'
p667
asg70
g0
(g71
g2
Ntp668
Rp669
(dp670
g75
Nsg76
g611
sg77
I00
sg78
I00
sg79
Nsbsg80
g0
(g81
g82
(g83
g84
tp671
tp672
Rp673
sg88
S'row'
p674
sbag0
(g8
g2
Ntp675
Rp676
(dp677
g12
I00
sg13
g4
sg14
(lp678
Vgene
p679
aVrun
p680
aVshow_raw
p681
aVshow_block1
p682
aVshow_block2
p683
aVshow_block3
p684
aVmax_std
p685
aVmin_eff
p686
aVnan
p687
aVnan
p688
aVnan
p689
aVnan
p690
aVnan
p691
aVnan
p692
aVnan
p693
aVnan
p694
aVnan
p695
aVnan
p696
aVnan
p697
aVnan
p698
aVnan
p699
aVnan
p700
aVnan
p701
aVnan
p702
aVnan
p703
aVnan
p704
aVnan
p705
aVnan
p706
aVnan
p707
aVnan
p708
aVnan
p709
aVnan
p710
aVnan
p711
aVnan
p712
aVnan
p713
aVnan
p714
aVnan
p715
aVnan
p716
aVnan
p717
aVnan
p718
aVnan
p719
aVnan
p720
aVnan
p721
aVnan
p722
aVnan
p723
aVnan
p724
aVnan
p725
aVnan
p726
aVnan
p727
aVnan
p728
aVnan
p729
aVnan
p730
aVnan
p731
aVnan
p732
asg70
g0
(g71
g2
Ntp733
Rp734
(dp735
g75
Nsg76
g676
sg77
I00
sg78
I00
sg79
Nsbsg80
g0
(g81
g82
(g83
g84
tp736
tp737
Rp738
sg88
VParmNames
p739
sbag0
(g8
g2
Ntp740
Rp741
(dp742
g12
I00
sg13
g4
sg14
(lp743
VGene1
p744
aVFalse
p745
aVFalse
p746
aVFalse
p747
aVTrue
p748
aVFalse
p749
aV0.5
p750
aV0.7
p751
aVnan
p752
aVnan
p753
aVnan
p754
aVnan
p755
aVnan
p756
aVnan
p757
aVnan
p758
aVnan
p759
aVnan
p760
aVnan
p761
aVnan
p762
aVnan
p763
aVnan
p764
aVnan
p765
aVnan
p766
aVnan
p767
aVnan
p768
aVnan
p769
aVnan
p770
aVnan
p771
aVnan
p772
aVnan
p773
aVnan
p774
aVnan
p775
aVnan
p776
aVnan
p777
aVnan
p778
aVnan
p779
aVnan
p780
aVnan
p781
aVnan
p782
aVnan
p783
aVnan
p784
aVnan
p785
aVnan
p786
aVnan
p787
aVnan
p788
aVnan
p789
aVnan
p790
aVnan
p791
aVnan
p792
aVnan
p793
aVnan
p794
aVnan
p795
aVnan
p796
aVnan
p797
asg70
g0
(g71
g2
Ntp798
Rp799
(dp800
g75
Vxlsx_path = '/mnt/hgfs/josephhellerstein/home/Technical/SciSheets/CaseStudies/Kristen/workbooks/data.xlsx'\u000as.setColumnVisibility()\u000agene = ParmValues[0]\u000arun = ParmValues[1] == 'True'\u000ashow_raw = ParmValues[2] == 'True'\u000ashow_block1 = ParmValues[3] == 'True'\u000ashow_block2 = ParmValues[4] == 'True'\u000ashow_block3 = ParmValues[5] == 'True'\u000amax_std  = float(ParmValues[6])\u000amin_eff = float(ParmValues[7])\u000aworksheet = gene + "-I"\u000aif False:\u000a  Groups = []\u000a  GroupedCt = []\u000a  GroupedEff = []\u000a  MeanCt = []\u000a  Imp = []\u000a  s.deleteColumn('Ct')\u000a  s.deleteColumn('RunType')\u000a  s.deleteColumn('BRpl')\u000a  s.deleteColumn('TRpl')\u000a  s.deleteColumn('Treatment')\u000a  s.deleteColumn('SmplName')\u000a  s.deleteColumn('Eff')\u000aif run:\u000a  importExcelToTable(s, xlsx_path, worksheet=worksheet)\u000a  BRpl = s.getColumnValues('BRpl')\u000a  Ct = s.getColumnValues('Ct')\u000a  Eff = s.getColumnValues('Eff')\u000a  RunType = s.getColumnValues('RunType')\u000a  TRpl = s.getColumnValues('TRpl')\u000a  Treatment = s.getColumnValues('Treatment')\u000as.setColumnVisibility(['SmplName'], False)\u000as.setColumnVisibility(['BRpl', 'Ct', 'Eff', 'RunType', 'TRpl', 'Treatment'], is_visible=show_raw)
p801
sg76
g741
sg77
I00
sg78
I00
sg79
Vxlsx_path = '/mnt/hgfs/josephhellerstein/home/Technical/SciSheets/CaseStudies/Kristen/workbooks/data.xlsx'\u000as.setColumnVisibility()\u000agene = ParmValues[0]\u000arun = ParmValues[1] == 'True'\u000ashow_raw = ParmValues[2] == 'True'\u000ashow_block1 = ParmValues[3] == 'True'\u000ashow_block2 = ParmValues[4] == 'True'\u000ashow_block3 = ParmValues[5] == 'True'\u000amax_std  = float(ParmValues[6])\u000amin_eff = float(ParmValues[7])\u000aworksheet = gene + "-I"\u000aif False:\u000a  Groups = []\u000a  GroupedCt = []\u000a  GroupedEff = []\u000a  MeanCt = []\u000a  Imp = []\u000a  s.deleteColumn('Ct')\u000a  s.deleteColumn('RunType')\u000a  s.deleteColumn('BRpl')\u000a  s.deleteColumn('TRpl')\u000a  s.deleteColumn('Treatment')\u000a  s.deleteColumn('SmplName')\u000a  s.deleteColumn('Eff')\u000aif run:\u000a  importExcelToTable(s, xlsx_path, worksheet=worksheet)\u000a  BRpl = s.getColumnValues('BRpl')\u000a  Ct = s.getColumnValues('Ct')\u000a  Eff = s.getColumnValues('Eff')\u000a  RunType = s.getColumnValues('RunType')\u000a  TRpl = s.getColumnValues('TRpl')\u000a  Treatment = s.getColumnValues('Treatment')\u000as.setColumnVisibility(['SmplName'], False)\u000as.setColumnVisibility(['BRpl', 'Ct', 'Eff', 'RunType', 'TRpl', 'Treatment'], is_visible=show_raw)
p802
sbsg80
g0
(g81
g82
(g83
g84
tp803
tp804
Rp805
sg88
VParmValues
p806
sbag179
ag462
ag349
ag378
ag407
ag438
ag451
ag0
(g8
g2
Ntp807
Rp808
(dp809
g12
I00
sg13
g4
sg14
(lp810
(lp811
g182
(g186
S'\x00\x00\x00\x00\x00\x00\x00\x00'
p812
tp813
Rp814
ag182
(g186
S'\x01\x00\x00\x00\x00\x00\x00\x00'
p815
tp816
Rp817
aa(lp818
g182
(g186
S'\x01\x00\x00\x00\x00\x00\x00\x00'
p819
tp820
Rp821
ag182
(g186
S'\x01\x00\x00\x00\x00\x00\x00\x00'
p822
tp823
Rp824
aa(lp825
g182
(g186
S'\x01\x00\x00\x00\x00\x00\x00\x00'
p826
tp827
Rp828
ag182
(g186
S'\x02\x00\x00\x00\x00\x00\x00\x00'
p829
tp830
Rp831
aa(lp832
g182
(g186
S'\x01\x00\x00\x00\x00\x00\x00\x00'
p833
tp834
Rp835
ag182
(g186
S'\x03\x00\x00\x00\x00\x00\x00\x00'
p836
tp837
Rp838
aa(lp839
g182
(g186
S'\x02\x00\x00\x00\x00\x00\x00\x00'
p840
tp841
Rp842
ag182
(g186
S'\x01\x00\x00\x00\x00\x00\x00\x00'
p843
tp844
Rp845
aa(lp846
g182
(g186
S'\x03\x00\x00\x00\x00\x00\x00\x00'
p847
tp848
Rp849
ag182
(g186
S'\x01\x00\x00\x00\x00\x00\x00\x00'
p850
tp851
Rp852
aaNaNaNaNaNaNaNaNaNaNaNaNaNaNaNaNaNaNaNaNaNaNaNaNaNaNaNaNaNaNaNaNaNaNaNaNaNaNaNaNaNaNaNaNaNaNaNaNasg70
g0
(g71
g2
Ntp853
Rp854
(dp855
g75
Vif run:\u000a  tabularize(s, 'Groups', 1, 'MeanCt', \u000a      new_category_colnm='BioRuns',\u000a      values_colnm_prefix='Gene_')\u000a  BioRuns = s.getColumnValues('BioRuns')\u000a  Gene_I = s.getColumnValues('Gene_I')\u000a  Gene_R1 = s.getColumnValues('Gene_R1')\u000a  Gene_R2 = s.getColumnValues('Gene_R2')\u000a 
p856
sg76
g808
sg77
I00
sg78
I00
sg79
Vif run:\u000a  tabularize(s, 'Groups', 1, 'MeanCt', \u000a      new_category_colnm='BioRuns',\u000a      values_colnm_prefix='Gene_')\u000a  BioRuns = s.getColumnValues('BioRuns')\u000a  Gene_I = s.getColumnValues('Gene_I')\u000a  Gene_R1 = s.getColumnValues('Gene_R1')\u000a  Gene_R2 = s.getColumnValues('Gene_R2')\u000a 
p857
sbsg80
g0
(g81
g82
(g83
g84
tp858
tp859
Rp860
sg88
VBioRuns
p861
sbag0
(g8
g2
Ntp862
Rp863
(dp864
g12
I00
sg13
g4
sg14
(lp865
F22.9
aF27.0
aF26.6
aF29.8
aF30.1
aF24.8
aFnan
aFnan
aFnan
aFnan
aFnan
aFnan
aFnan
aFnan
aFnan
aFnan
aFnan
aFnan
aFnan
aFnan
aFnan
aFnan
aFnan
aFnan
aFnan
aFnan
aFnan
aFnan
aFnan
aFnan
aFnan
aFnan
aFnan
aFnan
aFnan
aFnan
aFnan
aFnan
aFnan
aFnan
aFnan
aFnan
aFnan
aFnan
aFnan
aFnan
aFnan
aFnan
aFnan
aFnan
aFnan
aFnan
aFnan
aFnan
asg70
g0
(g71
g2
Ntp866
Rp867
(dp868
g75
Nsg76
g863
sg77
I00
sg78
I00
sg79
Nsbsg80
g0
(g81
g82
(g83
g84
tp869
tp870
Rp871
sg88
S'Gene_I'
p872
sbag0
(g8
g2
Ntp873
Rp874
(dp875
g12
I00
sg13
g4
sg14
(lp876
F18.3
aF19.9
aF21.9
aF23.9
aF23.5
aF18.8
aFnan
aFnan
aFnan
aFnan
aFnan
aFnan
aFnan
aFnan
aFnan
aFnan
aFnan
aFnan
aFnan
aFnan
aFnan
aFnan
aFnan
aFnan
aFnan
aFnan
aFnan
aFnan
aFnan
aFnan
aFnan
aFnan
aFnan
aFnan
aFnan
aFnan
aFnan
aFnan
aFnan
aFnan
aFnan
aFnan
aFnan
aFnan
aFnan
aFnan
aFnan
aFnan
aFnan
aFnan
aFnan
aFnan
aFnan
aFnan
asg70
g0
(g71
g2
Ntp877
Rp878
(dp879
g75
Nsg76
g874
sg77
I00
sg78
I00
sg79
Nsbsg80
g871
sg88
S'Gene_R1'
p880
sbag0
(g8
g2
Ntp881
Rp882
(dp883
g12
I00
sg13
g4
sg14
(lp884
F19.8
aF21.9
aF23.6
aF24.5
aF26.3
aF20.4
aFnan
aFnan
aFnan
aFnan
aFnan
aFnan
aFnan
aFnan
aFnan
aFnan
aFnan
aFnan
aFnan
aFnan
aFnan
aFnan
aFnan
aFnan
aFnan
aFnan
aFnan
aFnan
aFnan
aFnan
aFnan
aFnan
aFnan
aFnan
aFnan
aFnan
aFnan
aFnan
aFnan
aFnan
aFnan
aFnan
aFnan
aFnan
aFnan
aFnan
aFnan
aFnan
aFnan
aFnan
aFnan
aFnan
aFnan
aFnan
asg70
g0
(g71
g2
Ntp885
Rp886
(dp887
g75
Nsg76
g882
sg77
I00
sg78
I00
sg79
Nsbsg80
g871
sg88
S'Gene_R2'
p888
sbag0
(g8
g2
Ntp889
Rp890
(dp891
g12
I00
sg13
g4
sg14
(lp892
F0.04123
aF0.00729
aF0.03847
aF0.01675
aF0.01031
aF0.01563
aFnan
aFnan
aFnan
aFnan
aFnan
aFnan
aFnan
aFnan
aFnan
aFnan
aFnan
aFnan
aFnan
aFnan
aFnan
aFnan
aFnan
aFnan
aFnan
aFnan
aFnan
aFnan
aFnan
aFnan
aFnan
aFnan
aFnan
aFnan
aFnan
aFnan
aFnan
aFnan
aFnan
aFnan
aFnan
aFnan
aFnan
aFnan
aFnan
aFnan
aFnan
aFnan
aFnan
aFnan
aFnan
aFnan
aFnan
aFnan
asg70
g0
(g71
g2
Ntp893
Rp894
(dp895
g75
VExprR1 = roundValues(2**(Gene_R1 - Gene_I),5)
p896
sg76
g890
sg77
I01
sg78
I00
sg79
VroundValues(2**(Gene_R1 - Gene_I),5)
p897
sbsg80
g0
(g81
g82
(g83
g84
tp898
tp899
Rp900
sg88
VExprR1
p901
sbag0
(g8
g2
Ntp902
Rp903
(dp904
g12
I00
sg13
g4
sg14
(lp905
F0.11663
aF0.02916
aF0.125
aF0.02538
aF0.07179
aF0.04737
aFnan
aFnan
aFnan
aFnan
aFnan
aFnan
aFnan
aFnan
aFnan
aFnan
aFnan
aFnan
aFnan
aFnan
aFnan
aFnan
aFnan
aFnan
aFnan
aFnan
aFnan
aFnan
aFnan
aFnan
aFnan
aFnan
aFnan
aFnan
aFnan
aFnan
aFnan
aFnan
aFnan
aFnan
aFnan
aFnan
aFnan
aFnan
aFnan
aFnan
aFnan
aFnan
aFnan
aFnan
aFnan
aFnan
aFnan
aFnan
asg70
g0
(g71
g2
Ntp906
Rp907
(dp908
g75
VExprR2 = roundValues(2**(Gene_R2 - Gene_I),5)
p909
sg76
g903
sg77
I01
sg78
I00
sg79
VroundValues(2**(Gene_R2 - Gene_I),5)
p910
sbsg80
g0
(g81
g82
(g83
g84
tp911
tp912
Rp913
sg88
VExprR2
p914
sbag0
(g8
g2
Ntp915
Rp916
(dp917
g12
I00
sg13
g4
sg14
(lp918
F0.069
aF0.015
aF0.069
aF0.021
aF0.027
aF0.027
aFnan
aFnan
aFnan
aFnan
aFnan
aFnan
aFnan
aFnan
aFnan
aFnan
aFnan
aFnan
aFnan
aFnan
aFnan
aFnan
aFnan
aFnan
aFnan
aFnan
aFnan
aFnan
aFnan
aFnan
aFnan
aFnan
aFnan
aFnan
aFnan
aFnan
aFnan
aFnan
aFnan
aFnan
aFnan
aFnan
aFnan
aFnan
aFnan
aFnan
aFnan
aFnan
aFnan
aFnan
aFnan
aFnan
aFnan
aFnan
asg70
g0
(g71
g2
Ntp919
Rp920
(dp921
g75
Vif run:\u000a  GeoMean = roundValues(np.sqrt(ExprR1*ExprR2), 3)\u000as.setColumnVisibility(['BioRuns', 'Gene_I', 'Gene_R1', 'Gene_R2', 'ExprR1', 'ExprR2', 'GeoMean'], is_visible=show_block2)
p922
sg76
g916
sg77
I00
sg78
I00
sg79
Vif run:\u000a  GeoMean = roundValues(np.sqrt(ExprR1*ExprR2), 3)\u000as.setColumnVisibility(['BioRuns', 'Gene_I', 'Gene_R1', 'Gene_R2', 'ExprR1', 'ExprR2', 'GeoMean'], is_visible=show_block2)
p923
sbsg80
g0
(g81
g82
(g83
g84
tp924
tp925
Rp926
sg88
VGeoMean
p927
sbag491
ag504
ag546
ag583
ag596
ag91
ag99
ag107
ag115
ag10
ag160
ag171
asS'_filepath'
p928
V/home/ubuntu/SciSheets/mysite/user/guest/tables/kristen_single_gene.pcl
p929
sg88
VSingleGene
p930
sb.