ccopy_reg
_reconstructor
p0
(cscisheets.ui.dt_table
DTTable
p1
c__builtin__
object
p2
Ntp3
Rp4
(dp5
S'_versioned_file'
p6
g0
(cmysite.helpers.versioned_file
VersionedFile
p7
g2
Ntp8
Rp9
(dp10
S'_redo_stack'
p11
g0
(cmysite.helpers.file_stack
FileStack
p12
g2
Ntp13
Rp14
(dp15
S'_dirpath'
p16
S'/home/ubuntu/SciSheets/mysite/user/guest/tables/backup'
p17
sS'_max_depth'
p18
I5
sS'_filename_pfx'
p19
Vkristen_single_gene.r
p20
sbsS'_max_versions'
p21
I5
sS'_undo_stack'
p22
g0
(g12
g2
Ntp23
Rp24
(dp25
g16
g17
sg18
I5
sg19
Vkristen_single_gene.u
p26
sbsS'_checkpoint_history'
p27
(lp28
VCell/Update
p29
aVCell/Update
p30
aVCell/Update
p31
aVCell/Update
p32
aVCell/Update
p33
aVCell/Update
p34
aVCell/Update
p35
aVCell/Update
p36
aVCell/Update
p37
aVCell/Update
p38
aVCell/Update
p39
aVCell/Update
p40
aVColumn/Formula
p41
aVColumn/Formula
p42
aVColumn/Append
p43
aVColumn/Formula
p44
aVColumn/Delete
p45
aVCell/Update
p46
aVColumn/Formula
p47
aVCell/Update
p48
aVCell/Update
p49
aVColumn/Formula
p50
aVColumn/Formula
p51
aVCell/Update
p52
aVColumn/Formula
p53
aVColumn/Formula
p54
aVCell/Update
p55
aVCell/Update
p56
aVCell/Update
p57
aVCell/Update
p58
aVColumn/Formula
p59
aVCell/Update
p60
aVCell/Update
p61
aVCell/Update
p62
aVColumn/Formula
p63
aVCell/Update
p64
aVColumn/Formula
p65
aVColumn/Formula
p66
aVCell/Update
p67
aVCell/Update
p68
aVCell/Update
p69
aVCell/Update
p70
aVCell/Update
p71
aVCell/Update
p72
aVCell/Update
p73
aVCell/Update
p74
aVCell/Update
p75
aVColumn/Formula
p76
aVCell/Update
p77
aVCell/Update
p78
aVCell/Update
p79
aVCell/Update
p80
aVCell/Update
p81
aVCell/Update
p82
aVCell/Update
p83
aVCell/Update
p84
aVCell/Update
p85
aVCell/Update
p86
aVCell/Update
p87
aVCell/Update
p88
aVColumn/Formula
p89
aVColumn/Formula
p90
aVColumn/Formula
p91
aVCell/Update
p92
aVCell/Update
p93
aVCell/Update
p94
aVCell/Update
p95
aVCell/Update
p96
aVColumn/Formula
p97
aVCell/Update
p98
aVCell/Update
p99
aVCell/Update
p100
aVCell/Update
p101
aVCell/Update
p102
aVCell/Update
p103
aVCell/Update
p104
aVColumn/Formula
p105
aVColumn/Formula
p106
aVColumn/Formula
p107
aVCell/Update
p108
aVCell/Update
p109
aVColumn/Formula
p110
aVCell/Update
p111
aVCell/Update
p112
aVCell/Update
p113
aVCell/Update
p114
aVCell/Update
p115
aVCell/Update
p116
aVCell/Update
p117
aVCell/Update
p118
aVColumn/Formula
p119
aVCell/Update
p120
aVColumn/Formula
p121
aVColumn/Formula
p122
aVColumn/Formula
p123
aVCell/Update
p124
aVCell/Update
p125
aVColumn/Formula
p126
aVColumn/Formula
p127
aVColumn/Formula
p128
aVColumn/Formula
p129
aVCell/Update
p130
aVColumn/Formula
p131
aVColumn/Formula
p132
aVColumn/Formula
p133
aVCell/Update
p134
aVCell/Update
p135
aVCell/Update
p136
aVCell/Update
p137
aVCell/Update
p138
aVCell/Update
p139
aVCell/Update
p140
aVCell/Update
p141
aVCell/Update
p142
aVCell/Update
p143
aVColumn/Formula
p144
aVColumn/Formula
p145
aVColumn/Formula
p146
aVColumn/Formula
p147
aVCell/Update
p148
aVCell/Update
p149
aVColumn/Formula
p150
aVCell/Update
p151
aVCell/Update
p152
aVCell/Update
p153
aVCell/Update
p154
aVCell/Update
p155
aVCell/Update
p156
aVCell/Update
p157
aVCell/Update
p158
aVCell/Update
p159
aVCell/Update
p160
aVCell/Update
p161
aVCell/Update
p162
aVCell/Update
p163
aVColumn/Formula
p164
aVColumn/Formula
p165
aVCell/Update
p166
aVCell/Update
p167
aVCell/Update
p168
aVColumn/Formula
p169
aVCell/Update
p170
aVCell/Update
p171
aVCell/Update
p172
aVCell/Update
p173
aVColumn/Formula
p174
aVColumn/Formula
p175
aVColumn/Formula
p176
aVColumn/Formula
p177
aVCell/Update
p178
aVColumn/Formula
p179
aVCell/Update
p180
aVCell/Update
p181
aVCell/Update
p182
aVCell/Update
p183
aVCell/Update
p184
aVCell/Update
p185
aVCell/Update
p186
aVCell/Update
p187
aVCell/Update
p188
aVColumn/Formula
p189
aVCell/Update
p190
aVCell/Update
p191
aVCell/Update
p192
aVCell/Update
p193
aVCell/Update
p194
aVCell/Update
p195
aVCell/Update
p196
aVCell/Update
p197
aVCell/Update
p198
aVCell/Update
p199
aVCell/Update
p200
aVCell/Update
p201
aVCell/Update
p202
aVCell/Update
p203
aVCell/Update
p204
aVCell/Update
p205
aVCell/Update
p206
aVCell/Update
p207
aVCell/Update
p208
aVCell/Update
p209
aVCell/Update
p210
aVCell/Update
p211
aVCell/Update
p212
aVCell/Update
p213
aVCell/Update
p214
aVCell/Update
p215
aVCell/Update
p216
aVCell/Update
p217
aVCell/Update
p218
aVCell/Update
p219
aVCell/Update
p220
aVCell/Update
p221
aVCell/Update
p222
aVCell/Update
p223
aVCell/Update
p224
aVCell/Update
p225
aVCell/Update
p226
aVCell/Update
p227
aVCell/Update
p228
aVCell/Update
p229
aVCell/Update
p230
aVCell/Update
p231
aVCell/Update
p232
aVCell/Update
p233
aVCell/Update
p234
aVCell/Update
p235
aVCell/Update
p236
aVCell/Update
p237
aVCell/Update
p238
aVCell/Update
p239
aVCell/Update
p240
aVCell/Update
p241
aVCell/Update
p242
aVCell/Update
p243
aVCell/Update
p244
aVCell/Update
p245
aVCell/Update
p246
aVCell/Update
p247
aVCell/Update
p248
aVCell/Update
p249
aVCell/Update
p250
aVCell/Update
p251
aVCell/Update
p252
aVCell/Update
p253
aVCell/Update
p254
aVCell/Update
p255
aVCell/Update
p256
aVCell/Update
p257
aVCell/Update
p258
aVCell/Update
p259
aVCell/Update
p260
aVCell/Update
p261
aVCell/Update
p262
aVCell/Update
p263
aVCell/Update
p264
aVCell/Update
p265
aVCell/Update
p266
aVCell/Update
p267
aVCell/Update
p268
aVCell/Update
p269
aVCell/Update
p270
aVCell/Update
p271
aVColumn/Formula
p272
aVColumn/Formula
p273
aVCell/Update
p274
aVCell/Update
p275
aVCell/Update
p276
aVCell/Update
p277
aVColumn/Formula
p278
aVColumn/Formula
p279
aVColumn/Formula
p280
aVCell/Update
p281
aVCell/Update
p282
aVCell/Update
p283
aVCell/Update
p284
aVColumn/Formula
p285
aVColumn/Formula
p286
aVColumn/Formula
p287
aVCell/Update
p288
aVCell/Update
p289
aVColumn/Formula
p290
aVCell/Update
p291
aVCell/Update
p292
aVCell/Update
p293
aVCell/Update
p294
aVCell/Update
p295
aVCell/Update
p296
aVColumn/Formula
p297
aVCell/Update
p298
aVColumn/Formula
p299
aVCell/Update
p300
aVCell/Update
p301
aVColumn/Formula
p302
aVColumn/Formula
p303
aVCell/Update
p304
aVCell/Update
p305
aVCell/Update
p306
aVCell/Update
p307
aVColumn/Formula
p308
aVColumn/Formula
p309
aVColumn/Formula
p310
aVColumn/Formula
p311
aVColumn/Formula
p312
aVCell/Update
p313
aVCell/Update
p314
aVColumn/Formula
p315
aVCell/Update
p316
asS'_filepath'
p317
V/home/ubuntu/SciSheets/mysite/user/guest/tables/kristen_single_gene.pcl
p318
sS'_backup_dir'
p319
g17
sbsS'_namespace'
p320
(dp321
sS'_hidden_columns'
p322
(lp323
g0
(cscisheets.core.column
Column
p324
g2
Ntp325
Rp326
(dp327
S'_asis'
p328
I00
sS'_owning_table'
p329
g4
sS'_cells'
p330
(lp331
(lp332
cnumpy.core.multiarray
scalar
p333
(cnumpy
dtype
p334
(S'f8'
p335
I0
I1
tp336
Rp337
(I3
S'<'
p338
NNNI-1
I-1
I0
tp339
bS'\x00\x00\x00\x00\x00\x00\x00\x00'
p340
tp341
Rp342
ag333
(g337
S'\x00\x00\x00\x00\x00\x00\xf0?'
p343
tp344
Rp345
aa(lp346
g333
(g337
S'\x00\x00\x00\x00\x00\x00\xf0?'
p347
tp348
Rp349
ag333
(g337
S'\x00\x00\x00\x00\x00\x00\xf0?'
p350
tp351
Rp352
aa(lp353
g333
(g337
S'\x00\x00\x00\x00\x00\x00\xf0?'
p354
tp355
Rp356
ag333
(g337
S'\x00\x00\x00\x00\x00\x00\x00@'
p357
tp358
Rp359
aa(lp360
g333
(g337
S'\x00\x00\x00\x00\x00\x00\xf0?'
p361
tp362
Rp363
ag333
(g337
S'\x00\x00\x00\x00\x00\x00\x08@'
p364
tp365
Rp366
aa(lp367
g333
(g337
S'\x00\x00\x00\x00\x00\x00\x00@'
p368
tp369
Rp370
ag333
(g337
S'\x00\x00\x00\x00\x00\x00\xf0?'
p371
tp372
Rp373
aa(lp374
g333
(g337
S'\x00\x00\x00\x00\x00\x00\x08@'
p375
tp376
Rp377
ag333
(g337
S'\x00\x00\x00\x00\x00\x00\xf0?'
p378
tp379
Rp380
aaNaNaNaNaNaNaNaNaNaNaNaNaNaNaNaNaNaNaNaNaNaNaNaNaNaNaNaNaNaNaNaNaNaNaNaNaNaNaNaNaNaNaNaNaNaNaNaNaNaNaNaNaNaNaNaNaNaNasS'_formula_statement'
p381
g0
(cscisheets.core.helpers.formula_statement
FormulaStatement
p382
g2
Ntp383
Rp384
(dp385
S'_statement'
p386
Vdummy = tabularize(s, 'Groups', 1, 'MeanCt', \u000a          new_category_colnm='BioRuns',\u000a          values_colnm_prefix='Gene_')
p387
sS'_name'
p388
VBioRuns
p389
sS'_isExpression'
p390
I00
sS'_isStatement'
p391
I00
sS'_formula'
p392
Vdummy = tabularize(s, 'Groups', 1, 'MeanCt', \u000a          new_category_colnm='BioRuns',\u000a          values_colnm_prefix='Gene_')
p393
sbsS'_data_class'
p394
g0
(cscisheets.core.helpers.api_util
DataClass
p395
c__builtin__
tuple
p396
(cnumpy
ndarray
p397
cscisheets.core.helpers.api_util
makeArray
p398
tp399
tp400
Rp401
sg388
g389
sbag0
(g324
g2
Ntp402
Rp403
(dp404
g328
I00
sg329
g4
sg330
(lp405
F18.2
aF22.4
aF21.9
aF23.4
aF23.4
aF18.9
aFnan
aFnan
aFnan
aFnan
aFnan
aFnan
aFnan
aFnan
aFnan
aFnan
aFnan
aFnan
aFnan
aFnan
aFnan
aFnan
aFnan
aFnan
aFnan
aFnan
aFnan
aFnan
aFnan
aFnan
aFnan
aFnan
aFnan
aFnan
aFnan
aFnan
aFnan
aFnan
aFnan
aFnan
aFnan
aFnan
aFnan
aFnan
aFnan
aFnan
aFnan
aFnan
aFnan
aFnan
aFnan
aFnan
aFnan
aFnan
aFnan
aFnan
aFnan
aFnan
aFnan
aFnan
aFnan
aFnan
aFnan
aFnan
asg381
g0
(g382
g2
Ntp406
Rp407
(dp408
g386
NsS'_column'
p409
g403
sg390
I00
sg391
I00
sg392
Nsbsg394
g0
(g395
g396
(g397
g398
tp410
tp411
Rp412
sg388
S'Gene_I'
p413
sbag0
(g324
g2
Ntp414
Rp415
(dp416
g328
I00
sg329
g4
sg330
(lp417
F18.3
aF19.9
aF21.9
aF23.9
aF23.5
aF18.8
aFnan
aFnan
aFnan
aFnan
aFnan
aFnan
aFnan
aFnan
aFnan
aFnan
aFnan
aFnan
aFnan
aFnan
aFnan
aFnan
aFnan
aFnan
aFnan
aFnan
aFnan
aFnan
aFnan
aFnan
aFnan
aFnan
aFnan
aFnan
aFnan
aFnan
aFnan
aFnan
aFnan
aFnan
aFnan
aFnan
aFnan
aFnan
aFnan
aFnan
aFnan
aFnan
aFnan
aFnan
aFnan
aFnan
aFnan
aFnan
aFnan
aFnan
aFnan
aFnan
aFnan
aFnan
aFnan
aFnan
aFnan
aFnan
asg381
g0
(g382
g2
Ntp418
Rp419
(dp420
g386
Nsg409
g415
sg390
I00
sg391
I00
sg392
Nsbsg394
g412
sg388
S'Gene_R1'
p421
sbag0
(g324
g2
Ntp422
Rp423
(dp424
g328
I00
sg329
g4
sg330
(lp425
F19.8
aF21.9
aF23.6
aF24.5
aF26.3
aF20.4
aFnan
aFnan
aFnan
aFnan
aFnan
aFnan
aFnan
aFnan
aFnan
aFnan
aFnan
aFnan
aFnan
aFnan
aFnan
aFnan
aFnan
aFnan
aFnan
aFnan
aFnan
aFnan
aFnan
aFnan
aFnan
aFnan
aFnan
aFnan
aFnan
aFnan
aFnan
aFnan
aFnan
aFnan
aFnan
aFnan
aFnan
aFnan
aFnan
aFnan
aFnan
aFnan
aFnan
aFnan
aFnan
aFnan
aFnan
aFnan
aFnan
aFnan
aFnan
aFnan
aFnan
aFnan
aFnan
aFnan
aFnan
aFnan
asg381
g0
(g382
g2
Ntp426
Rp427
(dp428
g386
Nsg409
g423
sg390
I00
sg391
I00
sg392
Nsbsg394
g412
sg388
S'Gene_R2'
p429
sbag0
(g324
g2
Ntp430
Rp431
(dp432
g328
I00
sg329
g4
sg330
(lp433
F1.07177
aF0.17678
aF1.0
aF1.41421
aF1.07177
aF0.93303
aFnan
aFnan
aFnan
aFnan
aFnan
aFnan
aFnan
aFnan
aFnan
aFnan
aFnan
aFnan
aFnan
aFnan
aFnan
aFnan
aFnan
aFnan
aFnan
aFnan
aFnan
aFnan
aFnan
aFnan
aFnan
aFnan
aFnan
aFnan
aFnan
aFnan
aFnan
aFnan
aFnan
aFnan
aFnan
aFnan
aFnan
aFnan
aFnan
aFnan
aFnan
aFnan
aFnan
aFnan
aFnan
aFnan
aFnan
aFnan
aFnan
aFnan
aFnan
aFnan
aFnan
aFnan
aFnan
aFnan
aFnan
aFnan
asg381
g0
(g382
g2
Ntp434
Rp435
(dp436
g386
VExprR1 = roundValues(2**(Gene_R1 - Gene_I),5)
p437
sg388
VExprR1
p438
sg390
I01
sg391
I00
sg392
VroundValues(2**(Gene_R1 - Gene_I),5)
p439
sbsg394
g0
(g395
g396
(g397
g398
tp440
tp441
Rp442
sg388
g438
sbag0
(g324
g2
Ntp443
Rp444
(dp445
g328
I00
sg329
g4
sg330
(lp446
F3.03143
aF0.70711
aF3.24901
aF2.14355
aF7.46426
aF2.82843
aFnan
aFnan
aFnan
aFnan
aFnan
aFnan
aFnan
aFnan
aFnan
aFnan
aFnan
aFnan
aFnan
aFnan
aFnan
aFnan
aFnan
aFnan
aFnan
aFnan
aFnan
aFnan
aFnan
aFnan
aFnan
aFnan
aFnan
aFnan
aFnan
aFnan
aFnan
aFnan
aFnan
aFnan
aFnan
aFnan
aFnan
aFnan
aFnan
aFnan
aFnan
aFnan
aFnan
aFnan
aFnan
aFnan
aFnan
aFnan
aFnan
aFnan
aFnan
aFnan
aFnan
aFnan
aFnan
aFnan
aFnan
aFnan
asg381
g0
(g382
g2
Ntp447
Rp448
(dp449
g386
VExprR2 = roundValues(2**(Gene_R2 - Gene_I),5)
p450
sg388
VExprR2
p451
sg390
I01
sg391
I00
sg392
VroundValues(2**(Gene_R2 - Gene_I),5)
p452
sbsg394
g0
(g395
g396
(g397
g398
tp453
tp454
Rp455
sg388
g451
sbag0
(g324
g2
Ntp456
Rp457
(dp458
g328
I00
sg329
g4
sg330
(lp459
F1.802
aF0.354
aF1.803
aF1.741
aF2.828
aF1.625
aFnan
aFnan
aFnan
aFnan
aFnan
aFnan
aFnan
aFnan
aFnan
aFnan
aFnan
aFnan
aFnan
aFnan
aFnan
aFnan
aFnan
aFnan
aFnan
aFnan
aFnan
aFnan
aFnan
aFnan
aFnan
aFnan
aFnan
aFnan
aFnan
aFnan
aFnan
aFnan
aFnan
aFnan
aFnan
aFnan
aFnan
aFnan
aFnan
aFnan
aFnan
aFnan
aFnan
aFnan
aFnan
aFnan
aFnan
aFnan
aFnan
aFnan
aFnan
aFnan
aFnan
aFnan
aFnan
aFnan
aFnan
aFnan
asg381
g0
(g382
g2
Ntp460
Rp461
(dp462
g386
VGeoMean = roundValues(np.sqrt(ExprR1*ExprR2), 3)
p463
sg388
VGeoMean
p464
sg390
I01
sg391
I00
sg392
VroundValues(np.sqrt(ExprR1*ExprR2), 3)
p465
sbsg394
g0
(g395
g396
(g397
g398
tp466
tp467
Rp468
sg388
g464
sbasS'_is_evaluate_formulas'
p469
I00
sS'_prologue'
p470
g0
(g382
g2
Ntp471
Rp472
(dp473
g386
V# Prologue\u000aimport math as mt\u000aimport numpy as np\u000afrom os import listdir\u000afrom os.path import isfile, join\u000aimport pandas as pd\u000aimport scipy as sp\u000afrom numpy import nan  # Must follow sympy import \u000a\u000axlsx_path =   '/mnt/hgfs/josephhellerstein/home/Technical/SciSheets/CaseStudies/Kristen/workbooks/data.xlsx'\u000agene = ParmValues[0]\u000arun = ParmValues[1] == 'True'\u000ashow_raw = ParmValues[2] == 'True'\u000ashow_block1 = ParmValues[3] == 'True'\u000ashow_block2 = ParmValues[4] == 'True'\u000ashow_block3 = ParmValues[5] == 'True'\u000ashow_params = ParmValues[8] == 'True'\u000a#show_params = True\u000amax_std  = float(ParmValues[6])\u000amin_eff = float(ParmValues[7])\u000aworksheet = gene + "-I"\u000as.getTable().setIsEvaluateFormulas(run)\u000as.setColumnVisibility()\u000as.setColumnVisibility(['Groups', 'GroupedEff', 'GroupedCt', 'StdFilteredGroupedCt', 'MeanCt',\u000a    'StdCt'], is_visible=show_block1)\u000as.setColumnVisibility(['BioRuns', 'Gene_I', 'Gene_R1', 'Gene_R2', 'ExprR1', 'ExprR2', \u000a    'GeoMean'], is_visible=show_block2)\u000as.setColumnVisibility(['GeoGroups', 'GroupedGeoMeans', 'NrmlGeoGroupedMeans', \u000a    'MeanNrmlGeoGroups', 'StdNrmlGeoGroups'], is_visible=show_block3)\u000aif run:\u000a  Groups = []\u000a  GroupedCt = []\u000a  GroupedEff = []\u000a  MeanCt = []\u000a  Imp = []\u000a  s.deleteColumn('Ct')\u000a  s.deleteColumn('RunType')\u000a  s.deleteColumn('BRpl')\u000a  s.deleteColumn('TRpl')\u000a  s.deleteColumn('Treatment')\u000a  s.deleteColumn('Eff')\u000aif run:\u000a  importExcelToTable(s, xlsx_path, worksheet=worksheet,\u000a      column_position='ParmValues',\u000a      names=['Treatment', 'RunType', 'BRpl', 'TRpl', 'Eff', 'Ct'])\u000a#s.setColumnVisibility(['BRpl', 'Ct', 'Eff', 'RunType', 'TRpl', 'Treatment'], is_visible=show_raw)\u000a#s.setColumnVisibility(['ParmNames', 'ParmValues'], show_params)
p474
sg388
VSingleGene
p475
sg390
I00
sg391
I00
sg392
V# Prologue\u000aimport math as mt\u000aimport numpy as np\u000afrom os import listdir\u000afrom os.path import isfile, join\u000aimport pandas as pd\u000aimport scipy as sp\u000afrom numpy import nan  # Must follow sympy import \u000a\u000axlsx_path =   '/mnt/hgfs/josephhellerstein/home/Technical/SciSheets/CaseStudies/Kristen/workbooks/data.xlsx'\u000agene = ParmValues[0]\u000arun = ParmValues[1] == 'True'\u000ashow_raw = ParmValues[2] == 'True'\u000ashow_block1 = ParmValues[3] == 'True'\u000ashow_block2 = ParmValues[4] == 'True'\u000ashow_block3 = ParmValues[5] == 'True'\u000ashow_params = ParmValues[8] == 'True'\u000a#show_params = True\u000amax_std  = float(ParmValues[6])\u000amin_eff = float(ParmValues[7])\u000aworksheet = gene + "-I"\u000as.getTable().setIsEvaluateFormulas(run)\u000as.setColumnVisibility()\u000as.setColumnVisibility(['Groups', 'GroupedEff', 'GroupedCt', 'StdFilteredGroupedCt', 'MeanCt',\u000a    'StdCt'], is_visible=show_block1)\u000as.setColumnVisibility(['BioRuns', 'Gene_I', 'Gene_R1', 'Gene_R2', 'ExprR1', 'ExprR2', \u000a    'GeoMean'], is_visible=show_block2)\u000as.setColumnVisibility(['GeoGroups', 'GroupedGeoMeans', 'NrmlGeoGroupedMeans', \u000a    'MeanNrmlGeoGroups', 'StdNrmlGeoGroups'], is_visible=show_block3)\u000aif run:\u000a  Groups = []\u000a  GroupedCt = []\u000a  GroupedEff = []\u000a  MeanCt = []\u000a  Imp = []\u000a  s.deleteColumn('Ct')\u000a  s.deleteColumn('RunType')\u000a  s.deleteColumn('BRpl')\u000a  s.deleteColumn('TRpl')\u000a  s.deleteColumn('Treatment')\u000a  s.deleteColumn('Eff')\u000aif run:\u000a  importExcelToTable(s, xlsx_path, worksheet=worksheet,\u000a      column_position='ParmValues',\u000a      names=['Treatment', 'RunType', 'BRpl', 'TRpl', 'Eff', 'Ct'])\u000a#s.setColumnVisibility(['BRpl', 'Ct', 'Eff', 'RunType', 'TRpl', 'Treatment'], is_visible=show_raw)\u000a#s.setColumnVisibility(['ParmNames', 'ParmValues'], show_params)
p476
sbsS'_epilogue'
p477
g0
(g382
g2
Ntp478
Rp479
(dp480
g386
V# Epilogue\u000aif run:\u000a  worksheet = "%s-O" % gene\u000a  exportTableToExcel(s, xlsx_path, worksheet=worksheet, columns=['GeoGroups',  \u000a      'MeanNrmlGeoGroups', 'StdNrmlGeoGroups'])\u000a
p481
sg388
g475
sg390
I00
sg391
I00
sg392
V# Epilogue\u000aif run:\u000a  worksheet = "%s-O" % gene\u000a  exportTableToExcel(s, xlsx_path, worksheet=worksheet, columns=['GeoGroups',  \u000a      'MeanNrmlGeoGroups', 'StdNrmlGeoGroups'])\u000a
p482
sbsg388
g475
sS'_columns'
p483
(lp484
g0
(g324
g2
Ntp485
Rp486
(dp487
g328
I01
sg329
g4
sg330
(lp488
S'1'
p489
aS'2'
p490
aS'3'
p491
aS'4'
p492
aS'5'
p493
aS'6'
p494
aS'7'
p495
aS'8'
p496
aS'9'
p497
aS'10'
p498
aS'11'
p499
aS'12'
p500
aS'13'
p501
aS'14'
p502
aS'15'
p503
aS'16'
p504
aS'17'
p505
aS'18'
p506
aS'19'
p507
aS'20'
p508
aS'21'
p509
aS'22'
p510
aS'23'
p511
aS'24'
p512
aS'25'
p513
aS'26'
p514
aS'27'
p515
aS'28'
p516
aS'29'
p517
aS'30'
p518
aS'31'
p519
aS'32'
p520
aS'33'
p521
aS'34'
p522
aS'35'
p523
aS'36'
p524
aS'37'
p525
aS'38'
p526
aS'39'
p527
aS'40'
p528
aS'41'
p529
aS'42'
p530
aS'43'
p531
aS'44'
p532
aS'45'
p533
aS'46'
p534
aS'47'
p535
aS'48'
p536
aS'49'
p537
aS'50'
p538
aS'51'
p539
aS'52'
p540
aS'53'
p541
aS'54'
p542
aS'55'
p543
aS'56'
p544
aS'57'
p545
aS'58'
p546
aS'59'
p547
aS'60'
p548
aS'61'
p549
aS'62'
p550
aS'63'
p551
aS'64'
p552
asg381
g0
(g382
g2
Ntp553
Rp554
(dp555
g386
Nsg409
g486
sg390
I00
sg391
I00
sg392
Nsbsg394
g0
(g395
g396
(g397
g398
tp556
tp557
Rp558
sg388
S'row'
p559
sbag0
(g324
g2
Ntp560
Rp561
(dp562
g328
I00
sg329
g4
sg330
(lp563
Vgene
p564
aVrun
p565
aVshow_raw
p566
aVshow_block1
p567
aVshow_block2
p568
aVshow_block3
p569
aVmax_std
p570
aVmin_eff
p571
aVshow_params
p572
aVnan
p573
aVnan
p574
aVnan
p575
aVnan
p576
aVnan
p577
aVnan
p578
aVnan
p579
aVnan
p580
aVnan
p581
aVnan
p582
aVnan
p583
aVnan
p584
aVnan
p585
aVnan
p586
aVnan
p587
aVnan
p588
aVnan
p589
aVnan
p590
aVnan
p591
aVnan
p592
aVnan
p593
aVnan
p594
aVnan
p595
aVnan
p596
aVnan
p597
aVnan
p598
aVnan
p599
aVnan
p600
aVnan
p601
aVnan
p602
aVnan
p603
aVnan
p604
aVnan
p605
aVnan
p606
aVnan
p607
aVnan
p608
aVnan
p609
aVnan
p610
aVnan
p611
aVnan
p612
aVnan
p613
aVnan
p614
aVnan
p615
aVnan
p616
aVnan
p617
aNaNaNaNaNaNaNaNaNaNasg381
g0
(g382
g2
Ntp618
Rp619
(dp620
g386
Nsg409
g561
sg390
I00
sg391
I00
sg392
Nsbsg394
g0
(g395
g396
(g397
g398
tp621
tp622
Rp623
sg388
VParmNames
p624
sbag0
(g324
g2
Ntp625
Rp626
(dp627
g328
I00
sg329
g4
sg330
(lp628
VGene2
p629
aVFalse
p630
aVTrue
p631
aVTrue
p632
aVFalse
p633
aVTrue
p634
aF0.5
aV0.7
p635
aVTrue
p636
aV
p637
aVnan
p638
aVnan
p639
aVnan
p640
aVnan
p641
aVnan
p642
aVnan
p643
aVnan
p644
aVnan
p645
aVnan
p646
aVnan
p647
aVnan
p648
aVnan
p649
aVnan
p650
aVnan
p651
aVnan
p652
aVnan
p653
aVnan
p654
aVnan
p655
aVnan
p656
aVnan
p657
aVnan
p658
aVnan
p659
aVnan
p660
aVnan
p661
aVnan
p662
aVnan
p663
aVnan
p664
aVnan
p665
aVnan
p666
aVnan
p667
aVnan
p668
aVnan
p669
aVnan
p670
aVnan
p671
aVnan
p672
aVnan
p673
aVnan
p674
aVnan
p675
aVnan
p676
aVnan
p677
aVnan
p678
aVnan
p679
aVnan
p680
aVnan
p681
aNaNaNaNaNaNaNaNaNaNasg381
g0
(g382
g2
Ntp682
Rp683
(dp684
g386
Nsg388
VParmValues
p685
sg390
I00
sg391
I00
sg392
Nsbsg394
g0
(g395
g396
(g397
g398
tp686
tp687
Rp688
sg388
g685
sbag0
(g324
g2
Ntp689
Rp690
(dp691
g328
I00
sg329
g4
sg330
(lp692
(lp693
g333
(g337
S'\x00\x00\x00\x00\x00\x00\x00\x00'
p694
tp695
Rp696
aVI
p697
ag333
(g337
S'\x00\x00\x00\x00\x00\x00\xf0?'
p698
tp699
Rp700
aa(lp701
g333
(g337
S'\x00\x00\x00\x00\x00\x00\x00\x00'
p702
tp703
Rp704
aVR1
p705
ag333
(g337
S'\x00\x00\x00\x00\x00\x00\xf0?'
p706
tp707
Rp708
aa(lp709
g333
(g337
S'\x00\x00\x00\x00\x00\x00\x00\x00'
p710
tp711
Rp712
aVR2
p713
ag333
(g337
S'\x00\x00\x00\x00\x00\x00\xf0?'
p714
tp715
Rp716
aa(lp717
g333
(g337
S'\x00\x00\x00\x00\x00\x00\xf0?'
p718
tp719
Rp720
ag697
ag333
(g337
S'\x00\x00\x00\x00\x00\x00\xf0?'
p721
tp722
Rp723
aa(lp724
g333
(g337
S'\x00\x00\x00\x00\x00\x00\xf0?'
p725
tp726
Rp727
ag697
ag333
(g337
S'\x00\x00\x00\x00\x00\x00\x00@'
p728
tp729
Rp730
aa(lp731
g333
(g337
S'\x00\x00\x00\x00\x00\x00\xf0?'
p732
tp733
Rp734
ag697
ag333
(g337
S'\x00\x00\x00\x00\x00\x00\x08@'
p735
tp736
Rp737
aa(lp738
g333
(g337
S'\x00\x00\x00\x00\x00\x00\xf0?'
p739
tp740
Rp741
ag705
ag333
(g337
S'\x00\x00\x00\x00\x00\x00\xf0?'
p742
tp743
Rp744
aa(lp745
g333
(g337
S'\x00\x00\x00\x00\x00\x00\xf0?'
p746
tp747
Rp748
ag705
ag333
(g337
S'\x00\x00\x00\x00\x00\x00\x00@'
p749
tp750
Rp751
aa(lp752
g333
(g337
S'\x00\x00\x00\x00\x00\x00\xf0?'
p753
tp754
Rp755
ag705
ag333
(g337
S'\x00\x00\x00\x00\x00\x00\x08@'
p756
tp757
Rp758
aa(lp759
g333
(g337
S'\x00\x00\x00\x00\x00\x00\xf0?'
p760
tp761
Rp762
ag713
ag333
(g337
S'\x00\x00\x00\x00\x00\x00\xf0?'
p763
tp764
Rp765
aa(lp766
g333
(g337
S'\x00\x00\x00\x00\x00\x00\xf0?'
p767
tp768
Rp769
ag713
ag333
(g337
S'\x00\x00\x00\x00\x00\x00\x00@'
p770
tp771
Rp772
aa(lp773
g333
(g337
S'\x00\x00\x00\x00\x00\x00\xf0?'
p774
tp775
Rp776
ag713
ag333
(g337
S'\x00\x00\x00\x00\x00\x00\x08@'
p777
tp778
Rp779
aa(lp780
g333
(g337
S'\x00\x00\x00\x00\x00\x00\x00@'
p781
tp782
Rp783
ag697
ag333
(g337
S'\x00\x00\x00\x00\x00\x00\xf0?'
p784
tp785
Rp786
aa(lp787
g333
(g337
S'\x00\x00\x00\x00\x00\x00\x00@'
p788
tp789
Rp790
ag705
ag333
(g337
S'\x00\x00\x00\x00\x00\x00\xf0?'
p791
tp792
Rp793
aa(lp794
g333
(g337
S'\x00\x00\x00\x00\x00\x00\x00@'
p795
tp796
Rp797
ag713
ag333
(g337
S'\x00\x00\x00\x00\x00\x00\xf0?'
p798
tp799
Rp800
aa(lp801
g333
(g337
S'\x00\x00\x00\x00\x00\x00\x08@'
p802
tp803
Rp804
ag697
ag333
(g337
S'\x00\x00\x00\x00\x00\x00\xf0?'
p805
tp806
Rp807
aa(lp808
g333
(g337
S'\x00\x00\x00\x00\x00\x00\x08@'
p809
tp810
Rp811
ag705
ag333
(g337
S'\x00\x00\x00\x00\x00\x00\xf0?'
p812
tp813
Rp814
aa(lp815
g333
(g337
S'\x00\x00\x00\x00\x00\x00\x08@'
p816
tp817
Rp818
ag713
ag333
(g337
S'\x00\x00\x00\x00\x00\x00\xf0?'
p819
tp820
Rp821
aaNaNaNaNaNaNaNaNaNaNaNaNaNaNaNaNaNaNaNaNaNaNaNaNaNaNaNaNaNaNaNaNaNaNaNaNaNaNaNaNaNaNaNaNaNaNasg381
g0
(g382
g2
Ntp822
Rp823
(dp824
g386
Vsel = Eff > min_eff\u000agrouping_columns = [\u000a    Treatment[sel],\u000a     RunType[sel], \u000a    BRpl[sel],      \u000a  ]\u000aGroups, groupedCt = groupBy(\u000a     grouping_columns, Ct[sel])\u000aGroups, groupedEff = groupBy(\u000a     grouping_columns, Eff[sel])\u000aGroups = [[g[0], g[1], g[2]] for g in Groups]\u000aGroupedCt = roundValues(groupedCt,2)\u000aGroupedEff = roundValues(groupedEff,2)
p825
sg388
VGroups
p826
sg390
I00
sg391
I00
sg392
Vsel = Eff > min_eff\u000agrouping_columns = [\u000a    Treatment[sel],\u000a     RunType[sel], \u000a    BRpl[sel],      \u000a  ]\u000aGroups, groupedCt = groupBy(\u000a     grouping_columns, Ct[sel])\u000aGroups, groupedEff = groupBy(\u000a     grouping_columns, Eff[sel])\u000aGroups = [[g[0], g[1], g[2]] for g in Groups]\u000aGroupedCt = roundValues(groupedCt,2)\u000aGroupedEff = roundValues(groupedEff,2)
p827
sbsg394
g0
(g395
g396
(g397
g398
tp828
tp829
Rp830
sg388
g826
sbag0
(g324
g2
Ntp831
Rp832
(dp833
g328
I00
sg329
g4
sg330
(lp834
(lp835
F0.92
aF0.91
aF0.91
aa(lp836
F0.83
aF0.83
aF0.85
aa(lp837
F0.82
aF0.85
aF0.82
aa(lp838
F0.85
aF0.84
aF0.85
aa(lp839
F0.87
aF0.78
aF0.85
aa(lp840
F0.84
aF0.84
aF0.77
aa(lp841
F0.92
aF0.98
aF0.9
aa(lp842
F0.9
aF0.83
aF0.84
aa(lp843
F0.87
aF0.85
aF0.83
aa(lp844
F0.79
aF0.84
aF0.86
aa(lp845
F0.83
aF0.82
aF0.83
aa(lp846
F0.81
aF0.82
aF0.8
aa(lp847
F0.84
aF0.79
aF0.81
aa(lp848
F0.77
aF0.87
aF0.81
aa(lp849
F0.78
aF0.77
aF0.79
aa(lp850
F0.88
aF0.86
aF0.89
aa(lp851
F0.87
aF0.9
aF0.86
aa(lp852
F0.82
aF0.82
aF0.79
aaNaNaNaNaNaNaNaNaNaNaNaNaNaNaNaNaNaNaNaNaNaNaNaNaNaNaNaNaNaNaNaNaNaNaNaNaNaNaNaNaNaNaNaNaNaNasg381
g0
(g382
g2
Ntp853
Rp854
(dp855
g386
Nsg409
g832
sg390
I00
sg391
I00
sg392
Nsbsg394
g0
(g395
g396
(g397
g398
tp856
tp857
Rp858
sg388
VGroupedEff
p859
sbag0
(g324
g2
Ntp860
Rp861
(dp862
g328
I00
sg329
g4
sg330
(lp863
(lp864
F18.31
aF18.29
aF18.15
aa(lp865
F18.24
aF18.22
aF18.36
aa(lp866
F19.72
aF19.75
aF20.01
aa(lp867
F22.42
aF22.5
aF22.44
aa(lp868
F21.92
aF22.03
aF21.94
aa(lp869
F23.4
aF23.47
aF23.41
aa(lp870
F19.92
aF19.85
aF20.0
aa(lp871
F21.86
aF22.09
aF21.84
aa(lp872
F23.89
aF23.54
aF24.27
aa(lp873
F22.18
aF21.71
aF21.75
aa(lp874
F23.88
aF23.42
aF23.63
aa(lp875
F24.59
aF24.61
aF24.34
aa(lp876
F23.48
aF23.31
aF23.45
aa(lp877
F23.22
aF23.8
aF23.49
aa(lp878
F26.37
aF26.36
aF26.17
aa(lp879
F18.82
aF18.97
aF18.92
aa(lp880
F18.91
aF18.78
aF18.8
aa(lp881
F20.5
aF20.47
aF20.28
aaNaNaNaNaNaNaNaNaNaNaNaNaNaNaNaNaNaNaNaNaNaNaNaNaNaNaNaNaNaNaNaNaNaNaNaNaNaNaNaNaNaNaNaNaNaNasg381
g0
(g382
g2
Ntp882
Rp883
(dp884
g386
Nsg409
g861
sg390
I00
sg391
I00
sg392
Nsbsg394
g0
(g395
g396
(g397
g398
tp885
tp886
Rp887
sg388
VGroupedCt
p888
sbag0
(g324
g2
Ntp889
Rp890
(dp891
g328
I00
sg329
g4
sg330
(lp892
(lp893
F18.3
aF18.3
aF18.1
aa(lp894
F18.2
aF18.2
aF18.4
aa(lp895
F19.7
aF19.8
aF20.0
aa(lp896
F22.4
aF22.5
aF22.4
aa(lp897
F21.9
aF22.0
aF21.9
aa(lp898
F23.4
aF23.5
aF23.4
aa(lp899
F19.9
aF19.9
aF20.0
aa(lp900
F21.9
aF22.1
aF21.8
aa(lp901
F23.9
aF23.5
aF24.3
aa(lp902
F22.2
aF21.7
aF21.8
aa(lp903
F23.9
aF23.4
aF23.6
aa(lp904
F24.6
aF24.6
aF24.3
aa(lp905
F23.5
aF23.3
aF23.4
aa(lp906
F23.2
aF23.8
aF23.5
aa(lp907
F26.4
aF26.4
aF26.2
aa(lp908
F18.8
aF19.0
aF18.9
aa(lp909
F18.9
aF18.8
aF18.8
aa(lp910
F20.5
aF20.5
aF20.3
aaNaNaNaNaNaNaNaNaNaNaNaNaNaNaNaNaNaNaNaNaNaNaNaNaNaNaNaNaNaNaNaNaNaNaNaNaNaNaNaNaNaNaNaNaNaNasg381
g0
(g382
g2
Ntp911
Rp912
(dp913
g386
Vlength = len(Groups)\u000aStdFilteredGroupedCt = roundValues([filterExtremes(g, max_std, 2) for g in pruneNulls(GroupedCt,    required_length=length)])\u000a 
p914
sg388
VStdFilteredGroupedCt
p915
sg390
I00
sg391
I00
sg392
Vlength = len(Groups)\u000aStdFilteredGroupedCt = roundValues([filterExtremes(g, max_std, 2) for g in pruneNulls(GroupedCt,    required_length=length)])\u000a 
p916
sbsg394
g0
(g395
g396
(g397
g398
tp917
tp918
Rp919
sg388
g915
sbag0
(g324
g2
Ntp920
Rp921
(dp922
g328
I00
sg329
g4
sg330
(lp923
F18.2
aF18.3
aF19.8
aF22.4
aF21.9
aF23.4
aF19.9
aF21.9
aF23.9
aF21.9
aF23.6
aF24.5
aF23.4
aF23.5
aF26.3
aF18.9
aF18.8
aF20.4
aFnan
aFnan
aFnan
aFnan
aFnan
aFnan
aFnan
aFnan
aFnan
aFnan
aFnan
aFnan
aFnan
aFnan
aFnan
aFnan
aFnan
aFnan
aFnan
aFnan
aFnan
aFnan
aFnan
aFnan
aFnan
aFnan
aFnan
aFnan
aFnan
aFnan
aFnan
aFnan
aFnan
aFnan
aFnan
aFnan
aFnan
aFnan
aFnan
aFnan
aFnan
aFnan
aFnan
aFnan
aFnan
aFnan
asg381
g0
(g382
g2
Ntp924
Rp925
(dp926
g386
VMeanCt = [np.mean(g) for g in StdFilteredGroupedCt]\u000aMeanCt = roundValues(MeanCt,1)\u000aStdCt = [np.std(g, ddof=1) for g in StdFilteredGroupedCt]\u000aStdCt = roundValues(StdCt,3)
p927
sg388
VMeanCt
p928
sg390
I00
sg391
I00
sg392
VMeanCt = [np.mean(g) for g in StdFilteredGroupedCt]\u000aMeanCt = roundValues(MeanCt,1)\u000aStdCt = [np.std(g, ddof=1) for g in StdFilteredGroupedCt]\u000aStdCt = roundValues(StdCt,3)
p929
sbsg394
g0
(g395
g396
(g397
g398
tp930
tp931
Rp932
sg388
g928
sbag0
(g324
g2
Ntp933
Rp934
(dp935
g328
I00
sg329
g4
sg330
(lp936
F0.115
aF0.115
aF0.153
aF0.058
aF0.058
aF0.058
aF0.058
aF0.153
aF0.4
aF0.265
aF0.252
aF0.173
aF0.1
aF0.3
aF0.115
aF0.1
aF0.058
aF0.115
aFnan
aFnan
aFnan
aFnan
aFnan
aFnan
aFnan
aFnan
aFnan
aFnan
aFnan
aFnan
aFnan
aFnan
aFnan
aFnan
aFnan
aFnan
aFnan
aFnan
aFnan
aFnan
aFnan
aFnan
aFnan
aFnan
aFnan
aFnan
aFnan
aFnan
aFnan
aFnan
aFnan
aFnan
aFnan
aFnan
aFnan
aFnan
aFnan
aFnan
aFnan
aFnan
aFnan
aFnan
aFnan
aFnan
asg381
g0
(g382
g2
Ntp937
Rp938
(dp939
g386
Nsg409
g934
sg390
I00
sg391
I00
sg392
Nsbsg394
g0
(g395
g396
(g397
g398
tp940
tp941
Rp942
sg388
VStdCt
p943
sbag326
ag403
ag415
ag423
ag431
ag444
ag457
ag0
(g324
g2
Ntp944
Rp945
(dp946
g328
I00
sg329
g4
sg330
(lp947
(lp948
g333
(g337
S'\x00\x00\x00\x00\x00\x00\x00\x00'
p949
tp950
Rp951
aa(lp952
g333
(g337
S'\x00\x00\x00\x00\x00\x00\xf0?'
p953
tp954
Rp955
aa(lp956
g333
(g337
S'\x00\x00\x00\x00\x00\x00\x00@'
p957
tp958
Rp959
aa(lp960
g333
(g337
S'\x00\x00\x00\x00\x00\x00\x08@'
p961
tp962
Rp963
aaNaNaNaNaNaNaNaNaNaNaNaNaNaNaNaNaNaNaNaNaNaNaNaNaNaNaNaNaNaNaNaNaNaNaNaNaNaNaNaNaNaNaNaNaNaNaNaNaNaNaNaNaNaNaNaNaNaNaNaNasg381
g0
(g382
g2
Ntp964
Rp965
(dp966
g386
Vcat_vals = [br[0] for br in pruneNulls(BioRuns)]\u000aclean_geo = [x for x in GeoMean if x is not None]\u000aGeoGroups, groupedGeoMeans = groupBy(cat_vals, clean_geo)\u000aGroupedGeoMeans = roundValues(groupedGeoMeans, 3)\u000aGeoGroups = [[x] for x in GeoGroups]
p967
sg388
VGeoGroups
p968
sg390
I00
sg391
I00
sg392
Vcat_vals = [br[0] for br in pruneNulls(BioRuns)]\u000aclean_geo = [x for x in GeoMean if x is not None]\u000aGeoGroups, groupedGeoMeans = groupBy(cat_vals, clean_geo)\u000aGroupedGeoMeans = roundValues(groupedGeoMeans, 3)\u000aGeoGroups = [[x] for x in GeoGroups]
p969
sbsg394
g0
(g395
g396
(g397
g398
tp970
tp971
Rp972
sg388
g968
sbag0
(g324
g2
Ntp973
Rp974
(dp975
g328
I00
sg329
g4
sg330
(lp976
cnumpy.core.multiarray
_reconstruct
p977
(g397
(I0
tp978
S'b'
p979
tp980
Rp981
(I1
(I1
tp982
g334
(S'f8'
p983
I0
I1
tp984
Rp985
(I3
S'<'
p986
NNNI-1
I-1
I0
tp987
bI00
S'\xa2E\xb6\xf3\xfd\xd4\xfc?'
p988
tp989
bag977
(g397
(I0
tp990
g979
tp991
Rp992
(I1
(I3
tp993
g985
I00
S'\x0e-\xb2\x9d\xef\xa7\xd6?\x0c\x02+\x87\x16\xd9\xfc?B`\xe5\xd0"\xdb\xfb?'
p994
tp995
bag977
(g397
(I0
tp996
g979
tp997
Rp998
(I1
(I1
tp999
g985
I00
S'9\xb4\xc8v\xbe\x9f\x06@'
p1000
tp1001
bag977
(g397
(I0
tp1002
g979
tp1003
Rp1004
(I1
(I1
tp1005
g985
I00
S'\x00\x00\x00\x00\x00\x00\xfa?'
p1006
tp1007
baNaNaNaNaNaNaNaNaNaNaNaNaNaNaNaNaNaNaNaNaNaNaNaNaNaNaNaNaNaNaNaNaNaNaNaNaNaNaNaNaNaNaNaNaNaNaNaNaNaNaNaNaNaNaNaNaNaNaNaNasg381
g0
(g382
g2
Ntp1008
Rp1009
(dp1010
g386
Nsg409
g974
sg390
I00
sg391
I00
sg392
Nsbsg394
g0
(g395
g396
(g397
g398
tp1011
tp1012
Rp1013
sg388
VGroupedGeoMeans
p1014
sbag0
(g324
g2
Ntp1015
Rp1016
(dp1017
g328
I00
sg329
g4
sg330
(lp1018
g977
(g397
(I0
tp1019
g979
tp1020
Rp1021
(I1
(I1
tp1022
g985
I00
S'\x00\x00\x00\x00\x00\x00\xf0?'
p1023
tp1024
bag977
(g397
(I0
tp1025
g979
tp1026
Rp1027
(I1
(I3
tp1028
g985
I00
S'J\x0c\x02+\x87\x16\xc9?j\xbct\x93\x18\x04\xf0?\xb6\xf3\xfd\xd4x\xe9\xee?'
p1029
tp1030
bag977
(g397
(I0
tp1031
g979
tp1032
Rp1033
(I1
(I1
tp1034
g985
I00
S'\xb4\xc8v\xbe\x9f\x1a\xf9?'
p1035
tp1036
bag977
(g397
(I0
tp1037
g979
tp1038
Rp1039
(I1
(I1
tp1040
g985
I00
S'w\xbe\x9f\x1a/\xdd\xec?'
p1041
tp1042
baNaNaNaNaNaNaNaNaNaNaNaNaNaNaNaNaNaNaNaNaNaNaNaNaNaNaNaNaNaNaNaNaNaNaNaNaNaNaNaNaNaNaNaNaNaNaNaNaNaNaNaNaNaNaNaNaNaNaNaNasg381
g0
(g382
g2
Ntp1043
Rp1044
(dp1045
g386
Vref = np.mean(GroupedGeoMeans[0])\u000aNrmlGeoGroupedMeans = [ [x/ref for x in g] for g in GroupedGeoMeans if g is not None]  \u000aNrmlGeoGroupedMeans = roundValues(NrmlGeoGroupedMeans, 3)
p1046
sg388
VNrmlGeoGroupedMeans
p1047
sg390
I00
sg391
I00
sg392
Vref = np.mean(GroupedGeoMeans[0])\u000aNrmlGeoGroupedMeans = [ [x/ref for x in g] for g in GroupedGeoMeans if g is not None]  \u000aNrmlGeoGroupedMeans = roundValues(NrmlGeoGroupedMeans, 3)
p1048
sbsg394
g0
(g395
g396
(g397
g398
tp1049
tp1050
Rp1051
sg388
g1047
sbag0
(g324
g2
Ntp1052
Rp1053
(dp1054
g328
I00
sg329
g4
sg330
(lp1055
F1.0
aF0.721
aF1.569
aF0.902
aFnan
aFnan
aFnan
aFnan
aFnan
aFnan
aFnan
aFnan
aFnan
aFnan
aFnan
aFnan
aFnan
aFnan
aFnan
aFnan
aFnan
aFnan
aFnan
aFnan
aFnan
aFnan
aFnan
aFnan
aFnan
aFnan
aFnan
aFnan
aFnan
aFnan
aFnan
aFnan
aFnan
aFnan
aFnan
aFnan
aFnan
aFnan
aFnan
aFnan
aFnan
aFnan
aFnan
aFnan
aFnan
aFnan
aFnan
aFnan
aFnan
aFnan
aFnan
aFnan
aFnan
aFnan
aFnan
aFnan
aFnan
aFnan
aFnan
aFnan
asg381
g0
(g382
g2
Ntp1056
Rp1057
(dp1058
g386
VMeanNrmlGeoGroups = [round(np.mean(g), 3) for g in NrmlGeoGroupedMeans]
p1059
sg388
VMeanNrmlGeoGroups
p1060
sg390
I01
sg391
I00
sg392
V[round(np.mean(g), 3) for g in NrmlGeoGroupedMeans]
p1061
sbsg394
g0
(g395
g396
(g397
g398
tp1062
tp1063
Rp1064
sg388
g1060
sbag0
(g324
g2
Ntp1065
Rp1066
(dp1067
g328
I00
sg329
g4
sg330
(lp1068
Fnan
aF0.263
aFnan
aFnan
aFnan
aFnan
aFnan
aFnan
aFnan
aFnan
aFnan
aFnan
aFnan
aFnan
aFnan
aFnan
aFnan
aFnan
aFnan
aFnan
aFnan
aFnan
aFnan
aFnan
aFnan
aFnan
aFnan
aFnan
aFnan
aFnan
aFnan
aFnan
aFnan
aFnan
aFnan
aFnan
aFnan
aFnan
aFnan
aFnan
aFnan
aFnan
aFnan
aFnan
aFnan
aFnan
aFnan
aFnan
aFnan
aFnan
aFnan
aFnan
aFnan
aFnan
aFnan
aFnan
aFnan
aFnan
aFnan
aFnan
aFnan
aFnan
aFnan
aFnan
asg381
g0
(g382
g2
Ntp1069
Rp1070
(dp1071
g386
VStdNrmlGeoGroups = [round(np.std(g, ddof=1)/np.sqrt(len(g)), 3) for g in NrmlGeoGroupedMeans]\u000a
p1072
sg388
VStdNrmlGeoGroups
p1073
sg390
I01
sg391
I00
sg392
V[round(np.std(g, ddof=1)/np.sqrt(len(g)), 3) for g in NrmlGeoGroupedMeans]\u000a
p1074
sbsg394
g0
(g395
g396
(g397
g398
tp1075
tp1076
Rp1077
sg388
g1073
sbasg317
V/home/ubuntu/SciSheets/mysite/user/guest/tables/kristen_single_gene.pcl
p1078
sb.