ccopy_reg
_reconstructor
p0
(cscisheets.ui.dt_table
DTTable
p1
c__builtin__
object
p2
Ntp3
Rp4
(dp5
S'_versioned_file'
p6
g0
(cmysite.helpers.versioned_file
VersionedFile
p7
g2
Ntp8
Rp9
(dp10
S'_max_versions'
p11
I5
sS'_undo_stack'
p12
g0
(cmysite.helpers.file_stack
FileStack
p13
g2
Ntp14
Rp15
(dp16
S'_dirpath'
p17
S'/home/ubuntu/SciSheets/mysite/user/guest/tables/backup'
p18
sS'_max_depth'
p19
I5
sS'_filename_pfx'
p20
Vkristen_single_gene.u
p21
sbsS'_filepath'
p22
V/home/ubuntu/SciSheets/mysite/user/guest/tables/kristen_single_gene.pcl
p23
sS'_backup_dir'
p24
g18
sS'_redo_stack'
p25
g0
(g13
g2
Ntp26
Rp27
(dp28
g17
g18
sg19
I5
sg20
Vkristen_single_gene.r
p29
sbsbsS'_hidden_columns'
p30
(lp31
g0
(cscisheets.core.column
Column
p32
g2
Ntp33
Rp34
(dp35
S'_asis'
p36
I00
sS'_owning_table'
p37
g4
sS'_cells'
p38
(lp39
VSEP1 2012 P17F4 a
p40
aVSEP1 2012 P17F4 b
p41
aVSEP1 2012 P17F4 c
p42
aVSEP1 2012 P17F5 a
p43
aVSEP1 2012 P17F5 b
p44
aVSEP1 2012 P17F5 c
p45
aVSEP1 2012 P1F3 SEP1a
p46
aVSEP1 2012 P1F3 SEP1b
p47
aVSEP1 2012 P1F3 SEP1c
p48
aVSEP1-2 2012 P11aF2 a
p49
aVSEP1-2 2012 P11aF2 b
p50
aVSEP1-2 2012 P11aF2 c
p51
aVSEP1-3 2012 P15F2 a
p52
aVSEP1-3 2012 P15F2 b
p53
aVSEP1-3 2012 P15F2 c
p54
aVuntreated 2012 P12F1 SEP1 1:2a
p55
aVuntreated 2012 P12F1 SEP1 1:2b
p56
aVuntreated 2012 P12F1 SEP1 1:2c
p57
aVSEP1 2012 P17F4 ACTa
p58
aVSEP1 2012 P17F4 ACTb
p59
aVSEP1 2012 P17F4 ACTc
p60
aVSEP1 2012 P17F5 ACTa
p61
aVSEP1 2012 P17F5 ACTb
p62
aVSEP1 2012 P17F5 ACTc
p63
aVSEP1 2012 P1F3 ACTa
p64
aVSEP1 2012 P1F3 ACTb
p65
aVSEP1 2012 P1F3 ACTc
p66
aVSEP1-2 2012 P11aF2 ACTa
p67
aVSEP1-2 2012 P11aF2 ACTb
p68
aVSEP1-2 2012 P11aF2 ACTc
p69
aVSEP1-3 2012 P15F2 ACTa
p70
aVSEP1-3 2012 P15F2 ACTb
p71
aVSEP1-3 2012 P15F2 ACTc
p72
aVuntreated 2012 P12F1 ACTa
p73
aVuntreated 2012 P12F1 ACTb
p74
aVuntreated 2012 P12F1 ACTc
p75
aVSEP1 2012 P17F4 EEF1a
p76
aVSEP1 2012 P17F4 EEF1b
p77
aVSEP1 2012 P17F4 EEF1c
p78
aVSEP1 2012 P17F5 EEF1a
p79
aVSEP1 2012 P17F5 EEF1b
p80
aVSEP1 2012 P17F5 EEF1c
p81
aVSEP1 2012 P1F3 EEF1a
p82
aVSEP1 2012 P1F3 EEF1b
p83
aVSEP1 2012 P1F3 EEF1c
p84
aVSEP1-2 2012 P11aF2 EEF1a
p85
aVSEP1-2 2012 P11aF2 EEF1b
p86
aVSEP1-2 2012 P11aF2 EEF1c
p87
aVSEP1-3 2012 P15F2 EEF1a
p88
aVSEP1-3 2012 P15F2 EEF1b
p89
aVSEP1-3 2012 P15F2 EEF1c
p90
aVuntreated 2012 P12F1 EEF1a
p91
aVuntreated 2012 P12F1 EEF1b
p92
aVuntreated 2012 P12F1 EEF1c
p93
asS'_formula_statement'
p94
g0
(cscisheets.core.column
FormulaStatement
p95
g2
Ntp96
Rp97
(dp98
S'_statement'
p99
NsS'_column'
p100
g34
sS'_isExpression'
p101
I00
sS'_isStatement'
p102
I00
sS'_formula'
p103
NsbsS'_data_class'
p104
g0
(cscisheets.core.helpers.api_util
DataClass
p105
c__builtin__
tuple
p106
(cnumpy
ndarray
p107
cscisheets.core.helpers.api_util
makeArray
p108
tp109
tp110
Rp111
sS'_name'
p112
S'SmplName'
p113
sbag0
(g32
g2
Ntp114
Rp115
(dp116
g36
I00
sg37
g4
sg38
(lp117
I1
aI1
aI1
aI2
aI2
aI2
aI3
aI3
aI3
aI1
aI1
aI1
aI1
aI1
aI1
aI1
aI1
aI1
aI1
aI1
aI1
aI2
aI2
aI2
aI3
aI3
aI3
aI1
aI1
aI1
aI1
aI1
aI1
aI1
aI1
aI1
aI1
aI1
aI1
aI2
aI2
aI2
aI3
aI3
aI3
aI1
aI1
aI1
aI1
aI1
aI1
aI1
aI1
aI1
asg94
g0
(g95
g2
Ntp118
Rp119
(dp120
g99
Nsg100
g115
sg101
I00
sg102
I00
sg103
Nsbsg104
g111
sg112
S'BRpl'
p121
sbag0
(g32
g2
Ntp122
Rp123
(dp124
g36
I00
sg37
g4
sg38
(lp125
F26.68
aF27.13
aF27.21
aF26.76
aF26.71
aF26.19
aF29.98
aF30.12
aF29.41
aF29.95
aF30.45
aF29.88
aF24.8
aF24.97
aF24.63
aF23.0
aF22.86
aF22.8
aF19.92
aF19.85
aF20.0
aF21.86
aF22.09
aF21.84
aF23.89
aF23.54
aF24.27
aF23.22
aF23.8
aF23.49
aF18.91
aF18.78
aF18.8
aF18.24
aF18.22
aF18.36
aF22.18
aF21.71
aF21.75
aF23.88
aF23.42
aF23.63
aF24.59
aF24.61
aF24.34
aF26.37
aF26.36
aF26.17
aF20.5
aF20.47
aF20.28
aF19.72
aF19.75
aF20.01
asg94
g0
(g95
g2
Ntp126
Rp127
(dp128
g99
Nsg100
g123
sg101
I00
sg102
I00
sg103
Nsbsg104
g111
sg112
S'Ct'
p129
sbag0
(g32
g2
Ntp130
Rp131
(dp132
g36
I00
sg37
g4
sg38
(lp133
F0.9399
aF0.8296
aF0.8361
aF0.8039
aF0.8399
aF0.7935
aF0.8264
aF0.7974
aF0.8252
aF0.8418
aF0.7959
aF0.8071
aF0.8513
aF0.8485
aF0.8401
aF0.8371
aF0.891
aF0.8956
aF0.9179
aF0.9783
aF0.8971
aF0.8957
aF0.8287
aF0.8387
aF0.8746
aF0.8493
aF0.8349
aF0.7701
aF0.8746
aF0.8139
aF0.8715
aF0.8977
aF0.856
aF0.8266
aF0.8343
aF0.8496
aF0.7857
aF0.8427
aF0.8637
aF0.8281
aF0.8203
aF0.8288
aF0.8138
aF0.8242
aF0.804
aF0.7795
aF0.7676
aF0.7947
aF0.8179
aF0.8173
aF0.7894
aF0.8157
aF0.8543
aF0.8208
asg94
g0
(g95
g2
Ntp134
Rp135
(dp136
g99
Nsg100
g131
sg101
I00
sg102
I00
sg103
Nsbsg104
g111
sg112
S'Eff'
p137
sbag0
(g32
g2
Ntp138
Rp139
(dp140
g36
I00
sg37
g4
sg38
(lp141
VI
p142
ag142
ag142
ag142
ag142
ag142
ag142
ag142
ag142
ag142
ag142
ag142
ag142
ag142
ag142
ag142
ag142
ag142
aVR1
p143
aVR1
p144
aVR1
p145
aVR1
p146
aVR1
p147
aVR1
p148
aVR1
p149
aVR1
p150
aVR1
p151
aVR1
p152
aVR1
p153
aVR1
p154
aVR1
p155
aVR1
p156
aVR1
p157
aVR1
p158
aVR1
p159
aVR1
p160
aVR2
p161
aVR2
p162
aVR2
p163
aVR2
p164
aVR2
p165
aVR2
p166
aVR2
p167
aVR2
p168
aVR2
p169
aVR2
p170
aVR2
p171
aVR2
p172
aVR2
p173
aVR2
p174
aVR2
p175
aVR2
p176
aVR2
p177
aVR2
p178
asg94
g0
(g95
g2
Ntp179
Rp180
(dp181
g99
Nsg100
g139
sg101
I00
sg102
I00
sg103
Nsbsg104
g111
sg112
S'RunType'
p182
sbag0
(g32
g2
Ntp183
Rp184
(dp185
g36
I00
sg37
g4
sg38
(lp186
Va
p187
aVb
p188
aVc
p189
ag187
ag188
ag189
ag187
ag188
ag189
ag187
ag188
ag189
ag187
ag188
ag189
ag187
ag188
ag189
ag187
ag188
ag189
ag187
ag188
ag189
ag187
ag188
ag189
ag187
ag188
ag189
ag187
ag188
ag189
ag187
ag188
ag189
ag187
ag188
ag189
ag187
ag188
ag189
ag187
ag188
ag189
ag187
ag188
ag189
ag187
ag188
ag189
ag187
ag188
ag189
asg94
g0
(g95
g2
Ntp190
Rp191
(dp192
g99
Nsg100
g184
sg101
I00
sg102
I00
sg103
Nsbsg104
g111
sg112
S'TRpl'
p193
sbag0
(g32
g2
Ntp194
Rp195
(dp196
g36
I00
sg37
g4
sg38
(lp197
I1
aI1
aI1
aI1
aI1
aI1
aI1
aI1
aI1
aI2
aI2
aI2
aI3
aI3
aI3
aI0
aI0
aI0
aI1
aI1
aI1
aI1
aI1
aI1
aI1
aI1
aI1
aI2
aI2
aI2
aI3
aI3
aI3
aI0
aI0
aI0
aI1
aI1
aI1
aI1
aI1
aI1
aI1
aI1
aI1
aI2
aI2
aI2
aI3
aI3
aI3
aI0
aI0
aI0
asg94
g0
(g95
g2
Ntp198
Rp199
(dp200
g99
Nsg100
g195
sg101
I00
sg102
I00
sg103
Nsbsg104
g111
sg112
S'Treatment'
p201
sbasS'_columns'
p202
(lp203
g0
(g32
g2
Ntp204
Rp205
(dp206
g36
I01
sg37
g4
sg38
(lp207
S'1'
p208
aS'2'
p209
aS'3'
p210
aS'4'
p211
aS'5'
p212
aS'6'
p213
aS'7'
p214
aS'8'
p215
aS'9'
p216
aS'10'
p217
aS'11'
p218
aS'12'
p219
aS'13'
p220
aS'14'
p221
aS'15'
p222
aS'16'
p223
aS'17'
p224
aS'18'
p225
aS'19'
p226
aS'20'
p227
aS'21'
p228
aS'22'
p229
aS'23'
p230
aS'24'
p231
aS'25'
p232
aS'26'
p233
aS'27'
p234
aS'28'
p235
aS'29'
p236
aS'30'
p237
aS'31'
p238
aS'32'
p239
aS'33'
p240
aS'34'
p241
aS'35'
p242
aS'36'
p243
aS'37'
p244
aS'38'
p245
aS'39'
p246
aS'40'
p247
aS'41'
p248
aS'42'
p249
aS'43'
p250
aS'44'
p251
aS'45'
p252
aS'46'
p253
aS'47'
p254
aS'48'
p255
aS'49'
p256
aS'50'
p257
aS'51'
p258
aS'52'
p259
aS'53'
p260
aS'54'
p261
asg94
g0
(g95
g2
Ntp262
Rp263
(dp264
g99
Nsg100
g205
sg101
I00
sg102
I00
sg103
Nsbsg104
g0
(g105
g106
(g107
g108
tp265
tp266
Rp267
sg112
S'row'
p268
sbag0
(g32
g2
Ntp269
Rp270
(dp271
g36
I00
sg37
g4
sg38
(lp272
Vgene
p273
aVrun
p274
aVshow_raw
p275
aVshow_block1
p276
aVshow_block2
p277
aVshow_block3
p278
aVmax_std
p279
aVmin_eff
p280
aVnan
p281
aVnan
p282
aVnan
p283
aVnan
p284
aVnan
p285
aVnan
p286
aVnan
p287
aVnan
p288
aVnan
p289
aVnan
p290
aVnan
p291
aVnan
p292
aVnan
p293
aVnan
p294
aVnan
p295
aVnan
p296
aVnan
p297
aVnan
p298
aVnan
p299
aVnan
p300
aVnan
p301
aVnan
p302
aVnan
p303
aVnan
p304
aVnan
p305
aVnan
p306
aVnan
p307
aVnan
p308
aVnan
p309
aVnan
p310
aVnan
p311
aVnan
p312
aVnan
p313
aVnan
p314
aVnan
p315
aVnan
p316
aVnan
p317
aVnan
p318
aVnan
p319
aVnan
p320
aVnan
p321
aVnan
p322
aVnan
p323
aVnan
p324
aVnan
p325
aVnan
p326
asg94
g0
(g95
g2
Ntp327
Rp328
(dp329
g99
Nsg100
g270
sg101
I00
sg102
I00
sg103
Nsbsg104
g0
(g105
g106
(g107
g108
tp330
tp331
Rp332
sg112
VParmNames
p333
sbag0
(g32
g2
Ntp334
Rp335
(dp336
g36
I00
sg37
g4
sg38
(lp337
VGene1
p338
aVFalse
p339
aVFalse
p340
aVTrue
p341
aVTrue
p342
aVTrue
p343
aV0.5
p344
aV0.7
p345
aV
p346
ag346
aVnan
p347
aVnan
p348
aVnan
p349
aVnan
p350
aVnan
p351
aVnan
p352
aVnan
p353
aVnan
p354
aVnan
p355
aVnan
p356
aVnan
p357
aVnan
p358
aVnan
p359
aVnan
p360
aVnan
p361
aVnan
p362
aVnan
p363
aVnan
p364
aVnan
p365
aVnan
p366
aVnan
p367
aVnan
p368
aVnan
p369
aVnan
p370
aVnan
p371
aVnan
p372
aVnan
p373
aVnan
p374
aVnan
p375
aVnan
p376
aVnan
p377
aVnan
p378
aVnan
p379
aVnan
p380
aVnan
p381
aVnan
p382
aVnan
p383
aVnan
p384
aVnan
p385
aVnan
p386
aVnan
p387
aVnan
p388
aVnan
p389
aVnan
p390
asg94
g0
(g95
g2
Ntp391
Rp392
(dp393
g99
Vxlsx_path = '/mnt/hgfs/josephhellerstein/home/Technical/SciSheets/CaseStudies/Kristen/workbooks/data.xlsx'\u000as.setColumnVisibility()\u000agene = ParmValues[0]\u000arun = ParmValues[1] == 'True'\u000ashow_raw = ParmValues[2] == 'True'\u000ashow_block1 = ParmValues[3] == 'True'\u000ashow_block2 = ParmValues[4] == 'True'\u000ashow_block3 = ParmValues[5] == 'True'\u000amax_std  = float(ParmValues[6])\u000amin_eff = float(ParmValues[7])\u000aworksheet = gene + "-I"\u000aif False:\u000a  Groups = []\u000a  GroupedCt = []\u000a  GroupedEff = []\u000a  MeanCt = []\u000a  Imp = []\u000a  s.deleteColumn('Ct')\u000a  s.deleteColumn('RunType')\u000a  s.deleteColumn('BRpl')\u000a  s.deleteColumn('TRpl')\u000a  s.deleteColumn('Treatment')\u000a  s.deleteColumn('SmplName')\u000a  s.deleteColumn('Eff')\u000aif run:\u000a  importExcelToTable(s, xlsx_path, worksheet=worksheet)\u000a  BRpl = s.getColumnValues('BRpl')\u000a  Ct = s.getColumnValues('Ct')\u000a  Eff = s.getColumnValues('Eff')\u000a  RunType = s.getColumnValues('RunType')\u000a  TRpl = s.getColumnValues('TRpl')\u000a  Treatment = s.getColumnValues('Treatment')\u000as.setColumnVisibility(['SmplName'], False)\u000as.setColumnVisibility(['BRpl', 'Ct', 'Eff', 'RunType', 'TRpl', 'Treatment'], is_visible=show_raw)
p394
sg100
g335
sg101
I00
sg102
I00
sg103
Vxlsx_path = '/mnt/hgfs/josephhellerstein/home/Technical/SciSheets/CaseStudies/Kristen/workbooks/data.xlsx'\u000as.setColumnVisibility()\u000agene = ParmValues[0]\u000arun = ParmValues[1] == 'True'\u000ashow_raw = ParmValues[2] == 'True'\u000ashow_block1 = ParmValues[3] == 'True'\u000ashow_block2 = ParmValues[4] == 'True'\u000ashow_block3 = ParmValues[5] == 'True'\u000amax_std  = float(ParmValues[6])\u000amin_eff = float(ParmValues[7])\u000aworksheet = gene + "-I"\u000aif False:\u000a  Groups = []\u000a  GroupedCt = []\u000a  GroupedEff = []\u000a  MeanCt = []\u000a  Imp = []\u000a  s.deleteColumn('Ct')\u000a  s.deleteColumn('RunType')\u000a  s.deleteColumn('BRpl')\u000a  s.deleteColumn('TRpl')\u000a  s.deleteColumn('Treatment')\u000a  s.deleteColumn('SmplName')\u000a  s.deleteColumn('Eff')\u000aif run:\u000a  importExcelToTable(s, xlsx_path, worksheet=worksheet)\u000a  BRpl = s.getColumnValues('BRpl')\u000a  Ct = s.getColumnValues('Ct')\u000a  Eff = s.getColumnValues('Eff')\u000a  RunType = s.getColumnValues('RunType')\u000a  TRpl = s.getColumnValues('TRpl')\u000a  Treatment = s.getColumnValues('Treatment')\u000as.setColumnVisibility(['SmplName'], False)\u000as.setColumnVisibility(['BRpl', 'Ct', 'Eff', 'RunType', 'TRpl', 'Treatment'], is_visible=show_raw)
p395
sbsg104
g0
(g105
g106
(g107
g108
tp396
tp397
Rp398
sg112
VParmValues
p399
sbag0
(g32
g2
Ntp400
Rp401
(dp402
g36
I00
sg37
g4
sg38
(lp403
(cnumpy.core.multiarray
scalar
p404
(cnumpy
dtype
p405
(S'i8'
p406
I0
I1
tp407
Rp408
(I3
S'<'
p409
NNNI-1
I-1
I0
tp410
bS'\x00\x00\x00\x00\x00\x00\x00\x00'
p411
tp412
Rp413
VI
p414
g404
(g408
S'\x01\x00\x00\x00\x00\x00\x00\x00'
p415
tp416
Rp417
tp418
a(g404
(g408
S'\x00\x00\x00\x00\x00\x00\x00\x00'
p419
tp420
Rp421
VR1
p422
g404
(g408
S'\x01\x00\x00\x00\x00\x00\x00\x00'
p423
tp424
Rp425
tp426
a(g404
(g408
S'\x00\x00\x00\x00\x00\x00\x00\x00'
p427
tp428
Rp429
VR2
p430
g404
(g408
S'\x01\x00\x00\x00\x00\x00\x00\x00'
p431
tp432
Rp433
tp434
a(g404
(g408
S'\x01\x00\x00\x00\x00\x00\x00\x00'
p435
tp436
Rp437
g414
g404
(g408
S'\x01\x00\x00\x00\x00\x00\x00\x00'
p438
tp439
Rp440
tp441
a(g404
(g408
S'\x01\x00\x00\x00\x00\x00\x00\x00'
p442
tp443
Rp444
g414
g404
(g408
S'\x02\x00\x00\x00\x00\x00\x00\x00'
p445
tp446
Rp447
tp448
a(g404
(g408
S'\x01\x00\x00\x00\x00\x00\x00\x00'
p449
tp450
Rp451
g414
g404
(g408
S'\x03\x00\x00\x00\x00\x00\x00\x00'
p452
tp453
Rp454
tp455
a(g404
(g408
S'\x01\x00\x00\x00\x00\x00\x00\x00'
p456
tp457
Rp458
g422
g404
(g408
S'\x01\x00\x00\x00\x00\x00\x00\x00'
p459
tp460
Rp461
tp462
a(g404
(g408
S'\x01\x00\x00\x00\x00\x00\x00\x00'
p463
tp464
Rp465
g422
g404
(g408
S'\x02\x00\x00\x00\x00\x00\x00\x00'
p466
tp467
Rp468
tp469
a(g404
(g408
S'\x01\x00\x00\x00\x00\x00\x00\x00'
p470
tp471
Rp472
g422
g404
(g408
S'\x03\x00\x00\x00\x00\x00\x00\x00'
p473
tp474
Rp475
tp476
a(g404
(g408
S'\x01\x00\x00\x00\x00\x00\x00\x00'
p477
tp478
Rp479
g430
g404
(g408
S'\x01\x00\x00\x00\x00\x00\x00\x00'
p480
tp481
Rp482
tp483
a(g404
(g408
S'\x01\x00\x00\x00\x00\x00\x00\x00'
p484
tp485
Rp486
g430
g404
(g408
S'\x02\x00\x00\x00\x00\x00\x00\x00'
p487
tp488
Rp489
tp490
a(g404
(g408
S'\x01\x00\x00\x00\x00\x00\x00\x00'
p491
tp492
Rp493
g430
g404
(g408
S'\x03\x00\x00\x00\x00\x00\x00\x00'
p494
tp495
Rp496
tp497
a(g404
(g408
S'\x02\x00\x00\x00\x00\x00\x00\x00'
p498
tp499
Rp500
g414
g404
(g408
S'\x01\x00\x00\x00\x00\x00\x00\x00'
p501
tp502
Rp503
tp504
a(g404
(g408
S'\x02\x00\x00\x00\x00\x00\x00\x00'
p505
tp506
Rp507
g422
g404
(g408
S'\x01\x00\x00\x00\x00\x00\x00\x00'
p508
tp509
Rp510
tp511
a(g404
(g408
S'\x02\x00\x00\x00\x00\x00\x00\x00'
p512
tp513
Rp514
g430
g404
(g408
S'\x01\x00\x00\x00\x00\x00\x00\x00'
p515
tp516
Rp517
tp518
a(g404
(g408
S'\x03\x00\x00\x00\x00\x00\x00\x00'
p519
tp520
Rp521
g414
g404
(g408
S'\x01\x00\x00\x00\x00\x00\x00\x00'
p522
tp523
Rp524
tp525
a(g404
(g408
S'\x03\x00\x00\x00\x00\x00\x00\x00'
p526
tp527
Rp528
g422
g404
(g408
S'\x01\x00\x00\x00\x00\x00\x00\x00'
p529
tp530
Rp531
tp532
a(g404
(g408
S'\x03\x00\x00\x00\x00\x00\x00\x00'
p533
tp534
Rp535
g430
g404
(g408
S'\x01\x00\x00\x00\x00\x00\x00\x00'
p536
tp537
Rp538
tp539
aNaNaNaNaNaNaNaNaNaNaNaNaNaNaNaNaNaNaNaNaNaNaNaNaNaNaNaNaNaNaNaNaNaNaNaNasg94
g0
(g95
g2
Ntp540
Rp541
(dp542
g99
Vif run:\u000a  sel = Eff > min_eff\u000a  grouping_columns =   [\u000a      Treatment[sel],\u000a       RunType[sel], \u000a      BRpl[sel],      \u000a    ]\u000a  if True:\u000a    Groups, groupedCt = groupBy(\u000a      grouping_columns, Ct[sel])\u000a    Groups, groupedEff = groupBy(\u000a      grouping_columns, Eff[sel])\u000a    GroupedCt = roundValues(groupedCt,2)\u000a    GroupedEff = roundValues(groupedEff,2)\u000a    s.setColumnValues('GroupedCt', GroupedCt)\u000a    s.setColumnValues('GroupedEff', GroupedEff)
p543
sg100
g401
sg101
I00
sg102
I00
sg103
Vif run:\u000a  sel = Eff > min_eff\u000a  grouping_columns =   [\u000a      Treatment[sel],\u000a       RunType[sel], \u000a      BRpl[sel],      \u000a    ]\u000a  if True:\u000a    Groups, groupedCt = groupBy(\u000a      grouping_columns, Ct[sel])\u000a    Groups, groupedEff = groupBy(\u000a      grouping_columns, Eff[sel])\u000a    GroupedCt = roundValues(groupedCt,2)\u000a    GroupedEff = roundValues(groupedEff,2)\u000a    s.setColumnValues('GroupedCt', GroupedCt)\u000a    s.setColumnValues('GroupedEff', GroupedEff)
p544
sbsg104
g0
(g105
g106
(g107
g108
tp545
tp546
Rp547
sg112
VGroups
p548
sbag0
(g32
g2
Ntp549
Rp550
(dp551
g36
I00
sg37
g4
sg38
(lp552
(lp553
F0.84
aF0.89
aF0.9
aa(lp554
F0.83
aF0.83
aF0.85
aa(lp555
F0.82
aF0.85
aF0.82
aa(lp556
F0.94
aF0.83
aF0.84
aa(lp557
F0.8
aF0.84
aF0.79
aa(lp558
F0.83
aF0.8
aF0.83
aa(lp559
F0.92
aF0.98
aF0.9
aa(lp560
F0.9
aF0.83
aF0.84
aa(lp561
F0.87
aF0.85
aF0.83
aa(lp562
F0.79
aF0.84
aF0.86
aa(lp563
F0.83
aF0.82
aF0.83
aa(lp564
F0.81
aF0.82
aF0.8
aa(lp565
F0.84
aF0.8
aF0.81
aa(lp566
F0.77
aF0.87
aF0.81
aa(lp567
F0.78
aF0.77
aF0.79
aa(lp568
F0.85
aF0.85
aF0.84
aa(lp569
F0.87
aF0.9
aF0.86
aa(lp570
F0.82
aF0.82
aF0.79
aaNaNaNaNaNaNaNaNaNaNaNaNaNaNaNaNaNaNaNaNaNaNaNaNaNaNaNaNaNaNaNaNaNaNaNaNasg94
g0
(g95
g2
Ntp571
Rp572
(dp573
g99
Nsg100
g550
sg101
I00
sg102
I00
sg103
Nsbsg104
g0
(g105
g106
(g107
g108
tp574
tp575
Rp576
sg112
VGroupedEff
p577
sbag0
(g32
g2
Ntp578
Rp579
(dp580
g36
I00
sg37
g4
sg38
(lp581
(lp582
F23.0
aF22.86
aF22.8
aa(lp583
F18.24
aF18.22
aF18.36
aa(lp584
F19.72
aF19.75
aF20.01
aa(lp585
F26.68
aF27.13
aF27.21
aa(lp586
F26.76
aF26.71
aF26.19
aa(lp587
F29.98
aF30.12
aF29.41
aa(lp588
F19.92
aF19.85
aF20.0
aa(lp589
F21.86
aF22.09
aF21.84
aa(lp590
F23.89
aF23.54
aF24.27
aa(lp591
F22.18
aF21.71
aF21.75
aa(lp592
F23.88
aF23.42
aF23.63
aa(lp593
F24.59
aF24.61
aF24.34
aa(lp594
F29.95
aF30.45
aF29.88
aa(lp595
F23.22
aF23.8
aF23.49
aa(lp596
F26.37
aF26.36
aF26.17
aa(lp597
F24.8
aF24.97
aF24.63
aa(lp598
F18.91
aF18.78
aF18.8
aa(lp599
F20.5
aF20.47
aF20.28
aaNaNaNaNaNaNaNaNaNaNaNaNaNaNaNaNaNaNaNaNaNaNaNaNaNaNaNaNaNaNaNaNaNaNaNaNasg94
g0
(g95
g2
Ntp600
Rp601
(dp602
g99
Nsg100
g579
sg101
I00
sg102
I00
sg103
Nsbsg104
g0
(g105
g106
(g107
g108
tp603
tp604
Rp605
sg112
VGroupedCt
p606
sbag0
(g32
g2
Ntp607
Rp608
(dp609
g36
I00
sg37
g4
sg38
(lp610
(lp611
F23.0
aF22.9
aF22.8
aa(lp612
F18.2
aF18.2
aF18.4
aa(lp613
F19.7
aF19.8
aF20.0
aa(lp614
F26.7
aF27.1
aF27.2
aa(lp615
F26.8
aF26.7
aF26.2
aa(lp616
F30.0
aF30.1
aF29.4
aa(lp617
F19.9
aF19.9
aF20.0
aa(lp618
F21.9
aF22.1
aF21.8
aa(lp619
F23.9
aF23.5
aF24.3
aa(lp620
F22.2
aF21.7
aF21.8
aa(lp621
F23.9
aF23.4
aF23.6
aa(lp622
F24.6
aF24.6
aF24.3
aa(lp623
F29.9
aF30.4
aF29.9
aa(lp624
F23.2
aF23.8
aF23.5
aa(lp625
F26.4
aF26.4
aF26.2
aa(lp626
F24.8
aF25.0
aF24.6
aa(lp627
F18.9
aF18.8
aF18.8
aa(lp628
F20.5
aF20.5
aF20.3
aaNaNaNaNaNaNaNaNaNaNaNaNaNaNaNaNaNaNaNaNaNaNaNaNaNaNaNaNaNaNaNaNaNaNaNaNasg94
g0
(g95
g2
Ntp629
Rp630
(dp631
g99
Vif run:\u000a  StdFilteredGroupedCt = roundValues([filterExtremes(g, max_std, 2) for g in pruneNulls(GroupedCt)])\u000a  s.setColumnValues('StdFilteredGroupedCt', StdFilteredGroupedCt)
p632
sg100
g608
sg101
I00
sg102
I00
sg103
Vif run:\u000a  StdFilteredGroupedCt = roundValues([filterExtremes(g, max_std, 2) for g in pruneNulls(GroupedCt)])\u000a  s.setColumnValues('StdFilteredGroupedCt', StdFilteredGroupedCt)
p633
sbsg104
g0
(g105
g106
(g107
g108
tp634
tp635
Rp636
sg112
VStdFilteredGroupedCt
p637
sbag0
(g32
g2
Ntp638
Rp639
(dp640
g36
I00
sg37
g4
sg38
(lp641
F22.9
aF18.3
aF19.8
aF27.0
aF26.6
aF29.8
aF19.9
aF21.9
aF23.9
aF21.9
aF23.6
aF24.5
aF30.1
aF23.5
aF26.3
aF24.8
aF18.8
aF20.4
aFnan
aFnan
aFnan
aFnan
aFnan
aFnan
aFnan
aFnan
aFnan
aFnan
aFnan
aFnan
aFnan
aFnan
aFnan
aFnan
aFnan
aFnan
aFnan
aFnan
aFnan
aFnan
aFnan
aFnan
aFnan
aFnan
aFnan
aFnan
aFnan
aFnan
aFnan
aFnan
aFnan
aFnan
aFnan
aFnan
asg94
g0
(g95
g2
Ntp642
Rp643
(dp644
g99
Vif run:\u000a  MeanCt = [np.mean(g) for g in StdFilteredGroupedCt]\u000a  MeanCt = roundValues(MeanCt,1)\u000a  s.setColumnValues('MeanCt', MeanCt)\u000a  StdCt = [np.std(g, ddof=1) for g in StdFilteredGroupedCt]\u000a  StdCt = roundValues(StdCt,3)\u000a  s.setColumnValues('StdCt', StdCt)\u000as.setColumnVisibility(['Groups', 'GroupedEff', 'GroupedCt', 'StdFilteredGroupedCt', 'MeanCt', 'StdCt'], is_visible=show_block1)
p645
sg100
g639
sg101
I00
sg102
I00
sg103
Vif run:\u000a  MeanCt = [np.mean(g) for g in StdFilteredGroupedCt]\u000a  MeanCt = roundValues(MeanCt,1)\u000a  s.setColumnValues('MeanCt', MeanCt)\u000a  StdCt = [np.std(g, ddof=1) for g in StdFilteredGroupedCt]\u000a  StdCt = roundValues(StdCt,3)\u000a  s.setColumnValues('StdCt', StdCt)\u000as.setColumnVisibility(['Groups', 'GroupedEff', 'GroupedCt', 'StdFilteredGroupedCt', 'MeanCt', 'StdCt'], is_visible=show_block1)
p646
sbsg104
g0
(g105
g106
(g107
g108
tp647
tp648
Rp649
sg112
VMeanCt
p650
sbag0
(g32
g2
Ntp651
Rp652
(dp653
g36
I00
sg37
g4
sg38
(lp654
F0.1
aF0.115
aF0.153
aF0.265
aF0.321
aF0.379
aF0.058
aF0.153
aF0.4
aF0.265
aF0.252
aF0.173
aF0.289
aF0.3
aF0.115
aF0.2
aF0.058
aF0.115
aFnan
aFnan
aFnan
aFnan
aFnan
aFnan
aFnan
aFnan
aFnan
aFnan
aFnan
aFnan
aFnan
aFnan
aFnan
aFnan
aFnan
aFnan
aFnan
aFnan
aFnan
aFnan
aFnan
aFnan
aFnan
aFnan
aFnan
aFnan
aFnan
aFnan
aFnan
aFnan
aFnan
aFnan
aFnan
aFnan
asg94
g0
(g95
g2
Ntp655
Rp656
(dp657
g99
Nsg100
g652
sg101
I00
sg102
I00
sg103
Nsbsg104
g0
(g105
g106
(g107
g108
tp658
tp659
Rp660
sg112
VStdCt
p661
sbag0
(g32
g2
Ntp662
Rp663
(dp664
g36
I00
sg37
g4
sg38
(lp665
(lp666
g404
(g408
S'\x00\x00\x00\x00\x00\x00\x00\x00'
p667
tp668
Rp669
ag404
(g408
S'\x01\x00\x00\x00\x00\x00\x00\x00'
p670
tp671
Rp672
aa(lp673
g404
(g408
S'\x01\x00\x00\x00\x00\x00\x00\x00'
p674
tp675
Rp676
ag404
(g408
S'\x01\x00\x00\x00\x00\x00\x00\x00'
p677
tp678
Rp679
aa(lp680
g404
(g408
S'\x01\x00\x00\x00\x00\x00\x00\x00'
p681
tp682
Rp683
ag404
(g408
S'\x02\x00\x00\x00\x00\x00\x00\x00'
p684
tp685
Rp686
aa(lp687
g404
(g408
S'\x01\x00\x00\x00\x00\x00\x00\x00'
p688
tp689
Rp690
ag404
(g408
S'\x03\x00\x00\x00\x00\x00\x00\x00'
p691
tp692
Rp693
aa(lp694
g404
(g408
S'\x02\x00\x00\x00\x00\x00\x00\x00'
p695
tp696
Rp697
ag404
(g408
S'\x01\x00\x00\x00\x00\x00\x00\x00'
p698
tp699
Rp700
aa(lp701
g404
(g408
S'\x03\x00\x00\x00\x00\x00\x00\x00'
p702
tp703
Rp704
ag404
(g408
S'\x01\x00\x00\x00\x00\x00\x00\x00'
p705
tp706
Rp707
aaNaNaNaNaNaNaNaNaNaNaNaNaNaNaNaNaNaNaNaNaNaNaNaNaNaNaNaNaNaNaNaNaNaNaNaNaNaNaNaNaNaNaNaNaNaNaNaNasg94
g0
(g95
g2
Ntp708
Rp709
(dp710
g99
Vif run:\u000a  cat_vals = [br[0] for br in pruneNulls(BioRuns)]\u000a  clean_geo = pruneNulls(GeoMean, required_length=len(cat_vals))\u000a  GeoGroups, groupedGeoMeans = groupBy(cat_vals, clean_geo)\u000a  GroupedGeoMeans = roundValues(groupedGeoMeans, 3)
p711
sg100
g663
sg101
I00
sg102
I00
sg103
Vif run:\u000a  cat_vals = [br[0] for br in pruneNulls(BioRuns)]\u000a  clean_geo = pruneNulls(GeoMean, required_length=len(cat_vals))\u000a  GeoGroups, groupedGeoMeans = groupBy(cat_vals, clean_geo)\u000a  GroupedGeoMeans = roundValues(groupedGeoMeans, 3)
p712
sbsg104
g0
(g105
g106
(g107
g108
tp713
tp714
Rp715
sg112
VBioRuns
p716
sbag0
(g32
g2
Ntp717
Rp718
(dp719
g36
I00
sg37
g4
sg38
(lp720
F22.9
aF26.7
aFnan
aFnan
aFnan
aF24.8
aFnan
aFnan
aFnan
aFnan
aFnan
aFnan
aFnan
aFnan
aFnan
aFnan
aFnan
aFnan
aFnan
aFnan
aFnan
aFnan
aFnan
aFnan
aFnan
aFnan
aFnan
aFnan
aFnan
aFnan
aFnan
aFnan
aFnan
aFnan
aFnan
aFnan
aFnan
aFnan
aFnan
aFnan
aFnan
aFnan
aFnan
aFnan
aFnan
aFnan
aFnan
aFnan
aFnan
aFnan
aFnan
aFnan
aFnan
aFnan
asg94
g0
(g95
g2
Ntp721
Rp722
(dp723
g99
Nsg100
g718
sg101
I00
sg102
I00
sg103
Nsbsg104
g0
(g105
g106
(g107
g108
tp724
tp725
Rp726
sg112
S'Gene_I'
p727
sbag0
(g32
g2
Ntp728
Rp729
(dp730
g36
I00
sg37
g4
sg38
(lp731
Fnan
aF19.9
aF21.9
aF23.9
aF23.8
aF18.8
aFnan
aFnan
aFnan
aFnan
aFnan
aFnan
aFnan
aFnan
aFnan
aFnan
aFnan
aFnan
aFnan
aFnan
aFnan
aFnan
aFnan
aFnan
aFnan
aFnan
aFnan
aFnan
aFnan
aFnan
aFnan
aFnan
aFnan
aFnan
aFnan
aFnan
aFnan
aFnan
aFnan
aFnan
aFnan
aFnan
aFnan
aFnan
aFnan
aFnan
aFnan
aFnan
aFnan
aFnan
aFnan
aFnan
aFnan
aFnan
asg94
g0
(g95
g2
Ntp732
Rp733
(dp734
g99
Nsg100
g729
sg101
I00
sg102
I00
sg103
Nsbsg104
g726
sg112
S'Gene_R1'
p735
sbag0
(g32
g2
Ntp736
Rp737
(dp738
g36
I00
sg37
g4
sg38
(lp739
F19.8
aF21.8
aFnan
aFnan
aFnan
aFnan
aFnan
aFnan
aFnan
aFnan
aFnan
aFnan
aFnan
aFnan
aFnan
aFnan
aFnan
aFnan
aFnan
aFnan
aFnan
aFnan
aFnan
aFnan
aFnan
aFnan
aFnan
aFnan
aFnan
aFnan
aFnan
aFnan
aFnan
aFnan
aFnan
aFnan
aFnan
aFnan
aFnan
aFnan
aFnan
aFnan
aFnan
aFnan
aFnan
aFnan
aFnan
aFnan
aFnan
aFnan
aFnan
aFnan
aFnan
aFnan
asg94
g0
(g95
g2
Ntp740
Rp741
(dp742
g99
Nsg100
g737
sg101
I00
sg102
I00
sg103
Nsbsg104
g726
sg112
S'Gene_R2'
p743
sbag0
(g32
g2
Ntp744
Rp745
(dp746
g36
I00
sg37
g4
sg38
(lp747
Fnan
aF0.00897
aFnan
aFnan
aFnan
aF0.01563
aFnan
aFnan
aFnan
aFnan
aFnan
aFnan
aFnan
aFnan
aFnan
aFnan
aFnan
aFnan
aFnan
aFnan
aFnan
aFnan
aFnan
aFnan
aFnan
aFnan
aFnan
aFnan
aFnan
aFnan
aFnan
aFnan
aFnan
aFnan
aFnan
aFnan
aFnan
aFnan
aFnan
aFnan
aFnan
aFnan
aFnan
aFnan
aFnan
aFnan
aFnan
aFnan
aFnan
aFnan
aFnan
aFnan
aFnan
aFnan
asg94
g0
(g95
g2
Ntp748
Rp749
(dp750
g99
VExprR1 = roundValues(2**(Gene_R1 - Gene_I),5)
p751
sg100
g745
sg101
I01
sg102
I00
sg103
VroundValues(2**(Gene_R1 - Gene_I),5)
p752
sbsg104
g0
(g105
g106
(g107
g108
tp753
tp754
Rp755
sg112
VExprR1
p756
sbag0
(g32
g2
Ntp757
Rp758
(dp759
g36
I00
sg37
g4
sg38
(lp760
F0.11663
aF0.03349
aFnan
aFnan
aFnan
aFnan
aFnan
aFnan
aFnan
aFnan
aFnan
aFnan
aFnan
aFnan
aFnan
aFnan
aFnan
aFnan
aFnan
aFnan
aFnan
aFnan
aFnan
aFnan
aFnan
aFnan
aFnan
aFnan
aFnan
aFnan
aFnan
aFnan
aFnan
aFnan
aFnan
aFnan
aFnan
aFnan
aFnan
aFnan
aFnan
aFnan
aFnan
aFnan
aFnan
aFnan
aFnan
aFnan
aFnan
aFnan
aFnan
aFnan
aFnan
aFnan
asg94
g0
(g95
g2
Ntp761
Rp762
(dp763
g99
VExprR2 = roundValues(2**(Gene_R2 - Gene_I),5)
p764
sg100
g758
sg101
I01
sg102
I00
sg103
VroundValues(2**(Gene_R2 - Gene_I),5)
p765
sbsg104
g0
(g105
g106
(g107
g108
tp766
tp767
Rp768
sg112
VExprR2
p769
sbag0
(g32
g2
Ntp770
Rp771
(dp772
g36
I00
sg37
g4
sg38
(lp773
Fnan
aF0.017
aFnan
aFnan
aFnan
aFnan
aFnan
aFnan
aFnan
aFnan
aFnan
aFnan
aFnan
aFnan
aFnan
aFnan
aFnan
aFnan
aFnan
aFnan
aFnan
aFnan
aFnan
aFnan
aFnan
aFnan
aFnan
aFnan
aFnan
aFnan
aFnan
aFnan
aFnan
aFnan
aFnan
aFnan
aFnan
aFnan
aFnan
aFnan
aFnan
aFnan
aFnan
aFnan
aFnan
aFnan
aFnan
aFnan
aFnan
aFnan
aFnan
aFnan
aFnan
aFnan
asg94
g0
(g95
g2
Ntp774
Rp775
(dp776
g99
Vif run:\u000a  GeoMean = roundValues(np.sqrt(ExprR1*ExprR2), 3)\u000as.setColumnVisibility(['BioRuns', 'Gene_I', 'Gene_R1', 'Gene_R2', 'ExprR1', 'ExprR2', 'GeoMean'], is_visible=show_block2)
p777
sg100
g771
sg101
I00
sg102
I00
sg103
Vif run:\u000a  GeoMean = roundValues(np.sqrt(ExprR1*ExprR2), 3)\u000as.setColumnVisibility(['BioRuns', 'Gene_I', 'Gene_R1', 'Gene_R2', 'ExprR1', 'ExprR2', 'GeoMean'], is_visible=show_block2)
p778
sbsg104
g0
(g105
g106
(g107
g108
tp779
tp780
Rp781
sg112
VGeoMean
p782
sbag0
(g32
g2
Ntp783
Rp784
(dp785
g36
I00
sg37
g4
sg38
(lp786
F0.0
aF1.0
aF2.0
aF3.0
aFnan
aFnan
aFnan
aFnan
aFnan
aFnan
aFnan
aFnan
aFnan
aFnan
aFnan
aFnan
aFnan
aFnan
aFnan
aFnan
aFnan
aFnan
aFnan
aFnan
aFnan
aFnan
aFnan
aFnan
aFnan
aFnan
aFnan
aFnan
aFnan
aFnan
aFnan
aFnan
aFnan
aFnan
aFnan
aFnan
aFnan
aFnan
aFnan
aFnan
aFnan
aFnan
aFnan
aFnan
aFnan
aFnan
aFnan
aFnan
aFnan
aFnan
asg94
g0
(g95
g2
Ntp787
Rp788
(dp789
g99
Vif run:\u000a  cat_vals = [br[0] for br in pruneNulls(BioRuns)]\u000a  GeoGroups, groupedGeoMeans = groupBy(cat_vals, clean_geo)\u000a  GroupedGeoMeans = roundValues(groupedGeoMeans, 3)
p790
sg100
g784
sg101
I00
sg102
I00
sg103
Vif run:\u000a  cat_vals = [br[0] for br in pruneNulls(BioRuns)]\u000a  GeoGroups, groupedGeoMeans = groupBy(cat_vals, clean_geo)\u000a  GroupedGeoMeans = roundValues(groupedGeoMeans, 3)
p791
sbsg104
g0
(g105
g106
(g107
g108
tp792
tp793
Rp794
sg112
VGeoGroups
p795
sbag0
(g32
g2
Ntp796
Rp797
(dp798
g36
I00
sg37
g4
sg38
(lp799
cnumpy.core.multiarray
_reconstruct
p800
(g107
(I0
tp801
S'b'
p802
tp803
Rp804
(I1
(I1
tp805
g405
(S'f8'
p806
I0
I1
tp807
Rp808
(I3
S'<'
p809
NNNI-1
I-1
I0
tp810
bI00
S'\x00\x00\x00\x00\x00\x00\xf8\x7f'
p811
tp812
bag800
(g107
(I0
tp813
g802
tp814
Rp815
(I1
(I3
tp816
g808
I00
S'\x9c\xc4 \xb0rh\x91?\x00\x00\x00\x00\x00\x00\xf8\x7f\x00\x00\x00\x00\x00\x00\xf8\x7f'
p817
tp818
bag800
(g107
(I0
tp819
g802
tp820
Rp821
(I1
(I1
tp822
g808
I00
S'\x00\x00\x00\x00\x00\x00\xf8\x7f'
p823
tp824
bag800
(g107
(I0
tp825
g802
tp826
Rp827
(I1
(I1
tp828
g808
I00
S'\x00\x00\x00\x00\x00\x00\xf8\x7f'
p829
tp830
baNaNaNaNaNaNaNaNaNaNaNaNaNaNaNaNaNaNaNaNaNaNaNaNaNaNaNaNaNaNaNaNaNaNaNaNaNaNaNaNaNaNaNaNaNaNaNaNaNaNasg94
g0
(g95
g2
Ntp831
Rp832
(dp833
g99
Nsg100
g797
sg101
I00
sg102
I00
sg103
Nsbsg104
g0
(g105
g106
(g107
g108
tp834
tp835
Rp836
sg112
VGroupedGeoMeans
p837
sbag0
(g32
g2
Ntp838
Rp839
(dp840
g36
I00
sg37
g4
sg38
(lp841
g800
(g107
(I0
tp842
g802
tp843
Rp844
(I1
(I1
tp845
g808
I00
S'\x00\x00\x00\x00\x00\x00\xf8\x7f'
p846
tp847
bag800
(g107
(I0
tp848
g802
tp849
Rp850
(I1
(I3
tp851
g808
I00
S'\x00\x00\x00\x00\x00\x00\xf8\x7f\x00\x00\x00\x00\x00\x00\xf8\x7f\x00\x00\x00\x00\x00\x00\xf8\x7f'
p852
tp853
bag800
(g107
(I0
tp854
g802
tp855
Rp856
(I1
(I1
tp857
g808
I00
S'\x00\x00\x00\x00\x00\x00\xf8\x7f'
p858
tp859
bag800
(g107
(I0
tp860
g802
tp861
Rp862
(I1
(I1
tp863
g808
I00
S'\x00\x00\x00\x00\x00\x00\xf8\x7f'
p864
tp865
baNaNaNaNaNaNaNaNaNaNaNaNaNaNaNaNaNaNaNaNaNaNaNaNaNaNaNaNaNaNaNaNaNaNaNaNaNaNaNaNaNaNaNaNaNaNaNaNaNaNasg94
g0
(g95
g2
Ntp866
Rp867
(dp868
g99
Vif run:\u000a  ref = np.mean(GroupedGeoMeans[0])\u000a  NrmlGeoGroupedMeans = []\u000a  truncated_group = [g for g in GroupedGeoMeans if g is not None]\u000a  for g in truncated_group:\u000a    new_g = [x/ref for x in g]\u000a    NrmlGeoGroupedMeans.append(new_g)\u000a  NrmlGeoGroupedMeans = roundValues(NrmlGeoGroupedMeans, 3)
p869
sg100
g839
sg101
I00
sg102
I00
sg103
Vif run:\u000a  ref = np.mean(GroupedGeoMeans[0])\u000a  NrmlGeoGroupedMeans = []\u000a  truncated_group = [g for g in GroupedGeoMeans if g is not None]\u000a  for g in truncated_group:\u000a    new_g = [x/ref for x in g]\u000a    NrmlGeoGroupedMeans.append(new_g)\u000a  NrmlGeoGroupedMeans = roundValues(NrmlGeoGroupedMeans, 3)
p870
sbsg104
g0
(g105
g106
(g107
g108
tp871
tp872
Rp873
sg112
VNrmlGeoGroupedMeans
p874
sbag0
(g32
g2
Ntp875
Rp876
(dp877
g36
I00
sg37
g4
sg38
(lp878
Fnan
aFnan
aFnan
aFnan
aFnan
aFnan
aFnan
aFnan
aFnan
aFnan
aFnan
aFnan
aFnan
aFnan
aFnan
aFnan
aFnan
aFnan
aFnan
aFnan
aFnan
aFnan
aFnan
aFnan
aFnan
aFnan
aFnan
aFnan
aFnan
aFnan
aFnan
aFnan
aFnan
aFnan
aFnan
aFnan
aFnan
aFnan
aFnan
aFnan
aFnan
aFnan
aFnan
aFnan
aFnan
aFnan
aFnan
aFnan
aFnan
aFnan
aFnan
aFnan
aFnan
aFnan
asg94
g0
(g95
g2
Ntp879
Rp880
(dp881
g99
Vif run:\u000a  MeanNrmlGeoGroups = [round(np.mean(g), 3) for g in NrmlGeoGroupedMeans]
p882
sg100
g876
sg101
I00
sg102
I00
sg103
Vif run:\u000a  MeanNrmlGeoGroups = [round(np.mean(g), 3) for g in NrmlGeoGroupedMeans]
p883
sbsg104
g0
(g105
g106
(g107
g108
tp884
tp885
Rp886
sg112
VMeanNrmlGeoGroups
p887
sbag0
(g32
g2
Ntp888
Rp889
(dp890
g36
I00
sg37
g4
sg38
(lp891
Fnan
aFnan
aFnan
aFnan
aFnan
aFnan
aFnan
aFnan
aFnan
aFnan
aFnan
aFnan
aFnan
aFnan
aFnan
aFnan
aFnan
aFnan
aFnan
aFnan
aFnan
aFnan
aFnan
aFnan
aFnan
aFnan
aFnan
aFnan
aFnan
aFnan
aFnan
aFnan
aFnan
aFnan
aFnan
aFnan
aFnan
aFnan
aFnan
aFnan
aFnan
aFnan
aFnan
aFnan
aFnan
aFnan
aFnan
aFnan
aFnan
aFnan
aFnan
aFnan
aFnan
aFnan
asg94
g0
(g95
g2
Ntp892
Rp893
(dp894
g99
Vif run:\u000a  StdNrmlGeoGroups = [round(np.std(g, ddof=1), 3) for g in NrmlGeoGroupedMeans]\u000as.setColumnVisibility(['GeoGroups', 'GroupedGeoMeans', 'NrmlGeoGroupedMeans', 'MeanNrmlGeoGroups', 'StdNrmlGeoGroups'], is_visible=show_block3)\u000a#s.setColumnVisibility()
p895
sg100
g889
sg101
I00
sg102
I00
sg103
Vif run:\u000a  StdNrmlGeoGroups = [round(np.std(g, ddof=1), 3) for g in NrmlGeoGroupedMeans]\u000as.setColumnVisibility(['GeoGroups', 'GroupedGeoMeans', 'NrmlGeoGroupedMeans', 'MeanNrmlGeoGroups', 'StdNrmlGeoGroups'], is_visible=show_block3)\u000a#s.setColumnVisibility()
p896
sbsg104
g0
(g105
g106
(g107
g108
tp897
tp898
Rp899
sg112
VStdNrmlGeoGroups
p900
sbag115
ag123
ag131
ag139
ag34
ag184
ag195
asg22
V/home/ubuntu/SciSheets/mysite/user/guest/tables/kristen_single_gene.pcl
p901
sg112
VSingleGene
p902
sb.