ccopy_reg
_reconstructor
p0
(cscisheets.ui.dt_table
DTTable
p1
c__builtin__
object
p2
Ntp3
Rp4
(dp5
S'_hidden_columns'
p6
(lp7
sS'_columns'
p8
(lp9
g0
(cscisheets.core.column
Column
p10
g2
Ntp11
Rp12
(dp13
S'_asis'
p14
I01
sS'_owning_table'
p15
g4
sS'_cells'
p16
(lp17
S'1'
p18
aS'2'
p19
aS'3'
p20
aS'4'
p21
aS'5'
p22
aS'6'
p23
aS'7'
p24
aS'8'
p25
aS'9'
p26
aS'10'
p27
aS'11'
p28
aS'12'
p29
aS'13'
p30
aS'14'
p31
aS'15'
p32
aS'16'
p33
aS'17'
p34
aS'18'
p35
aS'19'
p36
aS'20'
p37
aS'21'
p38
aS'22'
p39
aS'23'
p40
aS'24'
p41
aS'25'
p42
aS'26'
p43
aS'27'
p44
aS'28'
p45
aS'29'
p46
aS'30'
p47
aS'31'
p48
aS'32'
p49
aS'33'
p50
aS'34'
p51
aS'35'
p52
aS'36'
p53
aS'37'
p54
aS'38'
p55
aS'39'
p56
aS'40'
p57
aS'41'
p58
aS'42'
p59
aS'43'
p60
aS'44'
p61
aS'45'
p62
aS'46'
p63
aS'47'
p64
aS'48'
p65
aS'49'
p66
aS'50'
p67
aS'51'
p68
aS'52'
p69
aS'53'
p70
aS'54'
p71
asS'_formula_statement'
p72
g0
(cscisheets.core.column
FormulaStatement
p73
g2
Ntp74
Rp75
(dp76
S'_statement'
p77
NsS'_column'
p78
g12
sS'_isExpression'
p79
I00
sS'_isStatement'
p80
I00
sS'_formula'
p81
NsbsS'_data_class'
p82
g0
(cscisheets.core.helpers.api_util
DataClass
p83
c__builtin__
tuple
p84
(cnumpy
ndarray
p85
cscisheets.core.helpers.api_util
makeArray
p86
tp87
tp88
Rp89
sS'_name'
p90
S'row'
p91
sbag0
(g10
g2
Ntp92
Rp93
(dp94
g14
I00
sg15
g4
sg16
(lp95
Vgene
p96
aVrun
p97
aVshow_raw
p98
aVshow_groups
p99
aVnan
p100
aVnan
p101
aVnan
p102
aVnan
p103
aVnan
p104
aVnan
p105
aVnan
p106
aVnan
p107
aVnan
p108
aVnan
p109
aVnan
p110
aVnan
p111
aVnan
p112
aVnan
p113
aVnan
p114
aVnan
p115
aVnan
p116
aVnan
p117
aVnan
p118
aVnan
p119
aVnan
p120
aVnan
p121
aVnan
p122
aVnan
p123
aVnan
p124
aVnan
p125
aVnan
p126
aVnan
p127
aVnan
p128
aVnan
p129
aVnan
p130
aVnan
p131
aVnan
p132
aVnan
p133
aVnan
p134
aVnan
p135
aVnan
p136
aVnan
p137
aVnan
p138
aVnan
p139
aVnan
p140
aVnan
p141
aVnan
p142
aVnan
p143
aVnan
p144
aVnan
p145
aVnan
p146
aVnan
p147
aVnan
p148
aVnan
p149
asg72
g0
(g73
g2
Ntp150
Rp151
(dp152
g77
Nsg78
g93
sg79
I00
sg80
I00
sg81
Nsbsg82
g0
(g83
g84
(g85
g86
tp153
tp154
Rp155
sg90
VParmNames
p156
sbag0
(g10
g2
Ntp157
Rp158
(dp159
g14
I00
sg15
g4
sg16
(lp160
VGene2
p161
aVTrue
p162
aVTrue
p163
aVTrue
p164
aV
p165
aVnan
p166
aVnan
p167
aVnan
p168
aVnan
p169
aVnan
p170
aVnan
p171
aVnan
p172
aVnan
p173
aVnan
p174
aVnan
p175
aVnan
p176
aVnan
p177
aVnan
p178
aVnan
p179
aVnan
p180
aVnan
p181
aVnan
p182
aVnan
p183
aVnan
p184
aVnan
p185
aVnan
p186
aVnan
p187
aVnan
p188
aVnan
p189
aVnan
p190
aVnan
p191
aVnan
p192
aVnan
p193
aVnan
p194
aVnan
p195
aVnan
p196
aVnan
p197
aVnan
p198
aVnan
p199
aVnan
p200
aVnan
p201
aVnan
p202
aVnan
p203
aVnan
p204
aVnan
p205
aVnan
p206
aVnan
p207
aVnan
p208
aVnan
p209
aVnan
p210
aVnan
p211
aVnan
p212
aVnan
p213
aVnan
p214
asg72
g0
(g73
g2
Ntp215
Rp216
(dp217
g77
Vxlsx_path = '/mnt/hgfs/josephhellerstein/home/Technical/SciSheets/CaseStudies/Kristen/workbooks/data.xlsx'\u000as.setColumnVisibility()\u000agene = ParmValues[0]\u000arun = ParmValues[1] == 'True'\u000ashow_raw = ParmValues[2] == 'True'\u000ashow_groups = ParmValues[3] == 'True'\u000aworksheet = gene + "-I"\u000aif False:\u000a  Groups = []\u000a  GroupedCt = []\u000a  GroupedEff = []\u000a  MeanCt = []\u000a  Imp = []\u000a  s.deleteColumn('Ct')\u000a  s.deleteColumn('RunType')\u000a  s.deleteColumn('BRpl')\u000a  s.deleteColumn('TRpl')\u000a  s.deleteColumn('Treatment')\u000a  s.deleteColumn('SmplName')\u000a  s.deleteColumn('Eff')\u000aif run:\u000a  importExcelToTable(s, xlsx_path, worksheet=worksheet)\u000a  BRpl = s.getColumnValues('BRpl')\u000a  Ct = s.getColumnValues('Ct')\u000a  Eff = s.getColumnValues('Eff')\u000a  RunType = s.getColumnValues('RunType')\u000a  TRpl = s.getColumnValues('TRpl')\u000a  Treatment = s.getColumnValues('Treatment')\u000a  s.setColumnVisibility(['BRpl', 'Ct', 'Eff', 'RunType', 'SmplName', 'TRpl', 'Treatment'], is_visible=show_raw)
p218
sg78
g158
sg79
I00
sg80
I00
sg81
Vxlsx_path = '/mnt/hgfs/josephhellerstein/home/Technical/SciSheets/CaseStudies/Kristen/workbooks/data.xlsx'\u000as.setColumnVisibility()\u000agene = ParmValues[0]\u000arun = ParmValues[1] == 'True'\u000ashow_raw = ParmValues[2] == 'True'\u000ashow_groups = ParmValues[3] == 'True'\u000aworksheet = gene + "-I"\u000aif False:\u000a  Groups = []\u000a  GroupedCt = []\u000a  GroupedEff = []\u000a  MeanCt = []\u000a  Imp = []\u000a  s.deleteColumn('Ct')\u000a  s.deleteColumn('RunType')\u000a  s.deleteColumn('BRpl')\u000a  s.deleteColumn('TRpl')\u000a  s.deleteColumn('Treatment')\u000a  s.deleteColumn('SmplName')\u000a  s.deleteColumn('Eff')\u000aif run:\u000a  importExcelToTable(s, xlsx_path, worksheet=worksheet)\u000a  BRpl = s.getColumnValues('BRpl')\u000a  Ct = s.getColumnValues('Ct')\u000a  Eff = s.getColumnValues('Eff')\u000a  RunType = s.getColumnValues('RunType')\u000a  TRpl = s.getColumnValues('TRpl')\u000a  Treatment = s.getColumnValues('Treatment')\u000a  s.setColumnVisibility(['BRpl', 'Ct', 'Eff', 'RunType', 'SmplName', 'TRpl', 'Treatment'], is_visible=show_raw)
p219
sbsg82
g0
(g83
g84
(g85
g86
tp220
tp221
Rp222
sg90
VParmValues
p223
sbag0
(g10
g2
Ntp224
Rp225
(dp226
g14
I00
sg15
g4
sg16
(lp227
(lp228
g18
aS'I'
p229
aS'0'
p230
aa(lp231
g18
aS'I'
p232
ag18
aa(lp233
g18
aS'I'
p234
ag19
aa(lp235
g18
aS'I'
p236
ag20
aa(lp237
g18
aS'R1'
p238
ag230
aa(lp239
g18
aS'R1'
p240
ag18
aa(lp241
g18
aS'R1'
p242
ag19
aa(lp243
g18
aS'R1'
p244
ag20
aa(lp245
g18
aS'R2'
p246
ag230
aa(lp247
g18
aS'R2'
p248
ag18
aa(lp249
g18
aS'R2'
p250
ag19
aa(lp251
g18
aS'R2'
p252
ag20
aa(lp253
g19
aS'I'
p254
ag18
aa(lp255
g19
aS'R1'
p256
ag18
aa(lp257
g19
aS'R2'
p258
ag18
aa(lp259
g20
aS'I'
p260
ag18
aa(lp261
g20
aS'R1'
p262
ag18
aa(lp263
g20
aS'R2'
p264
ag18
aaNaNaNaNaNaNaNaNaNaNaNaNaNaNaNaNaNaNaNaNaNaNaNaNaNaNaNaNaNaNaNaNaNaNaNaNasg72
g0
(g73
g2
Ntp265
Rp266
(dp267
g77
Vif run:\u000a  selector = Eff > 0.7\u000a  GroupingColumns =   [\u000a      BRpl[selector],\u000a      RunType[selector], \u000a      Treatment[selector]\u000a    ]\u000a  Groups, groupedCt = groupBy(\u000a    GroupingColumns, Ct[selector])\u000a  Groups, groupedEff = groupBy(\u000a    GroupingColumns, Eff[selector])\u000a  GroupedCt = roundValues(groupedCt)\u000a  GroupedEff = roundValues(groupedEff)
p268
sg78
g225
sg79
I00
sg80
I00
sg81
Vif run:\u000a  selector = Eff > 0.7\u000a  GroupingColumns =   [\u000a      BRpl[selector],\u000a      RunType[selector], \u000a      Treatment[selector]\u000a    ]\u000a  Groups, groupedCt = groupBy(\u000a    GroupingColumns, Ct[selector])\u000a  Groups, groupedEff = groupBy(\u000a    GroupingColumns, Eff[selector])\u000a  GroupedCt = roundValues(groupedCt)\u000a  GroupedEff = roundValues(groupedEff)
p269
sbsg82
g0
(g83
g84
(g85
g86
tp270
tp271
Rp272
sg90
VGroups
p273
sbag0
(g10
g2
Ntp274
Rp275
(dp276
g14
I00
sg15
g4
sg16
(lp277
(lp278
F0.9
aF0.9
aF0.9
aa(lp279
F0.8
aF0.8
aF0.9
aa(lp280
F0.8
aF0.8
aF0.8
aa(lp281
F0.9
aF0.9
aF0.9
aa(lp282
F0.8
aF0.8
aF0.8
aa(lp283
F0.9
aF1.0
aF0.9
aa(lp284
F0.8
aF0.9
aF0.8
aa(lp285
F0.9
aF0.9
aF0.9
aa(lp286
F0.8
aF0.9
aF0.8
aa(lp287
F0.8
aF0.8
aF0.9
aa(lp288
F0.8
aF0.8
aF0.8
aa(lp289
F0.8
aF0.8
aF0.8
aa(lp290
F0.9
aF0.8
aF0.9
aa(lp291
F0.9
aF0.8
aF0.8
aa(lp292
F0.8
aF0.8
aF0.8
aa(lp293
F0.8
aF0.8
aF0.8
aa(lp294
F0.9
aF0.8
aF0.8
aa(lp295
F0.8
aF0.8
aF0.8
aaNaNaNaNaNaNaNaNaNaNaNaNaNaNaNaNaNaNaNaNaNaNaNaNaNaNaNaNaNaNaNaNaNaNaNaNasg72
g0
(g73
g2
Ntp296
Rp297
(dp298
g77
Nsg78
g275
sg79
I00
sg80
I00
sg81
Nsbsg82
g0
(g83
g84
(g85
g86
tp299
tp300
Rp301
sg90
VGroupedEff
p302
sbag0
(g10
g2
Ntp303
Rp304
(dp305
g14
I00
sg15
g4
sg16
(lp306
(lp307
F18.3
aF18.3
aF18.1
aa(lp308
F22.4
aF22.5
aF22.4
aa(lp309
F23.5
aF23.3
aF23.4
aa(lp310
F18.8
aF19.0
aF18.9
aa(lp311
F18.2
aF18.2
aF18.4
aa(lp312
F19.9
aF19.9
aF20.0
aa(lp313
F23.2
aF23.8
aF23.5
aa(lp314
F18.9
aF18.8
aF18.8
aa(lp315
F19.7
aF19.8
aF20.0
aa(lp316
F22.2
aF21.7
aF21.8
aa(lp317
F26.4
aF26.4
aF26.2
aa(lp318
F20.5
aF20.5
aF20.3
aa(lp319
F21.9
aF22.0
aF21.9
aa(lp320
F21.9
aF22.1
aF21.8
aa(lp321
F23.9
aF23.4
aF23.6
aa(lp322
F23.4
aF23.5
aF23.4
aa(lp323
F23.9
aF23.5
aF24.3
aa(lp324
F24.6
aF24.6
aF24.3
aaNaNaNaNaNaNaNaNaNaNaNaNaNaNaNaNaNaNaNaNaNaNaNaNaNaNaNaNaNaNaNaNaNaNaNaNasg72
g0
(g73
g2
Ntp325
Rp326
(dp327
g77
Nsg78
g304
sg79
I00
sg80
I00
sg81
Nsbsg82
g0
(g83
g84
(g85
g86
tp328
tp329
Rp330
sg90
VGroupedCt
p331
sbag0
(g10
g2
Ntp332
Rp333
(dp334
g14
I00
sg15
g4
sg16
(lp335
F18.2
aF22.4
aF23.4
aF18.9
aF18.3
aF19.9
aF23.5
aF18.8
aF19.8
aF21.9
aF26.3
aF20.4
aF21.9
aF21.9
aF23.6
aF23.4
aF23.9
aF24.5
aFnan
aFnan
aFnan
aFnan
aFnan
aFnan
aFnan
aFnan
aFnan
aFnan
aFnan
aFnan
aFnan
aFnan
aFnan
aFnan
aFnan
aFnan
aFnan
aFnan
aFnan
aFnan
aFnan
aFnan
aFnan
aFnan
aFnan
aFnan
aFnan
aFnan
aFnan
aFnan
aFnan
aFnan
aFnan
aFnan
asg72
g0
(g73
g2
Ntp336
Rp337
(dp338
g77
Vfiltered_group = [filterExtremes(g, 0.5, 2) for g in GroupedCt]\u000aMeanCt = [np.mean(g) for g in filtered_group]\u000aMeanCt = roundValues(MeanCt,1)\u000as.setColumnVisibility(['Groups', 'GroupedEff', 'GroupedCt', 'MeanCt'], is_visible=show_groups)
p339
sg78
g333
sg79
I00
sg80
I00
sg81
Vfiltered_group = [filterExtremes(g, 0.5, 2) for g in GroupedCt]\u000aMeanCt = [np.mean(g) for g in filtered_group]\u000aMeanCt = roundValues(MeanCt,1)\u000as.setColumnVisibility(['Groups', 'GroupedEff', 'GroupedCt', 'MeanCt'], is_visible=show_groups)
p340
sbsg82
g0
(g83
g84
(g85
g86
tp341
tp342
Rp343
sg90
VMeanCt
p344
sbag0
(g10
g2
Ntp345
Rp346
(dp347
g14
I00
sg15
g4
sg16
(lp348
(lp349
S'1'
p350
aS'0'
p351
aa(lp352
g350
ag350
aa(lp353
g350
aS'2'
p354
aa(lp355
g350
aS'3'
p356
aa(lp357
g354
ag350
aa(lp358
g356
ag350
aaNaNaNaNaNaNaNaNaNaNaNaNaNaNaNaNaNaNaNaNaNaNaNaNaNaNaNaNaNaNaNaNaNaNaNaNaNaNaNaNaNaNaNaNaNaNaNaNasg72
g0
(g73
g2
Ntp359
Rp360
(dp361
g77
Vif run:\u000a  tabularize(s, 'Groups', 1, 'MeanCt', \u000a      new_category_colnm='BioRuns',\u000a      values_colnm_prefix='Gene_')\u000a  BioRuns = s.getColumnValues('BioRuns')
p362
sg78
g346
sg79
I00
sg80
I00
sg81
Vif run:\u000a  tabularize(s, 'Groups', 1, 'MeanCt', \u000a      new_category_colnm='BioRuns',\u000a      values_colnm_prefix='Gene_')\u000a  BioRuns = s.getColumnValues('BioRuns')
p363
sbsg82
g0
(g83
g84
(g85
g86
tp364
tp365
Rp366
sg90
VBioRuns
p367
sbag0
(g10
g2
Ntp368
Rp369
(dp370
g14
I00
sg15
g4
sg16
(lp371
F18.2
aF22.4
aF23.4
aF18.9
aF21.9
aF23.4
aFnan
aFnan
aFnan
aFnan
aFnan
aFnan
aFnan
aFnan
aFnan
aFnan
aFnan
aFnan
aFnan
aFnan
aFnan
aFnan
aFnan
aFnan
aFnan
aFnan
aFnan
aFnan
aFnan
aFnan
aFnan
aFnan
aFnan
aFnan
aFnan
aFnan
aFnan
aFnan
aFnan
aFnan
aFnan
aFnan
aFnan
aFnan
aFnan
aFnan
aFnan
aFnan
aFnan
aFnan
aFnan
aFnan
aFnan
aFnan
asg72
g0
(g73
g2
Ntp372
Rp373
(dp374
g77
Nsg78
g369
sg79
I00
sg80
I00
sg81
Nsbsg82
g0
(g83
g84
(g85
g86
tp375
tp376
Rp377
sg90
S'Gene_I'
p378
sbag0
(g10
g2
Ntp379
Rp380
(dp381
g14
I00
sg15
g4
sg16
(lp382
F18.3
aF19.9
aF23.5
aF18.8
aF21.9
aF23.9
aFnan
aFnan
aFnan
aFnan
aFnan
aFnan
aFnan
aFnan
aFnan
aFnan
aFnan
aFnan
aFnan
aFnan
aFnan
aFnan
aFnan
aFnan
aFnan
aFnan
aFnan
aFnan
aFnan
aFnan
aFnan
aFnan
aFnan
aFnan
aFnan
aFnan
aFnan
aFnan
aFnan
aFnan
aFnan
aFnan
aFnan
aFnan
aFnan
aFnan
aFnan
aFnan
aFnan
aFnan
aFnan
aFnan
aFnan
aFnan
asg72
g0
(g73
g2
Ntp383
Rp384
(dp385
g77
Nsg78
g380
sg79
I00
sg80
I00
sg81
Nsbsg82
g377
sg90
S'Gene_R1'
p386
sbag0
(g10
g2
Ntp387
Rp388
(dp389
g14
I00
sg15
g4
sg16
(lp390
F19.8
aF21.9
aF26.3
aF20.4
aF23.6
aF24.5
aFnan
aFnan
aFnan
aFnan
aFnan
aFnan
aFnan
aFnan
aFnan
aFnan
aFnan
aFnan
aFnan
aFnan
aFnan
aFnan
aFnan
aFnan
aFnan
aFnan
aFnan
aFnan
aFnan
aFnan
aFnan
aFnan
aFnan
aFnan
aFnan
aFnan
aFnan
aFnan
aFnan
aFnan
aFnan
aFnan
aFnan
aFnan
aFnan
aFnan
aFnan
aFnan
aFnan
aFnan
aFnan
aFnan
aFnan
aFnan
asg72
g0
(g73
g2
Ntp391
Rp392
(dp393
g77
Nsg78
g388
sg79
I00
sg80
I00
sg81
Nsbsg82
g377
sg90
S'Gene_R2'
p394
sbag0
(g10
g2
Ntp395
Rp396
(dp397
g14
I00
sg15
g4
sg16
(lp398
F1.07177
aF0.17678
aF1.07177
aF0.93303
aF1.0
aF1.41421
aFnan
aFnan
aFnan
aFnan
aFnan
aFnan
aFnan
aFnan
aFnan
aFnan
aFnan
aFnan
aFnan
aFnan
aFnan
aFnan
aFnan
aFnan
aFnan
aFnan
aFnan
aFnan
aFnan
aFnan
aFnan
aFnan
aFnan
aFnan
aFnan
aFnan
aFnan
aFnan
aFnan
aFnan
aFnan
aFnan
aFnan
aFnan
aFnan
aFnan
aFnan
aFnan
aFnan
aFnan
aFnan
aFnan
aFnan
aFnan
asg72
g0
(g73
g2
Ntp399
Rp400
(dp401
g77
VExprR1 = roundValues(2**(Gene_R1 - Gene_I),5)
p402
sg78
g396
sg79
I01
sg80
I00
sg81
VroundValues(2**(Gene_R1 - Gene_I),5)
p403
sbsg82
g0
(g83
g84
(g85
g86
tp404
tp405
Rp406
sg90
VExprR1
p407
sbag0
(g10
g2
Ntp408
Rp409
(dp410
g14
I00
sg15
g4
sg16
(lp411
F3.03143
aF0.70711
aF7.46426
aF2.82843
aF3.24901
aF2.14355
aFnan
aFnan
aFnan
aFnan
aFnan
aFnan
aFnan
aFnan
aFnan
aFnan
aFnan
aFnan
aFnan
aFnan
aFnan
aFnan
aFnan
aFnan
aFnan
aFnan
aFnan
aFnan
aFnan
aFnan
aFnan
aFnan
aFnan
aFnan
aFnan
aFnan
aFnan
aFnan
aFnan
aFnan
aFnan
aFnan
aFnan
aFnan
aFnan
aFnan
aFnan
aFnan
aFnan
aFnan
aFnan
aFnan
aFnan
aFnan
asg72
g0
(g73
g2
Ntp412
Rp413
(dp414
g77
VExprR2 = roundValues(2**(Gene_R2 - Gene_I),5)
p415
sg78
g409
sg79
I01
sg80
I00
sg81
VroundValues(2**(Gene_R2 - Gene_I),5)
p416
sbsg82
g0
(g83
g84
(g85
g86
tp417
tp418
Rp419
sg90
VExprR2
p420
sbag0
(g10
g2
Ntp421
Rp422
(dp423
g14
I00
sg15
g4
sg16
(lp424
F1.802
aF0.354
aF2.828
aF1.625
aF1.803
aF1.741
aFnan
aFnan
aFnan
aFnan
aFnan
aFnan
aFnan
aFnan
aFnan
aFnan
aFnan
aFnan
aFnan
aFnan
aFnan
aFnan
aFnan
aFnan
aFnan
aFnan
aFnan
aFnan
aFnan
aFnan
aFnan
aFnan
aFnan
aFnan
aFnan
aFnan
aFnan
aFnan
aFnan
aFnan
aFnan
aFnan
aFnan
aFnan
aFnan
aFnan
aFnan
aFnan
aFnan
aFnan
aFnan
aFnan
aFnan
aFnan
asg72
g0
(g73
g2
Ntp425
Rp426
(dp427
g77
VGeoMean = roundValues(np.sqrt(ExprR1*ExprR2), 3)
p428
sg78
g422
sg79
I01
sg80
I00
sg81
VroundValues(np.sqrt(ExprR1*ExprR2), 3)
p429
sbsg82
g0
(g83
g84
(g85
g86
tp430
tp431
Rp432
sg90
VGeoMean
p433
sbag0
(g10
g2
Ntp434
Rp435
(dp436
g14
I00
sg15
g4
sg16
(lp437
(lp438
g230
aa(lp439
g18
aa(lp440
g19
aa(lp441
g20
aaNaNaNaNaNaNaNaNaNaNaNaNaNaNaNaNaNaNaNaNaNaNaNaNaNaNaNaNaNaNaNaNaNaNaNaNaNaNaNaNaNaNaNaNaNaNaNaNaNaNasg72
g0
(g73
g2
Ntp442
Rp443
(dp444
g77
Nsg78
g435
sg79
I00
sg80
I00
sg81
Nsbsg82
g0
(g83
g84
(g85
g86
tp445
tp446
Rp447
sg90
VGeoGroups
p448
sbag0
(g10
g2
Ntp449
Rp450
(dp451
g14
I00
sg15
g4
sg16
(lp452
cnumpy.core.multiarray
_reconstruct
p453
(g85
(I0
tp454
S'b'
p455
tp456
Rp457
(I1
(I1
tp458
cnumpy
dtype
p459
(S'f8'
p460
I0
I1
tp461
Rp462
(I3
S'<'
p463
NNNI-1
I-1
I0
tp464
bI00
S'\xa2E\xb6\xf3\xfd\xd4\xfc?'
p465
tp466
bag453
(g85
(I0
tp467
g455
tp468
Rp469
(I1
(I3
tp470
g462
I00
S'\x0e-\xb2\x9d\xef\xa7\xd6?\x0c\x02+\x87\x16\xd9\xfc?B`\xe5\xd0"\xdb\xfb?'
p471
tp472
bag453
(g85
(I0
tp473
g455
tp474
Rp475
(I1
(I1
tp476
g462
I00
S'9\xb4\xc8v\xbe\x9f\x06@'
p477
tp478
bag453
(g85
(I0
tp479
g455
tp480
Rp481
(I1
(I1
tp482
g462
I00
S'\x00\x00\x00\x00\x00\x00\xfa?'
p483
tp484
baNaNaNaNaNaNaNaNaNaNaNaNaNaNaNaNaNaNaNaNaNaNaNaNaNaNaNaNaNaNaNaNaNaNaNaNaNaNaNaNaNaNaNaNaNaNaNaNaNaNasg72
g0
(g73
g2
Ntp485
Rp486
(dp487
g77
Vcat_vals = [br for br in BioRuns if br is not None]\u000acat_vals = [br[1] for br in cat_vals]\u000aclean_geo = [x for x in GeoMean if not np.isnan(x)]\u000aGeoGroups, groupedGeoMean = groupBy(cat_vals, clean_geo)\u000aGroupedGeoMean = roundValues(groupedGeoMean, 3)
p488
sg78
g450
sg79
I00
sg80
I00
sg81
Vcat_vals = [br for br in BioRuns if br is not None]\u000acat_vals = [br[1] for br in cat_vals]\u000aclean_geo = [x for x in GeoMean if not np.isnan(x)]\u000aGeoGroups, groupedGeoMean = groupBy(cat_vals, clean_geo)\u000aGroupedGeoMean = roundValues(groupedGeoMean, 3)
p489
sbsg82
g0
(g83
g84
(g85
g86
tp490
tp491
Rp492
sg90
VGroupedGeoMean
p493
sbag0
(g10
g2
Ntp494
Rp495
(dp496
g14
I00
sg15
g4
sg16
(lp497
I1
aI1
aI1
aI2
aI2
aI2
aI3
aI3
aI3
aI1
aI1
aI1
aI1
aI1
aI1
aI1
aI1
aI1
aI1
aI1
aI1
aI2
aI2
aI2
aI3
aI3
aI3
aI1
aI1
aI1
aI1
aI1
aI1
aI1
aI1
aI1
aI1
aI1
aI1
aI2
aI2
aI2
aI3
aI3
aI3
aI1
aI1
aI1
aI1
aI1
aI1
aI1
aI1
aI1
asg72
g0
(g73
g2
Ntp498
Rp499
(dp500
g77
Nsg78
g495
sg79
I00
sg80
I00
sg81
Nsbsg82
g0
(g83
g84
(g85
g86
tp501
tp502
Rp503
sg90
S'BRpl'
p504
sbag0
(g10
g2
Ntp505
Rp506
(dp507
g14
I00
sg15
g4
sg16
(lp508
F22.42
aF22.5
aF22.44
aF21.92
aF22.03
aF21.94
aF23.4
aF23.47
aF23.41
aF23.48
aF23.31
aF23.45
aF18.82
aF18.97
aF18.92
aF18.31
aF18.29
aF18.15
aF19.92
aF19.85
aF20.0
aF21.86
aF22.09
aF21.84
aF23.89
aF23.54
aF24.27
aF23.22
aF23.8
aF23.49
aF18.91
aF18.78
aF18.8
aF18.24
aF18.22
aF18.36
aF22.18
aF21.71
aF21.75
aF23.88
aF23.42
aF23.63
aF24.59
aF24.61
aF24.34
aF26.37
aF26.36
aF26.17
aF20.5
aF20.47
aF20.28
aF19.72
aF19.75
aF20.01
asg72
g0
(g73
g2
Ntp509
Rp510
(dp511
g77
Nsg78
g506
sg79
I00
sg80
I00
sg81
Nsbsg82
g503
sg90
S'Ct'
p512
sbag0
(g10
g2
Ntp513
Rp514
(dp515
g14
I00
sg15
g4
sg16
(lp516
F0.8453
aF0.8426
aF0.8524
aF0.8658
aF0.7809
aF0.8512
aF0.8442
aF0.8357
aF0.7658
aF0.8352
aF0.7886
aF0.8105
aF0.876
aF0.8597
aF0.8873
aF0.919
aF0.9106
aF0.9129
aF0.9179
aF0.9783
aF0.8971
aF0.8957
aF0.8287
aF0.8387
aF0.8746
aF0.8493
aF0.8349
aF0.7701
aF0.8746
aF0.8139
aF0.8715
aF0.8977
aF0.856
aF0.8266
aF0.8343
aF0.8496
aF0.7857
aF0.8427
aF0.8637
aF0.8281
aF0.8203
aF0.8288
aF0.8138
aF0.8242
aF0.804
aF0.7795
aF0.7676
aF0.7947
aF0.8179
aF0.8173
aF0.7894
aF0.8157
aF0.8543
aF0.8208
asg72
g0
(g73
g2
Ntp517
Rp518
(dp519
g77
Nsg78
g514
sg79
I00
sg80
I00
sg81
Nsbsg82
g503
sg90
S'Eff'
p520
sbag0
(g10
g2
Ntp521
Rp522
(dp523
g14
I00
sg15
g4
sg16
(lp524
VI
p525
ag525
ag525
ag525
ag525
ag525
ag525
ag525
ag525
ag525
ag525
ag525
ag525
ag525
ag525
ag525
ag525
ag525
aVR1
p526
aVR1
p527
aVR1
p528
aVR1
p529
aVR1
p530
aVR1
p531
aVR1
p532
aVR1
p533
aVR1
p534
aVR1
p535
aVR1
p536
aVR1
p537
aVR1
p538
aVR1
p539
aVR1
p540
aVR1
p541
aVR1
p542
aVR1
p543
aVR2
p544
aVR2
p545
aVR2
p546
aVR2
p547
aVR2
p548
aVR2
p549
aVR2
p550
aVR2
p551
aVR2
p552
aVR2
p553
aVR2
p554
aVR2
p555
aVR2
p556
aVR2
p557
aVR2
p558
aVR2
p559
aVR2
p560
aVR2
p561
asg72
g0
(g73
g2
Ntp562
Rp563
(dp564
g77
Nsg78
g522
sg79
I00
sg80
I00
sg81
Nsbsg82
g503
sg90
S'RunType'
p565
sbag0
(g10
g2
Ntp566
Rp567
(dp568
g14
I00
sg15
g4
sg16
(lp569
VSEP1 2012 P17F4 3a
p570
aVSEP1 2012 P17F4 b
p571
aVSEP1 2012 P17F4 c
p572
aVSEP1 2012 P17F5 a
p573
aVSEP1 2012 P17F5 b
p574
aVSEP1 2012 P17F5 c
p575
aVSEP1 2012 P1F3 SEP1a
p576
aVSEP1 2012 P1F3 SEP1b
p577
aVSEP1 2012 P1F3 SEP1c
p578
aVSEP1-2 2012 P11aF2 a
p579
aVSEP1-2 2012 P11aF2 b
p580
aVSEP1-2 2012 P11aF2 c
p581
aVSEP1-3 2012 P15F2 a
p582
aVSEP1-3 2012 P15F2 b
p583
aVSEP1-3 2012 P15F2 c
p584
aVuntreated 2012 P12F1 SEP3-3 1:2a
p585
aVuntreated 2012 P12F1 SEP3-3 1:2b
p586
aVuntreated 2012 P12F1 SEP3-3 1:2c
p587
aVSEP1 2012 P17F4 ACTa
p588
aVSEP1 2012 P17F4 ACTb
p589
aVSEP1 2012 P17F4 ACTc
p590
aVSEP1 2012 P17F5 ACTa
p591
aVSEP1 2012 P17F5 ACTb
p592
aVSEP1 2012 P17F5 ACTc
p593
aVSEP1 2012 P1F3 ACTa
p594
aVSEP1 2012 P1F3 ACTb
p595
aVSEP1 2012 P1F3 ACTc
p596
aVSEP1-2 2012 P11aF2 ACTa
p597
aVSEP1-2 2012 P11aF2 ACTb
p598
aVSEP1-2 2012 P11aF2 ACTc
p599
aVSEP1-3 2012 P15F2 ACTa
p600
aVSEP1-3 2012 P15F2 ACTb
p601
aVSEP1-3 2012 P15F2 ACTc
p602
aVuntreated 2012 P12F1 ACTa
p603
aVuntreated 2012 P12F1 ACTb
p604
aVuntreated 2012 P12F1 ACTc
p605
aVSEP1 2012 P17F4 EEF1a
p606
aVSEP1 2012 P17F4 EEF1b
p607
aVSEP1 2012 P17F4 EEF1c
p608
aVSEP1 2012 P17F5 EEF1a
p609
aVSEP1 2012 P17F5 EEF1b
p610
aVSEP1 2012 P17F5 EEF1c
p611
aVSEP1 2012 P1F3 EEF1a
p612
aVSEP1 2012 P1F3 EEF1b
p613
aVSEP1 2012 P1F3 EEF1c
p614
aVSEP1-2 2012 P11aF2 EEF1a
p615
aVSEP1-2 2012 P11aF2 EEF1b
p616
aVSEP1-2 2012 P11aF2 EEF1c
p617
aVSEP1-3 2012 P15F2 EEF1a
p618
aVSEP1-3 2012 P15F2 EEF1b
p619
aVSEP1-3 2012 P15F2 EEF1c
p620
aVuntreated 2012 P12F1 EEF1a
p621
aVuntreated 2012 P12F1 EEF1b
p622
aVuntreated 2012 P12F1 EEF1c
p623
asg72
g0
(g73
g2
Ntp624
Rp625
(dp626
g77
Nsg78
g567
sg79
I00
sg80
I00
sg81
Nsbsg82
g503
sg90
S'SmplName'
p627
sbag0
(g10
g2
Ntp628
Rp629
(dp630
g14
I00
sg15
g4
sg16
(lp631
Va
p632
aVb
p633
aVc
p634
ag632
ag633
ag634
ag632
ag633
ag634
ag632
ag633
ag634
ag632
ag633
ag634
ag632
ag633
ag634
ag632
ag633
ag634
ag632
ag633
ag634
ag632
ag633
ag634
ag632
ag633
ag634
ag632
ag633
ag634
ag632
ag633
ag634
ag632
ag633
ag634
ag632
ag633
ag634
ag632
ag633
ag634
ag632
ag633
ag634
ag632
ag633
ag634
ag632
ag633
ag634
asg72
g0
(g73
g2
Ntp635
Rp636
(dp637
g77
Nsg78
g629
sg79
I00
sg80
I00
sg81
Nsbsg82
g503
sg90
S'TRpl'
p638
sbag0
(g10
g2
Ntp639
Rp640
(dp641
g14
I00
sg15
g4
sg16
(lp642
I1
aI1
aI1
aI1
aI1
aI1
aI1
aI1
aI1
aI2
aI2
aI2
aI3
aI3
aI3
aI0
aI0
aI0
aI1
aI1
aI1
aI1
aI1
aI1
aI1
aI1
aI1
aI2
aI2
aI2
aI3
aI3
aI3
aI0
aI0
aI0
aI1
aI1
aI1
aI1
aI1
aI1
aI1
aI1
aI1
aI2
aI2
aI2
aI3
aI3
aI3
aI0
aI0
aI0
asg72
g0
(g73
g2
Ntp643
Rp644
(dp645
g77
Nsg78
g640
sg79
I00
sg80
I00
sg81
Nsbsg82
g503
sg90
S'Treatment'
p646
sbasS'_filepath'
p647
V/home/ubuntu/SciSheets/mysite/user/guest/tables/kristen_single_gene.pcl
p648
sg90
VSingleGene
p649
sb.