ccopy_reg
_reconstructor
p0
(cscisheets.ui.dt_table
DTTable
p1
c__builtin__
object
p2
Ntp3
Rp4
(dp5
S'_versioned_file'
p6
g0
(cmysite.helpers.versioned_file
VersionedFile
p7
g2
Ntp8
Rp9
(dp10
S'_max_versions'
p11
I5
sS'_undo_stack'
p12
g0
(cmysite.helpers.file_stack
FileStack
p13
g2
Ntp14
Rp15
(dp16
S'_dirpath'
p17
S'/home/ubuntu/SciSheets/mysite/user/guest/tables/backup'
p18
sS'_max_depth'
p19
I5
sS'_filename_pfx'
p20
Vkristen_single_gene.u
p21
sbsS'_filepath'
p22
V/home/ubuntu/SciSheets/mysite/user/guest/tables/kristen_single_gene.pcl
p23
sS'_backup_dir'
p24
g18
sS'_redo_stack'
p25
g0
(g13
g2
Ntp26
Rp27
(dp28
g17
g18
sg19
I5
sg20
Vkristen_single_gene.r
p29
sbsbsS'_hidden_columns'
p30
(lp31
g0
(cscisheets.core.column
Column
p32
g2
Ntp33
Rp34
(dp35
S'_asis'
p36
I00
sS'_owning_table'
p37
g4
sS'_cells'
p38
(lp39
VSEP1 2012 P17F4 a
p40
aVSEP1 2012 P17F4 b
p41
aVSEP1 2012 P17F4 c
p42
aVSEP1 2012 P17F5 a
p43
aVSEP1 2012 P17F5 b
p44
aVSEP1 2012 P17F5 c
p45
aVSEP1 2012 P1F3 SEP1a
p46
aVSEP1 2012 P1F3 SEP1b
p47
aVSEP1 2012 P1F3 SEP1c
p48
aVSEP1-2 2012 P11aF2 a
p49
aVSEP1-2 2012 P11aF2 b
p50
aVSEP1-2 2012 P11aF2 c
p51
aVSEP1-3 2012 P15F2 a
p52
aVSEP1-3 2012 P15F2 b
p53
aVSEP1-3 2012 P15F2 c
p54
aVuntreated 2012 P12F1 SEP1 1:2a
p55
aVuntreated 2012 P12F1 SEP1 1:2b
p56
aVuntreated 2012 P12F1 SEP1 1:2c
p57
aVSEP1 2012 P17F4 ACTa
p58
aVSEP1 2012 P17F4 ACTb
p59
aVSEP1 2012 P17F4 ACTc
p60
aVSEP1 2012 P17F5 ACTa
p61
aVSEP1 2012 P17F5 ACTb
p62
aVSEP1 2012 P17F5 ACTc
p63
aVSEP1 2012 P1F3 ACTa
p64
aVSEP1 2012 P1F3 ACTb
p65
aVSEP1 2012 P1F3 ACTc
p66
aVSEP1-2 2012 P11aF2 ACTa
p67
aVSEP1-2 2012 P11aF2 ACTb
p68
aVSEP1-2 2012 P11aF2 ACTc
p69
aVSEP1-3 2012 P15F2 ACTa
p70
aVSEP1-3 2012 P15F2 ACTb
p71
aVSEP1-3 2012 P15F2 ACTc
p72
aVuntreated 2012 P12F1 ACTa
p73
aVuntreated 2012 P12F1 ACTb
p74
aVuntreated 2012 P12F1 ACTc
p75
aVSEP1 2012 P17F4 EEF1a
p76
aVSEP1 2012 P17F4 EEF1b
p77
aVSEP1 2012 P17F4 EEF1c
p78
aVSEP1 2012 P17F5 EEF1a
p79
aVSEP1 2012 P17F5 EEF1b
p80
aVSEP1 2012 P17F5 EEF1c
p81
aVSEP1 2012 P1F3 EEF1a
p82
aVSEP1 2012 P1F3 EEF1b
p83
aVSEP1 2012 P1F3 EEF1c
p84
aVSEP1-2 2012 P11aF2 EEF1a
p85
aVSEP1-2 2012 P11aF2 EEF1b
p86
aVSEP1-2 2012 P11aF2 EEF1c
p87
aVSEP1-3 2012 P15F2 EEF1a
p88
aVSEP1-3 2012 P15F2 EEF1b
p89
aVSEP1-3 2012 P15F2 EEF1c
p90
aVuntreated 2012 P12F1 EEF1a
p91
aVuntreated 2012 P12F1 EEF1b
p92
aVuntreated 2012 P12F1 EEF1c
p93
asS'_formula_statement'
p94
g0
(cscisheets.core.column
FormulaStatement
p95
g2
Ntp96
Rp97
(dp98
S'_statement'
p99
NsS'_column'
p100
g34
sS'_isExpression'
p101
I00
sS'_isStatement'
p102
I00
sS'_formula'
p103
NsbsS'_data_class'
p104
g0
(cscisheets.core.helpers.api_util
DataClass
p105
c__builtin__
tuple
p106
(cnumpy
ndarray
p107
cscisheets.core.helpers.api_util
makeArray
p108
tp109
tp110
Rp111
sS'_name'
p112
S'SmplName'
p113
sbag0
(g32
g2
Ntp114
Rp115
(dp116
g36
I00
sg37
g4
sg38
(lp117
I1
aI1
aI1
aI2
aI2
aI2
aI3
aI3
aI3
aI1
aI1
aI1
aI1
aI1
aI1
aI1
aI1
aI1
aI1
aI1
aI1
aI2
aI2
aI2
aI3
aI3
aI3
aI1
aI1
aI1
aI1
aI1
aI1
aI1
aI1
aI1
aI1
aI1
aI1
aI2
aI2
aI2
aI3
aI3
aI3
aI1
aI1
aI1
aI1
aI1
aI1
aI1
aI1
aI1
asg94
g0
(g95
g2
Ntp118
Rp119
(dp120
g99
Nsg100
g115
sg101
I00
sg102
I00
sg103
Nsbsg104
g111
sg112
S'BRpl'
p121
sbag0
(g32
g2
Ntp122
Rp123
(dp124
g36
I00
sg37
g4
sg38
(lp125
F26.68
aF27.13
aF27.21
aF26.76
aF26.71
aF26.19
aF29.98
aF30.12
aF29.41
aF29.95
aF30.45
aF29.88
aF24.8
aF24.97
aF24.63
aF23.0
aF22.86
aF22.8
aF19.92
aF19.85
aF20.0
aF21.86
aF22.09
aF21.84
aF23.89
aF23.54
aF24.27
aF23.22
aF23.8
aF23.49
aF18.91
aF18.78
aF18.8
aF18.24
aF18.22
aF18.36
aF22.18
aF21.71
aF21.75
aF23.88
aF23.42
aF23.63
aF24.59
aF24.61
aF24.34
aF26.37
aF26.36
aF26.17
aF20.5
aF20.47
aF20.28
aF19.72
aF19.75
aF20.01
asg94
g0
(g95
g2
Ntp126
Rp127
(dp128
g99
Nsg100
g123
sg101
I00
sg102
I00
sg103
Nsbsg104
g111
sg112
S'Ct'
p129
sbag0
(g32
g2
Ntp130
Rp131
(dp132
g36
I00
sg37
g4
sg38
(lp133
F0.9399
aF0.8296
aF0.8361
aF0.8039
aF0.8399
aF0.7935
aF0.8264
aF0.7974
aF0.8252
aF0.8418
aF0.7959
aF0.8071
aF0.8513
aF0.8485
aF0.8401
aF0.8371
aF0.891
aF0.8956
aF0.9179
aF0.9783
aF0.8971
aF0.8957
aF0.8287
aF0.8387
aF0.8746
aF0.8493
aF0.8349
aF0.7701
aF0.8746
aF0.8139
aF0.8715
aF0.8977
aF0.856
aF0.8266
aF0.8343
aF0.8496
aF0.7857
aF0.8427
aF0.8637
aF0.8281
aF0.8203
aF0.8288
aF0.8138
aF0.8242
aF0.804
aF0.7795
aF0.7676
aF0.7947
aF0.8179
aF0.8173
aF0.7894
aF0.8157
aF0.8543
aF0.8208
asg94
g0
(g95
g2
Ntp134
Rp135
(dp136
g99
Nsg100
g131
sg101
I00
sg102
I00
sg103
Nsbsg104
g111
sg112
S'Eff'
p137
sbag0
(g32
g2
Ntp138
Rp139
(dp140
g36
I00
sg37
g4
sg38
(lp141
VI
p142
ag142
ag142
ag142
ag142
ag142
ag142
ag142
ag142
ag142
ag142
ag142
ag142
ag142
ag142
ag142
ag142
ag142
aVR1
p143
ag143
ag143
ag143
ag143
ag143
ag143
ag143
ag143
ag143
ag143
ag143
ag143
ag143
ag143
ag143
ag143
ag143
aVR2
p144
ag144
ag144
ag144
ag144
ag144
ag144
ag144
ag144
ag144
ag144
ag144
ag144
ag144
ag144
ag144
ag144
ag144
asg94
g0
(g95
g2
Ntp145
Rp146
(dp147
g99
Nsg100
g139
sg101
I00
sg102
I00
sg103
Nsbsg104
g111
sg112
S'RunType'
p148
sbag0
(g32
g2
Ntp149
Rp150
(dp151
g36
I00
sg37
g4
sg38
(lp152
Va
p153
aVb
p154
aVc
p155
ag153
ag154
ag155
ag153
ag154
ag155
ag153
ag154
ag155
ag153
ag154
ag155
ag153
ag154
ag155
ag153
ag154
ag155
ag153
ag154
ag155
ag153
ag154
ag155
ag153
ag154
ag155
ag153
ag154
ag155
ag153
ag154
ag155
ag153
ag154
ag155
ag153
ag154
ag155
ag153
ag154
ag155
ag153
ag154
ag155
ag153
ag154
ag155
ag153
ag154
ag155
asg94
g0
(g95
g2
Ntp156
Rp157
(dp158
g99
Nsg100
g150
sg101
I00
sg102
I00
sg103
Nsbsg104
g111
sg112
S'TRpl'
p159
sbag0
(g32
g2
Ntp160
Rp161
(dp162
g36
I00
sg37
g4
sg38
(lp163
I1
aI1
aI1
aI1
aI1
aI1
aI1
aI1
aI1
aI2
aI2
aI2
aI3
aI3
aI3
aI0
aI0
aI0
aI1
aI1
aI1
aI1
aI1
aI1
aI1
aI1
aI1
aI2
aI2
aI2
aI3
aI3
aI3
aI0
aI0
aI0
aI1
aI1
aI1
aI1
aI1
aI1
aI1
aI1
aI1
aI2
aI2
aI2
aI3
aI3
aI3
aI0
aI0
aI0
asg94
g0
(g95
g2
Ntp164
Rp165
(dp166
g99
Nsg100
g161
sg101
I00
sg102
I00
sg103
Nsbsg104
g111
sg112
S'Treatment'
p167
sbag0
(g32
g2
Ntp168
Rp169
(dp170
g36
I00
sg37
g4
sg38
(lp171
(cnumpy.core.multiarray
scalar
p172
(cnumpy
dtype
p173
(S'i8'
p174
I0
I1
tp175
Rp176
(I3
S'<'
p177
NNNI-1
I-1
I0
tp178
bS'\x00\x00\x00\x00\x00\x00\x00\x00'
p179
tp180
Rp181
VI
p182
g172
(g176
S'\x01\x00\x00\x00\x00\x00\x00\x00'
p183
tp184
Rp185
tp186
a(g172
(g176
S'\x00\x00\x00\x00\x00\x00\x00\x00'
p187
tp188
Rp189
VR1
p190
g172
(g176
S'\x01\x00\x00\x00\x00\x00\x00\x00'
p191
tp192
Rp193
tp194
a(g172
(g176
S'\x00\x00\x00\x00\x00\x00\x00\x00'
p195
tp196
Rp197
VR2
p198
g172
(g176
S'\x01\x00\x00\x00\x00\x00\x00\x00'
p199
tp200
Rp201
tp202
a(g172
(g176
S'\x01\x00\x00\x00\x00\x00\x00\x00'
p203
tp204
Rp205
g182
g172
(g176
S'\x01\x00\x00\x00\x00\x00\x00\x00'
p206
tp207
Rp208
tp209
a(g172
(g176
S'\x01\x00\x00\x00\x00\x00\x00\x00'
p210
tp211
Rp212
g182
g172
(g176
S'\x02\x00\x00\x00\x00\x00\x00\x00'
p213
tp214
Rp215
tp216
a(g172
(g176
S'\x01\x00\x00\x00\x00\x00\x00\x00'
p217
tp218
Rp219
g182
g172
(g176
S'\x03\x00\x00\x00\x00\x00\x00\x00'
p220
tp221
Rp222
tp223
a(g172
(g176
S'\x01\x00\x00\x00\x00\x00\x00\x00'
p224
tp225
Rp226
g190
g172
(g176
S'\x01\x00\x00\x00\x00\x00\x00\x00'
p227
tp228
Rp229
tp230
a(g172
(g176
S'\x01\x00\x00\x00\x00\x00\x00\x00'
p231
tp232
Rp233
g190
g172
(g176
S'\x02\x00\x00\x00\x00\x00\x00\x00'
p234
tp235
Rp236
tp237
a(g172
(g176
S'\x01\x00\x00\x00\x00\x00\x00\x00'
p238
tp239
Rp240
g190
g172
(g176
S'\x03\x00\x00\x00\x00\x00\x00\x00'
p241
tp242
Rp243
tp244
a(g172
(g176
S'\x01\x00\x00\x00\x00\x00\x00\x00'
p245
tp246
Rp247
g198
g172
(g176
S'\x01\x00\x00\x00\x00\x00\x00\x00'
p248
tp249
Rp250
tp251
a(g172
(g176
S'\x01\x00\x00\x00\x00\x00\x00\x00'
p252
tp253
Rp254
g198
g172
(g176
S'\x02\x00\x00\x00\x00\x00\x00\x00'
p255
tp256
Rp257
tp258
a(g172
(g176
S'\x01\x00\x00\x00\x00\x00\x00\x00'
p259
tp260
Rp261
g198
g172
(g176
S'\x03\x00\x00\x00\x00\x00\x00\x00'
p262
tp263
Rp264
tp265
a(g172
(g176
S'\x02\x00\x00\x00\x00\x00\x00\x00'
p266
tp267
Rp268
g182
g172
(g176
S'\x01\x00\x00\x00\x00\x00\x00\x00'
p269
tp270
Rp271
tp272
a(g172
(g176
S'\x02\x00\x00\x00\x00\x00\x00\x00'
p273
tp274
Rp275
g190
g172
(g176
S'\x01\x00\x00\x00\x00\x00\x00\x00'
p276
tp277
Rp278
tp279
a(g172
(g176
S'\x02\x00\x00\x00\x00\x00\x00\x00'
p280
tp281
Rp282
g198
g172
(g176
S'\x01\x00\x00\x00\x00\x00\x00\x00'
p283
tp284
Rp285
tp286
a(g172
(g176
S'\x03\x00\x00\x00\x00\x00\x00\x00'
p287
tp288
Rp289
g182
g172
(g176
S'\x01\x00\x00\x00\x00\x00\x00\x00'
p290
tp291
Rp292
tp293
a(g172
(g176
S'\x03\x00\x00\x00\x00\x00\x00\x00'
p294
tp295
Rp296
g190
g172
(g176
S'\x01\x00\x00\x00\x00\x00\x00\x00'
p297
tp298
Rp299
tp300
a(g172
(g176
S'\x03\x00\x00\x00\x00\x00\x00\x00'
p301
tp302
Rp303
g198
g172
(g176
S'\x01\x00\x00\x00\x00\x00\x00\x00'
p304
tp305
Rp306
tp307
aNaNaNaNaNaNaNaNaNaNaNaNaNaNaNaNaNaNaNaNaNaNaNaNaNaNaNaNaNaNaNaNaNaNaNaNasg94
g0
(g95
g2
Ntp308
Rp309
(dp310
g99
Vif run:\u000a  sel = Eff > min_eff\u000a  grouping_columns =   [\u000a      Treatment[sel],\u000a       RunType[sel], \u000a      BRpl[sel],      \u000a    ]\u000a  if True:\u000a    Groups, groupedCt = groupBy(\u000a      grouping_columns, Ct[sel])\u000a    Groups, groupedEff = groupBy(\u000a      grouping_columns, Eff[sel])\u000a    GroupedCt = roundValues(groupedCt,2)\u000a    GroupedEff = roundValues(groupedEff,2)\u000a    s.setColumnValues('GroupedCt', GroupedCt)\u000a    s.setColumnValues('GroupedEff', GroupedEff)
p311
sg100
g169
sg101
I00
sg102
I00
sg103
Vif run:\u000a  sel = Eff > min_eff\u000a  grouping_columns =   [\u000a      Treatment[sel],\u000a       RunType[sel], \u000a      BRpl[sel],      \u000a    ]\u000a  if True:\u000a    Groups, groupedCt = groupBy(\u000a      grouping_columns, Ct[sel])\u000a    Groups, groupedEff = groupBy(\u000a      grouping_columns, Eff[sel])\u000a    GroupedCt = roundValues(groupedCt,2)\u000a    GroupedEff = roundValues(groupedEff,2)\u000a    s.setColumnValues('GroupedCt', GroupedCt)\u000a    s.setColumnValues('GroupedEff', GroupedEff)
p312
sbsg104
g0
(g105
g106
(g107
g108
tp313
tp314
Rp315
sg112
VGroups
p316
sbag0
(g32
g2
Ntp317
Rp318
(dp319
g36
I00
sg37
g4
sg38
(lp320
(lp321
F0.84
aF0.89
aF0.9
aa(lp322
F0.83
aF0.83
aF0.85
aa(lp323
F0.82
aF0.85
aF0.82
aa(lp324
F0.94
aF0.83
aF0.84
aa(lp325
F0.8
aF0.84
aF0.79
aa(lp326
F0.83
aF0.8
aF0.83
aa(lp327
F0.92
aF0.98
aF0.9
aa(lp328
F0.9
aF0.83
aF0.84
aa(lp329
F0.87
aF0.85
aF0.83
aa(lp330
F0.79
aF0.84
aF0.86
aa(lp331
F0.83
aF0.82
aF0.83
aa(lp332
F0.81
aF0.82
aF0.8
aa(lp333
F0.84
aF0.8
aF0.81
aa(lp334
F0.77
aF0.87
aF0.81
aa(lp335
F0.78
aF0.77
aF0.79
aa(lp336
F0.85
aF0.85
aF0.84
aa(lp337
F0.87
aF0.9
aF0.86
aa(lp338
F0.82
aF0.82
aF0.79
aaNaNaNaNaNaNaNaNaNaNaNaNaNaNaNaNaNaNaNaNaNaNaNaNaNaNaNaNaNaNaNaNaNaNaNaNasg94
g0
(g95
g2
Ntp339
Rp340
(dp341
g99
Nsg100
g318
sg101
I00
sg102
I00
sg103
Nsbsg104
g0
(g105
g106
(g107
g108
tp342
tp343
Rp344
sg112
VGroupedEff
p345
sbag0
(g32
g2
Ntp346
Rp347
(dp348
g36
I00
sg37
g4
sg38
(lp349
(lp350
F23.0
aF22.86
aF22.8
aa(lp351
F18.24
aF18.22
aF18.36
aa(lp352
F19.72
aF19.75
aF20.01
aa(lp353
F26.68
aF27.13
aF27.21
aa(lp354
F26.76
aF26.71
aF26.19
aa(lp355
F29.98
aF30.12
aF29.41
aa(lp356
F19.92
aF19.85
aF20.0
aa(lp357
F21.86
aF22.09
aF21.84
aa(lp358
F23.89
aF23.54
aF24.27
aa(lp359
F22.18
aF21.71
aF21.75
aa(lp360
F23.88
aF23.42
aF23.63
aa(lp361
F24.59
aF24.61
aF24.34
aa(lp362
F29.95
aF30.45
aF29.88
aa(lp363
F23.22
aF23.8
aF23.49
aa(lp364
F26.37
aF26.36
aF26.17
aa(lp365
F24.8
aF24.97
aF24.63
aa(lp366
F18.91
aF18.78
aF18.8
aa(lp367
F20.5
aF20.47
aF20.28
aaNaNaNaNaNaNaNaNaNaNaNaNaNaNaNaNaNaNaNaNaNaNaNaNaNaNaNaNaNaNaNaNaNaNaNaNasg94
g0
(g95
g2
Ntp368
Rp369
(dp370
g99
Nsg100
g347
sg101
I00
sg102
I00
sg103
Nsbsg104
g0
(g105
g106
(g107
g108
tp371
tp372
Rp373
sg112
VGroupedCt
p374
sbag0
(g32
g2
Ntp375
Rp376
(dp377
g36
I00
sg37
g4
sg38
(lp378
(lp379
F23.0
aF22.9
aF22.8
aa(lp380
F18.2
aF18.2
aF18.4
aa(lp381
F19.7
aF19.8
aF20.0
aa(lp382
F26.7
aF27.1
aF27.2
aa(lp383
F26.8
aF26.7
aF26.2
aa(lp384
F30.0
aF30.1
aF29.4
aa(lp385
F19.9
aF19.9
aF20.0
aa(lp386
F21.9
aF22.1
aF21.8
aa(lp387
F23.9
aF23.5
aF24.3
aa(lp388
F22.2
aF21.7
aF21.8
aa(lp389
F23.9
aF23.4
aF23.6
aa(lp390
F24.6
aF24.6
aF24.3
aa(lp391
F29.9
aF30.4
aF29.9
aa(lp392
F23.2
aF23.8
aF23.5
aa(lp393
F26.4
aF26.4
aF26.2
aa(lp394
F24.8
aF25.0
aF24.6
aa(lp395
F18.9
aF18.8
aF18.8
aa(lp396
F20.5
aF20.5
aF20.3
aaNaNaNaNaNaNaNaNaNaNaNaNaNaNaNaNaNaNaNaNaNaNaNaNaNaNaNaNaNaNaNaNaNaNaNaNasg94
g0
(g95
g2
Ntp397
Rp398
(dp399
g99
Vif run:\u000a  StdFilteredGroupedCt = roundValues([filterExtremes(g, max_std, 2) for g in pruneNulls(GroupedCt)])\u000a  s.setColumnValues('StdFilteredGroupedCt', StdFilteredGroupedCt)
p400
sg100
g376
sg101
I00
sg102
I00
sg103
Vif run:\u000a  StdFilteredGroupedCt = roundValues([filterExtremes(g, max_std, 2) for g in pruneNulls(GroupedCt)])\u000a  s.setColumnValues('StdFilteredGroupedCt', StdFilteredGroupedCt)
p401
sbsg104
g0
(g105
g106
(g107
g108
tp402
tp403
Rp404
sg112
VStdFilteredGroupedCt
p405
sbag0
(g32
g2
Ntp406
Rp407
(dp408
g36
I00
sg37
g4
sg38
(lp409
F22.9
aF18.3
aF19.8
aF27.0
aF26.6
aF29.8
aF19.9
aF21.9
aF23.9
aF21.9
aF23.6
aF24.5
aF30.1
aF23.5
aF26.3
aF24.8
aF18.8
aF20.4
aFnan
aFnan
aFnan
aFnan
aFnan
aFnan
aFnan
aFnan
aFnan
aFnan
aFnan
aFnan
aFnan
aFnan
aFnan
aFnan
aFnan
aFnan
aFnan
aFnan
aFnan
aFnan
aFnan
aFnan
aFnan
aFnan
aFnan
aFnan
aFnan
aFnan
aFnan
aFnan
aFnan
aFnan
aFnan
aFnan
asg94
g0
(g95
g2
Ntp410
Rp411
(dp412
g99
Vif run:\u000a  MeanCt = [np.mean(g) for g in StdFilteredGroupedCt]\u000a  MeanCt = roundValues(MeanCt,1)\u000a  s.setColumnValues('MeanCt', MeanCt)\u000a  StdCt = [np.std(g, ddof=1) for g in StdFilteredGroupedCt]\u000a  StdCt = roundValues(StdCt,3)\u000a  s.setColumnValues('StdCt', StdCt)\u000as.setColumnVisibility(['Groups', 'GroupedEff', 'GroupedCt', 'StdFilteredGroupedCt', 'MeanCt', 'StdCt'], is_visible=show_block1)
p413
sg100
g407
sg101
I00
sg102
I00
sg103
Vif run:\u000a  MeanCt = [np.mean(g) for g in StdFilteredGroupedCt]\u000a  MeanCt = roundValues(MeanCt,1)\u000a  s.setColumnValues('MeanCt', MeanCt)\u000a  StdCt = [np.std(g, ddof=1) for g in StdFilteredGroupedCt]\u000a  StdCt = roundValues(StdCt,3)\u000a  s.setColumnValues('StdCt', StdCt)\u000as.setColumnVisibility(['Groups', 'GroupedEff', 'GroupedCt', 'StdFilteredGroupedCt', 'MeanCt', 'StdCt'], is_visible=show_block1)
p414
sbsg104
g0
(g105
g106
(g107
g108
tp415
tp416
Rp417
sg112
VMeanCt
p418
sbag0
(g32
g2
Ntp419
Rp420
(dp421
g36
I00
sg37
g4
sg38
(lp422
F0.1
aF0.115
aF0.153
aF0.265
aF0.321
aF0.379
aF0.058
aF0.153
aF0.4
aF0.265
aF0.252
aF0.173
aF0.289
aF0.3
aF0.115
aF0.2
aF0.058
aF0.115
aFnan
aFnan
aFnan
aFnan
aFnan
aFnan
aFnan
aFnan
aFnan
aFnan
aFnan
aFnan
aFnan
aFnan
aFnan
aFnan
aFnan
aFnan
aFnan
aFnan
aFnan
aFnan
aFnan
aFnan
aFnan
aFnan
aFnan
aFnan
aFnan
aFnan
aFnan
aFnan
aFnan
aFnan
aFnan
aFnan
asg94
g0
(g95
g2
Ntp423
Rp424
(dp425
g99
Nsg100
g420
sg101
I00
sg102
I00
sg103
Nsbsg104
g0
(g105
g106
(g107
g108
tp426
tp427
Rp428
sg112
VStdCt
p429
sbasS'_columns'
p430
(lp431
g0
(g32
g2
Ntp432
Rp433
(dp434
g36
I01
sg37
g4
sg38
(lp435
S'1'
p436
aS'2'
p437
aS'3'
p438
aS'4'
p439
aS'5'
p440
aS'6'
p441
aS'7'
p442
aS'8'
p443
aS'9'
p444
aS'10'
p445
aS'11'
p446
aS'12'
p447
aS'13'
p448
aS'14'
p449
aS'15'
p450
aS'16'
p451
aS'17'
p452
aS'18'
p453
aS'19'
p454
aS'20'
p455
aS'21'
p456
aS'22'
p457
aS'23'
p458
aS'24'
p459
aS'25'
p460
aS'26'
p461
aS'27'
p462
aS'28'
p463
aS'29'
p464
aS'30'
p465
aS'31'
p466
aS'32'
p467
aS'33'
p468
aS'34'
p469
aS'35'
p470
aS'36'
p471
aS'37'
p472
aS'38'
p473
aS'39'
p474
aS'40'
p475
aS'41'
p476
aS'42'
p477
aS'43'
p478
aS'44'
p479
aS'45'
p480
aS'46'
p481
aS'47'
p482
aS'48'
p483
aS'49'
p484
aS'50'
p485
aS'51'
p486
aS'52'
p487
aS'53'
p488
aS'54'
p489
asg94
g0
(g95
g2
Ntp490
Rp491
(dp492
g99
Nsg100
g433
sg101
I00
sg102
I00
sg103
Nsbsg104
g0
(g105
g106
(g107
g108
tp493
tp494
Rp495
sg112
S'row'
p496
sbag0
(g32
g2
Ntp497
Rp498
(dp499
g36
I00
sg37
g4
sg38
(lp500
Vgene
p501
aVrun
p502
aVshow_raw
p503
aVshow_block1
p504
aVshow_block2
p505
aVshow_block3
p506
aVmax_std
p507
aVmin_eff
p508
aVnan
p509
aVnan
p510
aVnan
p511
aVnan
p512
aVnan
p513
aVnan
p514
aVnan
p515
aVnan
p516
aVnan
p517
aVnan
p518
aVnan
p519
aVnan
p520
aVnan
p521
aVnan
p522
aVnan
p523
aVnan
p524
aVnan
p525
aVnan
p526
aVnan
p527
aVnan
p528
aVnan
p529
aVnan
p530
aVnan
p531
aVnan
p532
aVnan
p533
aVnan
p534
aVnan
p535
aVnan
p536
aVnan
p537
aVnan
p538
aVnan
p539
aVnan
p540
aVnan
p541
aVnan
p542
aVnan
p543
aVnan
p544
aVnan
p545
aVnan
p546
aVnan
p547
aVnan
p548
aVnan
p549
aVnan
p550
aVnan
p551
aVnan
p552
aVnan
p553
aVnan
p554
asg94
g0
(g95
g2
Ntp555
Rp556
(dp557
g99
Nsg100
g498
sg101
I00
sg102
I00
sg103
Nsbsg104
g0
(g105
g106
(g107
g108
tp558
tp559
Rp560
sg112
VParmNames
p561
sbag0
(g32
g2
Ntp562
Rp563
(dp564
g36
I00
sg37
g4
sg38
(lp565
VGene1
p566
aVTrue
p567
aVFalse
p568
aVFalse
p569
aVTrue
p570
aVTrue
p571
aV0.5
p572
aV0.7
p573
aV
p574
ag574
aVnan
p575
aVnan
p576
aVnan
p577
aVnan
p578
aVnan
p579
aVnan
p580
aVnan
p581
aVnan
p582
aVnan
p583
aVnan
p584
aVnan
p585
aVnan
p586
aVnan
p587
aVnan
p588
aVnan
p589
aVnan
p590
aVnan
p591
aVnan
p592
aVnan
p593
aVnan
p594
aVnan
p595
aVnan
p596
aVnan
p597
aVnan
p598
aVnan
p599
aVnan
p600
aVnan
p601
aVnan
p602
aVnan
p603
aVnan
p604
aVnan
p605
aVnan
p606
aVnan
p607
aVnan
p608
aVnan
p609
aVnan
p610
aVnan
p611
aVnan
p612
aVnan
p613
aVnan
p614
aVnan
p615
aVnan
p616
aVnan
p617
aVnan
p618
asg94
g0
(g95
g2
Ntp619
Rp620
(dp621
g99
Vxlsx_path = '/mnt/hgfs/josephhellerstein/home/Technical/SciSheets/CaseStudies/Kristen/workbooks/data.xlsx'\u000as.setColumnVisibility()\u000agene = ParmValues[0]\u000arun = ParmValues[1] == 'True'\u000ashow_raw = ParmValues[2] == 'True'\u000ashow_block1 = ParmValues[3] == 'True'\u000ashow_block2 = ParmValues[4] == 'True'\u000ashow_block3 = ParmValues[5] == 'True'\u000amax_std  = float(ParmValues[6])\u000amin_eff = float(ParmValues[7])\u000aworksheet = gene + "-I"\u000aif False:\u000a  Groups = []\u000a  GroupedCt = []\u000a  GroupedEff = []\u000a  MeanCt = []\u000a  Imp = []\u000a  s.deleteColumn('Ct')\u000a  s.deleteColumn('RunType')\u000a  s.deleteColumn('BRpl')\u000a  s.deleteColumn('TRpl')\u000a  s.deleteColumn('Treatment')\u000a  s.deleteColumn('SmplName')\u000a  s.deleteColumn('Eff')\u000aif run:\u000a  importExcelToTable(s, xlsx_path, worksheet=worksheet)\u000a  BRpl = s.getColumnValues('BRpl')\u000a  Ct = s.getColumnValues('Ct')\u000a  Eff = s.getColumnValues('Eff')\u000a  RunType = s.getColumnValues('RunType')\u000a  TRpl = s.getColumnValues('TRpl')\u000a  Treatment = s.getColumnValues('Treatment')\u000as.setColumnVisibility(['SmplName'], False)\u000as.setColumnVisibility(['BRpl', 'Ct', 'Eff', 'RunType', 'TRpl', 'Treatment'], is_visible=show_raw)
p622
sg100
g563
sg101
I00
sg102
I00
sg103
Vxlsx_path = '/mnt/hgfs/josephhellerstein/home/Technical/SciSheets/CaseStudies/Kristen/workbooks/data.xlsx'\u000as.setColumnVisibility()\u000agene = ParmValues[0]\u000arun = ParmValues[1] == 'True'\u000ashow_raw = ParmValues[2] == 'True'\u000ashow_block1 = ParmValues[3] == 'True'\u000ashow_block2 = ParmValues[4] == 'True'\u000ashow_block3 = ParmValues[5] == 'True'\u000amax_std  = float(ParmValues[6])\u000amin_eff = float(ParmValues[7])\u000aworksheet = gene + "-I"\u000aif False:\u000a  Groups = []\u000a  GroupedCt = []\u000a  GroupedEff = []\u000a  MeanCt = []\u000a  Imp = []\u000a  s.deleteColumn('Ct')\u000a  s.deleteColumn('RunType')\u000a  s.deleteColumn('BRpl')\u000a  s.deleteColumn('TRpl')\u000a  s.deleteColumn('Treatment')\u000a  s.deleteColumn('SmplName')\u000a  s.deleteColumn('Eff')\u000aif run:\u000a  importExcelToTable(s, xlsx_path, worksheet=worksheet)\u000a  BRpl = s.getColumnValues('BRpl')\u000a  Ct = s.getColumnValues('Ct')\u000a  Eff = s.getColumnValues('Eff')\u000a  RunType = s.getColumnValues('RunType')\u000a  TRpl = s.getColumnValues('TRpl')\u000a  Treatment = s.getColumnValues('Treatment')\u000as.setColumnVisibility(['SmplName'], False)\u000as.setColumnVisibility(['BRpl', 'Ct', 'Eff', 'RunType', 'TRpl', 'Treatment'], is_visible=show_raw)
p623
sbsg104
g0
(g105
g106
(g107
g108
tp624
tp625
Rp626
sg112
VParmValues
p627
sbag169
ag318
ag347
ag376
ag407
ag420
ag0
(g32
g2
Ntp628
Rp629
(dp630
g36
I00
sg37
g4
sg38
(lp631
(lp632
g181
ag185
aa(lp633
g205
ag208
aa(lp634
g212
ag215
aa(lp635
g219
ag222
aa(lp636
g268
ag271
aa(lp637
g289
ag292
aaNaNaNaNaNaNaNaNaNaNaNaNaNaNaNaNaNaNaNaNaNaNaNaNaNaNaNaNaNaNaNaNaNaNaNaNaNaNaNaNaNaNaNaNaNaNaNaNasg94
g0
(g95
g2
Ntp638
Rp639
(dp640
g99
Vif run:\u000a  sel = Eff > min_eff\u000a  grouping_columns =   [\u000a      Treatment[sel],\u000a       RunType[sel], \u000a      BRpl[sel],      \u000a    ]\u000a  if True:\u000a    Groups, groupedCt = groupBy(\u000a      grouping_columns, Ct[sel])\u000a    Groups, groupedEff = groupBy(\u000a      grouping_columns, Eff[sel])\u000a    GroupedCt = roundValues(groupedCt,2)\u000a    GroupedEff = roundValues(groupedEff,2)\u000a    s.setColumnValues('GroupedCt', GroupedCt)\u000a    s.setColumnValues('GroupedEff', GroupedEff)
p641
sg100
g629
sg101
I00
sg102
I00
sg103
Vif run:\u000a  sel = Eff > min_eff\u000a  grouping_columns =   [\u000a      Treatment[sel],\u000a       RunType[sel], \u000a      BRpl[sel],      \u000a    ]\u000a  if True:\u000a    Groups, groupedCt = groupBy(\u000a      grouping_columns, Ct[sel])\u000a    Groups, groupedEff = groupBy(\u000a      grouping_columns, Eff[sel])\u000a    GroupedCt = roundValues(groupedCt,2)\u000a    GroupedEff = roundValues(groupedEff,2)\u000a    s.setColumnValues('GroupedCt', GroupedCt)\u000a    s.setColumnValues('GroupedEff', GroupedEff)
p642
sbsg104
g0
(g105
g106
(g107
g108
tp643
tp644
Rp645
sg112
VBioRuns
p646
sbag0
(g32
g2
Ntp647
Rp648
(dp649
g36
I00
sg37
g4
sg38
(lp650
F22.9
aF27.0
aF26.6
aF29.8
aF30.1
aF24.8
aFnan
aFnan
aFnan
aFnan
aFnan
aFnan
aFnan
aFnan
aFnan
aFnan
aFnan
aFnan
aFnan
aFnan
aFnan
aFnan
aFnan
aFnan
aFnan
aFnan
aFnan
aFnan
aFnan
aFnan
aFnan
aFnan
aFnan
aFnan
aFnan
aFnan
aFnan
aFnan
aFnan
aFnan
aFnan
aFnan
aFnan
aFnan
aFnan
aFnan
aFnan
aFnan
aFnan
aFnan
aFnan
aFnan
aFnan
aFnan
asg94
g0
(g95
g2
Ntp651
Rp652
(dp653
g99
Nsg100
g648
sg101
I00
sg102
I00
sg103
Nsbsg104
g0
(g105
g106
(g107
g108
tp654
tp655
Rp656
sg112
S'Gene_I'
p657
sbag0
(g32
g2
Ntp658
Rp659
(dp660
g36
I00
sg37
g4
sg38
(lp661
F18.3
aF19.9
aF21.9
aF23.9
aF23.5
aF18.8
aFnan
aFnan
aFnan
aFnan
aFnan
aFnan
aFnan
aFnan
aFnan
aFnan
aFnan
aFnan
aFnan
aFnan
aFnan
aFnan
aFnan
aFnan
aFnan
aFnan
aFnan
aFnan
aFnan
aFnan
aFnan
aFnan
aFnan
aFnan
aFnan
aFnan
aFnan
aFnan
aFnan
aFnan
aFnan
aFnan
aFnan
aFnan
aFnan
aFnan
aFnan
aFnan
aFnan
aFnan
aFnan
aFnan
aFnan
aFnan
asg94
g0
(g95
g2
Ntp662
Rp663
(dp664
g99
Nsg100
g659
sg101
I00
sg102
I00
sg103
Nsbsg104
g656
sg112
S'Gene_R1'
p665
sbag0
(g32
g2
Ntp666
Rp667
(dp668
g36
I00
sg37
g4
sg38
(lp669
F19.8
aF21.9
aF23.6
aF24.5
aF26.3
aF20.4
aFnan
aFnan
aFnan
aFnan
aFnan
aFnan
aFnan
aFnan
aFnan
aFnan
aFnan
aFnan
aFnan
aFnan
aFnan
aFnan
aFnan
aFnan
aFnan
aFnan
aFnan
aFnan
aFnan
aFnan
aFnan
aFnan
aFnan
aFnan
aFnan
aFnan
aFnan
aFnan
aFnan
aFnan
aFnan
aFnan
aFnan
aFnan
aFnan
aFnan
aFnan
aFnan
aFnan
aFnan
aFnan
aFnan
aFnan
aFnan
asg94
g0
(g95
g2
Ntp670
Rp671
(dp672
g99
Nsg100
g667
sg101
I00
sg102
I00
sg103
Nsbsg104
g656
sg112
S'Gene_R2'
p673
sbag0
(g32
g2
Ntp674
Rp675
(dp676
g36
I00
sg37
g4
sg38
(lp677
Fnan
aF0.00897
aFnan
aFnan
aFnan
aF0.01563
aFnan
aFnan
aFnan
aFnan
aFnan
aFnan
aFnan
aFnan
aFnan
aFnan
aFnan
aFnan
aFnan
aFnan
aFnan
aFnan
aFnan
aFnan
aFnan
aFnan
aFnan
aFnan
aFnan
aFnan
aFnan
aFnan
aFnan
aFnan
aFnan
aFnan
aFnan
aFnan
aFnan
aFnan
aFnan
aFnan
aFnan
aFnan
aFnan
aFnan
aFnan
aFnan
aFnan
aFnan
aFnan
aFnan
aFnan
aFnan
asg94
g0
(g95
g2
Ntp678
Rp679
(dp680
g99
VExprR1 = roundValues(2**(Gene_R1 - Gene_I),5)
p681
sg100
g675
sg101
I01
sg102
I00
sg103
VroundValues(2**(Gene_R1 - Gene_I),5)
p682
sbsg104
g0
(g105
g106
(g107
g108
tp683
tp684
Rp685
sg112
VExprR1
p686
sbag0
(g32
g2
Ntp687
Rp688
(dp689
g36
I00
sg37
g4
sg38
(lp690
F0.11663
aF0.03349
aFnan
aFnan
aFnan
aFnan
aFnan
aFnan
aFnan
aFnan
aFnan
aFnan
aFnan
aFnan
aFnan
aFnan
aFnan
aFnan
aFnan
aFnan
aFnan
aFnan
aFnan
aFnan
aFnan
aFnan
aFnan
aFnan
aFnan
aFnan
aFnan
aFnan
aFnan
aFnan
aFnan
aFnan
aFnan
aFnan
aFnan
aFnan
aFnan
aFnan
aFnan
aFnan
aFnan
aFnan
aFnan
aFnan
aFnan
aFnan
aFnan
aFnan
aFnan
aFnan
asg94
g0
(g95
g2
Ntp691
Rp692
(dp693
g99
VExprR2 = roundValues(2**(Gene_R2 - Gene_I),5)
p694
sg100
g688
sg101
I01
sg102
I00
sg103
VroundValues(2**(Gene_R2 - Gene_I),5)
p695
sbsg104
g0
(g105
g106
(g107
g108
tp696
tp697
Rp698
sg112
VExprR2
p699
sbag0
(g32
g2
Ntp700
Rp701
(dp702
g36
I00
sg37
g4
sg38
(lp703
Fnan
aF0.017
aFnan
aFnan
aFnan
aFnan
aFnan
aFnan
aFnan
aFnan
aFnan
aFnan
aFnan
aFnan
aFnan
aFnan
aFnan
aFnan
aFnan
aFnan
aFnan
aFnan
aFnan
aFnan
aFnan
aFnan
aFnan
aFnan
aFnan
aFnan
aFnan
aFnan
aFnan
aFnan
aFnan
aFnan
aFnan
aFnan
aFnan
aFnan
aFnan
aFnan
aFnan
aFnan
aFnan
aFnan
aFnan
aFnan
aFnan
aFnan
aFnan
aFnan
aFnan
aFnan
asg94
g0
(g95
g2
Ntp704
Rp705
(dp706
g99
Vif run:\u000a  GeoMean = roundValues(np.sqrt(ExprR1*ExprR2), 3)\u000as.setColumnVisibility(['BioRuns', 'Gene_I', 'Gene_R1', 'Gene_R2', 'ExprR1', 'ExprR2', 'GeoMean'], is_visible=show_block2)
p707
sg100
g701
sg101
I00
sg102
I00
sg103
Vif run:\u000a  GeoMean = roundValues(np.sqrt(ExprR1*ExprR2), 3)\u000as.setColumnVisibility(['BioRuns', 'Gene_I', 'Gene_R1', 'Gene_R2', 'ExprR1', 'ExprR2', 'GeoMean'], is_visible=show_block2)
p708
sbsg104
g0
(g105
g106
(g107
g108
tp709
tp710
Rp711
sg112
VGeoMean
p712
sbag0
(g32
g2
Ntp713
Rp714
(dp715
g36
I00
sg37
g4
sg38
(lp716
F0.0
aF1.0
aF2.0
aF3.0
aFnan
aFnan
aFnan
aFnan
aFnan
aFnan
aFnan
aFnan
aFnan
aFnan
aFnan
aFnan
aFnan
aFnan
aFnan
aFnan
aFnan
aFnan
aFnan
aFnan
aFnan
aFnan
aFnan
aFnan
aFnan
aFnan
aFnan
aFnan
aFnan
aFnan
aFnan
aFnan
aFnan
aFnan
aFnan
aFnan
aFnan
aFnan
aFnan
aFnan
aFnan
aFnan
aFnan
aFnan
aFnan
aFnan
aFnan
aFnan
aFnan
aFnan
asg94
g0
(g95
g2
Ntp717
Rp718
(dp719
g99
Vif run:\u000a  cat_vals = [br[0] for br in pruneNulls(BioRuns)]\u000a  GeoGroups, groupedGeoMeans = groupBy(cat_vals, clean_geo)\u000a  GroupedGeoMeans = roundValues(groupedGeoMeans, 3)
p720
sg100
g714
sg101
I00
sg102
I00
sg103
Vif run:\u000a  cat_vals = [br[0] for br in pruneNulls(BioRuns)]\u000a  GeoGroups, groupedGeoMeans = groupBy(cat_vals, clean_geo)\u000a  GroupedGeoMeans = roundValues(groupedGeoMeans, 3)
p721
sbsg104
g0
(g105
g106
(g107
g108
tp722
tp723
Rp724
sg112
VGeoGroups
p725
sbag0
(g32
g2
Ntp726
Rp727
(dp728
g36
I00
sg37
g4
sg38
(lp729
cnumpy.core.multiarray
_reconstruct
p730
(g107
(I0
tp731
S'b'
p732
tp733
Rp734
(I1
(I1
tp735
g173
(S'f8'
p736
I0
I1
tp737
Rp738
(I3
S'<'
p739
NNNI-1
I-1
I0
tp740
bI00
S'\x00\x00\x00\x00\x00\x00\xf8\x7f'
p741
tp742
bag730
(g107
(I0
tp743
g732
tp744
Rp745
(I1
(I3
tp746
g738
I00
S'\x9c\xc4 \xb0rh\x91?\x00\x00\x00\x00\x00\x00\xf8\x7f\x00\x00\x00\x00\x00\x00\xf8\x7f'
p747
tp748
bag730
(g107
(I0
tp749
g732
tp750
Rp751
(I1
(I1
tp752
g738
I00
S'\x00\x00\x00\x00\x00\x00\xf8\x7f'
p753
tp754
bag730
(g107
(I0
tp755
g732
tp756
Rp757
(I1
(I1
tp758
g738
I00
S'\x00\x00\x00\x00\x00\x00\xf8\x7f'
p759
tp760
baNaNaNaNaNaNaNaNaNaNaNaNaNaNaNaNaNaNaNaNaNaNaNaNaNaNaNaNaNaNaNaNaNaNaNaNaNaNaNaNaNaNaNaNaNaNaNaNaNaNasg94
g0
(g95
g2
Ntp761
Rp762
(dp763
g99
Nsg100
g727
sg101
I00
sg102
I00
sg103
Nsbsg104
g0
(g105
g106
(g107
g108
tp764
tp765
Rp766
sg112
VGroupedGeoMeans
p767
sbag0
(g32
g2
Ntp768
Rp769
(dp770
g36
I00
sg37
g4
sg38
(lp771
g730
(g107
(I0
tp772
g732
tp773
Rp774
(I1
(I1
tp775
g738
I00
S'\x00\x00\x00\x00\x00\x00\xf8\x7f'
p776
tp777
bag730
(g107
(I0
tp778
g732
tp779
Rp780
(I1
(I3
tp781
g738
I00
S'\x00\x00\x00\x00\x00\x00\xf8\x7f\x00\x00\x00\x00\x00\x00\xf8\x7f\x00\x00\x00\x00\x00\x00\xf8\x7f'
p782
tp783
bag730
(g107
(I0
tp784
g732
tp785
Rp786
(I1
(I1
tp787
g738
I00
S'\x00\x00\x00\x00\x00\x00\xf8\x7f'
p788
tp789
bag730
(g107
(I0
tp790
g732
tp791
Rp792
(I1
(I1
tp793
g738
I00
S'\x00\x00\x00\x00\x00\x00\xf8\x7f'
p794
tp795
baNaNaNaNaNaNaNaNaNaNaNaNaNaNaNaNaNaNaNaNaNaNaNaNaNaNaNaNaNaNaNaNaNaNaNaNaNaNaNaNaNaNaNaNaNaNaNaNaNaNasg94
g0
(g95
g2
Ntp796
Rp797
(dp798
g99
Vif run:\u000a  ref = np.mean(GroupedGeoMeans[0])\u000a  NrmlGeoGroupedMeans = []\u000a  truncated_group = [g for g in GroupedGeoMeans if g is not None]\u000a  for g in truncated_group:\u000a    new_g = [x/ref for x in g]\u000a    NrmlGeoGroupedMeans.append(new_g)\u000a  NrmlGeoGroupedMeans = roundValues(NrmlGeoGroupedMeans, 3)
p799
sg100
g769
sg101
I00
sg102
I00
sg103
Vif run:\u000a  ref = np.mean(GroupedGeoMeans[0])\u000a  NrmlGeoGroupedMeans = []\u000a  truncated_group = [g for g in GroupedGeoMeans if g is not None]\u000a  for g in truncated_group:\u000a    new_g = [x/ref for x in g]\u000a    NrmlGeoGroupedMeans.append(new_g)\u000a  NrmlGeoGroupedMeans = roundValues(NrmlGeoGroupedMeans, 3)
p800
sbsg104
g0
(g105
g106
(g107
g108
tp801
tp802
Rp803
sg112
VNrmlGeoGroupedMeans
p804
sbag0
(g32
g2
Ntp805
Rp806
(dp807
g36
I00
sg37
g4
sg38
(lp808
Fnan
aFnan
aFnan
aFnan
aFnan
aFnan
aFnan
aFnan
aFnan
aFnan
aFnan
aFnan
aFnan
aFnan
aFnan
aFnan
aFnan
aFnan
aFnan
aFnan
aFnan
aFnan
aFnan
aFnan
aFnan
aFnan
aFnan
aFnan
aFnan
aFnan
aFnan
aFnan
aFnan
aFnan
aFnan
aFnan
aFnan
aFnan
aFnan
aFnan
aFnan
aFnan
aFnan
aFnan
aFnan
aFnan
aFnan
aFnan
aFnan
aFnan
aFnan
aFnan
aFnan
aFnan
asg94
g0
(g95
g2
Ntp809
Rp810
(dp811
g99
Vif run:\u000a  MeanNrmlGeoGroups = [round(np.mean(g), 3) for g in NrmlGeoGroupedMeans]
p812
sg100
g806
sg101
I00
sg102
I00
sg103
Vif run:\u000a  MeanNrmlGeoGroups = [round(np.mean(g), 3) for g in NrmlGeoGroupedMeans]
p813
sbsg104
g0
(g105
g106
(g107
g108
tp814
tp815
Rp816
sg112
VMeanNrmlGeoGroups
p817
sbag0
(g32
g2
Ntp818
Rp819
(dp820
g36
I00
sg37
g4
sg38
(lp821
Fnan
aFnan
aFnan
aFnan
aFnan
aFnan
aFnan
aFnan
aFnan
aFnan
aFnan
aFnan
aFnan
aFnan
aFnan
aFnan
aFnan
aFnan
aFnan
aFnan
aFnan
aFnan
aFnan
aFnan
aFnan
aFnan
aFnan
aFnan
aFnan
aFnan
aFnan
aFnan
aFnan
aFnan
aFnan
aFnan
aFnan
aFnan
aFnan
aFnan
aFnan
aFnan
aFnan
aFnan
aFnan
aFnan
aFnan
aFnan
aFnan
aFnan
aFnan
aFnan
aFnan
aFnan
asg94
g0
(g95
g2
Ntp822
Rp823
(dp824
g99
Vif run:\u000a  StdNrmlGeoGroups = [round(np.std(g, ddof=1), 3) for g in NrmlGeoGroupedMeans]\u000as.setColumnVisibility(['GeoGroups', 'GroupedGeoMeans', 'NrmlGeoGroupedMeans', 'MeanNrmlGeoGroups', 'StdNrmlGeoGroups'], is_visible=show_block3)\u000a#s.setColumnVisibility()
p825
sg100
g819
sg101
I00
sg102
I00
sg103
Vif run:\u000a  StdNrmlGeoGroups = [round(np.std(g, ddof=1), 3) for g in NrmlGeoGroupedMeans]\u000as.setColumnVisibility(['GeoGroups', 'GroupedGeoMeans', 'NrmlGeoGroupedMeans', 'MeanNrmlGeoGroups', 'StdNrmlGeoGroups'], is_visible=show_block3)\u000a#s.setColumnVisibility()
p826
sbsg104
g0
(g105
g106
(g107
g108
tp827
tp828
Rp829
sg112
VStdNrmlGeoGroups
p830
sbag115
ag123
ag131
ag139
ag34
ag150
ag161
asg22
V/home/ubuntu/SciSheets/mysite/user/guest/tables/kristen_single_gene.pcl
p831
sg112
VSingleGene
p832
sb.