ccopy_reg
_reconstructor
p0
(cscisheets.ui.dt_table
DTTable
p1
c__builtin__
object
p2
Ntp3
Rp4
(dp5
S'_columns'
p6
(lp7
g0
(cscisheets.core.column
Column
p8
g2
Ntp9
Rp10
(dp11
S'_asis'
p12
I01
sS'_owning_table'
p13
g4
sS'_cells'
p14
(lp15
S'1'
p16
aS'2'
p17
aS'3'
p18
asS'_formula_statement'
p19
g0
(cscisheets.core.column
FormulaStatement
p20
g2
Ntp21
Rp22
(dp23
S'_statement'
p24
NsS'_column'
p25
g10
sS'_isExpression'
p26
I00
sS'_isStatement'
p27
I00
sS'_formula'
p28
NsbsS'_data_class'
p29
g0
(cscisheets.core.helpers.api_util
DataClass
p30
c__builtin__
tuple
p31
(cnumpy
ndarray
p32
cscisheets.core.helpers.api_util
makeArray
p33
tp34
tp35
Rp36
sS'_name'
p37
S'row'
p38
sbag0
(g8
g2
Ntp39
Rp40
(dp41
g12
I00
sg13
g4
sg14
(lp42
F0.85
aF0.82
aF0.88
asg19
g0
(g20
g2
Ntp43
Rp44
(dp45
g24
Nsg25
g40
sg26
I00
sg27
I00
sg28
Nsbsg29
g0
(g30
g31
(g32
g33
tp46
tp47
Rp48
sg37
VGene1Efficiency
p49
sbag0
(g8
g2
Ntp50
Rp51
(dp52
g12
I00
sg13
g4
sg14
(lp53
F0.87
aF0.9
aF0.91
asg19
g0
(g20
g2
Ntp54
Rp55
(dp56
g24
Nsg25
g51
sg26
I00
sg27
I00
sg28
Nsbsg29
g0
(g30
g31
(g32
g33
tp57
tp58
Rp59
sg37
VGene2Effiency
p60
sbag0
(g8
g2
Ntp61
Rp62
(dp63
g12
I00
sg13
g4
sg14
(lp64
Fnan
aFnan
aFnan
asg19
g0
(g20
g2
Ntp65
Rp66
(dp67
g24
Nsg25
g62
sg26
I00
sg27
I00
sg28
Nsbsg29
g0
(g30
g31
(g32
g33
tp68
tp69
Rp70
sg37
VzScore
p71
sbasS'_filepath'
p72
V/home/ubuntu/SciSheets/mysite/user/guest/tables/kristen_gene_table.pcl
p73
sg37
VGeneTable
p74
sb.