ccopy_reg
_reconstructor
p0
(cscisheets.ui.dt_table
DTTable
p1
c__builtin__
object
p2
Ntp3
Rp4
(dp5
S'_versioned_file'
p6
g0
(cmysite.helpers.versioned_file
VersionedFile
p7
g2
Ntp8
Rp9
(dp10
S'_redo_stack'
p11
g0
(cmysite.helpers.file_stack
FileStack
p12
g2
Ntp13
Rp14
(dp15
S'_dirpath'
p16
S'/home/ubuntu/SciSheets/mysite/user/guest/tables/backup'
p17
sS'_max_depth'
p18
I5
sS'_filename_pfx'
p19
Vkristen_single_gene.r
p20
sbsS'_max_versions'
p21
I5
sS'_undo_stack'
p22
g0
(g12
g2
Ntp23
Rp24
(dp25
g16
g17
sg18
I5
sg19
Vkristen_single_gene.u
p26
sbsS'_checkpoint_history'
p27
(lp28
VCell/Update
p29
aVCell/Update
p30
aVCell/Update
p31
aVCell/Update
p32
aVCell/Update
p33
aVCell/Update
p34
aVCell/Update
p35
aVCell/Update
p36
aVCell/Update
p37
aVCell/Update
p38
aVCell/Update
p39
aVCell/Update
p40
aVColumn/Formula
p41
aVColumn/Formula
p42
aVColumn/Append
p43
aVColumn/Formula
p44
aVColumn/Delete
p45
aVCell/Update
p46
aVColumn/Formula
p47
aVCell/Update
p48
aVCell/Update
p49
aVColumn/Formula
p50
aVColumn/Formula
p51
aVCell/Update
p52
aVColumn/Formula
p53
aVColumn/Formula
p54
aVCell/Update
p55
aVCell/Update
p56
aVCell/Update
p57
aVCell/Update
p58
aVColumn/Formula
p59
aVCell/Update
p60
aVCell/Update
p61
aVCell/Update
p62
aVColumn/Formula
p63
aVCell/Update
p64
aVColumn/Formula
p65
aVColumn/Formula
p66
aVCell/Update
p67
aVCell/Update
p68
aVCell/Update
p69
aVCell/Update
p70
aVCell/Update
p71
aVCell/Update
p72
aVCell/Update
p73
aVCell/Update
p74
aVCell/Update
p75
aVColumn/Formula
p76
aVCell/Update
p77
aVCell/Update
p78
aVCell/Update
p79
aVCell/Update
p80
aVCell/Update
p81
aVCell/Update
p82
aVCell/Update
p83
aVCell/Update
p84
aVCell/Update
p85
aVCell/Update
p86
aVCell/Update
p87
aVCell/Update
p88
aVColumn/Formula
p89
aVColumn/Formula
p90
aVColumn/Formula
p91
aVCell/Update
p92
aVCell/Update
p93
aVCell/Update
p94
aVCell/Update
p95
aVCell/Update
p96
aVColumn/Formula
p97
aVCell/Update
p98
aVCell/Update
p99
aVCell/Update
p100
aVCell/Update
p101
aVCell/Update
p102
aVCell/Update
p103
aVCell/Update
p104
aVColumn/Formula
p105
aVColumn/Formula
p106
aVColumn/Formula
p107
aVCell/Update
p108
aVCell/Update
p109
aVColumn/Formula
p110
aVCell/Update
p111
aVCell/Update
p112
aVCell/Update
p113
aVCell/Update
p114
aVCell/Update
p115
aVCell/Update
p116
aVCell/Update
p117
aVCell/Update
p118
aVColumn/Formula
p119
aVCell/Update
p120
aVColumn/Formula
p121
aVColumn/Formula
p122
aVColumn/Formula
p123
aVCell/Update
p124
aVCell/Update
p125
aVColumn/Formula
p126
aVColumn/Formula
p127
aVColumn/Formula
p128
aVColumn/Formula
p129
aVCell/Update
p130
aVColumn/Formula
p131
aVColumn/Formula
p132
aVColumn/Formula
p133
aVCell/Update
p134
aVCell/Update
p135
aVCell/Update
p136
aVCell/Update
p137
aVCell/Update
p138
aVCell/Update
p139
aVCell/Update
p140
aVCell/Update
p141
aVCell/Update
p142
aVCell/Update
p143
aVColumn/Formula
p144
aVColumn/Formula
p145
aVColumn/Formula
p146
aVColumn/Formula
p147
aVCell/Update
p148
aVCell/Update
p149
aVColumn/Formula
p150
aVCell/Update
p151
aVCell/Update
p152
aVCell/Update
p153
aVCell/Update
p154
aVCell/Update
p155
aVCell/Update
p156
aVCell/Update
p157
aVCell/Update
p158
aVCell/Update
p159
aVCell/Update
p160
aVCell/Update
p161
aVCell/Update
p162
aVCell/Update
p163
aVColumn/Formula
p164
aVColumn/Formula
p165
aVCell/Update
p166
aVCell/Update
p167
aVCell/Update
p168
aVColumn/Formula
p169
aVCell/Update
p170
aVCell/Update
p171
aVCell/Update
p172
aVCell/Update
p173
aVColumn/Formula
p174
aVColumn/Formula
p175
aVColumn/Formula
p176
aVColumn/Formula
p177
aVCell/Update
p178
aVColumn/Formula
p179
aVCell/Update
p180
aVCell/Update
p181
aVCell/Update
p182
aVCell/Update
p183
aVCell/Update
p184
aVCell/Update
p185
aVCell/Update
p186
aVCell/Update
p187
aVCell/Update
p188
aVColumn/Formula
p189
aVCell/Update
p190
aVCell/Update
p191
aVCell/Update
p192
aVCell/Update
p193
aVCell/Update
p194
aVCell/Update
p195
aVCell/Update
p196
aVCell/Update
p197
aVCell/Update
p198
aVCell/Update
p199
aVCell/Update
p200
aVCell/Update
p201
aVCell/Update
p202
aVCell/Update
p203
aVCell/Update
p204
aVCell/Update
p205
aVCell/Update
p206
aVCell/Update
p207
aVCell/Update
p208
aVCell/Update
p209
aVCell/Update
p210
aVCell/Update
p211
aVCell/Update
p212
aVCell/Update
p213
aVCell/Update
p214
aVCell/Update
p215
aVCell/Update
p216
aVCell/Update
p217
aVCell/Update
p218
aVCell/Update
p219
aVCell/Update
p220
aVCell/Update
p221
aVCell/Update
p222
aVCell/Update
p223
aVCell/Update
p224
aVCell/Update
p225
aVCell/Update
p226
aVCell/Update
p227
aVCell/Update
p228
aVCell/Update
p229
aVCell/Update
p230
aVCell/Update
p231
aVCell/Update
p232
aVCell/Update
p233
aVCell/Update
p234
aVCell/Update
p235
aVCell/Update
p236
aVCell/Update
p237
aVCell/Update
p238
aVCell/Update
p239
aVCell/Update
p240
aVCell/Update
p241
aVCell/Update
p242
aVCell/Update
p243
aVCell/Update
p244
aVCell/Update
p245
aVCell/Update
p246
aVCell/Update
p247
aVCell/Update
p248
aVCell/Update
p249
aVCell/Update
p250
aVCell/Update
p251
aVCell/Update
p252
aVCell/Update
p253
aVCell/Update
p254
aVCell/Update
p255
aVCell/Update
p256
asS'_filepath'
p257
V/home/ubuntu/SciSheets/mysite/user/guest/tables/kristen_single_gene.pcl
p258
sS'_backup_dir'
p259
g17
sbsS'_namespace'
p260
(dp261
sS'_hidden_columns'
p262
(lp263
g0
(cscisheets.core.column
Column
p264
g2
Ntp265
Rp266
(dp267
S'_asis'
p268
I00
sS'_owning_table'
p269
g4
sS'_cells'
p270
(lp271
(lp272
cnumpy.core.multiarray
scalar
p273
(cnumpy
dtype
p274
(S'i8'
p275
I0
I1
tp276
Rp277
(I3
S'<'
p278
NNNI-1
I-1
I0
tp279
bS'\x00\x00\x00\x00\x00\x00\x00\x00'
p280
tp281
Rp282
aVI
p283
ag273
(g277
S'\x01\x00\x00\x00\x00\x00\x00\x00'
p284
tp285
Rp286
aa(lp287
g273
(g277
S'\x00\x00\x00\x00\x00\x00\x00\x00'
p288
tp289
Rp290
aVR1
p291
ag273
(g277
S'\x01\x00\x00\x00\x00\x00\x00\x00'
p292
tp293
Rp294
aa(lp295
g273
(g277
S'\x00\x00\x00\x00\x00\x00\x00\x00'
p296
tp297
Rp298
aVR2
p299
ag273
(g277
S'\x01\x00\x00\x00\x00\x00\x00\x00'
p300
tp301
Rp302
aa(lp303
g273
(g277
S'\x01\x00\x00\x00\x00\x00\x00\x00'
p304
tp305
Rp306
ag283
ag273
(g277
S'\x01\x00\x00\x00\x00\x00\x00\x00'
p307
tp308
Rp309
aa(lp310
g273
(g277
S'\x01\x00\x00\x00\x00\x00\x00\x00'
p311
tp312
Rp313
ag283
ag273
(g277
S'\x02\x00\x00\x00\x00\x00\x00\x00'
p314
tp315
Rp316
aa(lp317
g273
(g277
S'\x01\x00\x00\x00\x00\x00\x00\x00'
p318
tp319
Rp320
ag283
ag273
(g277
S'\x03\x00\x00\x00\x00\x00\x00\x00'
p321
tp322
Rp323
aa(lp324
g273
(g277
S'\x01\x00\x00\x00\x00\x00\x00\x00'
p325
tp326
Rp327
ag291
ag273
(g277
S'\x01\x00\x00\x00\x00\x00\x00\x00'
p328
tp329
Rp330
aa(lp331
g273
(g277
S'\x01\x00\x00\x00\x00\x00\x00\x00'
p332
tp333
Rp334
ag291
ag273
(g277
S'\x02\x00\x00\x00\x00\x00\x00\x00'
p335
tp336
Rp337
aa(lp338
g273
(g277
S'\x01\x00\x00\x00\x00\x00\x00\x00'
p339
tp340
Rp341
ag291
ag273
(g277
S'\x03\x00\x00\x00\x00\x00\x00\x00'
p342
tp343
Rp344
aa(lp345
g273
(g277
S'\x01\x00\x00\x00\x00\x00\x00\x00'
p346
tp347
Rp348
ag299
ag273
(g277
S'\x01\x00\x00\x00\x00\x00\x00\x00'
p349
tp350
Rp351
aa(lp352
g273
(g277
S'\x01\x00\x00\x00\x00\x00\x00\x00'
p353
tp354
Rp355
ag299
ag273
(g277
S'\x02\x00\x00\x00\x00\x00\x00\x00'
p356
tp357
Rp358
aa(lp359
g273
(g277
S'\x01\x00\x00\x00\x00\x00\x00\x00'
p360
tp361
Rp362
ag299
ag273
(g277
S'\x03\x00\x00\x00\x00\x00\x00\x00'
p363
tp364
Rp365
aa(lp366
g273
(g277
S'\x02\x00\x00\x00\x00\x00\x00\x00'
p367
tp368
Rp369
ag283
ag273
(g277
S'\x01\x00\x00\x00\x00\x00\x00\x00'
p370
tp371
Rp372
aa(lp373
g273
(g277
S'\x02\x00\x00\x00\x00\x00\x00\x00'
p374
tp375
Rp376
ag291
ag273
(g277
S'\x01\x00\x00\x00\x00\x00\x00\x00'
p377
tp378
Rp379
aa(lp380
g273
(g277
S'\x02\x00\x00\x00\x00\x00\x00\x00'
p381
tp382
Rp383
ag299
ag273
(g277
S'\x01\x00\x00\x00\x00\x00\x00\x00'
p384
tp385
Rp386
aa(lp387
g273
(g277
S'\x03\x00\x00\x00\x00\x00\x00\x00'
p388
tp389
Rp390
ag283
ag273
(g277
S'\x01\x00\x00\x00\x00\x00\x00\x00'
p391
tp392
Rp393
aa(lp394
g273
(g277
S'\x03\x00\x00\x00\x00\x00\x00\x00'
p395
tp396
Rp397
ag291
ag273
(g277
S'\x01\x00\x00\x00\x00\x00\x00\x00'
p398
tp399
Rp400
aa(lp401
g273
(g277
S'\x03\x00\x00\x00\x00\x00\x00\x00'
p402
tp403
Rp404
ag299
ag273
(g277
S'\x01\x00\x00\x00\x00\x00\x00\x00'
p405
tp406
Rp407
aaNaNaNaNaNaNaNaNaNaNaNaNaNaNaNaNaNaNaNaNaNaNaNaNaNaNaNaNaNaNaNaNaNaNaNaNasS'_formula_statement'
p408
g0
(cscisheets.core.helpers.formula_statement
FormulaStatement
p409
g2
Ntp410
Rp411
(dp412
S'_statement'
p413
Vsel = Eff > min_eff\u000agrouping_columns =   [\u000a    Treatment[sel],\u000a     RunType[sel], \u000a    BRpl[sel],      \u000a  ]\u000aGroups, groupedCt = groupBy(\u000a     grouping_columns, Ct[sel])\u000aGroups, groupedEff = groupBy(\u000a     grouping_columns, Eff[sel])\u000aGroups = [[g[0], g[1], g[2]] for g in Groups]\u000aGroupedCt = roundValues(groupedCt,2)\u000aGroupedEff = roundValues(groupedEff,2)
p414
sS'_name'
p415
VGroups
p416
sS'_isExpression'
p417
I00
sS'_isStatement'
p418
I00
sS'_formula'
p419
Vsel = Eff > min_eff\u000agrouping_columns =   [\u000a    Treatment[sel],\u000a     RunType[sel], \u000a    BRpl[sel],      \u000a  ]\u000aGroups, groupedCt = groupBy(\u000a     grouping_columns, Ct[sel])\u000aGroups, groupedEff = groupBy(\u000a     grouping_columns, Eff[sel])\u000aGroups = [[g[0], g[1], g[2]] for g in Groups]\u000aGroupedCt = roundValues(groupedCt,2)\u000aGroupedEff = roundValues(groupedEff,2)
p420
sbsS'_data_class'
p421
g0
(cscisheets.core.helpers.api_util
DataClass
p422
c__builtin__
tuple
p423
(cnumpy
ndarray
p424
cscisheets.core.helpers.api_util
makeArray
p425
tp426
tp427
Rp428
sg415
g416
sbag0
(g264
g2
Ntp429
Rp430
(dp431
g268
I00
sg269
g4
sg270
(lp432
(lp433
F0.92
aF0.91
aF0.91
aa(lp434
F0.83
aF0.83
aF0.85
aa(lp435
F0.82
aF0.85
aF0.82
aa(lp436
F0.85
aF0.84
aF0.85
aa(lp437
F0.87
aF0.78
aF0.85
aa(lp438
F0.84
aF0.84
aF0.77
aa(lp439
F0.92
aF0.98
aF0.9
aa(lp440
F0.9
aF0.83
aF0.84
aa(lp441
F0.87
aF0.85
aF0.83
aa(lp442
F0.79
aF0.84
aF0.86
aa(lp443
F0.83
aF0.82
aF0.83
aa(lp444
F0.81
aF0.82
aF0.8
aa(lp445
F0.84
aF0.79
aF0.81
aa(lp446
F0.77
aF0.87
aF0.81
aa(lp447
F0.78
aF0.77
aF0.79
aa(lp448
F0.88
aF0.86
aF0.89
aa(lp449
F0.87
aF0.9
aF0.86
aa(lp450
F0.82
aF0.82
aF0.79
aaNaNaNaNaNaNaNaNaNaNaNaNaNaNaNaNaNaNaNaNaNaNaNaNaNaNaNaNaNaNaNaNaNaNaNaNasg408
g0
(g409
g2
Ntp451
Rp452
(dp453
g413
NsS'_column'
p454
g430
sg417
I00
sg418
I00
sg419
Nsbsg421
g0
(g422
g423
(g424
g425
tp455
tp456
Rp457
sg415
VGroupedEff
p458
sbag0
(g264
g2
Ntp459
Rp460
(dp461
g268
I00
sg269
g4
sg270
(lp462
(lp463
F18.31
aF18.29
aF18.15
aa(lp464
F18.24
aF18.22
aF18.36
aa(lp465
F19.72
aF19.75
aF20.01
aa(lp466
F22.42
aF22.5
aF22.44
aa(lp467
F21.92
aF22.03
aF21.94
aa(lp468
F23.4
aF23.47
aF23.41
aa(lp469
F19.92
aF19.85
aF20.0
aa(lp470
F21.86
aF22.09
aF21.84
aa(lp471
F23.89
aF23.54
aF24.27
aa(lp472
F22.18
aF21.71
aF21.75
aa(lp473
F23.88
aF23.42
aF23.63
aa(lp474
F24.59
aF24.61
aF24.34
aa(lp475
F23.48
aF23.31
aF23.45
aa(lp476
F23.22
aF23.8
aF23.49
aa(lp477
F26.37
aF26.36
aF26.17
aa(lp478
F18.82
aF18.97
aF18.92
aa(lp479
F18.91
aF18.78
aF18.8
aa(lp480
F20.5
aF20.47
aF20.28
aaNaNaNaNaNaNaNaNaNaNaNaNaNaNaNaNaNaNaNaNaNaNaNaNaNaNaNaNaNaNaNaNaNaNaNaNasg408
g0
(g409
g2
Ntp481
Rp482
(dp483
g413
Nsg454
g460
sg417
I00
sg418
I00
sg419
Nsbsg421
g0
(g422
g423
(g424
g425
tp484
tp485
Rp486
sg415
VGroupedCt
p487
sbag0
(g264
g2
Ntp488
Rp489
(dp490
g268
I00
sg269
g4
sg270
(lp491
(lp492
F18.3
aF18.3
aF18.1
aa(lp493
F18.2
aF18.2
aF18.4
aa(lp494
F19.7
aF19.8
aF20.0
aa(lp495
F22.4
aF22.5
aF22.4
aa(lp496
F21.9
aF22.0
aF21.9
aa(lp497
F23.4
aF23.5
aF23.4
aa(lp498
F19.9
aF19.9
aF20.0
aa(lp499
F21.9
aF22.1
aF21.8
aa(lp500
F23.9
aF23.5
aF24.3
aa(lp501
F22.2
aF21.7
aF21.8
aa(lp502
F23.9
aF23.4
aF23.6
aa(lp503
F24.6
aF24.6
aF24.3
aa(lp504
F23.5
aF23.3
aF23.4
aa(lp505
F23.2
aF23.8
aF23.5
aa(lp506
F26.4
aF26.4
aF26.2
aa(lp507
F18.8
aF19.0
aF18.9
aa(lp508
F18.9
aF18.8
aF18.8
aa(lp509
F20.5
aF20.5
aF20.3
aaNaNaNaNaNaNaNaNaNaNaNaNaNaNaNaNaNaNaNaNaNaNaNaNaNaNaNaNaNaNaNaNaNaNaNaNasg408
g0
(g409
g2
Ntp510
Rp511
(dp512
g413
Vlength = len(Groups)\u000aStdFilteredGroupedCt = roundValues([filterExtremes(g, max_std, 2) for g in pruneNulls(GroupedCt,    required_length=length)])\u000a 
p513
sg415
VStdFilteredGroupedCt
p514
sg417
I00
sg418
I00
sg419
Vlength = len(Groups)\u000aStdFilteredGroupedCt = roundValues([filterExtremes(g, max_std, 2) for g in pruneNulls(GroupedCt,    required_length=length)])\u000a 
p515
sbsg421
g0
(g422
g423
(g424
g425
tp516
tp517
Rp518
sg415
g514
sbag0
(g264
g2
Ntp519
Rp520
(dp521
g268
I00
sg269
g4
sg270
(lp522
F18.2
aF18.3
aF19.8
aF22.4
aF21.9
aF23.4
aF19.9
aF21.9
aF23.9
aF21.9
aF23.6
aF24.5
aF23.4
aF23.5
aF26.3
aF18.9
aF18.8
aF20.4
aFnan
aFnan
aFnan
aFnan
aFnan
aFnan
aFnan
aFnan
aFnan
aFnan
aFnan
aFnan
aFnan
aFnan
aFnan
aFnan
aFnan
aFnan
aFnan
aFnan
aFnan
aFnan
aFnan
aFnan
aFnan
aFnan
aFnan
aFnan
aFnan
aFnan
aFnan
aFnan
aFnan
aFnan
aFnan
aFnan
asg408
g0
(g409
g2
Ntp523
Rp524
(dp525
g413
VMeanCt = [np.mean(g) for g in StdFilteredGroupedCt]\u000aMeanCt = roundValues(MeanCt,1)\u000aStdCt = [np.std(g, ddof=1) for g in StdFilteredGroupedCt]\u000aStdCt = roundValues(StdCt,3)
p526
sg415
VMeanCt
p527
sg417
I00
sg418
I00
sg419
VMeanCt = [np.mean(g) for g in StdFilteredGroupedCt]\u000aMeanCt = roundValues(MeanCt,1)\u000aStdCt = [np.std(g, ddof=1) for g in StdFilteredGroupedCt]\u000aStdCt = roundValues(StdCt,3)
p528
sbsg421
g0
(g422
g423
(g424
g425
tp529
tp530
Rp531
sg415
g527
sbag0
(g264
g2
Ntp532
Rp533
(dp534
g268
I00
sg269
g4
sg270
(lp535
F0.115
aF0.115
aF0.153
aF0.058
aF0.058
aF0.058
aF0.058
aF0.153
aF0.4
aF0.265
aF0.252
aF0.173
aF0.1
aF0.3
aF0.115
aF0.1
aF0.058
aF0.115
aFnan
aFnan
aFnan
aFnan
aFnan
aFnan
aFnan
aFnan
aFnan
aFnan
aFnan
aFnan
aFnan
aFnan
aFnan
aFnan
aFnan
aFnan
aFnan
aFnan
aFnan
aFnan
aFnan
aFnan
aFnan
aFnan
aFnan
aFnan
aFnan
aFnan
aFnan
aFnan
aFnan
aFnan
aFnan
aFnan
asg408
g0
(g409
g2
Ntp536
Rp537
(dp538
g413
Nsg454
g533
sg417
I00
sg418
I00
sg419
Nsbsg421
g0
(g422
g423
(g424
g425
tp539
tp540
Rp541
sg415
VStdCt
p542
sbag0
(g264
g2
Ntp543
Rp544
(dp545
g268
I00
sg269
g4
sg270
(lp546
I1
aI1
aI1
aI1
aI1
aI1
aI1
aI1
aI1
aI1
aI1
aI1
aI2
aI2
aI2
aI3
aI3
aI3
aI1
aI1
aI1
aI2
aI2
aI2
aI3
aI3
aI3
aI1
aI1
aI1
aI2
aI2
aI2
aI3
aI3
aI3
aI1
aI1
aI1
aI1
aI1
aI1
aI1
aI1
aI1
aI1
aI1
aI1
aI1
aI1
aI1
aI1
aI1
aI1
asg408
g0
(g409
g2
Ntp547
Rp548
(dp549
g413
Nsg415
S'BRpl'
p550
sg417
I00
sg418
I00
sg419
Nsbsg421
g0
(g422
g423
(g424
g425
tp551
tp552
Rp553
sg415
g550
sbag0
(g264
g2
Ntp554
Rp555
(dp556
g268
I00
sg269
g4
sg270
(lp557
F18.31
aF18.29
aF18.15
aF18.24
aF18.22
aF18.36
aF19.72
aF19.75
aF20.01
aF22.42
aF22.5
aF22.44
aF21.92
aF22.03
aF21.94
aF23.4
aF23.47
aF23.41
aF19.92
aF19.85
aF20.0
aF21.86
aF22.09
aF21.84
aF23.89
aF23.54
aF24.27
aF22.18
aF21.71
aF21.75
aF23.88
aF23.42
aF23.63
aF24.59
aF24.61
aF24.34
aF23.48
aF23.31
aF23.45
aF23.22
aF23.8
aF23.49
aF26.37
aF26.36
aF26.17
aF18.82
aF18.97
aF18.92
aF18.91
aF18.78
aF18.8
aF20.5
aF20.47
aF20.28
asg408
g0
(g409
g2
Ntp558
Rp559
(dp560
g413
Nsg415
S'Ct'
p561
sg417
I00
sg418
I00
sg419
Nsbsg421
g553
sg415
g561
sbag0
(g264
g2
Ntp562
Rp563
(dp564
g268
I00
sg269
g4
sg270
(lp565
F0.919
aF0.9106
aF0.9129
aF0.8266
aF0.8343
aF0.8496
aF0.8157
aF0.8543
aF0.8208
aF0.8453
aF0.8426
aF0.8524
aF0.8658
aF0.7809
aF0.8512
aF0.8442
aF0.8357
aF0.7658
aF0.9179
aF0.9783
aF0.8971
aF0.8957
aF0.8287
aF0.8387
aF0.8746
aF0.8493
aF0.8349
aF0.7857
aF0.8427
aF0.8637
aF0.8281
aF0.8203
aF0.8288
aF0.8138
aF0.8242
aF0.804
aF0.8352
aF0.7886
aF0.8105
aF0.7701
aF0.8746
aF0.8139
aF0.7795
aF0.7676
aF0.7947
aF0.876
aF0.8597
aF0.8873
aF0.8715
aF0.8977
aF0.856
aF0.8179
aF0.8173
aF0.7894
asg408
g0
(g409
g2
Ntp566
Rp567
(dp568
g413
Nsg415
S'Eff'
p569
sg417
I00
sg418
I00
sg419
Nsbsg421
g553
sg415
g569
sbag0
(g264
g2
Ntp570
Rp571
(dp572
g268
I00
sg269
g4
sg270
(lp573
g283
ag283
ag283
aVR1
p574
aVR1
p575
aVR1
p576
aVR2
p577
aVR2
p578
aVR2
p579
ag283
ag283
ag283
ag283
ag283
ag283
ag283
ag283
ag283
aVR1
p580
aVR1
p581
aVR1
p582
aVR1
p583
aVR1
p584
aVR1
p585
aVR1
p586
aVR1
p587
aVR1
p588
aVR2
p589
aVR2
p590
aVR2
p591
aVR2
p592
aVR2
p593
aVR2
p594
aVR2
p595
aVR2
p596
aVR2
p597
ag283
ag283
ag283
aVR1
p598
aVR1
p599
aVR1
p600
aVR2
p601
aVR2
p602
aVR2
p603
ag283
ag283
ag283
aVR1
p604
aVR1
p605
aVR1
p606
aVR2
p607
aVR2
p608
aVR2
p609
asg408
g0
(g409
g2
Ntp610
Rp611
(dp612
g413
Nsg415
S'RunType'
p613
sg417
I00
sg418
I00
sg419
Nsbsg421
g553
sg415
g613
sbag0
(g264
g2
Ntp614
Rp615
(dp616
g268
I00
sg269
g4
sg270
(lp617
Va
p618
aVb
p619
aVc
p620
ag618
ag619
ag620
ag618
ag619
ag620
ag618
ag619
ag620
ag618
ag619
ag620
ag618
ag619
ag620
ag618
ag619
ag620
ag618
ag619
ag620
ag618
ag619
ag620
ag618
ag619
ag620
ag618
ag619
ag620
ag618
ag619
ag620
ag618
ag619
ag620
ag618
ag619
ag620
ag618
ag619
ag620
ag618
ag619
ag620
ag618
ag619
ag620
ag618
ag619
ag620
asg408
g0
(g409
g2
Ntp621
Rp622
(dp623
g413
Nsg415
S'TRpl'
p624
sg417
I00
sg418
I00
sg419
Nsbsg421
g553
sg415
g624
sbag0
(g264
g2
Ntp625
Rp626
(dp627
g268
I00
sg269
g4
sg270
(lp628
I0
aI0
aI0
aI0
aI0
aI0
aI0
aI0
aI0
aI1
aI1
aI1
aI1
aI1
aI1
aI1
aI1
aI1
aI1
aI1
aI1
aI1
aI1
aI1
aI1
aI1
aI1
aI1
aI1
aI1
aI1
aI1
aI1
aI1
aI1
aI1
aI2
aI2
aI2
aI2
aI2
aI2
aI2
aI2
aI2
aI3
aI3
aI3
aI3
aI3
aI3
aI3
aI3
aI3
asg408
g0
(g409
g2
Ntp629
Rp630
(dp631
g413
Nsg415
S'Treatment'
p632
sg417
I00
sg418
I00
sg419
Nsbsg421
g553
sg415
g632
sbasS'_is_evaluate_formulas'
p633
I01
sS'_prologue'
p634
g0
(g409
g2
Ntp635
Rp636
(dp637
g413
V# Prologue\u000aimport math as mt\u000aimport numpy as np\u000afrom os import listdir\u000afrom os.path import isfile, join\u000aimport pandas as pd\u000aimport scipy as sp\u000afrom numpy import nan  # Must follow sympy import \u000a\u000axlsx_path = '/mnt/hgfs/josephhellerstein/home/Technical/SciSheets/CaseStudies/Kristen/workbooks/data.xlsx'\u000agene = ParmValues[0]\u000arun = ParmValues[1] == 'True'\u000ashow_raw = ParmValues[2] == 'True'\u000ashow_block1 = ParmValues[3] == 'True'\u000ashow_block2 = ParmValues[4] == 'True'\u000ashow_block3 = ParmValues[5] == 'True'\u000ashow_params = ParmValues[8] == 'True'\u000a#show_params = True\u000amax_std  = float(ParmValues[6])\u000amin_eff = float(ParmValues[7])\u000aworksheet = gene + "-I"\u000as.getTable().setIsEvaluateFormulas(run)\u000as.setColumnVisibility()\u000as.setColumnVisibility(['Groups', 'GroupedEff', 'GroupedCt', 'StdFilteredGroupedCt', 'MeanCt', 'StdCt'], is_visible=show_block1)\u000as.setColumnVisibility(['BioRuns', 'Gene_I', 'Gene_R1', 'Gene_R2', 'ExprR1', 'ExprR2', 'GeoMean'], is_visible=show_block2)\u000as.setColumnVisibility(['GeoGroups', 'GroupedGeoMeans', 'NrmlGeoGroupedMeans', 'MeanNrmlGeoGroups', 'StdNrmlGeoGroups'], is_visible=show_block3)\u000aif False:\u000a  Groups = []\u000a  GroupedCt = []\u000a  GroupedEff = []\u000a  MeanCt = []\u000a  Imp = []\u000a  s.deleteColumn('Ct')\u000a  s.deleteColumn('RunType')\u000a  s.deleteColumn('BRpl')\u000a  s.deleteColumn('TRpl')\u000a  s.deleteColumn('Treatment')\u000a  s.deleteColumn('Eff')\u000aif run:\u000a  importExcelToTable(s, xlsx_path, worksheet=worksheet,\u000a      column_position='ParmValues',\u000a      names=['Treatment', 'RunType', 'BRpl', 'TRpl', 'Eff', 'Ct'])\u000as.setColumnVisibility(['BRpl', 'Ct', 'Eff', 'RunType', 'TRpl', 'Treatment'], is_visible=show_raw)\u000as.setColumnVisibility(['ParmNames', 'ParmValues'], show_params)
p638
sg415
VSingleGene
p639
sg417
I00
sg418
I00
sg419
V# Prologue\u000aimport math as mt\u000aimport numpy as np\u000afrom os import listdir\u000afrom os.path import isfile, join\u000aimport pandas as pd\u000aimport scipy as sp\u000afrom numpy import nan  # Must follow sympy import \u000a\u000axlsx_path = '/mnt/hgfs/josephhellerstein/home/Technical/SciSheets/CaseStudies/Kristen/workbooks/data.xlsx'\u000agene = ParmValues[0]\u000arun = ParmValues[1] == 'True'\u000ashow_raw = ParmValues[2] == 'True'\u000ashow_block1 = ParmValues[3] == 'True'\u000ashow_block2 = ParmValues[4] == 'True'\u000ashow_block3 = ParmValues[5] == 'True'\u000ashow_params = ParmValues[8] == 'True'\u000a#show_params = True\u000amax_std  = float(ParmValues[6])\u000amin_eff = float(ParmValues[7])\u000aworksheet = gene + "-I"\u000as.getTable().setIsEvaluateFormulas(run)\u000as.setColumnVisibility()\u000as.setColumnVisibility(['Groups', 'GroupedEff', 'GroupedCt', 'StdFilteredGroupedCt', 'MeanCt', 'StdCt'], is_visible=show_block1)\u000as.setColumnVisibility(['BioRuns', 'Gene_I', 'Gene_R1', 'Gene_R2', 'ExprR1', 'ExprR2', 'GeoMean'], is_visible=show_block2)\u000as.setColumnVisibility(['GeoGroups', 'GroupedGeoMeans', 'NrmlGeoGroupedMeans', 'MeanNrmlGeoGroups', 'StdNrmlGeoGroups'], is_visible=show_block3)\u000aif False:\u000a  Groups = []\u000a  GroupedCt = []\u000a  GroupedEff = []\u000a  MeanCt = []\u000a  Imp = []\u000a  s.deleteColumn('Ct')\u000a  s.deleteColumn('RunType')\u000a  s.deleteColumn('BRpl')\u000a  s.deleteColumn('TRpl')\u000a  s.deleteColumn('Treatment')\u000a  s.deleteColumn('Eff')\u000aif run:\u000a  importExcelToTable(s, xlsx_path, worksheet=worksheet,\u000a      column_position='ParmValues',\u000a      names=['Treatment', 'RunType', 'BRpl', 'TRpl', 'Eff', 'Ct'])\u000as.setColumnVisibility(['BRpl', 'Ct', 'Eff', 'RunType', 'TRpl', 'Treatment'], is_visible=show_raw)\u000as.setColumnVisibility(['ParmNames', 'ParmValues'], show_params)
p640
sbsS'_epilogue'
p641
g0
(g409
g2
Ntp642
Rp643
(dp644
g413
V# Epilogue\u000aif run:\u000a  worksheet = "%s-O" % gene\u000a  exportTableToExcel(s, xlsx_path, worksheet=worksheet, columns=['GeoGroups', 'MeanNrmlGeoGroups', 'StdNrmlGeoGroups'])\u000a
p645
sg415
g639
sg417
I00
sg418
I00
sg419
V# Epilogue\u000aif run:\u000a  worksheet = "%s-O" % gene\u000a  exportTableToExcel(s, xlsx_path, worksheet=worksheet, columns=['GeoGroups', 'MeanNrmlGeoGroups', 'StdNrmlGeoGroups'])\u000a
p646
sbsg415
g639
sS'_columns'
p647
(lp648
g0
(g264
g2
Ntp649
Rp650
(dp651
g268
I01
sg269
g4
sg270
(lp652
S'1'
p653
aS'2'
p654
aS'3'
p655
aS'4'
p656
aS'5'
p657
aS'6'
p658
aS'7'
p659
aS'8'
p660
aS'9'
p661
aS'10'
p662
aS'11'
p663
aS'12'
p664
aS'13'
p665
aS'14'
p666
aS'15'
p667
aS'16'
p668
aS'17'
p669
aS'18'
p670
aS'19'
p671
aS'20'
p672
aS'21'
p673
aS'22'
p674
aS'23'
p675
aS'24'
p676
aS'25'
p677
aS'26'
p678
aS'27'
p679
aS'28'
p680
aS'29'
p681
aS'30'
p682
aS'31'
p683
aS'32'
p684
aS'33'
p685
aS'34'
p686
aS'35'
p687
aS'36'
p688
aS'37'
p689
aS'38'
p690
aS'39'
p691
aS'40'
p692
aS'41'
p693
aS'42'
p694
aS'43'
p695
aS'44'
p696
aS'45'
p697
aS'46'
p698
aS'47'
p699
aS'48'
p700
aS'49'
p701
aS'50'
p702
aS'51'
p703
aS'52'
p704
aS'53'
p705
aS'54'
p706
asg408
g0
(g409
g2
Ntp707
Rp708
(dp709
g413
Nsg454
g650
sg417
I00
sg418
I00
sg419
Nsbsg421
g0
(g422
g423
(g424
g425
tp710
tp711
Rp712
sg415
S'row'
p713
sbag0
(g264
g2
Ntp714
Rp715
(dp716
g268
I00
sg269
g4
sg270
(lp717
Vgene
p718
aVrun
p719
aVshow_raw
p720
aVshow_block1
p721
aVshow_block2
p722
aVshow_block3
p723
aVmax_std
p724
aVmin_eff
p725
aVshow_params
p726
aVnan
p727
aVnan
p728
aVnan
p729
aVnan
p730
aVnan
p731
aVnan
p732
aVnan
p733
aVnan
p734
aVnan
p735
aVnan
p736
aVnan
p737
aVnan
p738
aVnan
p739
aVnan
p740
aVnan
p741
aVnan
p742
aVnan
p743
aVnan
p744
aVnan
p745
aVnan
p746
aVnan
p747
aVnan
p748
aVnan
p749
aVnan
p750
aVnan
p751
aVnan
p752
aVnan
p753
aVnan
p754
aVnan
p755
aVnan
p756
aVnan
p757
aVnan
p758
aVnan
p759
aVnan
p760
aVnan
p761
aVnan
p762
aVnan
p763
aVnan
p764
aVnan
p765
aVnan
p766
aVnan
p767
aVnan
p768
aVnan
p769
aVnan
p770
aVnan
p771
asg408
g0
(g409
g2
Ntp772
Rp773
(dp774
g413
Nsg454
g715
sg417
I00
sg418
I00
sg419
Nsbsg421
g0
(g422
g423
(g424
g425
tp775
tp776
Rp777
sg415
VParmNames
p778
sbag0
(g264
g2
Ntp779
Rp780
(dp781
g268
I00
sg269
g4
sg270
(lp782
VGene2
p783
aVTrue
p784
aVFalse
p785
aVFalse
p786
aVTrue
p787
aVTrue
p788
aV0.5
p789
aV0.7
p790
aVTrue
p791
aV
p792
aVnan
p793
aVnan
p794
aVnan
p795
aVnan
p796
aVnan
p797
aVnan
p798
aVnan
p799
aVnan
p800
aVnan
p801
aVnan
p802
aVnan
p803
aVnan
p804
aVnan
p805
aVnan
p806
aVnan
p807
aVnan
p808
aVnan
p809
aVnan
p810
aVnan
p811
aVnan
p812
aVnan
p813
aVnan
p814
aVnan
p815
aVnan
p816
aVnan
p817
aVnan
p818
aVnan
p819
aVnan
p820
aVnan
p821
aVnan
p822
aVnan
p823
aVnan
p824
aVnan
p825
aVnan
p826
aVnan
p827
aVnan
p828
aVnan
p829
aVnan
p830
aVnan
p831
aVnan
p832
aVnan
p833
aVnan
p834
aVnan
p835
aVnan
p836
asg408
g0
(g409
g2
Ntp837
Rp838
(dp839
g413
Nsg415
VParmValues
p840
sg417
I00
sg418
I00
sg419
Nsbsg421
g0
(g422
g423
(g424
g425
tp841
tp842
Rp843
sg415
g840
sbag626
ag571
ag544
ag615
ag563
ag555
ag266
ag430
ag460
ag489
ag520
ag533
ag0
(g264
g2
Ntp844
Rp845
(dp846
g268
I00
sg269
g4
sg270
(lp847
(lp848
g273
(g277
S'\x00\x00\x00\x00\x00\x00\x00\x00'
p849
tp850
Rp851
ag273
(g277
S'\x01\x00\x00\x00\x00\x00\x00\x00'
p852
tp853
Rp854
aa(lp855
g273
(g277
S'\x01\x00\x00\x00\x00\x00\x00\x00'
p856
tp857
Rp858
ag273
(g277
S'\x01\x00\x00\x00\x00\x00\x00\x00'
p859
tp860
Rp861
aa(lp862
g273
(g277
S'\x01\x00\x00\x00\x00\x00\x00\x00'
p863
tp864
Rp865
ag273
(g277
S'\x02\x00\x00\x00\x00\x00\x00\x00'
p866
tp867
Rp868
aa(lp869
g273
(g277
S'\x01\x00\x00\x00\x00\x00\x00\x00'
p870
tp871
Rp872
ag273
(g277
S'\x03\x00\x00\x00\x00\x00\x00\x00'
p873
tp874
Rp875
aa(lp876
g273
(g277
S'\x02\x00\x00\x00\x00\x00\x00\x00'
p877
tp878
Rp879
ag273
(g277
S'\x01\x00\x00\x00\x00\x00\x00\x00'
p880
tp881
Rp882
aa(lp883
g273
(g277
S'\x03\x00\x00\x00\x00\x00\x00\x00'
p884
tp885
Rp886
ag273
(g277
S'\x01\x00\x00\x00\x00\x00\x00\x00'
p887
tp888
Rp889
aaNaNaNaNaNaNaNaNaNaNaNaNaNaNaNaNaNaNaNaNaNaNaNaNaNaNaNaNaNaNaNaNaNaNaNaNaNaNaNaNaNaNaNaNaNaNaNaNasg408
g0
(g409
g2
Ntp890
Rp891
(dp892
g413
Vdummy = tabularize(s, 'Groups', 1, 'MeanCt', \u000a          new_category_colnm='BioRuns',\u000a          values_colnm_prefix='Gene_')
p893
sg415
VBioRuns
p894
sg417
I00
sg418
I00
sg419
Vdummy = tabularize(s, 'Groups', 1, 'MeanCt', \u000a          new_category_colnm='BioRuns',\u000a          values_colnm_prefix='Gene_')
p895
sbsg421
g0
(g422
g423
(g424
g425
tp896
tp897
Rp898
sg415
g894
sbag0
(g264
g2
Ntp899
Rp900
(dp901
g268
I00
sg269
g4
sg270
(lp902
F18.2
aF22.4
aF21.9
aF23.4
aF23.4
aF18.9
aFnan
aFnan
aFnan
aFnan
aFnan
aFnan
aFnan
aFnan
aFnan
aFnan
aFnan
aFnan
aFnan
aFnan
aFnan
aFnan
aFnan
aFnan
aFnan
aFnan
aFnan
aFnan
aFnan
aFnan
aFnan
aFnan
aFnan
aFnan
aFnan
aFnan
aFnan
aFnan
aFnan
aFnan
aFnan
aFnan
aFnan
aFnan
aFnan
aFnan
aFnan
aFnan
aFnan
aFnan
aFnan
aFnan
aFnan
aFnan
asg408
g0
(g409
g2
Ntp903
Rp904
(dp905
g413
Nsg454
g900
sg417
I00
sg418
I00
sg419
Nsbsg421
g0
(g422
g423
(g424
g425
tp906
tp907
Rp908
sg415
S'Gene_I'
p909
sbag0
(g264
g2
Ntp910
Rp911
(dp912
g268
I00
sg269
g4
sg270
(lp913
F18.3
aF19.9
aF21.9
aF23.9
aF23.5
aF18.8
aFnan
aFnan
aFnan
aFnan
aFnan
aFnan
aFnan
aFnan
aFnan
aFnan
aFnan
aFnan
aFnan
aFnan
aFnan
aFnan
aFnan
aFnan
aFnan
aFnan
aFnan
aFnan
aFnan
aFnan
aFnan
aFnan
aFnan
aFnan
aFnan
aFnan
aFnan
aFnan
aFnan
aFnan
aFnan
aFnan
aFnan
aFnan
aFnan
aFnan
aFnan
aFnan
aFnan
aFnan
aFnan
aFnan
aFnan
aFnan
asg408
g0
(g409
g2
Ntp914
Rp915
(dp916
g413
Nsg454
g911
sg417
I00
sg418
I00
sg419
Nsbsg421
g908
sg415
S'Gene_R1'
p917
sbag0
(g264
g2
Ntp918
Rp919
(dp920
g268
I00
sg269
g4
sg270
(lp921
F19.8
aF21.9
aF23.6
aF24.5
aF26.3
aF20.4
aFnan
aFnan
aFnan
aFnan
aFnan
aFnan
aFnan
aFnan
aFnan
aFnan
aFnan
aFnan
aFnan
aFnan
aFnan
aFnan
aFnan
aFnan
aFnan
aFnan
aFnan
aFnan
aFnan
aFnan
aFnan
aFnan
aFnan
aFnan
aFnan
aFnan
aFnan
aFnan
aFnan
aFnan
aFnan
aFnan
aFnan
aFnan
aFnan
aFnan
aFnan
aFnan
aFnan
aFnan
aFnan
aFnan
aFnan
aFnan
asg408
g0
(g409
g2
Ntp922
Rp923
(dp924
g413
Nsg454
g919
sg417
I00
sg418
I00
sg419
Nsbsg421
g908
sg415
S'Gene_R2'
p925
sbag0
(g264
g2
Ntp926
Rp927
(dp928
g268
I00
sg269
g4
sg270
(lp929
F1.07177
aF0.17678
aF1.0
aF1.41421
aF1.07177
aF0.93303
aFnan
aFnan
aFnan
aFnan
aFnan
aFnan
aFnan
aFnan
aFnan
aFnan
aFnan
aFnan
aFnan
aFnan
aFnan
aFnan
aFnan
aFnan
aFnan
aFnan
aFnan
aFnan
aFnan
aFnan
aFnan
aFnan
aFnan
aFnan
aFnan
aFnan
aFnan
aFnan
aFnan
aFnan
aFnan
aFnan
aFnan
aFnan
aFnan
aFnan
aFnan
aFnan
aFnan
aFnan
aFnan
aFnan
aFnan
aFnan
asg408
g0
(g409
g2
Ntp930
Rp931
(dp932
g413
VExprR1 = roundValues(2**(Gene_R1 - Gene_I),5)
p933
sg415
VExprR1
p934
sg417
I01
sg418
I00
sg419
VroundValues(2**(Gene_R1 - Gene_I),5)
p935
sbsg421
g0
(g422
g423
(g424
g425
tp936
tp937
Rp938
sg415
g934
sbag0
(g264
g2
Ntp939
Rp940
(dp941
g268
I00
sg269
g4
sg270
(lp942
F3.03143
aF0.70711
aF3.24901
aF2.14355
aF7.46426
aF2.82843
aFnan
aFnan
aFnan
aFnan
aFnan
aFnan
aFnan
aFnan
aFnan
aFnan
aFnan
aFnan
aFnan
aFnan
aFnan
aFnan
aFnan
aFnan
aFnan
aFnan
aFnan
aFnan
aFnan
aFnan
aFnan
aFnan
aFnan
aFnan
aFnan
aFnan
aFnan
aFnan
aFnan
aFnan
aFnan
aFnan
aFnan
aFnan
aFnan
aFnan
aFnan
aFnan
aFnan
aFnan
aFnan
aFnan
aFnan
aFnan
asg408
g0
(g409
g2
Ntp943
Rp944
(dp945
g413
VExprR2 = roundValues(2**(Gene_R2 - Gene_I),5)
p946
sg415
VExprR2
p947
sg417
I01
sg418
I00
sg419
VroundValues(2**(Gene_R2 - Gene_I),5)
p948
sbsg421
g0
(g422
g423
(g424
g425
tp949
tp950
Rp951
sg415
g947
sbag0
(g264
g2
Ntp952
Rp953
(dp954
g268
I00
sg269
g4
sg270
(lp955
F1.802
aF0.354
aF1.803
aF1.741
aF2.828
aF1.625
aFnan
aFnan
aFnan
aFnan
aFnan
aFnan
aFnan
aFnan
aFnan
aFnan
aFnan
aFnan
aFnan
aFnan
aFnan
aFnan
aFnan
aFnan
aFnan
aFnan
aFnan
aFnan
aFnan
aFnan
aFnan
aFnan
aFnan
aFnan
aFnan
aFnan
aFnan
aFnan
aFnan
aFnan
aFnan
aFnan
aFnan
aFnan
aFnan
aFnan
aFnan
aFnan
aFnan
aFnan
aFnan
aFnan
aFnan
aFnan
asg408
g0
(g409
g2
Ntp956
Rp957
(dp958
g413
VGeoMean = roundValues(np.sqrt(ExprR1*ExprR2), 3)
p959
sg415
VGeoMean
p960
sg417
I01
sg418
I00
sg419
VroundValues(np.sqrt(ExprR1*ExprR2), 3)
p961
sbsg421
g0
(g422
g423
(g424
g425
tp962
tp963
Rp964
sg415
g960
sbag0
(g264
g2
Ntp965
Rp966
(dp967
g268
I00
sg269
g4
sg270
(lp968
(lp969
g273
(g277
S'\x00\x00\x00\x00\x00\x00\x00\x00'
p970
tp971
Rp972
aa(lp973
g273
(g277
S'\x01\x00\x00\x00\x00\x00\x00\x00'
p974
tp975
Rp976
aa(lp977
g273
(g277
S'\x02\x00\x00\x00\x00\x00\x00\x00'
p978
tp979
Rp980
aa(lp981
g273
(g277
S'\x03\x00\x00\x00\x00\x00\x00\x00'
p982
tp983
Rp984
aaNaNaNaNaNaNaNaNaNaNaNaNaNaNaNaNaNaNaNaNaNaNaNaNaNaNaNaNaNaNaNaNaNaNaNaNaNaNaNaNaNaNaNaNaNaNaNaNaNaNasg408
g0
(g409
g2
Ntp985
Rp986
(dp987
g413
Vcat_vals = [br[0] for br in pruneNulls(BioRuns)]\u000aclean_geo = [x for x in GeoMean if x is not None]\u000aGeoGroups, groupedGeoMeans = groupBy(cat_vals, clean_geo)\u000aGroupedGeoMeans = roundValues(groupedGeoMeans, 3)\u000aGeoGroups = [[x] for x in GeoGroups]
p988
sg415
VGeoGroups
p989
sg417
I00
sg418
I00
sg419
Vcat_vals = [br[0] for br in pruneNulls(BioRuns)]\u000aclean_geo = [x for x in GeoMean if x is not None]\u000aGeoGroups, groupedGeoMeans = groupBy(cat_vals, clean_geo)\u000aGroupedGeoMeans = roundValues(groupedGeoMeans, 3)\u000aGeoGroups = [[x] for x in GeoGroups]
p990
sbsg421
g0
(g422
g423
(g424
g425
tp991
tp992
Rp993
sg415
g989
sbag0
(g264
g2
Ntp994
Rp995
(dp996
g268
I00
sg269
g4
sg270
(lp997
cnumpy.core.multiarray
_reconstruct
p998
(g424
(I0
tp999
S'b'
p1000
tp1001
Rp1002
(I1
(I1
tp1003
g274
(S'f8'
p1004
I0
I1
tp1005
Rp1006
(I3
S'<'
p1007
NNNI-1
I-1
I0
tp1008
bI00
S'\xa2E\xb6\xf3\xfd\xd4\xfc?'
p1009
tp1010
bag998
(g424
(I0
tp1011
g1000
tp1012
Rp1013
(I1
(I3
tp1014
g1006
I00
S'\x0e-\xb2\x9d\xef\xa7\xd6?\x0c\x02+\x87\x16\xd9\xfc?B`\xe5\xd0"\xdb\xfb?'
p1015
tp1016
bag998
(g424
(I0
tp1017
g1000
tp1018
Rp1019
(I1
(I1
tp1020
g1006
I00
S'9\xb4\xc8v\xbe\x9f\x06@'
p1021
tp1022
bag998
(g424
(I0
tp1023
g1000
tp1024
Rp1025
(I1
(I1
tp1026
g1006
I00
S'\x00\x00\x00\x00\x00\x00\xfa?'
p1027
tp1028
baNaNaNaNaNaNaNaNaNaNaNaNaNaNaNaNaNaNaNaNaNaNaNaNaNaNaNaNaNaNaNaNaNaNaNaNaNaNaNaNaNaNaNaNaNaNaNaNaNaNasg408
g0
(g409
g2
Ntp1029
Rp1030
(dp1031
g413
Nsg454
g995
sg417
I00
sg418
I00
sg419
Nsbsg421
g0
(g422
g423
(g424
g425
tp1032
tp1033
Rp1034
sg415
VGroupedGeoMeans
p1035
sbag0
(g264
g2
Ntp1036
Rp1037
(dp1038
g268
I00
sg269
g4
sg270
(lp1039
g998
(g424
(I0
tp1040
g1000
tp1041
Rp1042
(I1
(I1
tp1043
g1006
I00
S'\x00\x00\x00\x00\x00\x00\xf0?'
p1044
tp1045
bag998
(g424
(I0
tp1046
g1000
tp1047
Rp1048
(I1
(I3
tp1049
g1006
I00
S'J\x0c\x02+\x87\x16\xc9?j\xbct\x93\x18\x04\xf0?\xb6\xf3\xfd\xd4x\xe9\xee?'
p1050
tp1051
bag998
(g424
(I0
tp1052
g1000
tp1053
Rp1054
(I1
(I1
tp1055
g1006
I00
S'\xb4\xc8v\xbe\x9f\x1a\xf9?'
p1056
tp1057
bag998
(g424
(I0
tp1058
g1000
tp1059
Rp1060
(I1
(I1
tp1061
g1006
I00
S'w\xbe\x9f\x1a/\xdd\xec?'
p1062
tp1063
baNaNaNaNaNaNaNaNaNaNaNaNaNaNaNaNaNaNaNaNaNaNaNaNaNaNaNaNaNaNaNaNaNaNaNaNaNaNaNaNaNaNaNaNaNaNaNaNaNaNasg408
g0
(g409
g2
Ntp1064
Rp1065
(dp1066
g413
Vref = np.mean(GroupedGeoMeans[0])\u000aNrmlGeoGroupedMeans = [ [x/ref for x in g] for g in GroupedGeoMeans if g is not None]  \u000aNrmlGeoGroupedMeans = roundValues(NrmlGeoGroupedMeans, 3)
p1067
sg415
VNrmlGeoGroupedMeans
p1068
sg417
I00
sg418
I00
sg419
Vref = np.mean(GroupedGeoMeans[0])\u000aNrmlGeoGroupedMeans = [ [x/ref for x in g] for g in GroupedGeoMeans if g is not None]  \u000aNrmlGeoGroupedMeans = roundValues(NrmlGeoGroupedMeans, 3)
p1069
sbsg421
g0
(g422
g423
(g424
g425
tp1070
tp1071
Rp1072
sg415
g1068
sbag0
(g264
g2
Ntp1073
Rp1074
(dp1075
g268
I00
sg269
g4
sg270
(lp1076
F1.0
aF0.721
aF1.569
aF0.902
aFnan
aFnan
aFnan
aFnan
aFnan
aFnan
aFnan
aFnan
aFnan
aFnan
aFnan
aFnan
aFnan
aFnan
aFnan
aFnan
aFnan
aFnan
aFnan
aFnan
aFnan
aFnan
aFnan
aFnan
aFnan
aFnan
aFnan
aFnan
aFnan
aFnan
aFnan
aFnan
aFnan
aFnan
aFnan
aFnan
aFnan
aFnan
aFnan
aFnan
aFnan
aFnan
aFnan
aFnan
aFnan
aFnan
aFnan
aFnan
aFnan
aFnan
asg408
g0
(g409
g2
Ntp1077
Rp1078
(dp1079
g413
VMeanNrmlGeoGroups = [round(np.mean(g), 3) for g in NrmlGeoGroupedMeans]
p1080
sg415
VMeanNrmlGeoGroups
p1081
sg417
I01
sg418
I00
sg419
V[round(np.mean(g), 3) for g in NrmlGeoGroupedMeans]
p1082
sbsg421
g0
(g422
g423
(g424
g425
tp1083
tp1084
Rp1085
sg415
g1081
sbag0
(g264
g2
Ntp1086
Rp1087
(dp1088
g268
I00
sg269
g4
sg270
(lp1089
Fnan
aF0.263
aFnan
aFnan
aFnan
aFnan
aFnan
aFnan
aFnan
aFnan
aFnan
aFnan
aFnan
aFnan
aFnan
aFnan
aFnan
aFnan
aFnan
aFnan
aFnan
aFnan
aFnan
aFnan
aFnan
aFnan
aFnan
aFnan
aFnan
aFnan
aFnan
aFnan
aFnan
aFnan
aFnan
aFnan
aFnan
aFnan
aFnan
aFnan
aFnan
aFnan
aFnan
aFnan
aFnan
aFnan
aFnan
aFnan
aFnan
aFnan
aFnan
aFnan
aFnan
aFnan
asg408
g0
(g409
g2
Ntp1090
Rp1091
(dp1092
g413
VStdNrmlGeoGroups = [round(np.std(g, ddof=1)/np.sqrt(len(g)), 3) for g in NrmlGeoGroupedMeans]\u000a
p1093
sg415
VStdNrmlGeoGroups
p1094
sg417
I01
sg418
I00
sg419
V[round(np.std(g, ddof=1)/np.sqrt(len(g)), 3) for g in NrmlGeoGroupedMeans]\u000a
p1095
sbsg421
g0
(g422
g423
(g424
g425
tp1096
tp1097
Rp1098
sg415
g1094
sbasg257
V/home/ubuntu/SciSheets/mysite/user/guest/tables/kristen_single_gene.pcl
p1099
sb.