ccopy_reg
_reconstructor
p0
(cscisheets.ui.dt_table
DTTable
p1
c__builtin__
object
p2
Ntp3
Rp4
(dp5
S'_versioned_file'
p6
g0
(cmysite.helpers.versioned_file
VersionedFile
p7
g2
Ntp8
Rp9
(dp10
S'_redo_stack'
p11
g0
(cmysite.helpers.file_stack
FileStack
p12
g2
Ntp13
Rp14
(dp15
S'_dirpath'
p16
S'/home/ubuntu/SciSheets/mysite/user/guest/tables/backup'
p17
sS'_max_depth'
p18
I5
sS'_filename_pfx'
p19
Vkristen_single_gene.r
p20
sbsS'_max_versions'
p21
I5
sS'_undo_stack'
p22
g0
(g12
g2
Ntp23
Rp24
(dp25
g16
g17
sg18
I5
sg19
Vkristen_single_gene.u
p26
sbsS'_checkpoint_history'
p27
(lp28
VCell/Update
p29
aVCell/Update
p30
aVCell/Update
p31
aVCell/Update
p32
aVCell/Update
p33
aVCell/Update
p34
aVCell/Update
p35
aVCell/Update
p36
aVCell/Update
p37
aVCell/Update
p38
aVCell/Update
p39
aVCell/Update
p40
aVColumn/Formula
p41
aVColumn/Formula
p42
aVColumn/Append
p43
aVColumn/Formula
p44
aVColumn/Delete
p45
aVCell/Update
p46
aVColumn/Formula
p47
aVCell/Update
p48
aVCell/Update
p49
aVColumn/Formula
p50
aVColumn/Formula
p51
aVCell/Update
p52
aVColumn/Formula
p53
aVColumn/Formula
p54
aVCell/Update
p55
aVCell/Update
p56
aVCell/Update
p57
aVCell/Update
p58
aVColumn/Formula
p59
aVCell/Update
p60
aVCell/Update
p61
aVCell/Update
p62
aVColumn/Formula
p63
aVCell/Update
p64
aVColumn/Formula
p65
aVColumn/Formula
p66
aVCell/Update
p67
aVCell/Update
p68
aVCell/Update
p69
aVCell/Update
p70
aVCell/Update
p71
aVCell/Update
p72
aVCell/Update
p73
aVCell/Update
p74
aVCell/Update
p75
aVColumn/Formula
p76
aVCell/Update
p77
aVCell/Update
p78
aVCell/Update
p79
aVCell/Update
p80
aVCell/Update
p81
aVCell/Update
p82
aVCell/Update
p83
aVCell/Update
p84
aVCell/Update
p85
aVCell/Update
p86
aVCell/Update
p87
aVCell/Update
p88
aVColumn/Formula
p89
aVColumn/Formula
p90
aVColumn/Formula
p91
aVCell/Update
p92
aVCell/Update
p93
aVCell/Update
p94
aVCell/Update
p95
aVCell/Update
p96
aVColumn/Formula
p97
aVCell/Update
p98
aVCell/Update
p99
aVCell/Update
p100
aVCell/Update
p101
aVCell/Update
p102
aVCell/Update
p103
aVCell/Update
p104
aVColumn/Formula
p105
aVColumn/Formula
p106
aVColumn/Formula
p107
aVCell/Update
p108
aVCell/Update
p109
aVColumn/Formula
p110
aVCell/Update
p111
aVCell/Update
p112
aVCell/Update
p113
aVCell/Update
p114
aVCell/Update
p115
aVCell/Update
p116
aVCell/Update
p117
aVCell/Update
p118
aVColumn/Formula
p119
aVCell/Update
p120
aVColumn/Formula
p121
aVColumn/Formula
p122
aVColumn/Formula
p123
aVCell/Update
p124
aVCell/Update
p125
aVColumn/Formula
p126
aVColumn/Formula
p127
aVColumn/Formula
p128
aVColumn/Formula
p129
aVCell/Update
p130
aVColumn/Formula
p131
aVColumn/Formula
p132
aVColumn/Formula
p133
aVCell/Update
p134
aVCell/Update
p135
aVCell/Update
p136
aVCell/Update
p137
aVCell/Update
p138
aVCell/Update
p139
aVCell/Update
p140
aVCell/Update
p141
aVCell/Update
p142
aVCell/Update
p143
aVColumn/Formula
p144
aVColumn/Formula
p145
aVColumn/Formula
p146
aVColumn/Formula
p147
aVCell/Update
p148
aVCell/Update
p149
aVColumn/Formula
p150
aVCell/Update
p151
aVCell/Update
p152
aVCell/Update
p153
aVCell/Update
p154
aVCell/Update
p155
aVCell/Update
p156
aVCell/Update
p157
aVCell/Update
p158
aVCell/Update
p159
aVCell/Update
p160
aVCell/Update
p161
aVCell/Update
p162
aVCell/Update
p163
aVColumn/Formula
p164
aVColumn/Formula
p165
aVCell/Update
p166
aVCell/Update
p167
aVCell/Update
p168
aVColumn/Formula
p169
aVCell/Update
p170
aVCell/Update
p171
aVCell/Update
p172
aVCell/Update
p173
aVColumn/Formula
p174
aVColumn/Formula
p175
aVColumn/Formula
p176
aVColumn/Formula
p177
aVCell/Update
p178
aVColumn/Formula
p179
aVCell/Update
p180
aVCell/Update
p181
aVCell/Update
p182
aVCell/Update
p183
aVCell/Update
p184
aVCell/Update
p185
aVCell/Update
p186
aVCell/Update
p187
aVCell/Update
p188
aVColumn/Formula
p189
aVCell/Update
p190
aVCell/Update
p191
aVCell/Update
p192
aVCell/Update
p193
aVCell/Update
p194
aVCell/Update
p195
aVCell/Update
p196
aVCell/Update
p197
aVCell/Update
p198
aVCell/Update
p199
aVCell/Update
p200
aVCell/Update
p201
aVCell/Update
p202
aVCell/Update
p203
aVCell/Update
p204
aVCell/Update
p205
aVCell/Update
p206
aVCell/Update
p207
aVCell/Update
p208
aVCell/Update
p209
aVCell/Update
p210
aVCell/Update
p211
aVCell/Update
p212
aVCell/Update
p213
aVCell/Update
p214
aVCell/Update
p215
aVCell/Update
p216
aVCell/Update
p217
aVCell/Update
p218
aVCell/Update
p219
aVCell/Update
p220
aVCell/Update
p221
aVCell/Update
p222
aVCell/Update
p223
aVCell/Update
p224
aVCell/Update
p225
aVCell/Update
p226
aVCell/Update
p227
aVCell/Update
p228
aVCell/Update
p229
aVCell/Update
p230
aVCell/Update
p231
aVCell/Update
p232
aVCell/Update
p233
aVCell/Update
p234
aVCell/Update
p235
aVCell/Update
p236
aVCell/Update
p237
aVCell/Update
p238
aVCell/Update
p239
aVCell/Update
p240
aVCell/Update
p241
aVCell/Update
p242
aVCell/Update
p243
aVCell/Update
p244
aVCell/Update
p245
aVCell/Update
p246
aVCell/Update
p247
aVCell/Update
p248
aVCell/Update
p249
aVCell/Update
p250
aVCell/Update
p251
aVCell/Update
p252
aVCell/Update
p253
aVCell/Update
p254
aVCell/Update
p255
aVCell/Update
p256
aVCell/Update
p257
aVCell/Update
p258
aVCell/Update
p259
aVCell/Update
p260
aVCell/Update
p261
aVCell/Update
p262
aVCell/Update
p263
aVCell/Update
p264
aVCell/Update
p265
aVCell/Update
p266
aVCell/Update
p267
aVCell/Update
p268
aVCell/Update
p269
aVCell/Update
p270
aVCell/Update
p271
aVColumn/Formula
p272
aVColumn/Formula
p273
aVCell/Update
p274
aVCell/Update
p275
aVCell/Update
p276
aVCell/Update
p277
aVColumn/Formula
p278
aVColumn/Formula
p279
aVColumn/Formula
p280
aVCell/Update
p281
aVCell/Update
p282
aVCell/Update
p283
aVCell/Update
p284
aVColumn/Formula
p285
aVColumn/Formula
p286
aVColumn/Formula
p287
aVCell/Update
p288
aVCell/Update
p289
aVColumn/Formula
p290
aVCell/Update
p291
aVCell/Update
p292
aVCell/Update
p293
aVCell/Update
p294
aVCell/Update
p295
aVCell/Update
p296
aVColumn/Formula
p297
aVCell/Update
p298
aVColumn/Formula
p299
aVCell/Update
p300
aVCell/Update
p301
aVColumn/Formula
p302
aVColumn/Formula
p303
aVCell/Update
p304
aVCell/Update
p305
aVCell/Update
p306
aVCell/Update
p307
aVColumn/Formula
p308
aVColumn/Formula
p309
aVColumn/Formula
p310
aVColumn/Formula
p311
aVColumn/Formula
p312
aVCell/Update
p313
aVCell/Update
p314
aVColumn/Formula
p315
aVCell/Update
p316
aVColumn/Formula
p317
aVColumn/Formula
p318
aVCell/Update
p319
aVCell/Update
p320
aVCell/Update
p321
aVColumn/Formula
p322
aVColumn/Formula
p323
aVColumn/Formula
p324
aVCell/Update
p325
aVColumn/Formula
p326
aVCell/Update
p327
aVColumn/Formula
p328
aVColumn/Formula
p329
aVColumn/Formula
p330
aVColumn/Formula
p331
aVColumn/Formula
p332
aVColumn/Formula
p333
aVCell/Update
p334
aVColumn/Formula
p335
aVCell/Update
p336
aVCell/Update
p337
aVCell/Update
p338
aVColumn/Formula
p339
aVColumn/Formula
p340
aVColumn/Formula
p341
aVColumn/Formula
p342
aVColumn/Formula
p343
aVCell/Update
p344
aVCell/Update
p345
aVCell/Update
p346
aVColumn/Formula
p347
aVCell/Update
p348
aVCell/Update
p349
aVColumn/Formula
p350
aVColumn/Formula
p351
aVColumn/Formula
p352
aVColumn/Formula
p353
aVColumn/Formula
p354
aVColumn/Formula
p355
aVCell/Update
p356
aVColumn/Formula
p357
aVColumn/Formula
p358
aVColumn/Formula
p359
aVCell/Update
p360
aVCell/Update
p361
aVCell/Update
p362
aVColumn/Formula
p363
aVColumn/Formula
p364
aVCell/Update
p365
aVColumn/Formula
p366
aVColumn/Formula
p367
aVColumn/Formula
p368
aVColumn/Formula
p369
aVColumn/Formula
p370
aVColumn/Formula
p371
aVCell/Update
p372
aVCell/Update
p373
aVColumn/Formula
p374
aVCell/Update
p375
aVColumn/Formula
p376
aVColumn/Formula
p377
aVCell/Update
p378
aVCell/Update
p379
aVCell/Update
p380
aVCell/Update
p381
aVCell/Update
p382
asS'_filepath'
p383
V/home/ubuntu/SciSheets/mysite/user/guest/tables/kristen_single_gene.pcl
p384
sS'_backup_dir'
p385
g17
sbsS'_namespace'
p386
(dp387
sS'_hidden_columns'
p388
(lp389
g0
(cscisheets.core.column
Column
p390
g2
Ntp391
Rp392
(dp393
S'_asis'
p394
I00
sS'_owning_table'
p395
g4
sS'_cells'
p396
(lp397
(lp398
cnumpy.core.multiarray
scalar
p399
(cnumpy
dtype
p400
(S'f8'
p401
I0
I1
tp402
Rp403
(I3
S'<'
p404
NNNI-1
I-1
I0
tp405
bS'\x00\x00\x00\x00\x00\x00\x00\x00'
p406
tp407
Rp408
aVI
p409
ag399
(g403
S'\x00\x00\x00\x00\x00\x00\xf0?'
p410
tp411
Rp412
aa(lp413
g399
(g403
S'\x00\x00\x00\x00\x00\x00\x00\x00'
p414
tp415
Rp416
aVR1
p417
ag399
(g403
S'\x00\x00\x00\x00\x00\x00\xf0?'
p418
tp419
Rp420
aa(lp421
g399
(g403
S'\x00\x00\x00\x00\x00\x00\x00\x00'
p422
tp423
Rp424
aVR2
p425
ag399
(g403
S'\x00\x00\x00\x00\x00\x00\xf0?'
p426
tp427
Rp428
aa(lp429
g399
(g403
S'\x00\x00\x00\x00\x00\x00\xf0?'
p430
tp431
Rp432
ag409
ag399
(g403
S'\x00\x00\x00\x00\x00\x00\xf0?'
p433
tp434
Rp435
aa(lp436
g399
(g403
S'\x00\x00\x00\x00\x00\x00\xf0?'
p437
tp438
Rp439
ag409
ag399
(g403
S'\x00\x00\x00\x00\x00\x00\x00@'
p440
tp441
Rp442
aa(lp443
g399
(g403
S'\x00\x00\x00\x00\x00\x00\xf0?'
p444
tp445
Rp446
ag409
ag399
(g403
S'\x00\x00\x00\x00\x00\x00\x08@'
p447
tp448
Rp449
aa(lp450
g399
(g403
S'\x00\x00\x00\x00\x00\x00\xf0?'
p451
tp452
Rp453
ag417
ag399
(g403
S'\x00\x00\x00\x00\x00\x00\xf0?'
p454
tp455
Rp456
aa(lp457
g399
(g403
S'\x00\x00\x00\x00\x00\x00\xf0?'
p458
tp459
Rp460
ag417
ag399
(g403
S'\x00\x00\x00\x00\x00\x00\x00@'
p461
tp462
Rp463
aa(lp464
g399
(g403
S'\x00\x00\x00\x00\x00\x00\xf0?'
p465
tp466
Rp467
ag417
ag399
(g403
S'\x00\x00\x00\x00\x00\x00\x08@'
p468
tp469
Rp470
aa(lp471
g399
(g403
S'\x00\x00\x00\x00\x00\x00\xf0?'
p472
tp473
Rp474
ag425
ag399
(g403
S'\x00\x00\x00\x00\x00\x00\xf0?'
p475
tp476
Rp477
aa(lp478
g399
(g403
S'\x00\x00\x00\x00\x00\x00\xf0?'
p479
tp480
Rp481
ag425
ag399
(g403
S'\x00\x00\x00\x00\x00\x00\x00@'
p482
tp483
Rp484
aa(lp485
g399
(g403
S'\x00\x00\x00\x00\x00\x00\xf0?'
p486
tp487
Rp488
ag425
ag399
(g403
S'\x00\x00\x00\x00\x00\x00\x08@'
p489
tp490
Rp491
aa(lp492
g399
(g403
S'\x00\x00\x00\x00\x00\x00\x00@'
p493
tp494
Rp495
ag409
ag399
(g403
S'\x00\x00\x00\x00\x00\x00\xf0?'
p496
tp497
Rp498
aa(lp499
g399
(g403
S'\x00\x00\x00\x00\x00\x00\x00@'
p500
tp501
Rp502
ag417
ag399
(g403
S'\x00\x00\x00\x00\x00\x00\xf0?'
p503
tp504
Rp505
aa(lp506
g399
(g403
S'\x00\x00\x00\x00\x00\x00\x00@'
p507
tp508
Rp509
ag425
ag399
(g403
S'\x00\x00\x00\x00\x00\x00\xf0?'
p510
tp511
Rp512
aa(lp513
g399
(g403
S'\x00\x00\x00\x00\x00\x00\x08@'
p514
tp515
Rp516
ag409
ag399
(g403
S'\x00\x00\x00\x00\x00\x00\xf0?'
p517
tp518
Rp519
aa(lp520
g399
(g403
S'\x00\x00\x00\x00\x00\x00\x08@'
p521
tp522
Rp523
ag417
ag399
(g403
S'\x00\x00\x00\x00\x00\x00\xf0?'
p524
tp525
Rp526
aa(lp527
g399
(g403
S'\x00\x00\x00\x00\x00\x00\x08@'
p528
tp529
Rp530
ag425
ag399
(g403
S'\x00\x00\x00\x00\x00\x00\xf0?'
p531
tp532
Rp533
aaNaNaNaNaNaNaNaNaNaNaNaNaNaNaNaNaNaNaNaNaNaNaNaNaNaNaNaNaNaNaNaNaNaNaNaNaNaNaNaNaNaNaNaNaNaNasS'_formula_statement'
p534
g0
(cscisheets.core.helpers.formula_statement
FormulaStatement
p535
g2
Ntp536
Rp537
(dp538
S'_statement'
p539
Vsel = [e > min_eff for e in Eff]\u000apairs = zip(range(len(sel)), sel)\u000apTreatment = [Treatment[i] for i,b in pairs if b]\u000apRunType = [RunType[i] for i,b in pairs if b]\u000apBRpl = [BRpl[i] for i,b in pairs if b]\u000agrouping_columns = [pTreatment, pRunType, pBRpl]\u000apCt = [Ct[i] for i,b in pairs if b]\u000apEff = [Eff[i] for i,b in pairs if b]\u000aGroups, groupedCt = groupBy(\u000a     grouping_columns, pCt)\u000aGroups, groupedEff = groupBy(\u000a     grouping_columns, pEff)\u000aGroups = [[g[0], g[1], g[2]] for g in Groups]\u000aGroupedCt = roundValues(groupedCt,2)\u000aGroupedEff = roundValues(groupedEff,2)
p540
sS'_name'
p541
VGroups
p542
sS'_isExpression'
p543
I00
sS'_isStatement'
p544
I00
sS'_formula'
p545
Vsel = [e > min_eff for e in Eff]\u000apairs = zip(range(len(sel)), sel)\u000apTreatment = [Treatment[i] for i,b in pairs if b]\u000apRunType = [RunType[i] for i,b in pairs if b]\u000apBRpl = [BRpl[i] for i,b in pairs if b]\u000agrouping_columns = [pTreatment, pRunType, pBRpl]\u000apCt = [Ct[i] for i,b in pairs if b]\u000apEff = [Eff[i] for i,b in pairs if b]\u000aGroups, groupedCt = groupBy(\u000a     grouping_columns, pCt)\u000aGroups, groupedEff = groupBy(\u000a     grouping_columns, pEff)\u000aGroups = [[g[0], g[1], g[2]] for g in Groups]\u000aGroupedCt = roundValues(groupedCt,2)\u000aGroupedEff = roundValues(groupedEff,2)
p546
sbsS'_data_class'
p547
g0
(cscisheets.core.helpers.api_util
DataClass
p548
c__builtin__
tuple
p549
(cnumpy
ndarray
p550
cscisheets.core.helpers.api_util
makeArray
p551
tp552
tp553
Rp554
sg541
g542
sbag0
(g390
g2
Ntp555
Rp556
(dp557
g394
I00
sg395
g4
sg396
(lp558
(lp559
F0.92
aF0.91
aF0.91
aa(lp560
F0.83
aF0.83
aF0.85
aa(lp561
F0.82
aF0.85
aF0.82
aa(lp562
F0.85
aF0.84
aF0.85
aa(lp563
F0.87
aF0.78
aF0.85
aa(lp564
F0.84
aF0.84
aF0.77
aa(lp565
F0.92
aF0.98
aF0.9
aa(lp566
F0.9
aF0.83
aF0.84
aa(lp567
F0.87
aF0.85
aF0.83
aa(lp568
F0.79
aF0.84
aF0.86
aa(lp569
F0.83
aF0.82
aF0.83
aa(lp570
F0.81
aF0.82
aF0.8
aa(lp571
F0.84
aF0.79
aF0.81
aa(lp572
F0.77
aF0.87
aF0.81
aa(lp573
F0.78
aF0.77
aF0.79
aa(lp574
F0.88
aF0.86
aF0.89
aa(lp575
F0.87
aF0.9
aF0.86
aa(lp576
F0.82
aF0.82
aF0.79
aaNaNaNaNaNaNaNaNaNaNaNaNaNaNaNaNaNaNaNaNaNaNaNaNaNaNaNaNaNaNaNaNaNaNaNaNaNaNaNaNaNaNaNaNaNaNasg534
g0
(g535
g2
Ntp577
Rp578
(dp579
g539
NsS'_column'
p580
g556
sg543
I00
sg544
I00
sg545
Nsbsg547
g0
(g548
g549
(g550
g551
tp581
tp582
Rp583
sg541
VGroupedEff
p584
sbag0
(g390
g2
Ntp585
Rp586
(dp587
g394
I00
sg395
g4
sg396
(lp588
(lp589
F18.31
aF18.29
aF18.15
aa(lp590
F18.24
aF18.22
aF18.36
aa(lp591
F19.72
aF19.75
aF20.01
aa(lp592
F22.42
aF22.5
aF22.44
aa(lp593
F21.92
aF22.03
aF21.94
aa(lp594
F23.4
aF23.47
aF23.41
aa(lp595
F19.92
aF19.85
aF20.0
aa(lp596
F21.86
aF22.09
aF21.84
aa(lp597
F23.89
aF23.54
aF24.27
aa(lp598
F22.18
aF21.71
aF21.75
aa(lp599
F23.88
aF23.42
aF23.63
aa(lp600
F24.59
aF24.61
aF24.34
aa(lp601
F23.48
aF23.31
aF23.45
aa(lp602
F23.22
aF23.8
aF23.49
aa(lp603
F26.37
aF26.36
aF26.17
aa(lp604
F18.82
aF18.97
aF18.92
aa(lp605
F18.91
aF18.78
aF18.8
aa(lp606
F20.5
aF20.47
aF20.28
aaNaNaNaNaNaNaNaNaNaNaNaNaNaNaNaNaNaNaNaNaNaNaNaNaNaNaNaNaNaNaNaNaNaNaNaNaNaNaNaNaNaNaNaNaNaNasg534
g0
(g535
g2
Ntp607
Rp608
(dp609
g539
Nsg580
g586
sg543
I00
sg544
I00
sg545
Nsbsg547
g0
(g548
g549
(g550
g551
tp610
tp611
Rp612
sg541
VGroupedCt
p613
sbag0
(g390
g2
Ntp614
Rp615
(dp616
g394
I00
sg395
g4
sg396
(lp617
(lp618
F18.3
aF18.3
aF18.1
aa(lp619
F18.2
aF18.2
aF18.4
aa(lp620
F19.7
aF19.8
aF20.0
aa(lp621
F22.4
aF22.5
aF22.4
aa(lp622
F21.9
aF22.0
aF21.9
aa(lp623
F23.4
aF23.5
aF23.4
aa(lp624
F19.9
aF19.9
aF20.0
aa(lp625
F21.9
aF22.1
aF21.8
aa(lp626
F23.9
aF23.5
aF24.3
aa(lp627
F22.2
aF21.7
aF21.8
aa(lp628
F23.9
aF23.4
aF23.6
aa(lp629
F24.6
aF24.6
aF24.3
aa(lp630
F23.5
aF23.3
aF23.4
aa(lp631
F23.2
aF23.8
aF23.5
aa(lp632
F26.4
aF26.4
aF26.2
aa(lp633
F18.8
aF19.0
aF18.9
aa(lp634
F18.9
aF18.8
aF18.8
aa(lp635
F20.5
aF20.5
aF20.3
aaNaNaNaNaNaNaNaNaNaNaNaNaNaNaNaNaNaNaNaNaNaNaNaNaNaNaNaNaNaNaNaNaNaNaNaNaNaNaNaNaNaNaNaNaNaNasg534
g0
(g535
g2
Ntp636
Rp637
(dp638
g539
Vlength = len(Groups)\u000aStdFilteredGroupedCt = roundValues([filterExtremes(g, max_std, 2) for g in pruneNulls(GroupedCt)])\u000a 
p639
sg541
VStdFilteredGroupedCt
p640
sg543
I00
sg544
I00
sg545
Vlength = len(Groups)\u000aStdFilteredGroupedCt = roundValues([filterExtremes(g, max_std, 2) for g in pruneNulls(GroupedCt)])\u000a 
p641
sbsg547
g0
(g548
g549
(g550
g551
tp642
tp643
Rp644
sg541
g640
sbag0
(g390
g2
Ntp645
Rp646
(dp647
g394
I00
sg395
g4
sg396
(lp648
F18.2
aF18.3
aF19.8
aF22.4
aF21.9
aF23.4
aF19.9
aF21.9
aF23.9
aF21.9
aF23.6
aF24.5
aF23.4
aF23.5
aF26.3
aF18.9
aF18.8
aF20.4
aFnan
aFnan
aFnan
aFnan
aFnan
aFnan
aFnan
aFnan
aFnan
aFnan
aFnan
aFnan
aFnan
aFnan
aFnan
aFnan
aFnan
aFnan
aFnan
aFnan
aFnan
aFnan
aFnan
aFnan
aFnan
aFnan
aFnan
aFnan
aFnan
aFnan
aFnan
aFnan
aFnan
aFnan
aFnan
aFnan
aFnan
aFnan
aFnan
aFnan
aFnan
aFnan
aFnan
aFnan
aFnan
aFnan
asg534
g0
(g535
g2
Ntp649
Rp650
(dp651
g539
VMeanCt = [np.mean(g) for g in StdFilteredGroupedCt]\u000aMeanCt = roundValues(MeanCt,1)\u000aStdCt = [np.std(g, ddof=1) for g in StdFilteredGroupedCt]\u000aStdCt = roundValues(StdCt,3)
p652
sg541
VMeanCt
p653
sg543
I00
sg544
I00
sg545
VMeanCt = [np.mean(g) for g in StdFilteredGroupedCt]\u000aMeanCt = roundValues(MeanCt,1)\u000aStdCt = [np.std(g, ddof=1) for g in StdFilteredGroupedCt]\u000aStdCt = roundValues(StdCt,3)
p654
sbsg547
g0
(g548
g549
(g550
g551
tp655
tp656
Rp657
sg541
g653
sbag0
(g390
g2
Ntp658
Rp659
(dp660
g394
I00
sg395
g4
sg396
(lp661
F0.115
aF0.115
aF0.153
aF0.058
aF0.058
aF0.058
aF0.058
aF0.153
aF0.4
aF0.265
aF0.252
aF0.173
aF0.1
aF0.3
aF0.115
aF0.1
aF0.058
aF0.115
aFnan
aFnan
aFnan
aFnan
aFnan
aFnan
aFnan
aFnan
aFnan
aFnan
aFnan
aFnan
aFnan
aFnan
aFnan
aFnan
aFnan
aFnan
aFnan
aFnan
aFnan
aFnan
aFnan
aFnan
aFnan
aFnan
aFnan
aFnan
aFnan
aFnan
aFnan
aFnan
aFnan
aFnan
aFnan
aFnan
aFnan
aFnan
aFnan
aFnan
aFnan
aFnan
aFnan
aFnan
aFnan
aFnan
asg534
g0
(g535
g2
Ntp662
Rp663
(dp664
g539
Nsg580
g659
sg543
I00
sg544
I00
sg545
Nsbsg547
g0
(g548
g549
(g550
g551
tp665
tp666
Rp667
sg541
VStdCt
p668
sbag0
(g390
g2
Ntp669
Rp670
(dp671
g394
I00
sg395
g4
sg396
(lp672
(lp673
g399
(g400
(S'U3'
p674
I0
I1
tp675
Rp676
(I3
S'<'
p677
NNNI12
I4
I8
tp678
bS'0\x00\x00\x00.\x00\x00\x000\x00\x00\x00'
p679
tp680
Rp681
ag399
(g400
(S'U3'
p682
I0
I1
tp683
Rp684
(I3
S'<'
p685
NNNI12
I4
I8
tp686
bS'1\x00\x00\x00.\x00\x00\x000\x00\x00\x00'
p687
tp688
Rp689
aa(lp690
g399
(g400
(S'U3'
p691
I0
I1
tp692
Rp693
(I3
S'<'
p694
NNNI12
I4
I8
tp695
bS'1\x00\x00\x00.\x00\x00\x000\x00\x00\x00'
p696
tp697
Rp698
ag399
(g400
(S'U3'
p699
I0
I1
tp700
Rp701
(I3
S'<'
p702
NNNI12
I4
I8
tp703
bS'1\x00\x00\x00.\x00\x00\x000\x00\x00\x00'
p704
tp705
Rp706
aa(lp707
g399
(g400
(S'U3'
p708
I0
I1
tp709
Rp710
(I3
S'<'
p711
NNNI12
I4
I8
tp712
bS'1\x00\x00\x00.\x00\x00\x000\x00\x00\x00'
p713
tp714
Rp715
ag399
(g400
(S'U3'
p716
I0
I1
tp717
Rp718
(I3
S'<'
p719
NNNI12
I4
I8
tp720
bS'2\x00\x00\x00.\x00\x00\x000\x00\x00\x00'
p721
tp722
Rp723
aa(lp724
g399
(g400
(S'U3'
p725
I0
I1
tp726
Rp727
(I3
S'<'
p728
NNNI12
I4
I8
tp729
bS'1\x00\x00\x00.\x00\x00\x000\x00\x00\x00'
p730
tp731
Rp732
ag399
(g400
(S'U3'
p733
I0
I1
tp734
Rp735
(I3
S'<'
p736
NNNI12
I4
I8
tp737
bS'3\x00\x00\x00.\x00\x00\x000\x00\x00\x00'
p738
tp739
Rp740
aa(lp741
g399
(g400
(S'U3'
p742
I0
I1
tp743
Rp744
(I3
S'<'
p745
NNNI12
I4
I8
tp746
bS'2\x00\x00\x00.\x00\x00\x000\x00\x00\x00'
p747
tp748
Rp749
ag399
(g400
(S'U3'
p750
I0
I1
tp751
Rp752
(I3
S'<'
p753
NNNI12
I4
I8
tp754
bS'1\x00\x00\x00.\x00\x00\x000\x00\x00\x00'
p755
tp756
Rp757
aa(lp758
g399
(g400
(S'U3'
p759
I0
I1
tp760
Rp761
(I3
S'<'
p762
NNNI12
I4
I8
tp763
bS'3\x00\x00\x00.\x00\x00\x000\x00\x00\x00'
p764
tp765
Rp766
ag399
(g400
(S'U3'
p767
I0
I1
tp768
Rp769
(I3
S'<'
p770
NNNI12
I4
I8
tp771
bS'1\x00\x00\x00.\x00\x00\x000\x00\x00\x00'
p772
tp773
Rp774
aaNaNaNaNaNaNaNaNaNaNaNaNaNaNaNaNaNaNaNaNaNaNaNaNaNaNaNaNaNaNaNaNaNaNaNaNaNaNaNaNaNaNaNaNaNaNaNaNaNaNaNaNaNaNaNaNaNaNasg534
g0
(g535
g2
Ntp775
Rp776
(dp777
g539
Vdummy = tabularize(s, 'Groups', 1, 'MeanCt', \u000a          new_category_colnm='BioRuns',\u000a          values_colnm_prefix='Gene_')
p778
sg541
VBioRuns
p779
sg543
I00
sg544
I00
sg545
Vdummy = tabularize(s, 'Groups', 1, 'MeanCt', \u000a          new_category_colnm='BioRuns',\u000a          values_colnm_prefix='Gene_')
p780
sbsg547
g0
(g548
g549
(g550
g551
tp781
tp782
Rp783
sg541
g779
sbag0
(g390
g2
Ntp784
Rp785
(dp786
g394
I00
sg395
g4
sg396
(lp787
F18.2
aF22.4
aF21.9
aF23.4
aF23.4
aF18.9
aFnan
aFnan
aFnan
aFnan
aFnan
aFnan
aFnan
aFnan
aFnan
aFnan
aFnan
aFnan
aFnan
aFnan
aFnan
aFnan
aFnan
aFnan
aFnan
aFnan
aFnan
aFnan
aFnan
aFnan
aFnan
aFnan
aFnan
aFnan
aFnan
aFnan
aFnan
aFnan
aFnan
aFnan
aFnan
aFnan
aFnan
aFnan
aFnan
aFnan
aFnan
aFnan
aFnan
aFnan
aFnan
aFnan
aFnan
aFnan
aFnan
aFnan
aFnan
aFnan
aFnan
aFnan
aFnan
aFnan
aFnan
aFnan
asg534
g0
(g535
g2
Ntp788
Rp789
(dp790
g539
Nsg580
g785
sg543
I00
sg544
I00
sg545
Nsbsg547
g0
(g548
g549
(g550
g551
tp791
tp792
Rp793
sg541
S'Gene_I'
p794
sbag0
(g390
g2
Ntp795
Rp796
(dp797
g394
I00
sg395
g4
sg396
(lp798
F18.3
aF19.9
aF21.9
aF23.9
aF23.5
aF18.8
aFnan
aFnan
aFnan
aFnan
aFnan
aFnan
aFnan
aFnan
aFnan
aFnan
aFnan
aFnan
aFnan
aFnan
aFnan
aFnan
aFnan
aFnan
aFnan
aFnan
aFnan
aFnan
aFnan
aFnan
aFnan
aFnan
aFnan
aFnan
aFnan
aFnan
aFnan
aFnan
aFnan
aFnan
aFnan
aFnan
aFnan
aFnan
aFnan
aFnan
aFnan
aFnan
aFnan
aFnan
aFnan
aFnan
aFnan
aFnan
aFnan
aFnan
aFnan
aFnan
aFnan
aFnan
aFnan
aFnan
aFnan
aFnan
asg534
g0
(g535
g2
Ntp799
Rp800
(dp801
g539
Nsg580
g796
sg543
I00
sg544
I00
sg545
Nsbsg547
g793
sg541
S'Gene_R1'
p802
sbag0
(g390
g2
Ntp803
Rp804
(dp805
g394
I00
sg395
g4
sg396
(lp806
F19.8
aF21.9
aF23.6
aF24.5
aF26.3
aF20.4
aFnan
aFnan
aFnan
aFnan
aFnan
aFnan
aFnan
aFnan
aFnan
aFnan
aFnan
aFnan
aFnan
aFnan
aFnan
aFnan
aFnan
aFnan
aFnan
aFnan
aFnan
aFnan
aFnan
aFnan
aFnan
aFnan
aFnan
aFnan
aFnan
aFnan
aFnan
aFnan
aFnan
aFnan
aFnan
aFnan
aFnan
aFnan
aFnan
aFnan
aFnan
aFnan
aFnan
aFnan
aFnan
aFnan
aFnan
aFnan
aFnan
aFnan
aFnan
aFnan
aFnan
aFnan
aFnan
aFnan
aFnan
aFnan
asg534
g0
(g535
g2
Ntp807
Rp808
(dp809
g539
Nsg580
g804
sg543
I00
sg544
I00
sg545
Nsbsg547
g793
sg541
S'Gene_R2'
p810
sbag0
(g390
g2
Ntp811
Rp812
(dp813
g394
I00
sg395
g4
sg396
(lp814
F1.07177
aF0.17678
aF1.0
aF1.41421
aF1.07177
aF0.93303
aFnan
aFnan
aFnan
aFnan
aFnan
aFnan
aFnan
aFnan
aFnan
aFnan
aFnan
aFnan
aFnan
aFnan
aFnan
aFnan
aFnan
aFnan
aFnan
aFnan
aFnan
aFnan
aFnan
aFnan
aFnan
aFnan
aFnan
aFnan
aFnan
aFnan
aFnan
aFnan
aFnan
aFnan
aFnan
aFnan
aFnan
aFnan
aFnan
aFnan
aFnan
aFnan
aFnan
aFnan
aFnan
aFnan
aFnan
aFnan
aFnan
aFnan
aFnan
aFnan
aFnan
aFnan
aFnan
aFnan
aFnan
aFnan
asg534
g0
(g535
g2
Ntp815
Rp816
(dp817
g539
VExprR1 = roundValues(2**(Gene_R1 - Gene_I),5)
p818
sg541
VExprR1
p819
sg543
I01
sg544
I00
sg545
VroundValues(2**(Gene_R1 - Gene_I),5)
p820
sbsg547
g0
(g548
g549
(g550
g551
tp821
tp822
Rp823
sg541
g819
sbag0
(g390
g2
Ntp824
Rp825
(dp826
g394
I00
sg395
g4
sg396
(lp827
F3.03143
aF0.70711
aF3.24901
aF2.14355
aF7.46426
aF2.82843
aFnan
aFnan
aFnan
aFnan
aFnan
aFnan
aFnan
aFnan
aFnan
aFnan
aFnan
aFnan
aFnan
aFnan
aFnan
aFnan
aFnan
aFnan
aFnan
aFnan
aFnan
aFnan
aFnan
aFnan
aFnan
aFnan
aFnan
aFnan
aFnan
aFnan
aFnan
aFnan
aFnan
aFnan
aFnan
aFnan
aFnan
aFnan
aFnan
aFnan
aFnan
aFnan
aFnan
aFnan
aFnan
aFnan
aFnan
aFnan
aFnan
aFnan
aFnan
aFnan
aFnan
aFnan
aFnan
aFnan
aFnan
aFnan
asg534
g0
(g535
g2
Ntp828
Rp829
(dp830
g539
VExprR2 = roundValues(2**(Gene_R2 - Gene_I),5)
p831
sg541
VExprR2
p832
sg543
I01
sg544
I00
sg545
VroundValues(2**(Gene_R2 - Gene_I),5)
p833
sbsg547
g0
(g548
g549
(g550
g551
tp834
tp835
Rp836
sg541
g832
sbag0
(g390
g2
Ntp837
Rp838
(dp839
g394
I00
sg395
g4
sg396
(lp840
F1.802
aF0.354
aF1.803
aF1.741
aF2.828
aF1.625
aFnan
aFnan
aFnan
aFnan
aFnan
aFnan
aFnan
aFnan
aFnan
aFnan
aFnan
aFnan
aFnan
aFnan
aFnan
aFnan
aFnan
aFnan
aFnan
aFnan
aFnan
aFnan
aFnan
aFnan
aFnan
aFnan
aFnan
aFnan
aFnan
aFnan
aFnan
aFnan
aFnan
aFnan
aFnan
aFnan
aFnan
aFnan
aFnan
aFnan
aFnan
aFnan
aFnan
aFnan
aFnan
aFnan
aFnan
aFnan
aFnan
aFnan
aFnan
aFnan
aFnan
aFnan
aFnan
aFnan
aFnan
aFnan
asg534
g0
(g535
g2
Ntp841
Rp842
(dp843
g539
VGeoMean = roundValues(np.sqrt(ExprR1*ExprR2), 3)
p844
sg541
VGeoMean
p845
sg543
I01
sg544
I00
sg545
VroundValues(np.sqrt(ExprR1*ExprR2), 3)
p846
sbsg547
g0
(g548
g549
(g550
g551
tp847
tp848
Rp849
sg541
g845
sbasS'_is_evaluate_formulas'
p850
I01
sS'_prologue'
p851
g0
(g535
g2
Ntp852
Rp853
(dp854
g539
V# Prologue\u000aimport math as mt\u000aimport numpy as np\u000afrom os import listdir\u000afrom os.path import isfile, join\u000aimport pandas as pd\u000aimport scipy as sp\u000afrom numpy import nan  # Must follow sympy import \u000a\u000axlsx_path =   '/mnt/hgfs/josephhellerstein/home/Technical/SciSheets/CaseStudies/Kristen/workbooks/data.xlsx'\u000agene = ParmValues[0]\u000arun = ParmValues[1] == 'True'\u000ashow_raw = ParmValues[2] == 'True'\u000ashow_block1 = ParmValues[3] == 'True'\u000ashow_block2 = ParmValues[4] == 'True'\u000ashow_block3 = ParmValues[5] == 'True'\u000ashow_params = ParmValues[8] == 'True'\u000a#show_params = True\u000amax_std  = float(ParmValues[6])\u000amin_eff = float(ParmValues[7])\u000aworksheet = gene + "-I"\u000as.getTable().setIsEvaluateFormulas(run)\u000as.setColumnVisibility()\u000as.setColumnVisibility(['Groups', 'GroupedEff', 'GroupedCt', 'StdFilteredGroupedCt', 'MeanCt',\u000a    'StdCt'], is_visible=show_block1)\u000as.setColumnVisibility(['BioRuns', 'Gene_I', 'Gene_R1', 'Gene_R2', 'ExprR1', 'ExprR2', \u000a    'GeoMean'], is_visible=show_block2)\u000as.setColumnVisibility(['GeoGroups', 'GroupedGeoMeans', 'NrmlGeoGroupedMeans', \u000a    'MeanNrmlGeoGroups', 'StdNrmlGeoGroups'], is_visible=show_block3)\u000aif run:\u000a  Groups = []\u000a  GroupedCt = []\u000a  GroupedEff = []\u000a  MeanCt = []\u000a  Imp = []\u000a  s.deleteColumn('Ct')\u000a  s.deleteColumn('RunType')\u000a  s.deleteColumn('BRpl')\u000a  s.deleteColumn('TRpl')\u000a  s.deleteColumn('Treatment')\u000a  s.deleteColumn('Eff')\u000aif run:\u000a  importExcelToTable(s, xlsx_path, worksheet=worksheet,\u000a      column_position='ParmValues',\u000a      names=['Treatment', 'RunType', 'BRpl', 'TRpl', 'Eff', 'Ct'])\u000a#s.setColumnVisibility(['BRpl', 'Ct', 'Eff', 'RunType', 'TRpl', 'Treatment'], is_visible=show_raw)\u000a#s.setColumnVisibility(['ParmNames', 'ParmValues'], show_params)
p855
sg541
VSingleGene
p856
sg543
I00
sg544
I00
sg545
V# Prologue\u000aimport math as mt\u000aimport numpy as np\u000afrom os import listdir\u000afrom os.path import isfile, join\u000aimport pandas as pd\u000aimport scipy as sp\u000afrom numpy import nan  # Must follow sympy import \u000a\u000axlsx_path =   '/mnt/hgfs/josephhellerstein/home/Technical/SciSheets/CaseStudies/Kristen/workbooks/data.xlsx'\u000agene = ParmValues[0]\u000arun = ParmValues[1] == 'True'\u000ashow_raw = ParmValues[2] == 'True'\u000ashow_block1 = ParmValues[3] == 'True'\u000ashow_block2 = ParmValues[4] == 'True'\u000ashow_block3 = ParmValues[5] == 'True'\u000ashow_params = ParmValues[8] == 'True'\u000a#show_params = True\u000amax_std  = float(ParmValues[6])\u000amin_eff = float(ParmValues[7])\u000aworksheet = gene + "-I"\u000as.getTable().setIsEvaluateFormulas(run)\u000as.setColumnVisibility()\u000as.setColumnVisibility(['Groups', 'GroupedEff', 'GroupedCt', 'StdFilteredGroupedCt', 'MeanCt',\u000a    'StdCt'], is_visible=show_block1)\u000as.setColumnVisibility(['BioRuns', 'Gene_I', 'Gene_R1', 'Gene_R2', 'ExprR1', 'ExprR2', \u000a    'GeoMean'], is_visible=show_block2)\u000as.setColumnVisibility(['GeoGroups', 'GroupedGeoMeans', 'NrmlGeoGroupedMeans', \u000a    'MeanNrmlGeoGroups', 'StdNrmlGeoGroups'], is_visible=show_block3)\u000aif run:\u000a  Groups = []\u000a  GroupedCt = []\u000a  GroupedEff = []\u000a  MeanCt = []\u000a  Imp = []\u000a  s.deleteColumn('Ct')\u000a  s.deleteColumn('RunType')\u000a  s.deleteColumn('BRpl')\u000a  s.deleteColumn('TRpl')\u000a  s.deleteColumn('Treatment')\u000a  s.deleteColumn('Eff')\u000aif run:\u000a  importExcelToTable(s, xlsx_path, worksheet=worksheet,\u000a      column_position='ParmValues',\u000a      names=['Treatment', 'RunType', 'BRpl', 'TRpl', 'Eff', 'Ct'])\u000a#s.setColumnVisibility(['BRpl', 'Ct', 'Eff', 'RunType', 'TRpl', 'Treatment'], is_visible=show_raw)\u000a#s.setColumnVisibility(['ParmNames', 'ParmValues'], show_params)
p857
sbsS'_epilogue'
p858
g0
(g535
g2
Ntp859
Rp860
(dp861
g539
V# Epilogue\u000aif run:\u000a  worksheet = "%s-O" % gene\u000a  exportTableToExcel(s, xlsx_path, worksheet=worksheet, columns=['GeoGroups',  \u000a      'MeanNrmlGeoGroups', 'StdNrmlGeoGroups'])\u000a
p862
sg541
g856
sg543
I00
sg544
I00
sg545
V# Epilogue\u000aif run:\u000a  worksheet = "%s-O" % gene\u000a  exportTableToExcel(s, xlsx_path, worksheet=worksheet, columns=['GeoGroups',  \u000a      'MeanNrmlGeoGroups', 'StdNrmlGeoGroups'])\u000a
p863
sbsg541
g856
sS'_columns'
p864
(lp865
g0
(g390
g2
Ntp866
Rp867
(dp868
g394
I01
sg395
g4
sg396
(lp869
S'1'
p870
aS'2'
p871
aS'3'
p872
aS'4'
p873
aS'5'
p874
aS'6'
p875
aS'7'
p876
aS'8'
p877
aS'9'
p878
aS'10'
p879
aS'11'
p880
aS'12'
p881
aS'13'
p882
aS'14'
p883
aS'15'
p884
aS'16'
p885
aS'17'
p886
aS'18'
p887
aS'19'
p888
aS'20'
p889
aS'21'
p890
aS'22'
p891
aS'23'
p892
aS'24'
p893
aS'25'
p894
aS'26'
p895
aS'27'
p896
aS'28'
p897
aS'29'
p898
aS'30'
p899
aS'31'
p900
aS'32'
p901
aS'33'
p902
aS'34'
p903
aS'35'
p904
aS'36'
p905
aS'37'
p906
aS'38'
p907
aS'39'
p908
aS'40'
p909
aS'41'
p910
aS'42'
p911
aS'43'
p912
aS'44'
p913
aS'45'
p914
aS'46'
p915
aS'47'
p916
aS'48'
p917
aS'49'
p918
aS'50'
p919
aS'51'
p920
aS'52'
p921
aS'53'
p922
aS'54'
p923
aS'55'
p924
aS'56'
p925
aS'57'
p926
aS'58'
p927
aS'59'
p928
aS'60'
p929
aS'61'
p930
aS'62'
p931
aS'63'
p932
aS'64'
p933
asg534
g0
(g535
g2
Ntp934
Rp935
(dp936
g539
Nsg580
g867
sg543
I00
sg544
I00
sg545
Nsbsg547
g0
(g548
g549
(g550
g551
tp937
tp938
Rp939
sg541
S'row'
p940
sbag0
(g390
g2
Ntp941
Rp942
(dp943
g394
I00
sg395
g4
sg396
(lp944
Vgene
p945
aVrun
p946
aVshow_raw
p947
aVshow_block1
p948
aVshow_block2
p949
aVshow_block3
p950
aVmax_std
p951
aVmin_eff
p952
aVshow_params
p953
aVnan
p954
aVnan
p955
aVnan
p956
aVnan
p957
aVnan
p958
aVnan
p959
aVnan
p960
aVnan
p961
aVnan
p962
aVnan
p963
aVnan
p964
aVnan
p965
aVnan
p966
aVnan
p967
aVnan
p968
aVnan
p969
aVnan
p970
aVnan
p971
aVnan
p972
aVnan
p973
aVnan
p974
aVnan
p975
aVnan
p976
aVnan
p977
aVnan
p978
aVnan
p979
aVnan
p980
aVnan
p981
aVnan
p982
aVnan
p983
aVnan
p984
aVnan
p985
aVnan
p986
aVnan
p987
aVnan
p988
aVnan
p989
aVnan
p990
aVnan
p991
aVnan
p992
aVnan
p993
aVnan
p994
aVnan
p995
aVnan
p996
aVnan
p997
aVnan
p998
aNaNaNaNaNaNaNaNaNaNasg534
g0
(g535
g2
Ntp999
Rp1000
(dp1001
g539
Nsg580
g942
sg543
I00
sg544
I00
sg545
Nsbsg547
g0
(g548
g549
(g550
g551
tp1002
tp1003
Rp1004
sg541
VParmNames
p1005
sbag0
(g390
g2
Ntp1006
Rp1007
(dp1008
g394
I00
sg395
g4
sg396
(lp1009
VGene2
p1010
aVTrue
p1011
aVFalse
p1012
aVFalse
p1013
aVFalse
p1014
aVTrue
p1015
aF0.5
aV0.7
p1016
aVTrue
p1017
aV
p1018
aVnan
p1019
aVnan
p1020
aVnan
p1021
aVnan
p1022
aVnan
p1023
aVnan
p1024
aVnan
p1025
aVnan
p1026
aVnan
p1027
aVnan
p1028
aVnan
p1029
aVnan
p1030
aVnan
p1031
aVnan
p1032
aVnan
p1033
aVnan
p1034
aVnan
p1035
aVnan
p1036
aVnan
p1037
aVnan
p1038
aVnan
p1039
aVnan
p1040
aVnan
p1041
aVnan
p1042
aVnan
p1043
aVnan
p1044
aVnan
p1045
aVnan
p1046
aVnan
p1047
aVnan
p1048
aVnan
p1049
aVnan
p1050
aVnan
p1051
aVnan
p1052
aVnan
p1053
aVnan
p1054
aVnan
p1055
aVnan
p1056
aVnan
p1057
aVnan
p1058
aVnan
p1059
aVnan
p1060
aVnan
p1061
aVnan
p1062
aNaNaNaNaNaNaNaNaNaNasg534
g0
(g535
g2
Ntp1063
Rp1064
(dp1065
g539
Nsg541
VParmValues
p1066
sg543
I00
sg544
I00
sg545
Nsbsg547
g0
(g548
g549
(g550
g551
tp1067
tp1068
Rp1069
sg541
g1066
sbag0
(g390
g2
Ntp1070
Rp1071
(dp1072
g394
I00
sg395
g4
sg396
(lp1073
F0.0
aF0.0
aF0.0
aF0.0
aF0.0
aF0.0
aF0.0
aF0.0
aF0.0
aF1.0
aF1.0
aF1.0
aF1.0
aF1.0
aF1.0
aF1.0
aF1.0
aF1.0
aF1.0
aF1.0
aF1.0
aF1.0
aF1.0
aF1.0
aF1.0
aF1.0
aF1.0
aF1.0
aF1.0
aF1.0
aF1.0
aF1.0
aF1.0
aF1.0
aF1.0
aF1.0
aF2.0
aF2.0
aF2.0
aF2.0
aF2.0
aF2.0
aF2.0
aF2.0
aF2.0
aF3.0
aF3.0
aF3.0
aF3.0
aF3.0
aF3.0
aF3.0
aF3.0
aF3.0
aFnan
aFnan
aFnan
aFnan
aFnan
aFnan
aFnan
aFnan
aFnan
aFnan
asg534
g0
(g535
g2
Ntp1074
Rp1075
(dp1076
g539
Nsg541
S'Treatment'
p1077
sg543
I00
sg544
I00
sg545
Nsbsg547
g0
(g548
g549
(cscisheets.core.helpers.extended_array
ExtendedArray
p1078
g551
tp1079
tp1080
Rp1081
sg541
g1077
sbag0
(g390
g2
Ntp1082
Rp1083
(dp1084
g394
I00
sg395
g4
sg396
(lp1085
g409
ag409
ag409
ag417
ag417
ag417
ag425
ag425
ag425
ag409
ag409
ag409
ag409
ag409
ag409
ag409
ag409
ag409
ag417
ag417
ag417
ag417
ag417
ag417
ag417
ag417
ag417
ag425
ag425
ag425
ag425
ag425
ag425
ag425
ag425
ag425
ag409
ag409
ag409
ag417
ag417
ag417
ag425
ag425
ag425
ag409
ag409
ag409
ag417
ag417
ag417
ag425
ag425
ag425
aNaNaNaNaNaNaNaNaNaNasg534
g0
(g535
g2
Ntp1086
Rp1087
(dp1088
g539
Nsg541
S'RunType'
p1089
sg543
I00
sg544
I00
sg545
Nsbsg547
g1081
sg541
g1089
sbag0
(g390
g2
Ntp1090
Rp1091
(dp1092
g394
I00
sg395
g4
sg396
(lp1093
F1.0
aF1.0
aF1.0
aF1.0
aF1.0
aF1.0
aF1.0
aF1.0
aF1.0
aF1.0
aF1.0
aF1.0
aF2.0
aF2.0
aF2.0
aF3.0
aF3.0
aF3.0
aF1.0
aF1.0
aF1.0
aF2.0
aF2.0
aF2.0
aF3.0
aF3.0
aF3.0
aF1.0
aF1.0
aF1.0
aF2.0
aF2.0
aF2.0
aF3.0
aF3.0
aF3.0
aF1.0
aF1.0
aF1.0
aF1.0
aF1.0
aF1.0
aF1.0
aF1.0
aF1.0
aF1.0
aF1.0
aF1.0
aF1.0
aF1.0
aF1.0
aF1.0
aF1.0
aF1.0
aFnan
aFnan
aFnan
aFnan
aFnan
aFnan
aFnan
aFnan
aFnan
aFnan
asg534
g0
(g535
g2
Ntp1094
Rp1095
(dp1096
g539
Nsg541
S'BRpl'
p1097
sg543
I00
sg544
I00
sg545
Nsbsg547
g1081
sg541
g1097
sbag0
(g390
g2
Ntp1098
Rp1099
(dp1100
g394
I00
sg395
g4
sg396
(lp1101
Va
p1102
aVb
p1103
aVc
p1104
ag1102
ag1103
ag1104
ag1102
ag1103
ag1104
ag1102
ag1103
ag1104
ag1102
ag1103
ag1104
ag1102
ag1103
ag1104
ag1102
ag1103
ag1104
ag1102
ag1103
ag1104
ag1102
ag1103
ag1104
ag1102
ag1103
ag1104
ag1102
ag1103
ag1104
ag1102
ag1103
ag1104
ag1102
ag1103
ag1104
ag1102
ag1103
ag1104
ag1102
ag1103
ag1104
ag1102
ag1103
ag1104
ag1102
ag1103
ag1104
ag1102
ag1103
ag1104
aNaNaNaNaNaNaNaNaNaNasg534
g0
(g535
g2
Ntp1105
Rp1106
(dp1107
g539
Nsg541
S'TRpl'
p1108
sg543
I00
sg544
I00
sg545
Nsbsg547
g1081
sg541
g1108
sbag0
(g390
g2
Ntp1109
Rp1110
(dp1111
g394
I00
sg395
g4
sg396
(lp1112
F0.919
aF0.9106
aF0.9129
aF0.8266
aF0.8343
aF0.8496
aF0.8157
aF0.8543
aF0.8208
aF0.8453
aF0.8426
aF0.8524
aF0.8658
aF0.7809
aF0.8512
aF0.8442
aF0.8357
aF0.7658
aF0.9179
aF0.9783
aF0.8971
aF0.8957
aF0.8287
aF0.8387
aF0.8746
aF0.8493
aF0.8349
aF0.7857
aF0.8427
aF0.8637
aF0.8281
aF0.8203
aF0.8288
aF0.8138
aF0.8242
aF0.804
aF0.8352
aF0.7886
aF0.8105
aF0.7701
aF0.8746
aF0.8139
aF0.7795
aF0.7676
aF0.7947
aF0.876
aF0.8597
aF0.8873
aF0.8715
aF0.8977
aF0.856
aF0.8179
aF0.8173
aF0.7894
aFnan
aFnan
aFnan
aFnan
aFnan
aFnan
aFnan
aFnan
aFnan
aFnan
asg534
g0
(g535
g2
Ntp1113
Rp1114
(dp1115
g539
Nsg541
S'Eff'
p1116
sg543
I00
sg544
I00
sg545
Nsbsg547
g1081
sg541
g1116
sbag0
(g390
g2
Ntp1117
Rp1118
(dp1119
g394
I00
sg395
g4
sg396
(lp1120
F18.31
aF18.29
aF18.15
aF18.24
aF18.22
aF18.36
aF19.72
aF19.75
aF20.01
aF22.42
aF22.5
aF22.44
aF21.92
aF22.03
aF21.94
aF23.4
aF23.47
aF23.41
aF19.92
aF19.85
aF20.0
aF21.86
aF22.09
aF21.84
aF23.89
aF23.54
aF24.27
aF22.18
aF21.71
aF21.75
aF23.88
aF23.42
aF23.63
aF24.59
aF24.61
aF24.34
aF23.48
aF23.31
aF23.45
aF23.22
aF23.8
aF23.49
aF26.37
aF26.36
aF26.17
aF18.82
aF18.97
aF18.92
aF18.91
aF18.78
aF18.8
aF20.5
aF20.47
aF20.28
aFnan
aFnan
aFnan
aFnan
aFnan
aFnan
aFnan
aFnan
aFnan
aFnan
asg534
g0
(g535
g2
Ntp1121
Rp1122
(dp1123
g539
Nsg541
S'Ct'
p1124
sg543
I00
sg544
I00
sg545
Nsbsg547
g1081
sg541
g1124
sbag392
ag556
ag586
ag615
ag646
ag659
ag670
ag785
ag796
ag804
ag812
ag825
ag838
ag0
(g390
g2
Ntp1125
Rp1126
(dp1127
g394
I00
sg395
g4
sg396
(lp1128
(lp1129
g681
aa(lp1130
g698
aa(lp1131
g749
aa(lp1132
g766
aasg534
g0
(g535
g2
Ntp1133
Rp1134
(dp1135
g539
Vcat_vals = [br[0] for br in pruneNulls(BioRuns)]\u000aclean_geo = [x for x in GeoMean if x is not None]\u000aGeoGroups, groupedGeoMeans = groupBy(cat_vals, clean_geo)\u000aGroupedGeoMeans = roundValues(groupedGeoMeans, 3)\u000aGeoGroups = [[x] for x in GeoGroups]
p1136
sg541
VGeoGroups
p1137
sg543
I00
sg544
I00
sg545
Vcat_vals = [br[0] for br in pruneNulls(BioRuns)]\u000aclean_geo = [x for x in GeoMean if x is not None]\u000aGeoGroups, groupedGeoMeans = groupBy(cat_vals, clean_geo)\u000aGroupedGeoMeans = roundValues(groupedGeoMeans, 3)\u000aGeoGroups = [[x] for x in GeoGroups]
p1138
sbsg547
g0
(g548
g549
(g550
g551
tp1139
tp1140
Rp1141
sg541
g1137
sbag0
(g390
g2
Ntp1142
Rp1143
(dp1144
g394
I00
sg395
g4
sg396
(lp1145
cnumpy.core.multiarray
_reconstruct
p1146
(g550
(I0
tp1147
S'b'
p1148
tp1149
Rp1150
(I1
(I1
tp1151
g403
I00
S'\xa2E\xb6\xf3\xfd\xd4\xfc?'
p1152
tp1153
bag1146
(g550
(I0
tp1154
g1148
tp1155
Rp1156
(I1
(I3
tp1157
g403
I00
S'\x0e-\xb2\x9d\xef\xa7\xd6?\x0c\x02+\x87\x16\xd9\xfc?B`\xe5\xd0"\xdb\xfb?'
p1158
tp1159
bag1146
(g550
(I0
tp1160
g1148
tp1161
Rp1162
(I1
(I1
tp1163
g403
I00
S'9\xb4\xc8v\xbe\x9f\x06@'
p1164
tp1165
bag1146
(g550
(I0
tp1166
g1148
tp1167
Rp1168
(I1
(I1
tp1169
g403
I00
S'\x00\x00\x00\x00\x00\x00\xfa?'
p1170
tp1171
basg534
g0
(g535
g2
Ntp1172
Rp1173
(dp1174
g539
Nsg580
g1143
sg543
I00
sg544
I00
sg545
Nsbsg547
g0
(g548
g549
(g550
g551
tp1175
tp1176
Rp1177
sg541
VGroupedGeoMeans
p1178
sbag0
(g390
g2
Ntp1179
Rp1180
(dp1181
g394
I00
sg395
g4
sg396
(lp1182
g1146
(g550
(I0
tp1183
g1148
tp1184
Rp1185
(I1
(I1
tp1186
g403
I00
S'\x00\x00\x00\x00\x00\x00\xf0?'
p1187
tp1188
bag1146
(g550
(I0
tp1189
g1148
tp1190
Rp1191
(I1
(I3
tp1192
g403
I00
S'J\x0c\x02+\x87\x16\xc9?j\xbct\x93\x18\x04\xf0?\xb6\xf3\xfd\xd4x\xe9\xee?'
p1193
tp1194
bag1146
(g550
(I0
tp1195
g1148
tp1196
Rp1197
(I1
(I1
tp1198
g403
I00
S'\xb4\xc8v\xbe\x9f\x1a\xf9?'
p1199
tp1200
bag1146
(g550
(I0
tp1201
g1148
tp1202
Rp1203
(I1
(I1
tp1204
g403
I00
S'w\xbe\x9f\x1a/\xdd\xec?'
p1205
tp1206
basg534
g0
(g535
g2
Ntp1207
Rp1208
(dp1209
g539
Vref = np.mean(GroupedGeoMeans[0])\u000aNrmlGeoGroupedMeans = [ [x/ref for x in g] for g in GroupedGeoMeans if g is not None]  \u000aNrmlGeoGroupedMeans = roundValues(NrmlGeoGroupedMeans, 3)
p1210
sg541
VNrmlGeoGroupedMeans
p1211
sg543
I00
sg544
I00
sg545
Vref = np.mean(GroupedGeoMeans[0])\u000aNrmlGeoGroupedMeans = [ [x/ref for x in g] for g in GroupedGeoMeans if g is not None]  \u000aNrmlGeoGroupedMeans = roundValues(NrmlGeoGroupedMeans, 3)
p1212
sbsg547
g0
(g548
g549
(g550
g551
tp1213
tp1214
Rp1215
sg541
g1211
sbag0
(g390
g2
Ntp1216
Rp1217
(dp1218
g394
I00
sg395
g4
sg396
(lp1219
F1.0
aF0.721
aF1.569
aF0.902
asg534
g0
(g535
g2
Ntp1220
Rp1221
(dp1222
g539
VMeanNrmlGeoGroups = [round(np.mean(g), 3) for g in NrmlGeoGroupedMeans]
p1223
sg541
VMeanNrmlGeoGroups
p1224
sg543
I01
sg544
I00
sg545
V[round(np.mean(g), 3) for g in NrmlGeoGroupedMeans]
p1225
sbsg547
g0
(g548
g549
(g550
g551
tp1226
tp1227
Rp1228
sg541
g1224
sbag0
(g390
g2
Ntp1229
Rp1230
(dp1231
g394
I00
sg395
g4
sg396
(lp1232
F0.263
asg534
g0
(g535
g2
Ntp1233
Rp1234
(dp1235
g539
VStdNrmlGeoGroups = []\u000afor grp in NrmlGeoGroupedMeans:\u000a  if len(grp) > 1:\u000a    val = np.std(grp, ddof=1)/np.sqrt(len(grp))\u000a    val = round(val, 3)\u000a    StdNrmlGeoGroups.append(val)\u000a
p1236
sg541
VStdNrmlGeoGroups
p1237
sg543
I00
sg544
I00
sg545
VStdNrmlGeoGroups = []\u000afor grp in NrmlGeoGroupedMeans:\u000a  if len(grp) > 1:\u000a    val = np.std(grp, ddof=1)/np.sqrt(len(grp))\u000a    val = round(val, 3)\u000a    StdNrmlGeoGroups.append(val)\u000a
p1238
sbsg547
g0
(g548
g549
(g550
g551
tp1239
tp1240
Rp1241
sg541
g1237
sbasg383
V/home/ubuntu/SciSheets/mysite/user/guest/tables/kristen_single_gene.pcl
p1242
sb.