ccopy_reg
_reconstructor
p0
(cscisheets.ui.dt_table
DTTable
p1
c__builtin__
object
p2
Ntp3
Rp4
(dp5
S'_versioned_file'
p6
g0
(cmysite.helpers.versioned_file
VersionedFile
p7
g2
Ntp8
Rp9
(dp10
S'_redo_stack'
p11
g0
(cmysite.helpers.file_stack
FileStack
p12
g2
Ntp13
Rp14
(dp15
S'_dirpath'
p16
S'/home/ubuntu/SciSheets/mysite/user/guest/tables/backup'
p17
sS'_max_depth'
p18
I5
sS'_filename_pfx'
p19
Vkristen_single_gene.r
p20
sbsS'_max_versions'
p21
I5
sS'_undo_stack'
p22
g0
(g12
g2
Ntp23
Rp24
(dp25
g16
g17
sg18
I5
sg19
Vkristen_single_gene.u
p26
sbsS'_checkpoint_history'
p27
(lp28
VCell/Update
p29
aVCell/Update
p30
aVCell/Update
p31
aVCell/Update
p32
aVCell/Update
p33
aVCell/Update
p34
aVCell/Update
p35
aVCell/Update
p36
aVCell/Update
p37
aVCell/Update
p38
aVCell/Update
p39
aVCell/Update
p40
aVColumn/Formula
p41
aVColumn/Formula
p42
aVColumn/Append
p43
aVColumn/Formula
p44
aVColumn/Delete
p45
aVCell/Update
p46
aVColumn/Formula
p47
aVCell/Update
p48
aVCell/Update
p49
aVColumn/Formula
p50
aVColumn/Formula
p51
aVCell/Update
p52
aVColumn/Formula
p53
aVColumn/Formula
p54
aVCell/Update
p55
aVCell/Update
p56
aVCell/Update
p57
aVCell/Update
p58
aVColumn/Formula
p59
aVCell/Update
p60
aVCell/Update
p61
aVCell/Update
p62
aVColumn/Formula
p63
aVCell/Update
p64
aVColumn/Formula
p65
aVColumn/Formula
p66
aVCell/Update
p67
aVCell/Update
p68
aVCell/Update
p69
aVCell/Update
p70
aVCell/Update
p71
aVCell/Update
p72
aVCell/Update
p73
aVCell/Update
p74
aVCell/Update
p75
aVColumn/Formula
p76
aVCell/Update
p77
aVCell/Update
p78
aVCell/Update
p79
aVCell/Update
p80
aVCell/Update
p81
aVCell/Update
p82
aVCell/Update
p83
aVCell/Update
p84
aVCell/Update
p85
aVCell/Update
p86
aVCell/Update
p87
aVCell/Update
p88
aVColumn/Formula
p89
aVColumn/Formula
p90
aVColumn/Formula
p91
aVCell/Update
p92
aVCell/Update
p93
aVCell/Update
p94
aVCell/Update
p95
aVCell/Update
p96
aVColumn/Formula
p97
aVCell/Update
p98
aVCell/Update
p99
aVCell/Update
p100
aVCell/Update
p101
aVCell/Update
p102
aVCell/Update
p103
aVCell/Update
p104
aVColumn/Formula
p105
aVColumn/Formula
p106
aVColumn/Formula
p107
aVCell/Update
p108
aVCell/Update
p109
aVColumn/Formula
p110
aVCell/Update
p111
aVCell/Update
p112
aVCell/Update
p113
aVCell/Update
p114
aVCell/Update
p115
aVCell/Update
p116
aVCell/Update
p117
aVCell/Update
p118
aVColumn/Formula
p119
aVCell/Update
p120
aVColumn/Formula
p121
aVColumn/Formula
p122
aVColumn/Formula
p123
aVCell/Update
p124
aVCell/Update
p125
aVColumn/Formula
p126
aVColumn/Formula
p127
aVColumn/Formula
p128
aVColumn/Formula
p129
aVCell/Update
p130
aVColumn/Formula
p131
aVColumn/Formula
p132
aVColumn/Formula
p133
aVCell/Update
p134
aVCell/Update
p135
aVCell/Update
p136
aVCell/Update
p137
aVCell/Update
p138
aVCell/Update
p139
aVCell/Update
p140
aVCell/Update
p141
aVCell/Update
p142
aVCell/Update
p143
aVColumn/Formula
p144
aVColumn/Formula
p145
aVColumn/Formula
p146
aVColumn/Formula
p147
aVCell/Update
p148
aVCell/Update
p149
aVColumn/Formula
p150
aVCell/Update
p151
aVCell/Update
p152
aVCell/Update
p153
aVCell/Update
p154
aVCell/Update
p155
aVCell/Update
p156
aVCell/Update
p157
aVCell/Update
p158
aVCell/Update
p159
aVCell/Update
p160
aVCell/Update
p161
aVCell/Update
p162
aVCell/Update
p163
aVColumn/Formula
p164
aVColumn/Formula
p165
aVCell/Update
p166
aVCell/Update
p167
aVCell/Update
p168
aVColumn/Formula
p169
aVCell/Update
p170
aVCell/Update
p171
aVCell/Update
p172
aVCell/Update
p173
aVColumn/Formula
p174
aVColumn/Formula
p175
aVColumn/Formula
p176
aVColumn/Formula
p177
aVCell/Update
p178
aVColumn/Formula
p179
aVCell/Update
p180
aVCell/Update
p181
aVCell/Update
p182
aVCell/Update
p183
aVCell/Update
p184
aVCell/Update
p185
aVCell/Update
p186
aVCell/Update
p187
aVCell/Update
p188
aVColumn/Formula
p189
aVCell/Update
p190
aVCell/Update
p191
aVCell/Update
p192
aVCell/Update
p193
aVCell/Update
p194
aVCell/Update
p195
aVCell/Update
p196
aVCell/Update
p197
aVCell/Update
p198
aVCell/Update
p199
aVCell/Update
p200
aVCell/Update
p201
aVCell/Update
p202
aVCell/Update
p203
aVCell/Update
p204
aVCell/Update
p205
aVCell/Update
p206
aVCell/Update
p207
aVCell/Update
p208
aVCell/Update
p209
aVCell/Update
p210
aVCell/Update
p211
aVCell/Update
p212
aVCell/Update
p213
aVCell/Update
p214
aVCell/Update
p215
aVCell/Update
p216
aVCell/Update
p217
aVCell/Update
p218
aVCell/Update
p219
aVCell/Update
p220
aVCell/Update
p221
aVCell/Update
p222
aVCell/Update
p223
aVCell/Update
p224
aVCell/Update
p225
aVCell/Update
p226
aVCell/Update
p227
aVCell/Update
p228
aVCell/Update
p229
aVCell/Update
p230
aVCell/Update
p231
aVCell/Update
p232
asS'_filepath'
p233
V/home/ubuntu/SciSheets/mysite/user/guest/tables/kristen_single_gene.pcl
p234
sS'_backup_dir'
p235
g17
sbsS'_namespace'
p236
(dp237
sS'_hidden_columns'
p238
(lp239
g0
(cscisheets.core.column
Column
p240
g2
Ntp241
Rp242
(dp243
S'_asis'
p244
I00
sS'_owning_table'
p245
g4
sS'_cells'
p246
(lp247
(lp248
cnumpy.core.multiarray
scalar
p249
(cnumpy
dtype
p250
(S'i8'
p251
I0
I1
tp252
Rp253
(I3
S'<'
p254
NNNI-1
I-1
I0
tp255
bS'\x00\x00\x00\x00\x00\x00\x00\x00'
p256
tp257
Rp258
ag249
(g253
S'\x01\x00\x00\x00\x00\x00\x00\x00'
p259
tp260
Rp261
aa(lp262
g249
(g253
S'\x01\x00\x00\x00\x00\x00\x00\x00'
p263
tp264
Rp265
ag249
(g253
S'\x01\x00\x00\x00\x00\x00\x00\x00'
p266
tp267
Rp268
aa(lp269
g249
(g253
S'\x01\x00\x00\x00\x00\x00\x00\x00'
p270
tp271
Rp272
ag249
(g253
S'\x02\x00\x00\x00\x00\x00\x00\x00'
p273
tp274
Rp275
aa(lp276
g249
(g253
S'\x01\x00\x00\x00\x00\x00\x00\x00'
p277
tp278
Rp279
ag249
(g253
S'\x03\x00\x00\x00\x00\x00\x00\x00'
p280
tp281
Rp282
aa(lp283
g249
(g253
S'\x02\x00\x00\x00\x00\x00\x00\x00'
p284
tp285
Rp286
ag249
(g253
S'\x01\x00\x00\x00\x00\x00\x00\x00'
p287
tp288
Rp289
aa(lp290
g249
(g253
S'\x03\x00\x00\x00\x00\x00\x00\x00'
p291
tp292
Rp293
ag249
(g253
S'\x01\x00\x00\x00\x00\x00\x00\x00'
p294
tp295
Rp296
aaNaNaNaNaNaNaNaNaNaNaNaNaNaNaNaNaNaNaNaNaNaNaNaNaNaNaNaNaNaNaNaNaNaNaNaNaNaNaNaNaNaNaNaNaNaNaNaNasS'_formula_statement'
p297
g0
(cscisheets.core.helpers.formula_statement
FormulaStatement
p298
g2
Ntp299
Rp300
(dp301
S'_statement'
p302
Vdummy = tabularize(s, 'Groups', 1, 'MeanCt', \u000a          new_category_colnm='BioRuns',\u000a          values_colnm_prefix='Gene_')
p303
sS'_name'
p304
VBioRuns
p305
sS'_isExpression'
p306
I00
sS'_isStatement'
p307
I00
sS'_formula'
p308
Vdummy = tabularize(s, 'Groups', 1, 'MeanCt', \u000a          new_category_colnm='BioRuns',\u000a          values_colnm_prefix='Gene_')
p309
sbsS'_data_class'
p310
g0
(cscisheets.core.helpers.api_util
DataClass
p311
c__builtin__
tuple
p312
(cnumpy
ndarray
p313
cscisheets.core.helpers.api_util
makeArray
p314
tp315
tp316
Rp317
sg304
g305
sbag0
(g240
g2
Ntp318
Rp319
(dp320
g244
I00
sg245
g4
sg246
(lp321
F22.9
aF27.0
aF26.6
aF29.8
aF30.1
aF24.8
aFnan
aFnan
aFnan
aFnan
aFnan
aFnan
aFnan
aFnan
aFnan
aFnan
aFnan
aFnan
aFnan
aFnan
aFnan
aFnan
aFnan
aFnan
aFnan
aFnan
aFnan
aFnan
aFnan
aFnan
aFnan
aFnan
aFnan
aFnan
aFnan
aFnan
aFnan
aFnan
aFnan
aFnan
aFnan
aFnan
aFnan
aFnan
aFnan
aFnan
aFnan
aFnan
aFnan
aFnan
aFnan
aFnan
aFnan
aFnan
asg297
g0
(g298
g2
Ntp322
Rp323
(dp324
g302
NsS'_column'
p325
g319
sg306
I00
sg307
I00
sg308
Nsbsg310
g0
(g311
g312
(g313
g314
tp326
tp327
Rp328
sg304
S'Gene_I'
p329
sbag0
(g240
g2
Ntp330
Rp331
(dp332
g244
I00
sg245
g4
sg246
(lp333
F18.3
aF19.9
aF21.9
aF23.9
aF23.5
aF18.8
aFnan
aFnan
aFnan
aFnan
aFnan
aFnan
aFnan
aFnan
aFnan
aFnan
aFnan
aFnan
aFnan
aFnan
aFnan
aFnan
aFnan
aFnan
aFnan
aFnan
aFnan
aFnan
aFnan
aFnan
aFnan
aFnan
aFnan
aFnan
aFnan
aFnan
aFnan
aFnan
aFnan
aFnan
aFnan
aFnan
aFnan
aFnan
aFnan
aFnan
aFnan
aFnan
aFnan
aFnan
aFnan
aFnan
aFnan
aFnan
asg297
g0
(g298
g2
Ntp334
Rp335
(dp336
g302
Nsg325
g331
sg306
I00
sg307
I00
sg308
Nsbsg310
g328
sg304
S'Gene_R1'
p337
sbag0
(g240
g2
Ntp338
Rp339
(dp340
g244
I00
sg245
g4
sg246
(lp341
F19.8
aF21.9
aF23.6
aF24.5
aF26.3
aF20.4
aFnan
aFnan
aFnan
aFnan
aFnan
aFnan
aFnan
aFnan
aFnan
aFnan
aFnan
aFnan
aFnan
aFnan
aFnan
aFnan
aFnan
aFnan
aFnan
aFnan
aFnan
aFnan
aFnan
aFnan
aFnan
aFnan
aFnan
aFnan
aFnan
aFnan
aFnan
aFnan
aFnan
aFnan
aFnan
aFnan
aFnan
aFnan
aFnan
aFnan
aFnan
aFnan
aFnan
aFnan
aFnan
aFnan
aFnan
aFnan
asg297
g0
(g298
g2
Ntp342
Rp343
(dp344
g302
Nsg325
g339
sg306
I00
sg307
I00
sg308
Nsbsg310
g328
sg304
S'Gene_R2'
p345
sbag0
(g240
g2
Ntp346
Rp347
(dp348
g244
I00
sg245
g4
sg246
(lp349
F0.04123
aF0.00729
aF0.03847
aF0.01675
aF0.01031
aF0.01563
aFnan
aFnan
aFnan
aFnan
aFnan
aFnan
aFnan
aFnan
aFnan
aFnan
aFnan
aFnan
aFnan
aFnan
aFnan
aFnan
aFnan
aFnan
aFnan
aFnan
aFnan
aFnan
aFnan
aFnan
aFnan
aFnan
aFnan
aFnan
aFnan
aFnan
aFnan
aFnan
aFnan
aFnan
aFnan
aFnan
aFnan
aFnan
aFnan
aFnan
aFnan
aFnan
aFnan
aFnan
aFnan
aFnan
aFnan
aFnan
asg297
g0
(g298
g2
Ntp350
Rp351
(dp352
g302
VExprR1 = roundValues(2**(Gene_R1 - Gene_I),5)
p353
sg304
VExprR1
p354
sg306
I01
sg307
I00
sg308
VroundValues(2**(Gene_R1 - Gene_I),5)
p355
sbsg310
g0
(g311
g312
(g313
g314
tp356
tp357
Rp358
sg304
g354
sbag0
(g240
g2
Ntp359
Rp360
(dp361
g244
I00
sg245
g4
sg246
(lp362
F0.11663
aF0.02916
aF0.125
aF0.02538
aF0.07179
aF0.04737
aFnan
aFnan
aFnan
aFnan
aFnan
aFnan
aFnan
aFnan
aFnan
aFnan
aFnan
aFnan
aFnan
aFnan
aFnan
aFnan
aFnan
aFnan
aFnan
aFnan
aFnan
aFnan
aFnan
aFnan
aFnan
aFnan
aFnan
aFnan
aFnan
aFnan
aFnan
aFnan
aFnan
aFnan
aFnan
aFnan
aFnan
aFnan
aFnan
aFnan
aFnan
aFnan
aFnan
aFnan
aFnan
aFnan
aFnan
aFnan
asg297
g0
(g298
g2
Ntp363
Rp364
(dp365
g302
VExprR2 = roundValues(2**(Gene_R2 - Gene_I),5)
p366
sg304
VExprR2
p367
sg306
I01
sg307
I00
sg308
VroundValues(2**(Gene_R2 - Gene_I),5)
p368
sbsg310
g0
(g311
g312
(g313
g314
tp369
tp370
Rp371
sg304
g367
sbag0
(g240
g2
Ntp372
Rp373
(dp374
g244
I00
sg245
g4
sg246
(lp375
F0.069
aF0.015
aF0.069
aF0.021
aF0.027
aF0.027
aFnan
aFnan
aFnan
aFnan
aFnan
aFnan
aFnan
aFnan
aFnan
aFnan
aFnan
aFnan
aFnan
aFnan
aFnan
aFnan
aFnan
aFnan
aFnan
aFnan
aFnan
aFnan
aFnan
aFnan
aFnan
aFnan
aFnan
aFnan
aFnan
aFnan
aFnan
aFnan
aFnan
aFnan
aFnan
aFnan
aFnan
aFnan
aFnan
aFnan
aFnan
aFnan
aFnan
aFnan
aFnan
aFnan
aFnan
aFnan
asg297
g0
(g298
g2
Ntp376
Rp377
(dp378
g302
VGeoMean = roundValues(np.sqrt(ExprR1*ExprR2), 3)
p379
sg304
VGeoMean
p380
sg306
I01
sg307
I00
sg308
VroundValues(np.sqrt(ExprR1*ExprR2), 3)
p381
sbsg310
g0
(g311
g312
(g313
g314
tp382
tp383
Rp384
sg304
g380
sbag0
(g240
g2
Ntp385
Rp386
(dp387
g244
I00
sg245
g4
sg246
(lp388
(lp389
g249
(g253
S'\x00\x00\x00\x00\x00\x00\x00\x00'
p390
tp391
Rp392
aa(lp393
g249
(g253
S'\x01\x00\x00\x00\x00\x00\x00\x00'
p394
tp395
Rp396
aa(lp397
g249
(g253
S'\x02\x00\x00\x00\x00\x00\x00\x00'
p398
tp399
Rp400
aa(lp401
g249
(g253
S'\x03\x00\x00\x00\x00\x00\x00\x00'
p402
tp403
Rp404
aaNaNaNaNaNaNaNaNaNaNaNaNaNaNaNaNaNaNaNaNaNaNaNaNaNaNaNaNaNaNaNaNaNaNaNaNaNaNaNaNaNaNaNaNaNaNaNaNaNaNasg297
g0
(g298
g2
Ntp405
Rp406
(dp407
g302
Vcat_vals = [br[0] for br in pruneNulls(BioRuns)]\u000aclean_geo = [x for x in GeoMean if x is not None]\u000aGeoGroups, groupedGeoMeans = groupBy(cat_vals, clean_geo)\u000aGroupedGeoMeans = roundValues(groupedGeoMeans, 3)\u000aGeoGroups = [[x] for x in GeoGroups]
p408
sg304
VGeoGroups
p409
sg306
I00
sg307
I00
sg308
Vcat_vals = [br[0] for br in pruneNulls(BioRuns)]\u000aclean_geo = [x for x in GeoMean if x is not None]\u000aGeoGroups, groupedGeoMeans = groupBy(cat_vals, clean_geo)\u000aGroupedGeoMeans = roundValues(groupedGeoMeans, 3)\u000aGeoGroups = [[x] for x in GeoGroups]
p410
sbsg310
g0
(g311
g312
(g313
g314
tp411
tp412
Rp413
sg304
g409
sbag0
(g240
g2
Ntp414
Rp415
(dp416
g244
I00
sg245
g4
sg246
(lp417
cnumpy.core.multiarray
_reconstruct
p418
(g313
(I0
tp419
S'b'
p420
tp421
Rp422
(I1
(I1
tp423
g250
(S'f8'
p424
I0
I1
tp425
Rp426
(I3
S'<'
p427
NNNI-1
I-1
I0
tp428
bI00
S'D\x8bl\xe7\xfb\xa9\xb1?'
p429
tp430
bag418
(g313
(I0
tp431
g420
tp432
Rp433
(I1
(I3
tp434
g426
I00
S'\xb8\x1e\x85\xebQ\xb8\x8e?D\x8bl\xe7\xfb\xa9\xb1?\x1b/\xdd$\x06\x81\x95?'
p435
tp436
bag418
(g313
(I0
tp437
g420
tp438
Rp439
(I1
(I1
tp440
g426
I00
S'\xd9\xce\xf7S\xe3\xa5\x9b?'
p441
tp442
bag418
(g313
(I0
tp443
g420
tp444
Rp445
(I1
(I1
tp446
g426
I00
S'\xd9\xce\xf7S\xe3\xa5\x9b?'
p447
tp448
baNaNaNaNaNaNaNaNaNaNaNaNaNaNaNaNaNaNaNaNaNaNaNaNaNaNaNaNaNaNaNaNaNaNaNaNaNaNaNaNaNaNaNaNaNaNaNaNaNaNasg297
g0
(g298
g2
Ntp449
Rp450
(dp451
g302
Nsg325
g415
sg306
I00
sg307
I00
sg308
Nsbsg310
g0
(g311
g312
(g313
g314
tp452
tp453
Rp454
sg304
VGroupedGeoMeans
p455
sbag0
(g240
g2
Ntp456
Rp457
(dp458
g244
I00
sg245
g4
sg246
(lp459
g418
(g313
(I0
tp460
g420
tp461
Rp462
(I1
(I1
tp463
g426
I00
S'\x00\x00\x00\x00\x00\x00\xf0?'
p464
tp465
bag418
(g313
(I0
tp466
g420
tp467
Rp468
(I1
(I3
tp469
g426
I00
S'-\xb2\x9d\xef\xa7\xc6\xcb?\x00\x00\x00\x00\x00\x00\xf0?\xdb\xf9~j\xbct\xd3?'
p470
tp471
bag418
(g313
(I0
tp472
g420
tp473
Rp474
(I1
(I1
tp475
g426
I00
S'\xa0\x1a/\xdd$\x06\xd9?'
p476
tp477
bag418
(g313
(I0
tp478
g420
tp479
Rp480
(I1
(I1
tp481
g426
I00
S'\xa0\x1a/\xdd$\x06\xd9?'
p482
tp483
baNaNaNaNaNaNaNaNaNaNaNaNaNaNaNaNaNaNaNaNaNaNaNaNaNaNaNaNaNaNaNaNaNaNaNaNaNaNaNaNaNaNaNaNaNaNaNaNaNaNasg297
g0
(g298
g2
Ntp484
Rp485
(dp486
g302
Vref = np.mean(GroupedGeoMeans[0])\u000aNrmlGeoGroupedMeans = [ [x/ref for x in g] for g in GroupedGeoMeans if g is not None]  \u000aNrmlGeoGroupedMeans = roundValues(NrmlGeoGroupedMeans, 3)
p487
sg304
VNrmlGeoGroupedMeans
p488
sg306
I00
sg307
I00
sg308
Vref = np.mean(GroupedGeoMeans[0])\u000aNrmlGeoGroupedMeans = [ [x/ref for x in g] for g in GroupedGeoMeans if g is not None]  \u000aNrmlGeoGroupedMeans = roundValues(NrmlGeoGroupedMeans, 3)
p489
sbsg310
g0
(g311
g312
(g313
g314
tp490
tp491
Rp492
sg304
g488
sbag0
(g240
g2
Ntp493
Rp494
(dp495
g244
I00
sg245
g4
sg246
(lp496
F1.0
aF0.507
aF0.391
aF0.391
aFnan
aFnan
aFnan
aFnan
aFnan
aFnan
aFnan
aFnan
aFnan
aFnan
aFnan
aFnan
aFnan
aFnan
aFnan
aFnan
aFnan
aFnan
aFnan
aFnan
aFnan
aFnan
aFnan
aFnan
aFnan
aFnan
aFnan
aFnan
aFnan
aFnan
aFnan
aFnan
aFnan
aFnan
aFnan
aFnan
aFnan
aFnan
aFnan
aFnan
aFnan
aFnan
aFnan
aFnan
aFnan
aFnan
aFnan
aFnan
aFnan
aFnan
asg297
g0
(g298
g2
Ntp497
Rp498
(dp499
g302
VMeanNrmlGeoGroups = [round(np.mean(g), 3) for g in NrmlGeoGroupedMeans]
p500
sg304
VMeanNrmlGeoGroups
p501
sg306
I01
sg307
I00
sg308
V[round(np.mean(g), 3) for g in NrmlGeoGroupedMeans]
p502
sbsg310
g0
(g311
g312
(g313
g314
tp503
tp504
Rp505
sg304
g501
sbag0
(g240
g2
Ntp506
Rp507
(dp508
g244
I00
sg245
g4
sg246
(lp509
Fnan
aF0.248
aFnan
aFnan
aFnan
aFnan
aFnan
aFnan
aFnan
aFnan
aFnan
aFnan
aFnan
aFnan
aFnan
aFnan
aFnan
aFnan
aFnan
aFnan
aFnan
aFnan
aFnan
aFnan
aFnan
aFnan
aFnan
aFnan
aFnan
aFnan
aFnan
aFnan
aFnan
aFnan
aFnan
aFnan
aFnan
aFnan
aFnan
aFnan
aFnan
aFnan
aFnan
aFnan
aFnan
aFnan
aFnan
aFnan
aFnan
aFnan
aFnan
aFnan
aFnan
aFnan
asg297
g0
(g298
g2
Ntp510
Rp511
(dp512
g302
VStdNrmlGeoGroups = [round(np.std(g, ddof=1)/np.sqrt(len(g)), 3) for g in NrmlGeoGroupedMeans]\u000a
p513
sg304
VStdNrmlGeoGroups
p514
sg306
I01
sg307
I00
sg308
V[round(np.std(g, ddof=1)/np.sqrt(len(g)), 3) for g in NrmlGeoGroupedMeans]\u000a
p515
sbsg310
g0
(g311
g312
(g313
g314
tp516
tp517
Rp518
sg304
g514
sbag0
(g240
g2
Ntp519
Rp520
(dp521
g244
I00
sg245
g4
sg246
(lp522
I1
aI1
aI1
aI1
aI1
aI1
aI1
aI1
aI1
aI1
aI1
aI1
aI2
aI2
aI2
aI3
aI3
aI3
aI1
aI1
aI1
aI2
aI2
aI2
aI3
aI3
aI3
aI1
aI1
aI1
aI2
aI2
aI2
aI3
aI3
aI3
aI1
aI1
aI1
aI1
aI1
aI1
aI1
aI1
aI1
aI1
aI1
aI1
aI1
aI1
aI1
aI1
aI1
aI1
asg297
g0
(g298
g2
Ntp523
Rp524
(dp525
g302
Nsg304
S'BRpl'
p526
sg306
I00
sg307
I00
sg308
Nsbsg310
g0
(g311
g312
(g313
g314
tp527
tp528
Rp529
sg304
g526
sbag0
(g240
g2
Ntp530
Rp531
(dp532
g244
I00
sg245
g4
sg246
(lp533
F23.0
aF22.86
aF22.8
aF18.24
aF18.22
aF18.36
aF19.72
aF19.75
aF20.01
aF26.68
aF27.13
aF27.21
aF26.76
aF26.71
aF26.19
aF29.98
aF30.12
aF29.41
aF19.92
aF19.85
aF20.0
aF21.86
aF22.09
aF21.84
aF23.89
aF23.54
aF24.27
aF22.18
aF21.71
aF21.75
aF23.88
aF23.42
aF23.63
aF24.59
aF24.61
aF24.34
aF29.95
aF30.45
aF29.88
aF23.22
aF23.8
aF23.49
aF26.37
aF26.36
aF26.17
aF24.8
aF24.97
aF24.63
aF18.91
aF18.78
aF18.8
aF20.5
aF20.47
aF20.28
asg297
g0
(g298
g2
Ntp534
Rp535
(dp536
g302
Nsg304
S'Ct'
p537
sg306
I00
sg307
I00
sg308
Nsbsg310
g529
sg304
g537
sbag0
(g240
g2
Ntp538
Rp539
(dp540
g244
I00
sg245
g4
sg246
(lp541
F0.8371
aF0.891
aF0.8956
aF0.8266
aF0.8343
aF0.8496
aF0.8157
aF0.8543
aF0.8208
aF0.9399
aF0.8296
aF0.8361
aF0.8039
aF0.8399
aF0.7935
aF0.8264
aF0.7974
aF0.8252
aF0.9179
aF0.9783
aF0.8971
aF0.8957
aF0.8287
aF0.8387
aF0.8746
aF0.8493
aF0.8349
aF0.7857
aF0.8427
aF0.8637
aF0.8281
aF0.8203
aF0.8288
aF0.8138
aF0.8242
aF0.804
aF0.8418
aF0.7959
aF0.8071
aF0.7701
aF0.8746
aF0.8139
aF0.7795
aF0.7676
aF0.7947
aF0.8513
aF0.8485
aF0.8401
aF0.8715
aF0.8977
aF0.856
aF0.8179
aF0.8173
aF0.7894
asg297
g0
(g298
g2
Ntp542
Rp543
(dp544
g302
Nsg304
S'Eff'
p545
sg306
I00
sg307
I00
sg308
Nsbsg310
g529
sg304
g545
sbag0
(g240
g2
Ntp546
Rp547
(dp548
g244
I00
sg245
g4
sg246
(lp549
VI
p550
ag550
ag550
aVR1
p551
aVR1
p552
aVR1
p553
aVR2
p554
aVR2
p555
aVR2
p556
ag550
ag550
ag550
ag550
ag550
ag550
ag550
ag550
ag550
aVR1
p557
aVR1
p558
aVR1
p559
aVR1
p560
aVR1
p561
aVR1
p562
aVR1
p563
aVR1
p564
aVR1
p565
aVR2
p566
aVR2
p567
aVR2
p568
aVR2
p569
aVR2
p570
aVR2
p571
aVR2
p572
aVR2
p573
aVR2
p574
ag550
ag550
ag550
aVR1
p575
aVR1
p576
aVR1
p577
aVR2
p578
aVR2
p579
aVR2
p580
ag550
ag550
ag550
aVR1
p581
aVR1
p582
aVR1
p583
aVR2
p584
aVR2
p585
aVR2
p586
asg297
g0
(g298
g2
Ntp587
Rp588
(dp589
g302
Nsg304
S'RunType'
p590
sg306
I00
sg307
I00
sg308
Nsbsg310
g529
sg304
g590
sbag0
(g240
g2
Ntp591
Rp592
(dp593
g244
I00
sg245
g4
sg246
(lp594
Va
p595
aVb
p596
aVc
p597
ag595
ag596
ag597
ag595
ag596
ag597
ag595
ag596
ag597
ag595
ag596
ag597
ag595
ag596
ag597
ag595
ag596
ag597
ag595
ag596
ag597
ag595
ag596
ag597
ag595
ag596
ag597
ag595
ag596
ag597
ag595
ag596
ag597
ag595
ag596
ag597
ag595
ag596
ag597
ag595
ag596
ag597
ag595
ag596
ag597
ag595
ag596
ag597
ag595
ag596
ag597
asg297
g0
(g298
g2
Ntp598
Rp599
(dp600
g302
Nsg304
S'TRpl'
p601
sg306
I00
sg307
I00
sg308
Nsbsg310
g529
sg304
g601
sbag0
(g240
g2
Ntp602
Rp603
(dp604
g244
I00
sg245
g4
sg246
(lp605
I0
aI0
aI0
aI0
aI0
aI0
aI0
aI0
aI0
aI1
aI1
aI1
aI1
aI1
aI1
aI1
aI1
aI1
aI1
aI1
aI1
aI1
aI1
aI1
aI1
aI1
aI1
aI1
aI1
aI1
aI1
aI1
aI1
aI1
aI1
aI1
aI2
aI2
aI2
aI2
aI2
aI2
aI2
aI2
aI2
aI3
aI3
aI3
aI3
aI3
aI3
aI3
aI3
aI3
asg297
g0
(g298
g2
Ntp606
Rp607
(dp608
g302
Nsg304
S'Treatment'
p609
sg306
I00
sg307
I00
sg308
Nsbsg310
g529
sg304
g609
sbasS'_is_evaluate_formulas'
p610
I01
sS'_prologue'
p611
g0
(g298
g2
Ntp612
Rp613
(dp614
g302
V# Prologue\u000aimport math as mt\u000aimport numpy as np\u000afrom os import listdir\u000afrom os.path import isfile, join\u000aimport pandas as pd\u000aimport scipy as sp\u000afrom numpy import nan  # Must follow sympy import \u000a\u000axlsx_path = '/mnt/hgfs/josephhellerstein/home/Technical/SciSheets/CaseStudies/Kristen/workbooks/data.xlsx'\u000agene = ParmValues[0]\u000arun = ParmValues[1] == 'True'\u000ashow_raw = ParmValues[2] == 'True'\u000ashow_block1 = ParmValues[3] == 'True'\u000ashow_block2 = ParmValues[4] == 'True'\u000ashow_block3 = ParmValues[5] == 'True'\u000amax_std  = float(ParmValues[6])\u000amin_eff = float(ParmValues[7])\u000aworksheet = gene + "-I"\u000as.getTable().setIsEvaluateFormulas(run)\u000as.setColumnVisibility()\u000as.setColumnVisibility(['Groups', 'GroupedEff', 'GroupedCt', 'StdFilteredGroupedCt', 'MeanCt', 'StdCt'], is_visible=show_block1)\u000as.setColumnVisibility(['BioRuns', 'Gene_I', 'Gene_R1', 'Gene_R2', 'ExprR1', 'ExprR2', 'GeoMean'], is_visible=show_block2)\u000as.setColumnVisibility(['GeoGroups', 'GroupedGeoMeans', 'NrmlGeoGroupedMeans', 'MeanNrmlGeoGroups', 'StdNrmlGeoGroups'], is_visible=show_block3)\u000aif False:\u000a  Groups = []\u000a  GroupedCt = []\u000a  GroupedEff = []\u000a  MeanCt = []\u000a  Imp = []\u000a  s.deleteColumn('Ct')\u000a  s.deleteColumn('RunType')\u000a  s.deleteColumn('BRpl')\u000a  s.deleteColumn('TRpl')\u000a  s.deleteColumn('Treatment')\u000a  s.deleteColumn('Eff')\u000aif run:\u000a  importExcelToTable(s, xlsx_path, worksheet=worksheet,\u000a      column_position='ParmValues',\u000a      names=['Treatment', 'RunType', 'BRpl', 'TRpl', 'Eff', 'Ct'])\u000as.setColumnVisibility(['BRpl', 'Ct', 'Eff', 'RunType', 'TRpl', 'Treatment'], is_visible=show_raw)\u000a
p615
sg304
VSingleGene
p616
sg306
I00
sg307
I00
sg308
V# Prologue\u000aimport math as mt\u000aimport numpy as np\u000afrom os import listdir\u000afrom os.path import isfile, join\u000aimport pandas as pd\u000aimport scipy as sp\u000afrom numpy import nan  # Must follow sympy import \u000a\u000axlsx_path = '/mnt/hgfs/josephhellerstein/home/Technical/SciSheets/CaseStudies/Kristen/workbooks/data.xlsx'\u000agene = ParmValues[0]\u000arun = ParmValues[1] == 'True'\u000ashow_raw = ParmValues[2] == 'True'\u000ashow_block1 = ParmValues[3] == 'True'\u000ashow_block2 = ParmValues[4] == 'True'\u000ashow_block3 = ParmValues[5] == 'True'\u000amax_std  = float(ParmValues[6])\u000amin_eff = float(ParmValues[7])\u000aworksheet = gene + "-I"\u000as.getTable().setIsEvaluateFormulas(run)\u000as.setColumnVisibility()\u000as.setColumnVisibility(['Groups', 'GroupedEff', 'GroupedCt', 'StdFilteredGroupedCt', 'MeanCt', 'StdCt'], is_visible=show_block1)\u000as.setColumnVisibility(['BioRuns', 'Gene_I', 'Gene_R1', 'Gene_R2', 'ExprR1', 'ExprR2', 'GeoMean'], is_visible=show_block2)\u000as.setColumnVisibility(['GeoGroups', 'GroupedGeoMeans', 'NrmlGeoGroupedMeans', 'MeanNrmlGeoGroups', 'StdNrmlGeoGroups'], is_visible=show_block3)\u000aif False:\u000a  Groups = []\u000a  GroupedCt = []\u000a  GroupedEff = []\u000a  MeanCt = []\u000a  Imp = []\u000a  s.deleteColumn('Ct')\u000a  s.deleteColumn('RunType')\u000a  s.deleteColumn('BRpl')\u000a  s.deleteColumn('TRpl')\u000a  s.deleteColumn('Treatment')\u000a  s.deleteColumn('Eff')\u000aif run:\u000a  importExcelToTable(s, xlsx_path, worksheet=worksheet,\u000a      column_position='ParmValues',\u000a      names=['Treatment', 'RunType', 'BRpl', 'TRpl', 'Eff', 'Ct'])\u000as.setColumnVisibility(['BRpl', 'Ct', 'Eff', 'RunType', 'TRpl', 'Treatment'], is_visible=show_raw)\u000a
p617
sbsS'_epilogue'
p618
g0
(g298
g2
Ntp619
Rp620
(dp621
g302
V# Epilogue\u000aif run:\u000a  worksheet = "%s-O" % gene\u000a  exportTableToExcel(s, xlsx_path, worksheet=worksheet, columns=['GeoGroups', 'MeanNrmlGeoGroups', 'StdNrmlGeoGroups'])\u000a
p622
sg304
g616
sg306
I00
sg307
I00
sg308
V# Epilogue\u000aif run:\u000a  worksheet = "%s-O" % gene\u000a  exportTableToExcel(s, xlsx_path, worksheet=worksheet, columns=['GeoGroups', 'MeanNrmlGeoGroups', 'StdNrmlGeoGroups'])\u000a
p623
sbsg304
g616
sS'_columns'
p624
(lp625
g0
(g240
g2
Ntp626
Rp627
(dp628
g244
I01
sg245
g4
sg246
(lp629
S'1'
p630
aS'2'
p631
aS'3'
p632
aS'4'
p633
aS'5'
p634
aS'6'
p635
aS'7'
p636
aS'8'
p637
aS'9'
p638
aS'10'
p639
aS'11'
p640
aS'12'
p641
aS'13'
p642
aS'14'
p643
aS'15'
p644
aS'16'
p645
aS'17'
p646
aS'18'
p647
aS'19'
p648
aS'20'
p649
aS'21'
p650
aS'22'
p651
aS'23'
p652
aS'24'
p653
aS'25'
p654
aS'26'
p655
aS'27'
p656
aS'28'
p657
aS'29'
p658
aS'30'
p659
aS'31'
p660
aS'32'
p661
aS'33'
p662
aS'34'
p663
aS'35'
p664
aS'36'
p665
aS'37'
p666
aS'38'
p667
aS'39'
p668
aS'40'
p669
aS'41'
p670
aS'42'
p671
aS'43'
p672
aS'44'
p673
aS'45'
p674
aS'46'
p675
aS'47'
p676
aS'48'
p677
aS'49'
p678
aS'50'
p679
aS'51'
p680
aS'52'
p681
aS'53'
p682
aS'54'
p683
asg297
g0
(g298
g2
Ntp684
Rp685
(dp686
g302
Nsg325
g627
sg306
I00
sg307
I00
sg308
Nsbsg310
g0
(g311
g312
(g313
g314
tp687
tp688
Rp689
sg304
S'row'
p690
sbag0
(g240
g2
Ntp691
Rp692
(dp693
g244
I00
sg245
g4
sg246
(lp694
Vgene
p695
aVrun
p696
aVshow_raw
p697
aVshow_block1
p698
aVshow_block2
p699
aVshow_block3
p700
aVmax_std
p701
aVmin_eff
p702
aVnan
p703
aVnan
p704
aVnan
p705
aVnan
p706
aVnan
p707
aVnan
p708
aVnan
p709
aVnan
p710
aVnan
p711
aVnan
p712
aVnan
p713
aVnan
p714
aVnan
p715
aVnan
p716
aVnan
p717
aVnan
p718
aVnan
p719
aVnan
p720
aVnan
p721
aVnan
p722
aVnan
p723
aVnan
p724
aVnan
p725
aVnan
p726
aVnan
p727
aVnan
p728
aVnan
p729
aVnan
p730
aVnan
p731
aVnan
p732
aVnan
p733
aVnan
p734
aVnan
p735
aVnan
p736
aVnan
p737
aVnan
p738
aVnan
p739
aVnan
p740
aVnan
p741
aVnan
p742
aVnan
p743
aVnan
p744
aVnan
p745
aVnan
p746
aVnan
p747
aVnan
p748
asg297
g0
(g298
g2
Ntp749
Rp750
(dp751
g302
Nsg325
g692
sg306
I00
sg307
I00
sg308
Nsbsg310
g0
(g311
g312
(g313
g314
tp752
tp753
Rp754
sg304
VParmNames
p755
sbag0
(g240
g2
Ntp756
Rp757
(dp758
g244
I00
sg245
g4
sg246
(lp759
VGene1
p760
aVTrue
p761
aVFalse
p762
aVTrue
p763
aVFalse
p764
aVFalse
p765
aV0.5
p766
aV0.7
p767
aV
p768
ag768
aVnan
p769
aVnan
p770
aVnan
p771
aVnan
p772
aVnan
p773
aVnan
p774
aVnan
p775
aVnan
p776
aVnan
p777
aVnan
p778
aVnan
p779
aVnan
p780
aVnan
p781
aVnan
p782
aVnan
p783
aVnan
p784
aVnan
p785
aVnan
p786
aVnan
p787
aVnan
p788
aVnan
p789
aVnan
p790
aVnan
p791
aVnan
p792
aVnan
p793
aVnan
p794
aVnan
p795
aVnan
p796
aVnan
p797
aVnan
p798
aVnan
p799
aVnan
p800
aVnan
p801
aVnan
p802
aVnan
p803
aVnan
p804
aVnan
p805
aVnan
p806
aVnan
p807
aVnan
p808
aVnan
p809
aVnan
p810
aVnan
p811
aVnan
p812
asg297
g0
(g298
g2
Ntp813
Rp814
(dp815
g302
Nsg304
VParmValues
p816
sg306
I00
sg307
I00
sg308
Nsbsg310
g0
(g311
g312
(g313
g314
tp817
tp818
Rp819
sg304
g816
sbag603
ag547
ag520
ag592
ag539
ag531
ag0
(g240
g2
Ntp820
Rp821
(dp822
g244
I00
sg245
g4
sg246
(lp823
(lp824
g249
(g253
S'\x00\x00\x00\x00\x00\x00\x00\x00'
p825
tp826
Rp827
ag550
ag249
(g253
S'\x01\x00\x00\x00\x00\x00\x00\x00'
p828
tp829
Rp830
aa(lp831
g249
(g253
S'\x00\x00\x00\x00\x00\x00\x00\x00'
p832
tp833
Rp834
aVR1
p835
ag249
(g253
S'\x01\x00\x00\x00\x00\x00\x00\x00'
p836
tp837
Rp838
aa(lp839
g249
(g253
S'\x00\x00\x00\x00\x00\x00\x00\x00'
p840
tp841
Rp842
aVR2
p843
ag249
(g253
S'\x01\x00\x00\x00\x00\x00\x00\x00'
p844
tp845
Rp846
aa(lp847
g249
(g253
S'\x01\x00\x00\x00\x00\x00\x00\x00'
p848
tp849
Rp850
ag550
ag249
(g253
S'\x01\x00\x00\x00\x00\x00\x00\x00'
p851
tp852
Rp853
aa(lp854
g249
(g253
S'\x01\x00\x00\x00\x00\x00\x00\x00'
p855
tp856
Rp857
ag550
ag249
(g253
S'\x02\x00\x00\x00\x00\x00\x00\x00'
p858
tp859
Rp860
aa(lp861
g249
(g253
S'\x01\x00\x00\x00\x00\x00\x00\x00'
p862
tp863
Rp864
ag550
ag249
(g253
S'\x03\x00\x00\x00\x00\x00\x00\x00'
p865
tp866
Rp867
aa(lp868
g249
(g253
S'\x01\x00\x00\x00\x00\x00\x00\x00'
p869
tp870
Rp871
ag835
ag249
(g253
S'\x01\x00\x00\x00\x00\x00\x00\x00'
p872
tp873
Rp874
aa(lp875
g249
(g253
S'\x01\x00\x00\x00\x00\x00\x00\x00'
p876
tp877
Rp878
ag835
ag249
(g253
S'\x02\x00\x00\x00\x00\x00\x00\x00'
p879
tp880
Rp881
aa(lp882
g249
(g253
S'\x01\x00\x00\x00\x00\x00\x00\x00'
p883
tp884
Rp885
ag835
ag249
(g253
S'\x03\x00\x00\x00\x00\x00\x00\x00'
p886
tp887
Rp888
aa(lp889
g249
(g253
S'\x01\x00\x00\x00\x00\x00\x00\x00'
p890
tp891
Rp892
ag843
ag249
(g253
S'\x01\x00\x00\x00\x00\x00\x00\x00'
p893
tp894
Rp895
aa(lp896
g249
(g253
S'\x01\x00\x00\x00\x00\x00\x00\x00'
p897
tp898
Rp899
ag843
ag249
(g253
S'\x02\x00\x00\x00\x00\x00\x00\x00'
p900
tp901
Rp902
aa(lp903
g249
(g253
S'\x01\x00\x00\x00\x00\x00\x00\x00'
p904
tp905
Rp906
ag843
ag249
(g253
S'\x03\x00\x00\x00\x00\x00\x00\x00'
p907
tp908
Rp909
aa(lp910
g249
(g253
S'\x02\x00\x00\x00\x00\x00\x00\x00'
p911
tp912
Rp913
ag550
ag249
(g253
S'\x01\x00\x00\x00\x00\x00\x00\x00'
p914
tp915
Rp916
aa(lp917
g249
(g253
S'\x02\x00\x00\x00\x00\x00\x00\x00'
p918
tp919
Rp920
ag835
ag249
(g253
S'\x01\x00\x00\x00\x00\x00\x00\x00'
p921
tp922
Rp923
aa(lp924
g249
(g253
S'\x02\x00\x00\x00\x00\x00\x00\x00'
p925
tp926
Rp927
ag843
ag249
(g253
S'\x01\x00\x00\x00\x00\x00\x00\x00'
p928
tp929
Rp930
aa(lp931
g249
(g253
S'\x03\x00\x00\x00\x00\x00\x00\x00'
p932
tp933
Rp934
ag550
ag249
(g253
S'\x01\x00\x00\x00\x00\x00\x00\x00'
p935
tp936
Rp937
aa(lp938
g249
(g253
S'\x03\x00\x00\x00\x00\x00\x00\x00'
p939
tp940
Rp941
ag835
ag249
(g253
S'\x01\x00\x00\x00\x00\x00\x00\x00'
p942
tp943
Rp944
aa(lp945
g249
(g253
S'\x03\x00\x00\x00\x00\x00\x00\x00'
p946
tp947
Rp948
ag843
ag249
(g253
S'\x01\x00\x00\x00\x00\x00\x00\x00'
p949
tp950
Rp951
aaNaNaNaNaNaNaNaNaNaNaNaNaNaNaNaNaNaNaNaNaNaNaNaNaNaNaNaNaNaNaNaNaNaNaNaNasg297
g0
(g298
g2
Ntp952
Rp953
(dp954
g302
Vsel = Eff > min_eff\u000agrouping_columns =   [\u000a    Treatment[sel],\u000a     RunType[sel], \u000a    BRpl[sel],      \u000a  ]\u000aGroups, groupedCt = groupBy(\u000a     grouping_columns, Ct[sel])\u000aGroups, groupedEff = groupBy(\u000a     grouping_columns, Eff[sel])\u000aGroups = [[g[0], g[1], g[2]] for g in Groups]\u000aGroupedCt = roundValues(groupedCt,2)\u000aGroupedEff = roundValues(groupedEff,2)
p955
sg304
VGroups
p956
sg306
I00
sg307
I00
sg308
Vsel = Eff > min_eff\u000agrouping_columns =   [\u000a    Treatment[sel],\u000a     RunType[sel], \u000a    BRpl[sel],      \u000a  ]\u000aGroups, groupedCt = groupBy(\u000a     grouping_columns, Ct[sel])\u000aGroups, groupedEff = groupBy(\u000a     grouping_columns, Eff[sel])\u000aGroups = [[g[0], g[1], g[2]] for g in Groups]\u000aGroupedCt = roundValues(groupedCt,2)\u000aGroupedEff = roundValues(groupedEff,2)
p957
sbsg310
g0
(g311
g312
(g313
g314
tp958
tp959
Rp960
sg304
g956
sbag0
(g240
g2
Ntp961
Rp962
(dp963
g244
I00
sg245
g4
sg246
(lp964
(lp965
F0.84
aF0.89
aF0.9
aa(lp966
F0.83
aF0.83
aF0.85
aa(lp967
F0.82
aF0.85
aF0.82
aa(lp968
F0.94
aF0.83
aF0.84
aa(lp969
F0.8
aF0.84
aF0.79
aa(lp970
F0.83
aF0.8
aF0.83
aa(lp971
F0.92
aF0.98
aF0.9
aa(lp972
F0.9
aF0.83
aF0.84
aa(lp973
F0.87
aF0.85
aF0.83
aa(lp974
F0.79
aF0.84
aF0.86
aa(lp975
F0.83
aF0.82
aF0.83
aa(lp976
F0.81
aF0.82
aF0.8
aa(lp977
F0.84
aF0.8
aF0.81
aa(lp978
F0.77
aF0.87
aF0.81
aa(lp979
F0.78
aF0.77
aF0.79
aa(lp980
F0.85
aF0.85
aF0.84
aa(lp981
F0.87
aF0.9
aF0.86
aa(lp982
F0.82
aF0.82
aF0.79
aaNaNaNaNaNaNaNaNaNaNaNaNaNaNaNaNaNaNaNaNaNaNaNaNaNaNaNaNaNaNaNaNaNaNaNaNasg297
g0
(g298
g2
Ntp983
Rp984
(dp985
g302
Nsg325
g962
sg306
I00
sg307
I00
sg308
Nsbsg310
g0
(g311
g312
(g313
g314
tp986
tp987
Rp988
sg304
VGroupedEff
p989
sbag0
(g240
g2
Ntp990
Rp991
(dp992
g244
I00
sg245
g4
sg246
(lp993
(lp994
F23.0
aF22.86
aF22.8
aa(lp995
F18.24
aF18.22
aF18.36
aa(lp996
F19.72
aF19.75
aF20.01
aa(lp997
F26.68
aF27.13
aF27.21
aa(lp998
F26.76
aF26.71
aF26.19
aa(lp999
F29.98
aF30.12
aF29.41
aa(lp1000
F19.92
aF19.85
aF20.0
aa(lp1001
F21.86
aF22.09
aF21.84
aa(lp1002
F23.89
aF23.54
aF24.27
aa(lp1003
F22.18
aF21.71
aF21.75
aa(lp1004
F23.88
aF23.42
aF23.63
aa(lp1005
F24.59
aF24.61
aF24.34
aa(lp1006
F29.95
aF30.45
aF29.88
aa(lp1007
F23.22
aF23.8
aF23.49
aa(lp1008
F26.37
aF26.36
aF26.17
aa(lp1009
F24.8
aF24.97
aF24.63
aa(lp1010
F18.91
aF18.78
aF18.8
aa(lp1011
F20.5
aF20.47
aF20.28
aaNaNaNaNaNaNaNaNaNaNaNaNaNaNaNaNaNaNaNaNaNaNaNaNaNaNaNaNaNaNaNaNaNaNaNaNasg297
g0
(g298
g2
Ntp1012
Rp1013
(dp1014
g302
Nsg325
g991
sg306
I00
sg307
I00
sg308
Nsbsg310
g0
(g311
g312
(g313
g314
tp1015
tp1016
Rp1017
sg304
VGroupedCt
p1018
sbag0
(g240
g2
Ntp1019
Rp1020
(dp1021
g244
I00
sg245
g4
sg246
(lp1022
(lp1023
F23.0
aF22.9
aF22.8
aa(lp1024
F18.2
aF18.2
aF18.4
aa(lp1025
F19.7
aF19.8
aF20.0
aa(lp1026
F26.7
aF27.1
aF27.2
aa(lp1027
F26.8
aF26.7
aF26.2
aa(lp1028
F30.0
aF30.1
aF29.4
aa(lp1029
F19.9
aF19.9
aF20.0
aa(lp1030
F21.9
aF22.1
aF21.8
aa(lp1031
F23.9
aF23.5
aF24.3
aa(lp1032
F22.2
aF21.7
aF21.8
aa(lp1033
F23.9
aF23.4
aF23.6
aa(lp1034
F24.6
aF24.6
aF24.3
aa(lp1035
F29.9
aF30.4
aF29.9
aa(lp1036
F23.2
aF23.8
aF23.5
aa(lp1037
F26.4
aF26.4
aF26.2
aa(lp1038
F24.8
aF25.0
aF24.6
aa(lp1039
F18.9
aF18.8
aF18.8
aa(lp1040
F20.5
aF20.5
aF20.3
aaNaNaNaNaNaNaNaNaNaNaNaNaNaNaNaNaNaNaNaNaNaNaNaNaNaNaNaNaNaNaNaNaNaNaNaNasg297
g0
(g298
g2
Ntp1041
Rp1042
(dp1043
g302
Vlength = len(Groups)\u000aStdFilteredGroupedCt = roundValues([filterExtremes(g, max_std, 2) for g in pruneNulls(GroupedCt,    required_length=length)])\u000a 
p1044
sg304
VStdFilteredGroupedCt
p1045
sg306
I00
sg307
I00
sg308
Vlength = len(Groups)\u000aStdFilteredGroupedCt = roundValues([filterExtremes(g, max_std, 2) for g in pruneNulls(GroupedCt,    required_length=length)])\u000a 
p1046
sbsg310
g0
(g311
g312
(g313
g314
tp1047
tp1048
Rp1049
sg304
g1045
sbag0
(g240
g2
Ntp1050
Rp1051
(dp1052
g244
I00
sg245
g4
sg246
(lp1053
F22.9
aF18.3
aF19.8
aF27.0
aF26.6
aF29.8
aF19.9
aF21.9
aF23.9
aF21.9
aF23.6
aF24.5
aF30.1
aF23.5
aF26.3
aF24.8
aF18.8
aF20.4
aFnan
aFnan
aFnan
aFnan
aFnan
aFnan
aFnan
aFnan
aFnan
aFnan
aFnan
aFnan
aFnan
aFnan
aFnan
aFnan
aFnan
aFnan
aFnan
aFnan
aFnan
aFnan
aFnan
aFnan
aFnan
aFnan
aFnan
aFnan
aFnan
aFnan
aFnan
aFnan
aFnan
aFnan
aFnan
aFnan
asg297
g0
(g298
g2
Ntp1054
Rp1055
(dp1056
g302
VMeanCt = [np.mean(g) for g in StdFilteredGroupedCt]\u000aMeanCt = roundValues(MeanCt,1)\u000aStdCt = [np.std(g, ddof=1) for g in StdFilteredGroupedCt]\u000aStdCt = roundValues(StdCt,3)
p1057
sg304
VMeanCt
p1058
sg306
I00
sg307
I00
sg308
VMeanCt = [np.mean(g) for g in StdFilteredGroupedCt]\u000aMeanCt = roundValues(MeanCt,1)\u000aStdCt = [np.std(g, ddof=1) for g in StdFilteredGroupedCt]\u000aStdCt = roundValues(StdCt,3)
p1059
sbsg310
g0
(g311
g312
(g313
g314
tp1060
tp1061
Rp1062
sg304
g1058
sbag0
(g240
g2
Ntp1063
Rp1064
(dp1065
g244
I00
sg245
g4
sg246
(lp1066
F0.1
aF0.115
aF0.153
aF0.265
aF0.321
aF0.379
aF0.058
aF0.153
aF0.4
aF0.265
aF0.252
aF0.173
aF0.289
aF0.3
aF0.115
aF0.2
aF0.058
aF0.115
aFnan
aFnan
aFnan
aFnan
aFnan
aFnan
aFnan
aFnan
aFnan
aFnan
aFnan
aFnan
aFnan
aFnan
aFnan
aFnan
aFnan
aFnan
aFnan
aFnan
aFnan
aFnan
aFnan
aFnan
aFnan
aFnan
aFnan
aFnan
aFnan
aFnan
aFnan
aFnan
aFnan
aFnan
aFnan
aFnan
asg297
g0
(g298
g2
Ntp1067
Rp1068
(dp1069
g302
Nsg325
g1064
sg306
I00
sg307
I00
sg308
Nsbsg310
g0
(g311
g312
(g313
g314
tp1070
tp1071
Rp1072
sg304
VStdCt
p1073
sbag242
ag319
ag331
ag339
ag347
ag360
ag373
ag386
ag415
ag457
ag494
ag507
asg233
V/home/ubuntu/SciSheets/mysite/user/guest/tables/kristen_single_gene.pcl
p1074
sb.