ccopy_reg
_reconstructor
p0
(cscisheets.ui.dt_table
DTTable
p1
c__builtin__
object
p2
Ntp3
Rp4
(dp5
S'_versioned_file'
p6
g0
(cmysite.helpers.versioned_file
VersionedFile
p7
g2
Ntp8
Rp9
(dp10
S'_redo_stack'
p11
g0
(cmysite.helpers.file_stack
FileStack
p12
g2
Ntp13
Rp14
(dp15
S'_dirpath'
p16
S'/home/ubuntu/SciSheets/mysite/user/guest/tables/backup'
p17
sS'_max_depth'
p18
I5
sS'_filename_pfx'
p19
Vkristen_single_gene.r
p20
sbsS'_max_versions'
p21
I5
sS'_undo_stack'
p22
g0
(g12
g2
Ntp23
Rp24
(dp25
g16
g17
sg18
I5
sg19
Vkristen_single_gene.u
p26
sbsS'_checkpoint_history'
p27
(lp28
VCell/Update
p29
aVCell/Update
p30
aVCell/Update
p31
aVCell/Update
p32
aVCell/Update
p33
aVCell/Update
p34
aVCell/Update
p35
aVCell/Update
p36
aVCell/Update
p37
aVCell/Update
p38
aVCell/Update
p39
aVCell/Update
p40
aVColumn/Formula
p41
aVColumn/Formula
p42
aVColumn/Append
p43
aVColumn/Formula
p44
aVColumn/Delete
p45
aVCell/Update
p46
aVColumn/Formula
p47
aVCell/Update
p48
aVCell/Update
p49
aVColumn/Formula
p50
aVColumn/Formula
p51
aVCell/Update
p52
aVColumn/Formula
p53
aVColumn/Formula
p54
aVCell/Update
p55
aVCell/Update
p56
aVCell/Update
p57
aVCell/Update
p58
aVColumn/Formula
p59
aVCell/Update
p60
aVCell/Update
p61
aVCell/Update
p62
aVColumn/Formula
p63
aVCell/Update
p64
aVColumn/Formula
p65
aVColumn/Formula
p66
aVCell/Update
p67
aVCell/Update
p68
aVCell/Update
p69
aVCell/Update
p70
aVCell/Update
p71
aVCell/Update
p72
aVCell/Update
p73
aVCell/Update
p74
aVCell/Update
p75
aVColumn/Formula
p76
aVCell/Update
p77
aVCell/Update
p78
aVCell/Update
p79
aVCell/Update
p80
aVCell/Update
p81
aVCell/Update
p82
aVCell/Update
p83
aVCell/Update
p84
aVCell/Update
p85
aVCell/Update
p86
aVCell/Update
p87
aVCell/Update
p88
aVColumn/Formula
p89
aVColumn/Formula
p90
aVColumn/Formula
p91
aVCell/Update
p92
aVCell/Update
p93
aVCell/Update
p94
aVCell/Update
p95
aVCell/Update
p96
aVColumn/Formula
p97
aVCell/Update
p98
aVCell/Update
p99
aVCell/Update
p100
aVCell/Update
p101
aVCell/Update
p102
aVCell/Update
p103
aVCell/Update
p104
aVColumn/Formula
p105
aVColumn/Formula
p106
aVColumn/Formula
p107
aVCell/Update
p108
aVCell/Update
p109
aVColumn/Formula
p110
aVCell/Update
p111
aVCell/Update
p112
aVCell/Update
p113
aVCell/Update
p114
aVCell/Update
p115
aVCell/Update
p116
aVCell/Update
p117
aVCell/Update
p118
aVColumn/Formula
p119
aVCell/Update
p120
aVColumn/Formula
p121
aVColumn/Formula
p122
aVColumn/Formula
p123
aVCell/Update
p124
aVCell/Update
p125
aVColumn/Formula
p126
aVColumn/Formula
p127
aVColumn/Formula
p128
aVColumn/Formula
p129
aVCell/Update
p130
aVColumn/Formula
p131
aVColumn/Formula
p132
aVColumn/Formula
p133
aVCell/Update
p134
aVCell/Update
p135
aVCell/Update
p136
aVCell/Update
p137
aVCell/Update
p138
aVCell/Update
p139
aVCell/Update
p140
aVCell/Update
p141
aVCell/Update
p142
aVCell/Update
p143
aVColumn/Formula
p144
aVColumn/Formula
p145
aVColumn/Formula
p146
aVColumn/Formula
p147
aVCell/Update
p148
aVCell/Update
p149
aVColumn/Formula
p150
aVCell/Update
p151
aVCell/Update
p152
aVCell/Update
p153
aVCell/Update
p154
aVCell/Update
p155
aVCell/Update
p156
aVCell/Update
p157
aVCell/Update
p158
aVCell/Update
p159
aVCell/Update
p160
aVCell/Update
p161
aVCell/Update
p162
aVCell/Update
p163
aVColumn/Formula
p164
aVColumn/Formula
p165
aVCell/Update
p166
aVCell/Update
p167
aVCell/Update
p168
aVColumn/Formula
p169
aVCell/Update
p170
aVCell/Update
p171
aVCell/Update
p172
aVCell/Update
p173
aVColumn/Formula
p174
aVColumn/Formula
p175
aVColumn/Formula
p176
aVColumn/Formula
p177
aVCell/Update
p178
aVColumn/Formula
p179
aVCell/Update
p180
aVCell/Update
p181
aVCell/Update
p182
aVCell/Update
p183
aVCell/Update
p184
aVCell/Update
p185
aVCell/Update
p186
aVCell/Update
p187
aVCell/Update
p188
aVColumn/Formula
p189
aVCell/Update
p190
aVCell/Update
p191
aVCell/Update
p192
aVCell/Update
p193
aVCell/Update
p194
aVCell/Update
p195
aVCell/Update
p196
aVCell/Update
p197
aVCell/Update
p198
aVCell/Update
p199
aVCell/Update
p200
aVCell/Update
p201
aVCell/Update
p202
aVCell/Update
p203
aVCell/Update
p204
aVCell/Update
p205
aVCell/Update
p206
aVCell/Update
p207
aVCell/Update
p208
aVCell/Update
p209
aVCell/Update
p210
aVCell/Update
p211
aVCell/Update
p212
aVCell/Update
p213
aVCell/Update
p214
aVCell/Update
p215
aVCell/Update
p216
aVCell/Update
p217
aVCell/Update
p218
aVCell/Update
p219
aVCell/Update
p220
aVCell/Update
p221
aVCell/Update
p222
aVCell/Update
p223
aVCell/Update
p224
aVCell/Update
p225
aVCell/Update
p226
aVCell/Update
p227
aVCell/Update
p228
aVCell/Update
p229
aVCell/Update
p230
aVCell/Update
p231
aVCell/Update
p232
aVCell/Update
p233
aVCell/Update
p234
aVCell/Update
p235
aVCell/Update
p236
aVCell/Update
p237
aVCell/Update
p238
aVCell/Update
p239
aVCell/Update
p240
aVCell/Update
p241
aVCell/Update
p242
aVCell/Update
p243
aVCell/Update
p244
aVCell/Update
p245
aVCell/Update
p246
aVCell/Update
p247
aVCell/Update
p248
aVCell/Update
p249
aVCell/Update
p250
aVCell/Update
p251
aVCell/Update
p252
aVCell/Update
p253
aVCell/Update
p254
aVCell/Update
p255
aVCell/Update
p256
aVCell/Update
p257
aVCell/Update
p258
aVCell/Update
p259
aVCell/Update
p260
aVCell/Update
p261
aVCell/Update
p262
aVCell/Update
p263
aVCell/Update
p264
aVCell/Update
p265
aVCell/Update
p266
aVCell/Update
p267
aVCell/Update
p268
aVCell/Update
p269
aVCell/Update
p270
aVCell/Update
p271
aVColumn/Formula
p272
aVColumn/Formula
p273
aVCell/Update
p274
aVCell/Update
p275
aVCell/Update
p276
aVCell/Update
p277
aVColumn/Formula
p278
aVColumn/Formula
p279
aVColumn/Formula
p280
aVCell/Update
p281
aVCell/Update
p282
aVCell/Update
p283
aVCell/Update
p284
asS'_filepath'
p285
V/home/ubuntu/SciSheets/mysite/user/guest/tables/kristen_single_gene.pcl
p286
sS'_backup_dir'
p287
g17
sbsS'_namespace'
p288
(dp289
sS'_hidden_columns'
p290
(lp291
g0
(cscisheets.core.column
Column
p292
g2
Ntp293
Rp294
(dp295
S'_asis'
p296
I00
sS'_owning_table'
p297
g4
sS'_cells'
p298
(lp299
(lp300
cnumpy.core.multiarray
scalar
p301
(cnumpy
dtype
p302
(S'i8'
p303
I0
I1
tp304
Rp305
(I3
S'<'
p306
NNNI-1
I-1
I0
tp307
bS'\x00\x00\x00\x00\x00\x00\x00\x00'
p308
tp309
Rp310
aVI
p311
ag301
(g305
S'\x01\x00\x00\x00\x00\x00\x00\x00'
p312
tp313
Rp314
aa(lp315
g301
(g305
S'\x00\x00\x00\x00\x00\x00\x00\x00'
p316
tp317
Rp318
aVR1
p319
ag301
(g305
S'\x01\x00\x00\x00\x00\x00\x00\x00'
p320
tp321
Rp322
aa(lp323
g301
(g305
S'\x00\x00\x00\x00\x00\x00\x00\x00'
p324
tp325
Rp326
aVR2
p327
ag301
(g305
S'\x01\x00\x00\x00\x00\x00\x00\x00'
p328
tp329
Rp330
aa(lp331
g301
(g305
S'\x01\x00\x00\x00\x00\x00\x00\x00'
p332
tp333
Rp334
ag311
ag301
(g305
S'\x01\x00\x00\x00\x00\x00\x00\x00'
p335
tp336
Rp337
aa(lp338
g301
(g305
S'\x01\x00\x00\x00\x00\x00\x00\x00'
p339
tp340
Rp341
ag311
ag301
(g305
S'\x02\x00\x00\x00\x00\x00\x00\x00'
p342
tp343
Rp344
aa(lp345
g301
(g305
S'\x01\x00\x00\x00\x00\x00\x00\x00'
p346
tp347
Rp348
ag311
ag301
(g305
S'\x03\x00\x00\x00\x00\x00\x00\x00'
p349
tp350
Rp351
aa(lp352
g301
(g305
S'\x01\x00\x00\x00\x00\x00\x00\x00'
p353
tp354
Rp355
ag319
ag301
(g305
S'\x01\x00\x00\x00\x00\x00\x00\x00'
p356
tp357
Rp358
aa(lp359
g301
(g305
S'\x01\x00\x00\x00\x00\x00\x00\x00'
p360
tp361
Rp362
ag319
ag301
(g305
S'\x02\x00\x00\x00\x00\x00\x00\x00'
p363
tp364
Rp365
aa(lp366
g301
(g305
S'\x01\x00\x00\x00\x00\x00\x00\x00'
p367
tp368
Rp369
ag319
ag301
(g305
S'\x03\x00\x00\x00\x00\x00\x00\x00'
p370
tp371
Rp372
aa(lp373
g301
(g305
S'\x01\x00\x00\x00\x00\x00\x00\x00'
p374
tp375
Rp376
ag327
ag301
(g305
S'\x01\x00\x00\x00\x00\x00\x00\x00'
p377
tp378
Rp379
aa(lp380
g301
(g305
S'\x01\x00\x00\x00\x00\x00\x00\x00'
p381
tp382
Rp383
ag327
ag301
(g305
S'\x02\x00\x00\x00\x00\x00\x00\x00'
p384
tp385
Rp386
aa(lp387
g301
(g305
S'\x01\x00\x00\x00\x00\x00\x00\x00'
p388
tp389
Rp390
ag327
ag301
(g305
S'\x03\x00\x00\x00\x00\x00\x00\x00'
p391
tp392
Rp393
aa(lp394
g301
(g305
S'\x02\x00\x00\x00\x00\x00\x00\x00'
p395
tp396
Rp397
ag311
ag301
(g305
S'\x01\x00\x00\x00\x00\x00\x00\x00'
p398
tp399
Rp400
aa(lp401
g301
(g305
S'\x02\x00\x00\x00\x00\x00\x00\x00'
p402
tp403
Rp404
ag319
ag301
(g305
S'\x01\x00\x00\x00\x00\x00\x00\x00'
p405
tp406
Rp407
aa(lp408
g301
(g305
S'\x02\x00\x00\x00\x00\x00\x00\x00'
p409
tp410
Rp411
ag327
ag301
(g305
S'\x01\x00\x00\x00\x00\x00\x00\x00'
p412
tp413
Rp414
aa(lp415
g301
(g305
S'\x03\x00\x00\x00\x00\x00\x00\x00'
p416
tp417
Rp418
ag311
ag301
(g305
S'\x01\x00\x00\x00\x00\x00\x00\x00'
p419
tp420
Rp421
aa(lp422
g301
(g305
S'\x03\x00\x00\x00\x00\x00\x00\x00'
p423
tp424
Rp425
ag319
ag301
(g305
S'\x01\x00\x00\x00\x00\x00\x00\x00'
p426
tp427
Rp428
aa(lp429
g301
(g305
S'\x03\x00\x00\x00\x00\x00\x00\x00'
p430
tp431
Rp432
ag327
ag301
(g305
S'\x01\x00\x00\x00\x00\x00\x00\x00'
p433
tp434
Rp435
aa(lp436
g301
(g305
S'\x04\x00\x00\x00\x00\x00\x00\x00'
p437
tp438
Rp439
ag311
ag301
(g305
S'\x01\x00\x00\x00\x00\x00\x00\x00'
p440
tp441
Rp442
aa(lp443
g301
(g305
S'\x04\x00\x00\x00\x00\x00\x00\x00'
p444
tp445
Rp446
ag319
ag301
(g305
S'\x01\x00\x00\x00\x00\x00\x00\x00'
p447
tp448
Rp449
aa(lp450
g301
(g305
S'\x04\x00\x00\x00\x00\x00\x00\x00'
p451
tp452
Rp453
ag327
ag301
(g305
S'\x01\x00\x00\x00\x00\x00\x00\x00'
p454
tp455
Rp456
aaNaNaNaNaNaNaNaNaNaNaNaNaNaNaNaNaNaNaNaNaNaNaNaNaNaNaNaNaNaNaNaNaNaNaNaNaNaNaNaNaNaNaNasS'_formula_statement'
p457
g0
(cscisheets.core.helpers.formula_statement
FormulaStatement
p458
g2
Ntp459
Rp460
(dp461
S'_statement'
p462
Vsel = Eff > min_eff\u000agrouping_columns =   [\u000a    Treatment[sel],\u000a     RunType[sel], \u000a    BRpl[sel],      \u000a  ]\u000aGroups, groupedCt = groupBy(\u000a     grouping_columns, Ct[sel])\u000aGroups, groupedEff = groupBy(\u000a     grouping_columns, Eff[sel])\u000aGroups = [[g[0], g[1], g[2]] for g in Groups]\u000aGroupedCt = roundValues(groupedCt,2)\u000aGroupedEff = roundValues(groupedEff,2)
p463
sS'_name'
p464
VGroups
p465
sS'_isExpression'
p466
I00
sS'_isStatement'
p467
I00
sS'_formula'
p468
Vsel = Eff > min_eff\u000agrouping_columns =   [\u000a    Treatment[sel],\u000a     RunType[sel], \u000a    BRpl[sel],      \u000a  ]\u000aGroups, groupedCt = groupBy(\u000a     grouping_columns, Ct[sel])\u000aGroups, groupedEff = groupBy(\u000a     grouping_columns, Eff[sel])\u000aGroups = [[g[0], g[1], g[2]] for g in Groups]\u000aGroupedCt = roundValues(groupedCt,2)\u000aGroupedEff = roundValues(groupedEff,2)
p469
sbsS'_data_class'
p470
g0
(cscisheets.core.helpers.api_util
DataClass
p471
c__builtin__
tuple
p472
(cnumpy
ndarray
p473
cscisheets.core.helpers.api_util
makeArray
p474
tp475
tp476
Rp477
sg464
g465
sbag0
(g292
g2
Ntp478
Rp479
(dp480
g296
I00
sg297
g4
sg298
(lp481
cnumpy.core.multiarray
_reconstruct
p482
(g473
(I0
tp483
S'b'
p484
tp485
Rp486
(I1
(I4
tp487
g302
(S'f8'
p488
I0
I1
tp489
Rp490
(I3
S'<'
p491
NNNI-1
I-1
I0
tp492
bI00
S'\xe1z\x14\xaeG\xe1\xea?{\x14\xaeG\xe1z\xec?\xcd\xcc\xcc\xcc\xcc\xcc\xec?\xd7\xa3p=\n\xd7\xeb?'
p493
tp494
bag482
(g473
(I0
tp495
g484
tp496
Rp497
(I1
(I3
tp498
g490
I00
S'\x8f\xc2\xf5(\\\x8f\xea?\x8f\xc2\xf5(\\\x8f\xea?333333\xeb?'
p499
tp500
bag482
(g473
(I0
tp501
g484
tp502
Rp503
(I1
(I3
tp504
g490
I00
S'=\n\xd7\xa3p=\xea?333333\xeb?=\n\xd7\xa3p=\xea?'
p505
tp506
bag482
(g473
(I0
tp507
g484
tp508
Rp509
(I1
(I3
tp510
g490
I00
S'\x14\xaeG\xe1z\x14\xee?\x8f\xc2\xf5(\\\x8f\xea?\xe1z\x14\xaeG\xe1\xea?'
p511
tp512
bag482
(g473
(I0
tp513
g484
tp514
Rp515
(I1
(I3
tp516
g490
I00
S'\x9a\x99\x99\x99\x99\x99\xe9?\xe1z\x14\xaeG\xe1\xea?H\xe1z\x14\xaeG\xe9?'
p517
tp518
bag482
(g473
(I0
tp519
g484
tp520
Rp521
(I1
(I3
tp522
g490
I00
S'\x8f\xc2\xf5(\\\x8f\xea?\x9a\x99\x99\x99\x99\x99\xe9?\x8f\xc2\xf5(\\\x8f\xea?'
p523
tp524
bag482
(g473
(I0
tp525
g484
tp526
Rp527
(I1
(I3
tp528
g490
I00
S'q=\n\xd7\xa3p\xed?\\\x8f\xc2\xf5(\\\xef?\xcd\xcc\xcc\xcc\xcc\xcc\xec?'
p529
tp530
bag482
(g473
(I0
tp531
g484
tp532
Rp533
(I1
(I3
tp534
g490
I00
S'\xcd\xcc\xcc\xcc\xcc\xcc\xec?\x8f\xc2\xf5(\\\x8f\xea?\xe1z\x14\xaeG\xe1\xea?'
p535
tp536
bag482
(g473
(I0
tp537
g484
tp538
Rp539
(I1
(I3
tp540
g490
I00
S'\xd7\xa3p=\n\xd7\xeb?333333\xeb?\x8f\xc2\xf5(\\\x8f\xea?'
p541
tp542
bag482
(g473
(I0
tp543
g484
tp544
Rp545
(I1
(I3
tp546
g490
I00
S'H\xe1z\x14\xaeG\xe9?\xe1z\x14\xaeG\xe1\xea?\x85\xebQ\xb8\x1e\x85\xeb?'
p547
tp548
bag482
(g473
(I0
tp549
g484
tp550
Rp551
(I1
(I3
tp552
g490
I00
S'\x8f\xc2\xf5(\\\x8f\xea?=\n\xd7\xa3p=\xea?\x8f\xc2\xf5(\\\x8f\xea?'
p553
tp554
bag482
(g473
(I0
tp555
g484
tp556
Rp557
(I1
(I3
tp558
g490
I00
S'\xecQ\xb8\x1e\x85\xeb\xe9?=\n\xd7\xa3p=\xea?\x9a\x99\x99\x99\x99\x99\xe9?'
p559
tp560
bag482
(g473
(I0
tp561
g484
tp562
Rp563
(I1
(I3
tp564
g490
I00
S'\xe1z\x14\xaeG\xe1\xea?\x9a\x99\x99\x99\x99\x99\xe9?\xecQ\xb8\x1e\x85\xeb\xe9?'
p565
tp566
bag482
(g473
(I0
tp567
g484
tp568
Rp569
(I1
(I3
tp570
g490
I00
S'\xa4p=\n\xd7\xa3\xe8?\xd7\xa3p=\n\xd7\xeb?\xecQ\xb8\x1e\x85\xeb\xe9?'
p571
tp572
bag482
(g473
(I0
tp573
g484
tp574
Rp575
(I1
(I3
tp576
g490
I00
S'\xf6(\\\x8f\xc2\xf5\xe8?\xa4p=\n\xd7\xa3\xe8?H\xe1z\x14\xaeG\xe9?'
p577
tp578
bag482
(g473
(I0
tp579
g484
tp580
Rp581
(I1
(I3
tp582
g490
I00
S'333333\xeb?333333\xeb?\xe1z\x14\xaeG\xe1\xea?'
p583
tp584
bag482
(g473
(I0
tp585
g484
tp586
Rp587
(I1
(I3
tp588
g490
I00
S'\xd7\xa3p=\n\xd7\xeb?\xcd\xcc\xcc\xcc\xcc\xcc\xec?\x85\xebQ\xb8\x1e\x85\xeb?'
p589
tp590
bag482
(g473
(I0
tp591
g484
tp592
Rp593
(I1
(I3
tp594
g490
I00
S'=\n\xd7\xa3p=\xea?=\n\xd7\xa3p=\xea?H\xe1z\x14\xaeG\xe9?'
p595
tp596
bag482
(g473
(I0
tp597
g484
tp598
Rp599
(I1
(I3
tp600
g490
I00
S'333333\xeb?333333\xeb?\xe1z\x14\xaeG\xe1\xea?'
p601
tp602
bag482
(g473
(I0
tp603
g484
tp604
Rp605
(I1
(I3
tp606
g490
I00
S'\xd7\xa3p=\n\xd7\xeb?\xcd\xcc\xcc\xcc\xcc\xcc\xec?\x85\xebQ\xb8\x1e\x85\xeb?'
p607
tp608
bag482
(g473
(I0
tp609
g484
tp610
Rp611
(I1
(I3
tp612
g490
I00
S'=\n\xd7\xa3p=\xea?=\n\xd7\xa3p=\xea?H\xe1z\x14\xaeG\xe9?'
p613
tp614
baNaNaNaNaNaNaNaNaNaNaNaNaNaNaNaNaNaNaNaNaNaNaNaNaNaNaNaNaNaNaNaNaNaNaNaNaNaNaNaNaNaNaNasg457
g0
(g458
g2
Ntp615
Rp616
(dp617
g462
NsS'_column'
p618
g479
sg466
I00
sg467
I00
sg468
Nsbsg470
g0
(g471
g472
(g473
g474
tp619
tp620
Rp621
sg464
VGroupedEff
p622
sbag0
(g292
g2
Ntp623
Rp624
(dp625
g296
I00
sg297
g4
sg298
(lp626
g482
(g473
(I0
tp627
g484
tp628
Rp629
(I1
(I4
tp630
g490
I00
S'\x00\x00\x00\x00\x00\x007@\\\x8f\xc2\xf5(\xdc6@\xcd\xcc\xcc\xcc\xcc\xcc6@\x00\x00\x00\x00\x00\x007@'
p631
tp632
bag482
(g473
(I0
tp633
g484
tp634
Rp635
(I1
(I3
tp636
g490
I00
S'=\n\xd7\xa3p=2@\xb8\x1e\x85\xebQ82@\\\x8f\xc2\xf5(\\2@'
p637
tp638
bag482
(g473
(I0
tp639
g484
tp640
Rp641
(I1
(I3
tp642
g490
I00
S'\xb8\x1e\x85\xebQ\xb83@\x00\x00\x00\x00\x00\xc03@\xc3\xf5(\\\x8f\x024@'
p643
tp644
bag482
(g473
(I0
tp645
g484
tp646
Rp647
(I1
(I3
tp648
g490
I00
S'\xaeG\xe1z\x14\xae:@\xe1z\x14\xaeG!;@\xf6(\\\x8f\xc25;@'
p649
tp650
bag482
(g473
(I0
tp651
g484
tp652
Rp653
(I1
(I3
tp654
g490
I00
S'\xc3\xf5(\\\x8f\xc2:@\xf6(\\\x8f\xc2\xb5:@q=\n\xd7\xa30:@'
p655
tp656
bag482
(g473
(I0
tp657
g484
tp658
Rp659
(I1
(I3
tp660
g490
I00
S'{\x14\xaeG\xe1\xfa=@\x1f\x85\xebQ\xb8\x1e>@)\\\x8f\xc2\xf5h=@'
p661
tp662
bag482
(g473
(I0
tp663
g484
tp664
Rp665
(I1
(I3
tp666
g490
I00
S'\xecQ\xb8\x1e\x85\xeb3@\x9a\x99\x99\x99\x99\xd93@\x00\x00\x00\x00\x00\x004@'
p667
tp668
bag482
(g473
(I0
tp669
g484
tp670
Rp671
(I1
(I3
tp672
g490
I00
S'\\\x8f\xc2\xf5(\xdc5@\xd7\xa3p=\n\x176@\xd7\xa3p=\n\xd75@'
p673
tp674
bag482
(g473
(I0
tp675
g484
tp676
Rp677
(I1
(I3
tp678
g490
I00
S'\xa4p=\n\xd7\xe37@\n\xd7\xa3p=\x8a7@\x85\xebQ\xb8\x1eE8@'
p679
tp680
bag482
(g473
(I0
tp681
g484
tp682
Rp683
(I1
(I3
tp684
g490
I00
S'\xaeG\xe1z\x14.6@\xf6(\\\x8f\xc2\xb55@\x00\x00\x00\x00\x00\xc05@'
p685
tp686
bag482
(g473
(I0
tp687
g484
tp688
Rp689
(I1
(I3
tp690
g490
I00
S'\xe1z\x14\xaeG\xe17@\xecQ\xb8\x1e\x85k7@\xe1z\x14\xaeG\xa17@'
p691
tp692
bag482
(g473
(I0
tp693
g484
tp694
Rp695
(I1
(I3
tp696
g490
I00
S'\xd7\xa3p=\n\x978@\\\x8f\xc2\xf5(\x9c8@\xd7\xa3p=\nW8@'
p697
tp698
bag482
(g473
(I0
tp699
g484
tp700
Rp701
(I1
(I3
tp702
g490
I00
S'33333\xf3=@33333s>@\xe1z\x14\xaeG\xe1=@'
p703
tp704
bag482
(g473
(I0
tp705
g484
tp706
Rp707
(I1
(I3
tp708
g490
I00
S'\xb8\x1e\x85\xebQ87@\xcd\xcc\xcc\xcc\xcc\xcc7@=\n\xd7\xa3p}7@'
p709
tp710
bag482
(g473
(I0
tp711
g484
tp712
Rp713
(I1
(I3
tp714
g490
I00
S'\x1f\x85\xebQ\xb8^:@\\\x8f\xc2\xf5(\\:@\xecQ\xb8\x1e\x85+:@'
p715
tp716
bag482
(g473
(I0
tp717
g484
tp718
Rp719
(I1
(I3
tp720
g490
I00
S'\xcd\xcc\xcc\xcc\xcc\xcc8@\xb8\x1e\x85\xebQ\xf88@\xe1z\x14\xaeG\xa18@'
p721
tp722
bag482
(g473
(I0
tp723
g484
tp724
Rp725
(I1
(I3
tp726
g490
I00
S')\\\x8f\xc2\xf5\xe82@H\xe1z\x14\xae\xc72@\xcd\xcc\xcc\xcc\xcc\xcc2@'
p727
tp728
bag482
(g473
(I0
tp729
g484
tp730
Rp731
(I1
(I3
tp732
g490
I00
S'\x00\x00\x00\x00\x00\x804@\xb8\x1e\x85\xebQx4@H\xe1z\x14\xaeG4@'
p733
tp734
bag482
(g473
(I0
tp735
g484
tp736
Rp737
(I1
(I3
tp738
g490
I00
S'\xcd\xcc\xcc\xcc\xcc\xcc8@\xb8\x1e\x85\xebQ\xf88@\xe1z\x14\xaeG\xa18@'
p739
tp740
bag482
(g473
(I0
tp741
g484
tp742
Rp743
(I1
(I3
tp744
g490
I00
S')\\\x8f\xc2\xf5\xe82@H\xe1z\x14\xae\xc72@\xcd\xcc\xcc\xcc\xcc\xcc2@'
p745
tp746
bag482
(g473
(I0
tp747
g484
tp748
Rp749
(I1
(I3
tp750
g490
I00
S'\x00\x00\x00\x00\x00\x804@\xb8\x1e\x85\xebQx4@H\xe1z\x14\xaeG4@'
p751
tp752
baNaNaNaNaNaNaNaNaNaNaNaNaNaNaNaNaNaNaNaNaNaNaNaNaNaNaNaNaNaNaNaNaNaNaNaNaNaNaNaNaNaNaNasg457
g0
(g458
g2
Ntp753
Rp754
(dp755
g462
Nsg618
g624
sg466
I00
sg467
I00
sg468
Nsbsg470
g0
(g471
g472
(g473
g474
tp756
tp757
Rp758
sg464
VGroupedCt
p759
sbag0
(g292
g2
Ntp760
Rp761
(dp762
g296
I00
sg297
g4
sg298
(lp763
g482
(g473
(I0
tp764
g484
tp765
Rp766
(I1
(I4
tp767
g490
I00
S'\x00\x00\x00\x00\x00\x007@fffff\xe66@\xcd\xcc\xcc\xcc\xcc\xcc6@\x00\x00\x00\x00\x00\x007@'
p768
tp769
bag482
(g473
(I0
tp770
g484
tp771
Rp772
(I1
(I3
tp773
g490
I00
S'3333332@3333332@ffffff2@'
p774
tp775
bag482
(g473
(I0
tp776
g484
tp777
Rp778
(I1
(I3
tp779
g490
I00
S'33333\xb33@\xcd\xcc\xcc\xcc\xcc\xcc3@\x00\x00\x00\x00\x00\x004@'
p780
tp781
bag482
(g473
(I0
tp782
g484
tp783
Rp784
(I1
(I3
tp785
g490
I00
S'33333\xb3:@\x9a\x99\x99\x99\x99\x19;@333333;@'
p786
tp787
bag482
(g473
(I0
tp788
g484
tp789
Rp790
(I1
(I3
tp791
g490
I00
S'\xcd\xcc\xcc\xcc\xcc\xcc:@33333\xb3:@333333:@'
p792
tp793
bag482
(g473
(I0
tp794
g484
tp795
Rp796
(I1
(I3
tp797
g490
I00
S'\x00\x00\x00\x00\x00\x00>@\x9a\x99\x99\x99\x99\x19>@ffffff=@'
p798
tp799
bag482
(g473
(I0
tp800
g484
tp801
Rp802
(I1
(I3
tp803
g490
I00
S'fffff\xe63@fffff\xe63@\x00\x00\x00\x00\x00\x004@'
p804
tp805
bag482
(g473
(I0
tp806
g484
tp807
Rp808
(I1
(I3
tp809
g490
I00
S'fffff\xe65@\x9a\x99\x99\x99\x99\x196@\xcd\xcc\xcc\xcc\xcc\xcc5@'
p810
tp811
bag482
(g473
(I0
tp812
g484
tp813
Rp814
(I1
(I3
tp815
g490
I00
S'fffff\xe67@\x00\x00\x00\x00\x00\x807@\xcd\xcc\xcc\xcc\xccL8@'
p816
tp817
bag482
(g473
(I0
tp818
g484
tp819
Rp820
(I1
(I3
tp821
g490
I00
S'3333336@33333\xb35@\xcd\xcc\xcc\xcc\xcc\xcc5@'
p822
tp823
bag482
(g473
(I0
tp824
g484
tp825
Rp826
(I1
(I3
tp827
g490
I00
S'fffff\xe67@ffffff7@\x9a\x99\x99\x99\x99\x997@'
p828
tp829
bag482
(g473
(I0
tp830
g484
tp831
Rp832
(I1
(I3
tp833
g490
I00
S'\x9a\x99\x99\x99\x99\x998@\x9a\x99\x99\x99\x99\x998@\xcd\xcc\xcc\xcc\xccL8@'
p834
tp835
bag482
(g473
(I0
tp836
g484
tp837
Rp838
(I1
(I3
tp839
g490
I00
S'fffff\xe6=@ffffff>@fffff\xe6=@'
p840
tp841
bag482
(g473
(I0
tp842
g484
tp843
Rp844
(I1
(I3
tp845
g490
I00
S'3333337@\xcd\xcc\xcc\xcc\xcc\xcc7@\x00\x00\x00\x00\x00\x807@'
p846
tp847
bag482
(g473
(I0
tp848
g484
tp849
Rp850
(I1
(I3
tp851
g490
I00
S'ffffff:@ffffff:@333333:@'
p852
tp853
bag482
(g473
(I0
tp854
g484
tp855
Rp856
(I1
(I3
tp857
g490
I00
S'\xcd\xcc\xcc\xcc\xcc\xcc8@\x00\x00\x00\x00\x00\x009@\x9a\x99\x99\x99\x99\x998@'
p858
tp859
bag482
(g473
(I0
tp860
g484
tp861
Rp862
(I1
(I3
tp863
g490
I00
S'fffff\xe62@\xcd\xcc\xcc\xcc\xcc\xcc2@\xcd\xcc\xcc\xcc\xcc\xcc2@'
p864
tp865
bag482
(g473
(I0
tp866
g484
tp867
Rp868
(I1
(I3
tp869
g490
I00
S'\x00\x00\x00\x00\x00\x804@\x00\x00\x00\x00\x00\x804@\xcd\xcc\xcc\xcc\xccL4@'
p870
tp871
bag482
(g473
(I0
tp872
g484
tp873
Rp874
(I1
(I3
tp875
g490
I00
S'\xcd\xcc\xcc\xcc\xcc\xcc8@\x00\x00\x00\x00\x00\x009@\x9a\x99\x99\x99\x99\x998@'
p876
tp877
bag482
(g473
(I0
tp878
g484
tp879
Rp880
(I1
(I3
tp881
g490
I00
S'fffff\xe62@\xcd\xcc\xcc\xcc\xcc\xcc2@\xcd\xcc\xcc\xcc\xcc\xcc2@'
p882
tp883
bag482
(g473
(I0
tp884
g484
tp885
Rp886
(I1
(I3
tp887
g490
I00
S'\x00\x00\x00\x00\x00\x804@\x00\x00\x00\x00\x00\x804@\xcd\xcc\xcc\xcc\xccL4@'
p888
tp889
baNaNaNaNaNaNaNaNaNaNaNaNaNaNaNaNaNaNaNaNaNaNaNaNaNaNaNaNaNaNaNaNaNaNaNaNaNaNaNaNaNaNaNasg457
g0
(g458
g2
Ntp890
Rp891
(dp892
g462
Vlength = len(Groups)\u000aStdFilteredGroupedCt = roundValues([filterExtremes(g, max_std, 2) for g in pruneNulls(GroupedCt,    required_length=length)])\u000a 
p893
sg464
VStdFilteredGroupedCt
p894
sg466
I00
sg467
I00
sg468
Vlength = len(Groups)\u000aStdFilteredGroupedCt = roundValues([filterExtremes(g, max_std, 2) for g in pruneNulls(GroupedCt,    required_length=length)])\u000a 
p895
sbsg470
g0
(g471
g472
(g473
g474
tp896
tp897
Rp898
sg464
g894
sbag0
(g292
g2
Ntp899
Rp900
(dp901
g296
I00
sg297
g4
sg298
(lp902
F22.9
aF18.3
aF19.8
aF27.0
aF26.6
aF29.8
aF19.9
aF21.9
aF23.9
aF21.9
aF23.6
aF24.5
aF30.1
aF23.5
aF26.3
aF24.8
aF18.8
aF20.4
aF24.8
aF18.8
aF20.4
aFnan
aFnan
aFnan
aFnan
aFnan
aFnan
aFnan
aFnan
aFnan
aFnan
aFnan
aFnan
aFnan
aFnan
aFnan
aFnan
aFnan
aFnan
aFnan
aFnan
aFnan
aFnan
aFnan
aFnan
aFnan
aFnan
aFnan
aFnan
aFnan
aFnan
aFnan
aFnan
aFnan
aFnan
aFnan
aFnan
aFnan
aFnan
aFnan
aFnan
aFnan
aFnan
aFnan
asg457
g0
(g458
g2
Ntp903
Rp904
(dp905
g462
VMeanCt = [np.mean(g) for g in StdFilteredGroupedCt]\u000aMeanCt = roundValues(MeanCt,1)\u000aStdCt = [np.std(g, ddof=1) for g in StdFilteredGroupedCt]\u000aStdCt = roundValues(StdCt,3)
p906
sg464
VMeanCt
p907
sg466
I00
sg467
I00
sg468
VMeanCt = [np.mean(g) for g in StdFilteredGroupedCt]\u000aMeanCt = roundValues(MeanCt,1)\u000aStdCt = [np.std(g, ddof=1) for g in StdFilteredGroupedCt]\u000aStdCt = roundValues(StdCt,3)
p908
sbsg470
g0
(g471
g472
(g473
g474
tp909
tp910
Rp911
sg464
g907
sbag0
(g292
g2
Ntp912
Rp913
(dp914
g296
I00
sg297
g4
sg298
(lp915
F0.096
aF0.115
aF0.153
aF0.265
aF0.321
aF0.379
aF0.058
aF0.153
aF0.4
aF0.265
aF0.252
aF0.173
aF0.289
aF0.3
aF0.115
aF0.2
aF0.058
aF0.115
aF0.2
aF0.058
aF0.115
aFnan
aFnan
aFnan
aFnan
aFnan
aFnan
aFnan
aFnan
aFnan
aFnan
aFnan
aFnan
aFnan
aFnan
aFnan
aFnan
aFnan
aFnan
aFnan
aFnan
aFnan
aFnan
aFnan
aFnan
aFnan
aFnan
aFnan
aFnan
aFnan
aFnan
aFnan
aFnan
aFnan
aFnan
aFnan
aFnan
aFnan
aFnan
aFnan
aFnan
aFnan
aFnan
aFnan
asg457
g0
(g458
g2
Ntp916
Rp917
(dp918
g462
Nsg618
g913
sg466
I00
sg467
I00
sg468
Nsbsg470
g0
(g471
g472
(g473
g474
tp919
tp920
Rp921
sg464
VStdCt
p922
sbag0
(g292
g2
Ntp923
Rp924
(dp925
g296
I00
sg297
g4
sg298
(lp926
(lp927
g301
(g305
S'\x00\x00\x00\x00\x00\x00\x00\x00'
p928
tp929
Rp930
ag301
(g305
S'\x01\x00\x00\x00\x00\x00\x00\x00'
p931
tp932
Rp933
aa(lp934
g301
(g305
S'\x01\x00\x00\x00\x00\x00\x00\x00'
p935
tp936
Rp937
ag301
(g305
S'\x01\x00\x00\x00\x00\x00\x00\x00'
p938
tp939
Rp940
aa(lp941
g301
(g305
S'\x01\x00\x00\x00\x00\x00\x00\x00'
p942
tp943
Rp944
ag301
(g305
S'\x02\x00\x00\x00\x00\x00\x00\x00'
p945
tp946
Rp947
aa(lp948
g301
(g305
S'\x01\x00\x00\x00\x00\x00\x00\x00'
p949
tp950
Rp951
ag301
(g305
S'\x03\x00\x00\x00\x00\x00\x00\x00'
p952
tp953
Rp954
aa(lp955
g301
(g305
S'\x02\x00\x00\x00\x00\x00\x00\x00'
p956
tp957
Rp958
ag301
(g305
S'\x01\x00\x00\x00\x00\x00\x00\x00'
p959
tp960
Rp961
aa(lp962
g301
(g305
S'\x03\x00\x00\x00\x00\x00\x00\x00'
p963
tp964
Rp965
ag301
(g305
S'\x01\x00\x00\x00\x00\x00\x00\x00'
p966
tp967
Rp968
aa(lp969
g301
(g305
S'\x04\x00\x00\x00\x00\x00\x00\x00'
p970
tp971
Rp972
ag301
(g305
S'\x01\x00\x00\x00\x00\x00\x00\x00'
p973
tp974
Rp975
aaNaNaNaNaNaNaNaNaNaNaNaNaNaNaNaNaNaNaNaNaNaNaNaNaNaNaNaNaNaNaNaNaNaNaNaNaNaNaNaNaNaNaNaNaNaNaNaNaNaNaNaNaNaNaNaNaNasg457
g0
(g458
g2
Ntp976
Rp977
(dp978
g462
Vdummy = tabularize(s, 'Groups', 1, 'MeanCt', \u000a          new_category_colnm='BioRuns',\u000a          values_colnm_prefix='Gene_')
p979
sg464
VBioRuns
p980
sg466
I00
sg467
I00
sg468
Vdummy = tabularize(s, 'Groups', 1, 'MeanCt', \u000a          new_category_colnm='BioRuns',\u000a          values_colnm_prefix='Gene_')
p981
sbsg470
g0
(g471
g472
(g473
g474
tp982
tp983
Rp984
sg464
g980
sbag0
(g292
g2
Ntp985
Rp986
(dp987
g296
I00
sg297
g4
sg298
(lp988
F22.9
aF27.0
aF26.6
aF29.8
aF30.1
aF24.8
aF24.8
aFnan
aFnan
aFnan
aFnan
aFnan
aFnan
aFnan
aFnan
aFnan
aFnan
aFnan
aFnan
aFnan
aFnan
aFnan
aFnan
aFnan
aFnan
aFnan
aFnan
aFnan
aFnan
aFnan
aFnan
aFnan
aFnan
aFnan
aFnan
aFnan
aFnan
aFnan
aFnan
aFnan
aFnan
aFnan
aFnan
aFnan
aFnan
aFnan
aFnan
aFnan
aFnan
aFnan
aFnan
aFnan
aFnan
aFnan
aFnan
aFnan
aFnan
aFnan
aFnan
aFnan
aFnan
aFnan
aFnan
aFnan
asg457
g0
(g458
g2
Ntp989
Rp990
(dp991
g462
Nsg618
g986
sg466
I00
sg467
I00
sg468
Nsbsg470
g0
(g471
g472
(g473
g474
tp992
tp993
Rp994
sg464
S'Gene_I'
p995
sbag0
(g292
g2
Ntp996
Rp997
(dp998
g296
I00
sg297
g4
sg298
(lp999
F18.3
aF19.9
aF21.9
aF23.9
aF23.5
aF18.8
aF18.8
aFnan
aFnan
aFnan
aFnan
aFnan
aFnan
aFnan
aFnan
aFnan
aFnan
aFnan
aFnan
aFnan
aFnan
aFnan
aFnan
aFnan
aFnan
aFnan
aFnan
aFnan
aFnan
aFnan
aFnan
aFnan
aFnan
aFnan
aFnan
aFnan
aFnan
aFnan
aFnan
aFnan
aFnan
aFnan
aFnan
aFnan
aFnan
aFnan
aFnan
aFnan
aFnan
aFnan
aFnan
aFnan
aFnan
aFnan
aFnan
aFnan
aFnan
aFnan
aFnan
aFnan
aFnan
aFnan
aFnan
aFnan
asg457
g0
(g458
g2
Ntp1000
Rp1001
(dp1002
g462
Nsg618
g997
sg466
I00
sg467
I00
sg468
Nsbsg470
g994
sg464
S'Gene_R1'
p1003
sbag0
(g292
g2
Ntp1004
Rp1005
(dp1006
g296
I00
sg297
g4
sg298
(lp1007
F19.8
aF21.9
aF23.6
aF24.5
aF26.3
aF20.4
aF20.4
aFnan
aFnan
aFnan
aFnan
aFnan
aFnan
aFnan
aFnan
aFnan
aFnan
aFnan
aFnan
aFnan
aFnan
aFnan
aFnan
aFnan
aFnan
aFnan
aFnan
aFnan
aFnan
aFnan
aFnan
aFnan
aFnan
aFnan
aFnan
aFnan
aFnan
aFnan
aFnan
aFnan
aFnan
aFnan
aFnan
aFnan
aFnan
aFnan
aFnan
aFnan
aFnan
aFnan
aFnan
aFnan
aFnan
aFnan
aFnan
aFnan
aFnan
aFnan
aFnan
aFnan
aFnan
aFnan
aFnan
aFnan
asg457
g0
(g458
g2
Ntp1008
Rp1009
(dp1010
g462
Nsg618
g1005
sg466
I00
sg467
I00
sg468
Nsbsg470
g994
sg464
S'Gene_R2'
p1011
sbag0
(g292
g2
Ntp1012
Rp1013
(dp1014
g296
I00
sg297
g4
sg298
(lp1015
F0.04123
aF0.00729
aF0.03847
aF0.01675
aF0.01031
aF0.01563
aF0.01563
aFnan
aFnan
aFnan
aFnan
aFnan
aFnan
aFnan
aFnan
aFnan
aFnan
aFnan
aFnan
aFnan
aFnan
aFnan
aFnan
aFnan
aFnan
aFnan
aFnan
aFnan
aFnan
aFnan
aFnan
aFnan
aFnan
aFnan
aFnan
aFnan
aFnan
aFnan
aFnan
aFnan
aFnan
aFnan
aFnan
aFnan
aFnan
aFnan
aFnan
aFnan
aFnan
aFnan
aFnan
aFnan
aFnan
aFnan
aFnan
aFnan
aFnan
aFnan
aFnan
aFnan
aFnan
aFnan
aFnan
aFnan
asg457
g0
(g458
g2
Ntp1016
Rp1017
(dp1018
g462
VExprR1 = roundValues(2**(Gene_R1 - Gene_I),5)
p1019
sg464
VExprR1
p1020
sg466
I01
sg467
I00
sg468
VroundValues(2**(Gene_R1 - Gene_I),5)
p1021
sbsg470
g0
(g471
g472
(g473
g474
tp1022
tp1023
Rp1024
sg464
g1020
sbag0
(g292
g2
Ntp1025
Rp1026
(dp1027
g296
I00
sg297
g4
sg298
(lp1028
F0.11663
aF0.02916
aF0.125
aF0.02538
aF0.07179
aF0.04737
aF0.04737
aFnan
aFnan
aFnan
aFnan
aFnan
aFnan
aFnan
aFnan
aFnan
aFnan
aFnan
aFnan
aFnan
aFnan
aFnan
aFnan
aFnan
aFnan
aFnan
aFnan
aFnan
aFnan
aFnan
aFnan
aFnan
aFnan
aFnan
aFnan
aFnan
aFnan
aFnan
aFnan
aFnan
aFnan
aFnan
aFnan
aFnan
aFnan
aFnan
aFnan
aFnan
aFnan
aFnan
aFnan
aFnan
aFnan
aFnan
aFnan
aFnan
aFnan
aFnan
aFnan
aFnan
aFnan
aFnan
aFnan
aFnan
asg457
g0
(g458
g2
Ntp1029
Rp1030
(dp1031
g462
VExprR2 = roundValues(2**(Gene_R2 - Gene_I),5)
p1032
sg464
VExprR2
p1033
sg466
I01
sg467
I00
sg468
VroundValues(2**(Gene_R2 - Gene_I),5)
p1034
sbsg470
g0
(g471
g472
(g473
g474
tp1035
tp1036
Rp1037
sg464
g1033
sbag0
(g292
g2
Ntp1038
Rp1039
(dp1040
g296
I00
sg297
g4
sg298
(lp1041
F0.069
aF0.015
aF0.069
aF0.021
aF0.027
aF0.027
aF0.027
aFnan
aFnan
aFnan
aFnan
aFnan
aFnan
aFnan
aFnan
aFnan
aFnan
aFnan
aFnan
aFnan
aFnan
aFnan
aFnan
aFnan
aFnan
aFnan
aFnan
aFnan
aFnan
aFnan
aFnan
aFnan
aFnan
aFnan
aFnan
aFnan
aFnan
aFnan
aFnan
aFnan
aFnan
aFnan
aFnan
aFnan
aFnan
aFnan
aFnan
aFnan
aFnan
aFnan
aFnan
aFnan
aFnan
aFnan
aFnan
aFnan
aFnan
aFnan
aFnan
aFnan
aFnan
aFnan
aFnan
aFnan
asg457
g0
(g458
g2
Ntp1042
Rp1043
(dp1044
g462
VGeoMean = roundValues(np.sqrt(ExprR1*ExprR2), 3)
p1045
sg464
VGeoMean
p1046
sg466
I01
sg467
I00
sg468
VroundValues(np.sqrt(ExprR1*ExprR2), 3)
p1047
sbsg470
g0
(g471
g472
(g473
g474
tp1048
tp1049
Rp1050
sg464
g1046
sbag0
(g292
g2
Ntp1051
Rp1052
(dp1053
g296
I00
sg297
g4
sg298
(lp1054
I1
aI1
aI1
aI1
aI1
aI1
aI1
aI1
aI1
aI1
aI1
aI1
aI1
aI2
aI2
aI2
aI3
aI3
aI3
aI1
aI1
aI1
aI2
aI2
aI2
aI3
aI3
aI3
aI1
aI1
aI1
aI2
aI2
aI2
aI3
aI3
aI3
aI1
aI1
aI1
aI1
aI1
aI1
aI1
aI1
aI1
aI1
aI1
aI1
aI1
aI1
aI1
aI1
aI1
aI1
aI1
aI1
aI1
aI1
aI1
aI1
aI1
aI1
aI1
asg457
g0
(g458
g2
Ntp1055
Rp1056
(dp1057
g462
Nsg464
S'BRpl'
p1058
sg466
I00
sg467
I00
sg468
Nsbsg470
g0
(g471
g472
(g473
g474
tp1059
tp1060
Rp1061
sg464
g1058
sbag0
(g292
g2
Ntp1062
Rp1063
(dp1064
g296
I00
sg297
g4
sg298
(lp1065
F23.0
aF22.86
aF22.8
aF23.0
aF18.24
aF18.22
aF18.36
aF19.72
aF19.75
aF20.01
aF26.68
aF27.13
aF27.21
aF26.76
aF26.71
aF26.19
aF29.98
aF30.12
aF29.41
aF19.92
aF19.85
aF20.0
aF21.86
aF22.09
aF21.84
aF23.89
aF23.54
aF24.27
aF22.18
aF21.71
aF21.75
aF23.88
aF23.42
aF23.63
aF24.59
aF24.61
aF24.34
aF29.95
aF30.45
aF29.88
aF23.22
aF23.8
aF23.49
aF26.37
aF26.36
aF26.17
aF24.8
aF24.97
aF24.63
aF18.91
aF18.78
aF18.8
aF20.5
aF20.47
aF20.28
aF24.8
aF24.97
aF24.63
aF18.91
aF18.78
aF18.8
aF20.5
aF20.47
aF20.28
asg457
g0
(g458
g2
Ntp1066
Rp1067
(dp1068
g462
Nsg464
S'Ct'
p1069
sg466
I00
sg467
I00
sg468
Nsbsg470
g1061
sg464
g1069
sbag0
(g292
g2
Ntp1070
Rp1071
(dp1072
g296
I00
sg297
g4
sg298
(lp1073
F0.8371
aF0.891
aF0.8956
aF0.8671
aF0.8266
aF0.8343
aF0.8496
aF0.8157
aF0.8543
aF0.8208
aF0.9399
aF0.8296
aF0.8361
aF0.8039
aF0.8399
aF0.7935
aF0.8264
aF0.7974
aF0.8252
aF0.9179
aF0.9783
aF0.8971
aF0.8957
aF0.8287
aF0.8387
aF0.8746
aF0.8493
aF0.8349
aF0.7857
aF0.8427
aF0.8637
aF0.8281
aF0.8203
aF0.8288
aF0.8138
aF0.8242
aF0.804
aF0.8418
aF0.7959
aF0.8071
aF0.7701
aF0.8746
aF0.8139
aF0.7795
aF0.7676
aF0.7947
aF0.8513
aF0.8485
aF0.8401
aF0.8715
aF0.8977
aF0.856
aF0.8179
aF0.8173
aF0.7894
aF0.8513
aF0.8485
aF0.8401
aF0.8715
aF0.8977
aF0.856
aF0.8179
aF0.8173
aF0.7894
asg457
g0
(g458
g2
Ntp1074
Rp1075
(dp1076
g462
Nsg464
S'Eff'
p1077
sg466
I00
sg467
I00
sg468
Nsbsg470
g1061
sg464
g1077
sbag0
(g292
g2
Ntp1078
Rp1079
(dp1080
g296
I00
sg297
g4
sg298
(lp1081
g311
ag311
ag311
ag311
aVR1
p1082
aVR1
p1083
aVR1
p1084
aVR2
p1085
aVR2
p1086
aVR2
p1087
ag311
ag311
ag311
ag311
ag311
ag311
ag311
ag311
ag311
aVR1
p1088
aVR1
p1089
aVR1
p1090
aVR1
p1091
aVR1
p1092
aVR1
p1093
aVR1
p1094
aVR1
p1095
aVR1
p1096
aVR2
p1097
aVR2
p1098
aVR2
p1099
aVR2
p1100
aVR2
p1101
aVR2
p1102
aVR2
p1103
aVR2
p1104
aVR2
p1105
ag311
ag311
ag311
aVR1
p1106
aVR1
p1107
aVR1
p1108
aVR2
p1109
aVR2
p1110
aVR2
p1111
ag311
ag311
ag311
aVR1
p1112
aVR1
p1113
aVR1
p1114
aVR2
p1115
aVR2
p1116
aVR2
p1117
ag311
ag311
ag311
aVR1
p1118
aVR1
p1119
aVR1
p1120
aVR2
p1121
aVR2
p1122
aVR2
p1123
asg457
g0
(g458
g2
Ntp1124
Rp1125
(dp1126
g462
Nsg464
S'RunType'
p1127
sg466
I00
sg467
I00
sg468
Nsbsg470
g1061
sg464
g1127
sbag0
(g292
g2
Ntp1128
Rp1129
(dp1130
g296
I00
sg297
g4
sg298
(lp1131
Va
p1132
aVb
p1133
aVc
p1134
aVd
p1135
ag1132
ag1133
ag1134
ag1132
ag1133
ag1134
ag1132
ag1133
ag1134
ag1132
ag1133
ag1134
ag1132
ag1133
ag1134
ag1132
ag1133
ag1134
ag1132
ag1133
ag1134
ag1132
ag1133
ag1134
ag1132
ag1133
ag1134
ag1132
ag1133
ag1134
ag1132
ag1133
ag1134
ag1132
ag1133
ag1134
ag1132
ag1133
ag1134
ag1132
ag1133
ag1134
ag1132
ag1133
ag1134
ag1132
ag1133
ag1134
ag1132
ag1133
ag1134
ag1132
ag1133
ag1134
ag1132
ag1133
ag1134
ag1132
ag1133
ag1134
asg457
g0
(g458
g2
Ntp1136
Rp1137
(dp1138
g462
Nsg464
S'TRpl'
p1139
sg466
I00
sg467
I00
sg468
Nsbsg470
g1061
sg464
g1139
sbag0
(g292
g2
Ntp1140
Rp1141
(dp1142
g296
I00
sg297
g4
sg298
(lp1143
I0
aI0
aI0
aI0
aI0
aI0
aI0
aI0
aI0
aI0
aI1
aI1
aI1
aI1
aI1
aI1
aI1
aI1
aI1
aI1
aI1
aI1
aI1
aI1
aI1
aI1
aI1
aI1
aI1
aI1
aI1
aI1
aI1
aI1
aI1
aI1
aI1
aI2
aI2
aI2
aI2
aI2
aI2
aI2
aI2
aI2
aI3
aI3
aI3
aI3
aI3
aI3
aI3
aI3
aI3
aI4
aI4
aI4
aI4
aI4
aI4
aI4
aI4
aI4
asg457
g0
(g458
g2
Ntp1144
Rp1145
(dp1146
g462
Nsg464
S'Treatment'
p1147
sg466
I00
sg467
I00
sg468
Nsbsg470
g1061
sg464
g1147
sbasS'_is_evaluate_formulas'
p1148
I01
sS'_prologue'
p1149
g0
(g458
g2
Ntp1150
Rp1151
(dp1152
g462
V# Prologue\u000aimport math as mt\u000aimport numpy as np\u000afrom os import listdir\u000afrom os.path import isfile, join\u000aimport pandas as pd\u000aimport scipy as sp\u000afrom numpy import nan  # Must follow sympy import \u000a\u000axlsx_path = '/mnt/hgfs/josephhellerstein/home/Technical/SciSheets/CaseStudies/Kristen/workbooks/data.xlsx'\u000agene = ParmValues[0]\u000arun = ParmValues[1] == 'True'\u000ashow_raw = ParmValues[2] == 'True'\u000ashow_block1 = ParmValues[3] == 'True'\u000ashow_block2 = ParmValues[4] == 'True'\u000ashow_block3 = ParmValues[5] == 'True'\u000ashow_params = ParmValues[8] == 'True'\u000a#show_params = True\u000amax_std  = float(ParmValues[6])\u000amin_eff = float(ParmValues[7])\u000aworksheet = gene + "-I"\u000as.getTable().setIsEvaluateFormulas(run)\u000as.setColumnVisibility()\u000as.setColumnVisibility(['Groups', 'GroupedEff', 'GroupedCt', 'StdFilteredGroupedCt', 'MeanCt', 'StdCt'], is_visible=show_block1)\u000as.setColumnVisibility(['BioRuns', 'Gene_I', 'Gene_R1', 'Gene_R2', 'ExprR1', 'ExprR2', 'GeoMean'], is_visible=show_block2)\u000as.setColumnVisibility(['GeoGroups', 'GroupedGeoMeans', 'NrmlGeoGroupedMeans', 'MeanNrmlGeoGroups', 'StdNrmlGeoGroups'], is_visible=show_block3)\u000aif False:\u000a  Groups = []\u000a  GroupedCt = []\u000a  GroupedEff = []\u000a  MeanCt = []\u000a  Imp = []\u000a  s.deleteColumn('Ct')\u000a  s.deleteColumn('RunType')\u000a  s.deleteColumn('BRpl')\u000a  s.deleteColumn('TRpl')\u000a  s.deleteColumn('Treatment')\u000a  s.deleteColumn('Eff')\u000aif run:\u000a  importExcelToTable(s, xlsx_path, worksheet=worksheet,\u000a      column_position='ParmValues',\u000a      names=['Treatment', 'RunType', 'BRpl', 'TRpl', 'Eff', 'Ct'])\u000as.setColumnVisibility(['BRpl', 'Ct', 'Eff', 'RunType', 'TRpl', 'Treatment'], is_visible=show_raw)\u000as.setColumnVisibility(['ParmNames', 'ParmValues'], show_params)
p1153
sg464
VSingleGene
p1154
sg466
I00
sg467
I00
sg468
V# Prologue\u000aimport math as mt\u000aimport numpy as np\u000afrom os import listdir\u000afrom os.path import isfile, join\u000aimport pandas as pd\u000aimport scipy as sp\u000afrom numpy import nan  # Must follow sympy import \u000a\u000axlsx_path = '/mnt/hgfs/josephhellerstein/home/Technical/SciSheets/CaseStudies/Kristen/workbooks/data.xlsx'\u000agene = ParmValues[0]\u000arun = ParmValues[1] == 'True'\u000ashow_raw = ParmValues[2] == 'True'\u000ashow_block1 = ParmValues[3] == 'True'\u000ashow_block2 = ParmValues[4] == 'True'\u000ashow_block3 = ParmValues[5] == 'True'\u000ashow_params = ParmValues[8] == 'True'\u000a#show_params = True\u000amax_std  = float(ParmValues[6])\u000amin_eff = float(ParmValues[7])\u000aworksheet = gene + "-I"\u000as.getTable().setIsEvaluateFormulas(run)\u000as.setColumnVisibility()\u000as.setColumnVisibility(['Groups', 'GroupedEff', 'GroupedCt', 'StdFilteredGroupedCt', 'MeanCt', 'StdCt'], is_visible=show_block1)\u000as.setColumnVisibility(['BioRuns', 'Gene_I', 'Gene_R1', 'Gene_R2', 'ExprR1', 'ExprR2', 'GeoMean'], is_visible=show_block2)\u000as.setColumnVisibility(['GeoGroups', 'GroupedGeoMeans', 'NrmlGeoGroupedMeans', 'MeanNrmlGeoGroups', 'StdNrmlGeoGroups'], is_visible=show_block3)\u000aif False:\u000a  Groups = []\u000a  GroupedCt = []\u000a  GroupedEff = []\u000a  MeanCt = []\u000a  Imp = []\u000a  s.deleteColumn('Ct')\u000a  s.deleteColumn('RunType')\u000a  s.deleteColumn('BRpl')\u000a  s.deleteColumn('TRpl')\u000a  s.deleteColumn('Treatment')\u000a  s.deleteColumn('Eff')\u000aif run:\u000a  importExcelToTable(s, xlsx_path, worksheet=worksheet,\u000a      column_position='ParmValues',\u000a      names=['Treatment', 'RunType', 'BRpl', 'TRpl', 'Eff', 'Ct'])\u000as.setColumnVisibility(['BRpl', 'Ct', 'Eff', 'RunType', 'TRpl', 'Treatment'], is_visible=show_raw)\u000as.setColumnVisibility(['ParmNames', 'ParmValues'], show_params)
p1155
sbsS'_epilogue'
p1156
g0
(g458
g2
Ntp1157
Rp1158
(dp1159
g462
V# Epilogue\u000aif run:\u000a  worksheet = "%s-O" % gene\u000a  exportTableToExcel(s, xlsx_path, worksheet=worksheet, columns=['GeoGroups', 'MeanNrmlGeoGroups', 'StdNrmlGeoGroups'])\u000a
p1160
sg464
g1154
sg466
I00
sg467
I00
sg468
V# Epilogue\u000aif run:\u000a  worksheet = "%s-O" % gene\u000a  exportTableToExcel(s, xlsx_path, worksheet=worksheet, columns=['GeoGroups', 'MeanNrmlGeoGroups', 'StdNrmlGeoGroups'])\u000a
p1161
sbsg464
g1154
sS'_columns'
p1162
(lp1163
g0
(g292
g2
Ntp1164
Rp1165
(dp1166
g296
I01
sg297
g4
sg298
(lp1167
S'1'
p1168
aS'2'
p1169
aS'3'
p1170
aS'4'
p1171
aS'5'
p1172
aS'6'
p1173
aS'7'
p1174
aS'8'
p1175
aS'9'
p1176
aS'10'
p1177
aS'11'
p1178
aS'12'
p1179
aS'13'
p1180
aS'14'
p1181
aS'15'
p1182
aS'16'
p1183
aS'17'
p1184
aS'18'
p1185
aS'19'
p1186
aS'20'
p1187
aS'21'
p1188
aS'22'
p1189
aS'23'
p1190
aS'24'
p1191
aS'25'
p1192
aS'26'
p1193
aS'27'
p1194
aS'28'
p1195
aS'29'
p1196
aS'30'
p1197
aS'31'
p1198
aS'32'
p1199
aS'33'
p1200
aS'34'
p1201
aS'35'
p1202
aS'36'
p1203
aS'37'
p1204
aS'38'
p1205
aS'39'
p1206
aS'40'
p1207
aS'41'
p1208
aS'42'
p1209
aS'43'
p1210
aS'44'
p1211
aS'45'
p1212
aS'46'
p1213
aS'47'
p1214
aS'48'
p1215
aS'49'
p1216
aS'50'
p1217
aS'51'
p1218
aS'52'
p1219
aS'53'
p1220
aS'54'
p1221
aS'55'
p1222
aS'56'
p1223
aS'57'
p1224
aS'58'
p1225
aS'59'
p1226
aS'60'
p1227
aS'61'
p1228
aS'62'
p1229
aS'63'
p1230
aS'64'
p1231
asg457
g0
(g458
g2
Ntp1232
Rp1233
(dp1234
g462
Nsg618
g1165
sg466
I00
sg467
I00
sg468
Nsbsg470
g0
(g471
g472
(g473
g474
tp1235
tp1236
Rp1237
sg464
S'row'
p1238
sbag0
(g292
g2
Ntp1239
Rp1240
(dp1241
g296
I00
sg297
g4
sg298
(lp1242
Vgene
p1243
aVrun
p1244
aVshow_raw
p1245
aVshow_block1
p1246
aVshow_block2
p1247
aVshow_block3
p1248
aVmax_std
p1249
aVmin_eff
p1250
aVshow_params
p1251
aVnan
p1252
aVnan
p1253
aVnan
p1254
aVnan
p1255
aVnan
p1256
aVnan
p1257
aVnan
p1258
aVnan
p1259
aVnan
p1260
aVnan
p1261
aVnan
p1262
aVnan
p1263
aVnan
p1264
aVnan
p1265
aVnan
p1266
aVnan
p1267
aVnan
p1268
aVnan
p1269
aVnan
p1270
aVnan
p1271
aVnan
p1272
aVnan
p1273
aVnan
p1274
aVnan
p1275
aVnan
p1276
aVnan
p1277
aVnan
p1278
aVnan
p1279
aVnan
p1280
aVnan
p1281
aVnan
p1282
aVnan
p1283
aVnan
p1284
aVnan
p1285
aVnan
p1286
aVnan
p1287
aVnan
p1288
aVnan
p1289
aVnan
p1290
aVnan
p1291
aVnan
p1292
aVnan
p1293
aVnan
p1294
aVnan
p1295
aVnan
p1296
aNaNaNaNaNaNaNaNaNaNasg457
g0
(g458
g2
Ntp1297
Rp1298
(dp1299
g462
Nsg618
g1240
sg466
I00
sg467
I00
sg468
Nsbsg470
g0
(g471
g472
(g473
g474
tp1300
tp1301
Rp1302
sg464
VParmNames
p1303
sbag0
(g292
g2
Ntp1304
Rp1305
(dp1306
g296
I00
sg297
g4
sg298
(lp1307
VGene1
p1308
aVTrue
p1309
aVFalse
p1310
aVFalse
p1311
aVFalse
p1312
aVTrue
p1313
aF0.5
aV0.7
p1314
aVTrue
p1315
aV
p1316
aVnan
p1317
aVnan
p1318
aVnan
p1319
aVnan
p1320
aVnan
p1321
aVnan
p1322
aVnan
p1323
aVnan
p1324
aVnan
p1325
aVnan
p1326
aVnan
p1327
aVnan
p1328
aVnan
p1329
aVnan
p1330
aVnan
p1331
aVnan
p1332
aVnan
p1333
aVnan
p1334
aVnan
p1335
aVnan
p1336
aVnan
p1337
aVnan
p1338
aVnan
p1339
aVnan
p1340
aVnan
p1341
aVnan
p1342
aVnan
p1343
aVnan
p1344
aVnan
p1345
aVnan
p1346
aVnan
p1347
aVnan
p1348
aVnan
p1349
aVnan
p1350
aVnan
p1351
aVnan
p1352
aVnan
p1353
aVnan
p1354
aVnan
p1355
aVnan
p1356
aVnan
p1357
aVnan
p1358
aVnan
p1359
aVnan
p1360
aNaNaNaNaNaNaNaNaNaNasg457
g0
(g458
g2
Ntp1361
Rp1362
(dp1363
g462
Nsg464
VParmValues
p1364
sg466
I00
sg467
I00
sg468
Nsbsg470
g0
(g471
g472
(g473
g474
tp1365
tp1366
Rp1367
sg464
g1364
sbag1141
ag1079
ag1052
ag1129
ag1071
ag1063
ag294
ag479
ag624
ag761
ag900
ag913
ag924
ag986
ag997
ag1005
ag1013
ag1026
ag1039
ag0
(g292
g2
Ntp1368
Rp1369
(dp1370
g296
I00
sg297
g4
sg298
(lp1371
(lp1372
g301
(g305
S'\x00\x00\x00\x00\x00\x00\x00\x00'
p1373
tp1374
Rp1375
aa(lp1376
g301
(g305
S'\x01\x00\x00\x00\x00\x00\x00\x00'
p1377
tp1378
Rp1379
aa(lp1380
g301
(g305
S'\x02\x00\x00\x00\x00\x00\x00\x00'
p1381
tp1382
Rp1383
aa(lp1384
g301
(g305
S'\x03\x00\x00\x00\x00\x00\x00\x00'
p1385
tp1386
Rp1387
aa(lp1388
g301
(g305
S'\x04\x00\x00\x00\x00\x00\x00\x00'
p1389
tp1390
Rp1391
aaNaNaNaNaNaNaNaNaNaNaNaNaNaNaNaNaNaNaNaNaNaNaNaNaNaNaNaNaNaNaNaNaNaNaNaNaNaNaNaNaNaNaNaNaNaNaNaNaNaNaNaNaNaNaNaNaNaNaNasg457
g0
(g458
g2
Ntp1392
Rp1393
(dp1394
g462
Vcat_vals = [br[0] for br in pruneNulls(BioRuns)]\u000aclean_geo = [x for x in GeoMean if x is not None]\u000aGeoGroups, groupedGeoMeans = groupBy(cat_vals, clean_geo)\u000aGroupedGeoMeans = roundValues(groupedGeoMeans, 3)\u000aGeoGroups = [[x] for x in GeoGroups]
p1395
sg464
VGeoGroups
p1396
sg466
I00
sg467
I00
sg468
Vcat_vals = [br[0] for br in pruneNulls(BioRuns)]\u000aclean_geo = [x for x in GeoMean if x is not None]\u000aGeoGroups, groupedGeoMeans = groupBy(cat_vals, clean_geo)\u000aGroupedGeoMeans = roundValues(groupedGeoMeans, 3)\u000aGeoGroups = [[x] for x in GeoGroups]
p1397
sbsg470
g0
(g471
g472
(g473
g474
tp1398
tp1399
Rp1400
sg464
g1396
sbag0
(g292
g2
Ntp1401
Rp1402
(dp1403
g296
I00
sg297
g4
sg298
(lp1404
g482
(g473
(I0
tp1405
g484
tp1406
Rp1407
(I1
(I1
tp1408
g490
I00
S'D\x8bl\xe7\xfb\xa9\xb1?'
p1409
tp1410
bag482
(g473
(I0
tp1411
g484
tp1412
Rp1413
(I1
(I3
tp1414
g490
I00
S'\xb8\x1e\x85\xebQ\xb8\x8e?D\x8bl\xe7\xfb\xa9\xb1?\x1b/\xdd$\x06\x81\x95?'
p1415
tp1416
bag482
(g473
(I0
tp1417
g484
tp1418
Rp1419
(I1
(I1
tp1420
g490
I00
S'\xd9\xce\xf7S\xe3\xa5\x9b?'
p1421
tp1422
bag482
(g473
(I0
tp1423
g484
tp1424
Rp1425
(I1
(I1
tp1426
g490
I00
S'\xd9\xce\xf7S\xe3\xa5\x9b?'
p1427
tp1428
bag482
(g473
(I0
tp1429
g484
tp1430
Rp1431
(I1
(I1
tp1432
g490
I00
S'\xd9\xce\xf7S\xe3\xa5\x9b?'
p1433
tp1434
baNaNaNaNaNaNaNaNaNaNaNaNaNaNaNaNaNaNaNaNaNaNaNaNaNaNaNaNaNaNaNaNaNaNaNaNaNaNaNaNaNaNaNaNaNaNaNaNaNaNaNaNaNaNaNaNaNaNaNasg457
g0
(g458
g2
Ntp1435
Rp1436
(dp1437
g462
Nsg618
g1402
sg466
I00
sg467
I00
sg468
Nsbsg470
g0
(g471
g472
(g473
g474
tp1438
tp1439
Rp1440
sg464
VGroupedGeoMeans
p1441
sbag0
(g292
g2
Ntp1442
Rp1443
(dp1444
g296
I00
sg297
g4
sg298
(lp1445
g482
(g473
(I0
tp1446
g484
tp1447
Rp1448
(I1
(I1
tp1449
g490
I00
S'\x00\x00\x00\x00\x00\x00\xf0?'
p1450
tp1451
bag482
(g473
(I0
tp1452
g484
tp1453
Rp1454
(I1
(I3
tp1455
g490
I00
S'-\xb2\x9d\xef\xa7\xc6\xcb?\x00\x00\x00\x00\x00\x00\xf0?\xdb\xf9~j\xbct\xd3?'
p1456
tp1457
bag482
(g473
(I0
tp1458
g484
tp1459
Rp1460
(I1
(I1
tp1461
g490
I00
S'\xa0\x1a/\xdd$\x06\xd9?'
p1462
tp1463
bag482
(g473
(I0
tp1464
g484
tp1465
Rp1466
(I1
(I1
tp1467
g490
I00
S'\xa0\x1a/\xdd$\x06\xd9?'
p1468
tp1469
bag482
(g473
(I0
tp1470
g484
tp1471
Rp1472
(I1
(I1
tp1473
g490
I00
S'\xa0\x1a/\xdd$\x06\xd9?'
p1474
tp1475
baNaNaNaNaNaNaNaNaNaNaNaNaNaNaNaNaNaNaNaNaNaNaNaNaNaNaNaNaNaNaNaNaNaNaNaNaNaNaNaNaNaNaNaNaNaNaNaNaNaNaNaNaNaNaNaNaNaNaNasg457
g0
(g458
g2
Ntp1476
Rp1477
(dp1478
g462
Vref = np.mean(GroupedGeoMeans[0])\u000aNrmlGeoGroupedMeans = [ [x/ref for x in g] for g in GroupedGeoMeans if g is not None]  \u000aNrmlGeoGroupedMeans = roundValues(NrmlGeoGroupedMeans, 3)
p1479
sg464
VNrmlGeoGroupedMeans
p1480
sg466
I00
sg467
I00
sg468
Vref = np.mean(GroupedGeoMeans[0])\u000aNrmlGeoGroupedMeans = [ [x/ref for x in g] for g in GroupedGeoMeans if g is not None]  \u000aNrmlGeoGroupedMeans = roundValues(NrmlGeoGroupedMeans, 3)
p1481
sbsg470
g0
(g471
g472
(g473
g474
tp1482
tp1483
Rp1484
sg464
g1480
sbag0
(g292
g2
Ntp1485
Rp1486
(dp1487
g296
I00
sg297
g4
sg298
(lp1488
F1.0
aF0.507
aF0.391
aF0.391
aF0.391
aFnan
aFnan
aFnan
aFnan
aFnan
aFnan
aFnan
aFnan
aFnan
aFnan
aFnan
aFnan
aFnan
aFnan
aFnan
aFnan
aFnan
aFnan
aFnan
aFnan
aFnan
aFnan
aFnan
aFnan
aFnan
aFnan
aFnan
aFnan
aFnan
aFnan
aFnan
aFnan
aFnan
aFnan
aFnan
aFnan
aFnan
aFnan
aFnan
aFnan
aFnan
aFnan
aFnan
aFnan
aFnan
aFnan
aFnan
aFnan
aFnan
aFnan
aFnan
aFnan
aFnan
aFnan
aFnan
aFnan
aFnan
aFnan
aFnan
asg457
g0
(g458
g2
Ntp1489
Rp1490
(dp1491
g462
VMeanNrmlGeoGroups = [round(np.mean(g), 3) for g in NrmlGeoGroupedMeans]
p1492
sg464
VMeanNrmlGeoGroups
p1493
sg466
I01
sg467
I00
sg468
V[round(np.mean(g), 3) for g in NrmlGeoGroupedMeans]
p1494
sbsg470
g0
(g471
g472
(g473
g474
tp1495
tp1496
Rp1497
sg464
g1493
sbag0
(g292
g2
Ntp1498
Rp1499
(dp1500
g296
I00
sg297
g4
sg298
(lp1501
Fnan
aF0.248
aFnan
aFnan
aFnan
aFnan
aFnan
aFnan
aFnan
aFnan
aFnan
aFnan
aFnan
aFnan
aFnan
aFnan
aFnan
aFnan
aFnan
aFnan
aFnan
aFnan
aFnan
aFnan
aFnan
aFnan
aFnan
aFnan
aFnan
aFnan
aFnan
aFnan
aFnan
aFnan
aFnan
aFnan
aFnan
aFnan
aFnan
aFnan
aFnan
aFnan
aFnan
aFnan
aFnan
aFnan
aFnan
aFnan
aFnan
aFnan
aFnan
aFnan
aFnan
aFnan
aFnan
aFnan
aFnan
aFnan
aFnan
aFnan
aFnan
aFnan
aFnan
aFnan
asg457
g0
(g458
g2
Ntp1502
Rp1503
(dp1504
g462
VStdNrmlGeoGroups = [round(np.std(g, ddof=1)/np.sqrt(len(g)), 3) for g in NrmlGeoGroupedMeans]\u000a
p1505
sg464
VStdNrmlGeoGroups
p1506
sg466
I01
sg467
I00
sg468
V[round(np.std(g, ddof=1)/np.sqrt(len(g)), 3) for g in NrmlGeoGroupedMeans]\u000a
p1507
sbsg470
g0
(g471
g472
(g473
g474
tp1508
tp1509
Rp1510
sg464
g1506
sbasg285
V/home/ubuntu/SciSheets/mysite/user/guest/tables/kristen_single_gene.pcl
p1511
sb.