ccopy_reg
_reconstructor
p0
(cscisheets.ui.dt_table
DTTable
p1
c__builtin__
object
p2
Ntp3
Rp4
(dp5
S'_versioned_file'
p6
g0
(cmysite.helpers.versioned_file
VersionedFile
p7
g2
Ntp8
Rp9
(dp10
S'_max_versions'
p11
I5
sS'_undo_stack'
p12
g0
(cmysite.helpers.file_stack
FileStack
p13
g2
Ntp14
Rp15
(dp16
S'_dirpath'
p17
S'/home/ubuntu/SciSheets/mysite/user/guest/tables/backup'
p18
sS'_max_depth'
p19
I5
sS'_filename_pfx'
p20
Vkristen_single_gene.u
p21
sbsS'_filepath'
p22
V/home/ubuntu/SciSheets/mysite/user/guest/tables/kristen_single_gene.pcl
p23
sS'_backup_dir'
p24
g18
sS'_redo_stack'
p25
g0
(g13
g2
Ntp26
Rp27
(dp28
g17
g18
sg19
I5
sg20
Vkristen_single_gene.r
p29
sbsbsS'_hidden_columns'
p30
(lp31
g0
(cscisheets.core.column
Column
p32
g2
Ntp33
Rp34
(dp35
S'_asis'
p36
I00
sS'_owning_table'
p37
g4
sS'_cells'
p38
(lp39
VSEP1 2012 P17F4 a
p40
aVSEP1 2012 P17F4 b
p41
aVSEP1 2012 P17F4 c
p42
aVSEP1 2012 P17F5 a
p43
aVSEP1 2012 P17F5 b
p44
aVSEP1 2012 P17F5 c
p45
aVSEP1 2012 P1F3 SEP1a
p46
aVSEP1 2012 P1F3 SEP1b
p47
aVSEP1 2012 P1F3 SEP1c
p48
aVSEP1-2 2012 P11aF2 a
p49
aVSEP1-2 2012 P11aF2 b
p50
aVSEP1-2 2012 P11aF2 c
p51
aVSEP1-3 2012 P15F2 a
p52
aVSEP1-3 2012 P15F2 b
p53
aVSEP1-3 2012 P15F2 c
p54
aVuntreated 2012 P12F1 SEP1 1:2a
p55
aVuntreated 2012 P12F1 SEP1 1:2b
p56
aVuntreated 2012 P12F1 SEP1 1:2c
p57
aVSEP1 2012 P17F4 ACTa
p58
aVSEP1 2012 P17F4 ACTb
p59
aVSEP1 2012 P17F4 ACTc
p60
aVSEP1 2012 P17F5 ACTa
p61
aVSEP1 2012 P17F5 ACTb
p62
aVSEP1 2012 P17F5 ACTc
p63
aVSEP1 2012 P1F3 ACTa
p64
aVSEP1 2012 P1F3 ACTb
p65
aVSEP1 2012 P1F3 ACTc
p66
aVSEP1-2 2012 P11aF2 ACTa
p67
aVSEP1-2 2012 P11aF2 ACTb
p68
aVSEP1-2 2012 P11aF2 ACTc
p69
aVSEP1-3 2012 P15F2 ACTa
p70
aVSEP1-3 2012 P15F2 ACTb
p71
aVSEP1-3 2012 P15F2 ACTc
p72
aVuntreated 2012 P12F1 ACTa
p73
aVuntreated 2012 P12F1 ACTb
p74
aVuntreated 2012 P12F1 ACTc
p75
aVSEP1 2012 P17F4 EEF1a
p76
aVSEP1 2012 P17F4 EEF1b
p77
aVSEP1 2012 P17F4 EEF1c
p78
aVSEP1 2012 P17F5 EEF1a
p79
aVSEP1 2012 P17F5 EEF1b
p80
aVSEP1 2012 P17F5 EEF1c
p81
aVSEP1 2012 P1F3 EEF1a
p82
aVSEP1 2012 P1F3 EEF1b
p83
aVSEP1 2012 P1F3 EEF1c
p84
aVSEP1-2 2012 P11aF2 EEF1a
p85
aVSEP1-2 2012 P11aF2 EEF1b
p86
aVSEP1-2 2012 P11aF2 EEF1c
p87
aVSEP1-3 2012 P15F2 EEF1a
p88
aVSEP1-3 2012 P15F2 EEF1b
p89
aVSEP1-3 2012 P15F2 EEF1c
p90
aVuntreated 2012 P12F1 EEF1a
p91
aVuntreated 2012 P12F1 EEF1b
p92
aVuntreated 2012 P12F1 EEF1c
p93
asS'_formula_statement'
p94
g0
(cscisheets.core.column
FormulaStatement
p95
g2
Ntp96
Rp97
(dp98
S'_statement'
p99
NsS'_column'
p100
g34
sS'_isExpression'
p101
I00
sS'_isStatement'
p102
I00
sS'_formula'
p103
NsbsS'_data_class'
p104
g0
(cscisheets.core.helpers.api_util
DataClass
p105
c__builtin__
tuple
p106
(cnumpy
ndarray
p107
cscisheets.core.helpers.api_util
makeArray
p108
tp109
tp110
Rp111
sS'_name'
p112
S'SmplName'
p113
sbag0
(g32
g2
Ntp114
Rp115
(dp116
g36
I00
sg37
g4
sg38
(lp117
I1
aI1
aI1
aI2
aI2
aI2
aI3
aI3
aI3
aI1
aI1
aI1
aI1
aI1
aI1
aI1
aI1
aI1
aI1
aI1
aI1
aI2
aI2
aI2
aI3
aI3
aI3
aI1
aI1
aI1
aI1
aI1
aI1
aI1
aI1
aI1
aI1
aI1
aI1
aI2
aI2
aI2
aI3
aI3
aI3
aI1
aI1
aI1
aI1
aI1
aI1
aI1
aI1
aI1
asg94
g0
(g95
g2
Ntp118
Rp119
(dp120
g99
Nsg100
g115
sg101
I00
sg102
I00
sg103
Nsbsg104
g111
sg112
S'BRpl'
p121
sbag0
(g32
g2
Ntp122
Rp123
(dp124
g36
I00
sg37
g4
sg38
(lp125
F22.42
aF22.5
aF22.44
aF21.92
aF22.03
aF21.94
aF23.4
aF23.47
aF23.41
aF23.48
aF23.31
aF23.45
aF18.82
aF18.97
aF18.92
aF18.31
aF18.29
aF18.15
aF19.92
aF19.85
aF20.0
aF21.86
aF22.09
aF21.84
aF23.89
aF23.54
aF24.27
aF23.22
aF23.8
aF23.49
aF18.91
aF18.78
aF18.8
aF18.24
aF18.22
aF18.36
aF22.18
aF21.71
aF21.75
aF23.88
aF23.42
aF23.63
aF24.59
aF24.61
aF24.34
aF26.37
aF26.36
aF26.17
aF20.5
aF20.47
aF20.28
aF19.72
aF19.75
aF20.01
asg94
g0
(g95
g2
Ntp126
Rp127
(dp128
g99
Nsg100
g123
sg101
I00
sg102
I00
sg103
Nsbsg104
g111
sg112
S'Ct'
p129
sbag0
(g32
g2
Ntp130
Rp131
(dp132
g36
I00
sg37
g4
sg38
(lp133
F0.8453
aF0.8426
aF0.8524
aF0.8658
aF0.7809
aF0.8512
aF0.8442
aF0.8357
aF0.7658
aF0.8352
aF0.7886
aF0.8105
aF0.876
aF0.8597
aF0.8873
aF0.919
aF0.9106
aF0.9129
aF0.9179
aF0.9783
aF0.8971
aF0.8957
aF0.8287
aF0.8387
aF0.8746
aF0.8493
aF0.8349
aF0.7701
aF0.8746
aF0.8139
aF0.8715
aF0.8977
aF0.856
aF0.8266
aF0.8343
aF0.8496
aF0.7857
aF0.8427
aF0.8637
aF0.8281
aF0.8203
aF0.8288
aF0.8138
aF0.8242
aF0.804
aF0.7795
aF0.7676
aF0.7947
aF0.8179
aF0.8173
aF0.7894
aF0.8157
aF0.8543
aF0.8208
asg94
g0
(g95
g2
Ntp134
Rp135
(dp136
g99
Nsg100
g131
sg101
I00
sg102
I00
sg103
Nsbsg104
g111
sg112
S'Eff'
p137
sbag0
(g32
g2
Ntp138
Rp139
(dp140
g36
I00
sg37
g4
sg38
(lp141
VI
p142
ag142
ag142
ag142
ag142
ag142
ag142
ag142
ag142
ag142
ag142
ag142
ag142
ag142
ag142
ag142
ag142
ag142
aVR1
p143
aVR1
p144
aVR1
p145
aVR1
p146
aVR1
p147
aVR1
p148
aVR1
p149
aVR1
p150
aVR1
p151
aVR1
p152
aVR1
p153
aVR1
p154
aVR1
p155
aVR1
p156
aVR1
p157
aVR1
p158
aVR1
p159
aVR1
p160
aVR2
p161
aVR2
p162
aVR2
p163
aVR2
p164
aVR2
p165
aVR2
p166
aVR2
p167
aVR2
p168
aVR2
p169
aVR2
p170
aVR2
p171
aVR2
p172
aVR2
p173
aVR2
p174
aVR2
p175
aVR2
p176
aVR2
p177
aVR2
p178
asg94
g0
(g95
g2
Ntp179
Rp180
(dp181
g99
Nsg100
g139
sg101
I00
sg102
I00
sg103
Nsbsg104
g111
sg112
S'RunType'
p182
sbag0
(g32
g2
Ntp183
Rp184
(dp185
g36
I00
sg37
g4
sg38
(lp186
Va
p187
aVb
p188
aVc
p189
ag187
ag188
ag189
ag187
ag188
ag189
ag187
ag188
ag189
ag187
ag188
ag189
ag187
ag188
ag189
ag187
ag188
ag189
ag187
ag188
ag189
ag187
ag188
ag189
ag187
ag188
ag189
ag187
ag188
ag189
ag187
ag188
ag189
ag187
ag188
ag189
ag187
ag188
ag189
ag187
ag188
ag189
ag187
ag188
ag189
ag187
ag188
ag189
ag187
ag188
ag189
asg94
g0
(g95
g2
Ntp190
Rp191
(dp192
g99
Nsg100
g184
sg101
I00
sg102
I00
sg103
Nsbsg104
g111
sg112
S'TRpl'
p193
sbag0
(g32
g2
Ntp194
Rp195
(dp196
g36
I00
sg37
g4
sg38
(lp197
I1
aI1
aI1
aI1
aI1
aI1
aI1
aI1
aI1
aI2
aI2
aI2
aI3
aI3
aI3
aI0
aI0
aI0
aI1
aI1
aI1
aI1
aI1
aI1
aI1
aI1
aI1
aI2
aI2
aI2
aI3
aI3
aI3
aI0
aI0
aI0
aI1
aI1
aI1
aI1
aI1
aI1
aI1
aI1
aI1
aI2
aI2
aI2
aI3
aI3
aI3
aI0
aI0
aI0
asg94
g0
(g95
g2
Ntp198
Rp199
(dp200
g99
Nsg100
g195
sg101
I00
sg102
I00
sg103
Nsbsg104
g111
sg112
S'Treatment'
p201
sbag0
(g32
g2
Ntp202
Rp203
(dp204
g36
I00
sg37
g4
sg38
(lp205
F0.0
aF1.0
aF2.0
aF3.0
aFnan
aFnan
aFnan
aFnan
aFnan
aFnan
aFnan
aFnan
aFnan
aFnan
aFnan
aFnan
aFnan
aFnan
aFnan
aFnan
aFnan
aFnan
aFnan
aFnan
aFnan
aFnan
aFnan
aFnan
aFnan
aFnan
aFnan
aFnan
aFnan
aFnan
aFnan
aFnan
aFnan
aFnan
aFnan
aFnan
aFnan
aFnan
aFnan
aFnan
aFnan
aFnan
aFnan
aFnan
aFnan
aFnan
aFnan
aFnan
aFnan
aFnan
asg94
g0
(g95
g2
Ntp206
Rp207
(dp208
g99
Vif run:\u000a  cat_vals = [br[0] for br in pruneNulls(BioRuns)]\u000a  clean_geo = pruneNulls(GeoMean, required_length=len(cat_vals))\u000a  GeoGroups, groupedGeoMeans = groupBy(cat_vals, clean_geo)\u000a  GroupedGeoMeans = roundValues(groupedGeoMeans, 3)\u000a  s.setColumnValues('GeoGroups', GeoGroups)\u000a  s.setColumnValues('GroupedGeoMeans', GroupedGeoMeans)
p209
sg100
g203
sg101
I00
sg102
I00
sg103
Vif run:\u000a  cat_vals = [br[0] for br in pruneNulls(BioRuns)]\u000a  clean_geo = pruneNulls(GeoMean, required_length=len(cat_vals))\u000a  GeoGroups, groupedGeoMeans = groupBy(cat_vals, clean_geo)\u000a  GroupedGeoMeans = roundValues(groupedGeoMeans, 3)\u000a  s.setColumnValues('GeoGroups', GeoGroups)\u000a  s.setColumnValues('GroupedGeoMeans', GroupedGeoMeans)
p210
sbsg104
g0
(g105
g106
(g107
g108
tp211
tp212
Rp213
sg112
VGeoGroups
p214
sbag0
(g32
g2
Ntp215
Rp216
(dp217
g36
I00
sg37
g4
sg38
(lp218
cnumpy.core.multiarray
_reconstruct
p219
(g107
(I0
tp220
S'b'
p221
tp222
Rp223
(I1
(I1
tp224
cnumpy
dtype
p225
(S'f8'
p226
I0
I1
tp227
Rp228
(I3
S'<'
p229
NNNI-1
I-1
I0
tp230
bI00
S'\xa2E\xb6\xf3\xfd\xd4\xfc?'
p231
tp232
bag219
(g107
(I0
tp233
g221
tp234
Rp235
(I1
(I3
tp236
g228
I00
S'\x0e-\xb2\x9d\xef\xa7\xd6?\x0c\x02+\x87\x16\xd9\xfc?B`\xe5\xd0"\xdb\xfb?'
p237
tp238
bag219
(g107
(I0
tp239
g221
tp240
Rp241
(I1
(I1
tp242
g228
I00
S'9\xb4\xc8v\xbe\x9f\x06@'
p243
tp244
bag219
(g107
(I0
tp245
g221
tp246
Rp247
(I1
(I1
tp248
g228
I00
S'\x00\x00\x00\x00\x00\x00\xfa?'
p249
tp250
baNaNaNaNaNaNaNaNaNaNaNaNaNaNaNaNaNaNaNaNaNaNaNaNaNaNaNaNaNaNaNaNaNaNaNaNaNaNaNaNaNaNaNaNaNaNaNaNaNaNasg94
g0
(g95
g2
Ntp251
Rp252
(dp253
g99
Nsg100
g216
sg101
I00
sg102
I00
sg103
Nsbsg104
g0
(g105
g106
(g107
g108
tp254
tp255
Rp256
sg112
VGroupedGeoMeans
p257
sbag0
(g32
g2
Ntp258
Rp259
(dp260
g36
I00
sg37
g4
sg38
(lp261
g219
(g107
(I0
tp262
g221
tp263
Rp264
(I1
(I1
tp265
g228
I00
S'\x00\x00\x00\x00\x00\x00\xf0?'
p266
tp267
bag219
(g107
(I0
tp268
g221
tp269
Rp270
(I1
(I3
tp271
g228
I00
S'J\x0c\x02+\x87\x16\xc9?j\xbct\x93\x18\x04\xf0?\xb6\xf3\xfd\xd4x\xe9\xee?'
p272
tp273
bag219
(g107
(I0
tp274
g221
tp275
Rp276
(I1
(I1
tp277
g228
I00
S'\xb4\xc8v\xbe\x9f\x1a\xf9?'
p278
tp279
bag219
(g107
(I0
tp280
g221
tp281
Rp282
(I1
(I1
tp283
g228
I00
S'w\xbe\x9f\x1a/\xdd\xec?'
p284
tp285
baNaNaNaNaNaNaNaNaNaNaNaNaNaNaNaNaNaNaNaNaNaNaNaNaNaNaNaNaNaNaNaNaNaNaNaNaNaNaNaNaNaNaNaNaNaNaNaNaNaNasg94
g0
(g95
g2
Ntp286
Rp287
(dp288
g99
Vif run:\u000a  ref = np.mean(GroupedGeoMeans[0])\u000a  NrmlGeoGroupedMeans = []\u000a  truncated_group = [g for g in GroupedGeoMeans if g is not None]\u000a  for g in truncated_group:\u000a    new_g = [x/ref for x in g]\u000a    NrmlGeoGroupedMeans.append(new_g)\u000a  NrmlGeoGroupedMeans = roundValues(NrmlGeoGroupedMeans, 3)
p289
sg100
g259
sg101
I00
sg102
I00
sg103
Vif run:\u000a  ref = np.mean(GroupedGeoMeans[0])\u000a  NrmlGeoGroupedMeans = []\u000a  truncated_group = [g for g in GroupedGeoMeans if g is not None]\u000a  for g in truncated_group:\u000a    new_g = [x/ref for x in g]\u000a    NrmlGeoGroupedMeans.append(new_g)\u000a  NrmlGeoGroupedMeans = roundValues(NrmlGeoGroupedMeans, 3)
p290
sbsg104
g0
(g105
g106
(g107
g108
tp291
tp292
Rp293
sg112
VNrmlGeoGroupedMeans
p294
sbag0
(g32
g2
Ntp295
Rp296
(dp297
g36
I00
sg37
g4
sg38
(lp298
F1.0
aF0.721
aF1.569
aF0.902
aFnan
aFnan
aFnan
aFnan
aFnan
aFnan
aFnan
aFnan
aFnan
aFnan
aFnan
aFnan
aFnan
aFnan
aFnan
aFnan
aFnan
aFnan
aFnan
aFnan
aFnan
aFnan
aFnan
aFnan
aFnan
aFnan
aFnan
aFnan
aFnan
aFnan
aFnan
aFnan
aFnan
aFnan
aFnan
aFnan
aFnan
aFnan
aFnan
aFnan
aFnan
aFnan
aFnan
aFnan
aFnan
aFnan
aFnan
aFnan
aFnan
aFnan
asg94
g0
(g95
g2
Ntp299
Rp300
(dp301
g99
Vif run:\u000a  MeanNrmlGeoGroups = [round(np.mean(g), 3) for g in NrmlGeoGroupedMeans]
p302
sg100
g296
sg101
I00
sg102
I00
sg103
Vif run:\u000a  MeanNrmlGeoGroups = [round(np.mean(g), 3) for g in NrmlGeoGroupedMeans]
p303
sbsg104
g0
(g105
g106
(g107
g108
tp304
tp305
Rp306
sg112
VMeanNrmlGeoGroups
p307
sbag0
(g32
g2
Ntp308
Rp309
(dp310
g36
I00
sg37
g4
sg38
(lp311
Fnan
aF0.455
aFnan
aFnan
aFnan
aFnan
aFnan
aFnan
aFnan
aFnan
aFnan
aFnan
aFnan
aFnan
aFnan
aFnan
aFnan
aFnan
aFnan
aFnan
aFnan
aFnan
aFnan
aFnan
aFnan
aFnan
aFnan
aFnan
aFnan
aFnan
aFnan
aFnan
aFnan
aFnan
aFnan
aFnan
aFnan
aFnan
aFnan
aFnan
aFnan
aFnan
aFnan
aFnan
aFnan
aFnan
aFnan
aFnan
aFnan
aFnan
aFnan
aFnan
aFnan
aFnan
asg94
g0
(g95
g2
Ntp312
Rp313
(dp314
g99
Vif run:\u000a  StdNrmlGeoGroups = [round(np.std(g, ddof=1), 3) for g in NrmlGeoGroupedMeans]\u000as.setColumnVisibility(['GeoGroups', 'GroupedGeoMeans', 'NrmlGeoGroupedMeans', 'MeanNrmlGeoGroups', 'StdNrmlGeoGroups'], is_visible=show_block3)\u000a#s.setColumnVisibility()
p315
sg100
g309
sg101
I00
sg102
I00
sg103
Vif run:\u000a  StdNrmlGeoGroups = [round(np.std(g, ddof=1), 3) for g in NrmlGeoGroupedMeans]\u000as.setColumnVisibility(['GeoGroups', 'GroupedGeoMeans', 'NrmlGeoGroupedMeans', 'MeanNrmlGeoGroups', 'StdNrmlGeoGroups'], is_visible=show_block3)\u000a#s.setColumnVisibility()
p316
sbsg104
g0
(g105
g106
(g107
g108
tp317
tp318
Rp319
sg112
VStdNrmlGeoGroups
p320
sbasS'_columns'
p321
(lp322
g0
(g32
g2
Ntp323
Rp324
(dp325
g36
I01
sg37
g4
sg38
(lp326
S'1'
p327
aS'2'
p328
aS'3'
p329
aS'4'
p330
aS'5'
p331
aS'6'
p332
aS'7'
p333
aS'8'
p334
aS'9'
p335
aS'10'
p336
aS'11'
p337
aS'12'
p338
aS'13'
p339
aS'14'
p340
aS'15'
p341
aS'16'
p342
aS'17'
p343
aS'18'
p344
aS'19'
p345
aS'20'
p346
aS'21'
p347
aS'22'
p348
aS'23'
p349
aS'24'
p350
aS'25'
p351
aS'26'
p352
aS'27'
p353
aS'28'
p354
aS'29'
p355
aS'30'
p356
aS'31'
p357
aS'32'
p358
aS'33'
p359
aS'34'
p360
aS'35'
p361
aS'36'
p362
aS'37'
p363
aS'38'
p364
aS'39'
p365
aS'40'
p366
aS'41'
p367
aS'42'
p368
aS'43'
p369
aS'44'
p370
aS'45'
p371
aS'46'
p372
aS'47'
p373
aS'48'
p374
aS'49'
p375
aS'50'
p376
aS'51'
p377
aS'52'
p378
aS'53'
p379
aS'54'
p380
asg94
g0
(g95
g2
Ntp381
Rp382
(dp383
g99
Nsg100
g324
sg101
I00
sg102
I00
sg103
Nsbsg104
g0
(g105
g106
(g107
g108
tp384
tp385
Rp386
sg112
S'row'
p387
sbag0
(g32
g2
Ntp388
Rp389
(dp390
g36
I00
sg37
g4
sg38
(lp391
Vgene
p392
aVrun
p393
aVshow_raw
p394
aVshow_block1
p395
aVshow_block2
p396
aVshow_block3
p397
aVmax_std
p398
aVmin_eff
p399
aVnan
p400
aVnan
p401
aVnan
p402
aVnan
p403
aVnan
p404
aVnan
p405
aVnan
p406
aVnan
p407
aVnan
p408
aVnan
p409
aVnan
p410
aVnan
p411
aVnan
p412
aVnan
p413
aVnan
p414
aVnan
p415
aVnan
p416
aVnan
p417
aVnan
p418
aVnan
p419
aVnan
p420
aVnan
p421
aVnan
p422
aVnan
p423
aVnan
p424
aVnan
p425
aVnan
p426
aVnan
p427
aVnan
p428
aVnan
p429
aVnan
p430
aVnan
p431
aVnan
p432
aVnan
p433
aVnan
p434
aVnan
p435
aVnan
p436
aVnan
p437
aVnan
p438
aVnan
p439
aVnan
p440
aVnan
p441
aVnan
p442
aVnan
p443
aVnan
p444
aVnan
p445
asg94
g0
(g95
g2
Ntp446
Rp447
(dp448
g99
Nsg100
g389
sg101
I00
sg102
I00
sg103
Nsbsg104
g0
(g105
g106
(g107
g108
tp449
tp450
Rp451
sg112
VParmNames
p452
sbag0
(g32
g2
Ntp453
Rp454
(dp455
g36
I00
sg37
g4
sg38
(lp456
VGene2
p457
aVTrue
p458
aVFalse
p459
aVTrue
p460
aVTrue
p461
aVFalse
p462
aV0.5
p463
aV0.7
p464
aV
p465
ag465
aVnan
p466
aVnan
p467
aVnan
p468
aVnan
p469
aVnan
p470
aVnan
p471
aVnan
p472
aVnan
p473
aVnan
p474
aVnan
p475
aVnan
p476
aVnan
p477
aVnan
p478
aVnan
p479
aVnan
p480
aVnan
p481
aVnan
p482
aVnan
p483
aVnan
p484
aVnan
p485
aVnan
p486
aVnan
p487
aVnan
p488
aVnan
p489
aVnan
p490
aVnan
p491
aVnan
p492
aVnan
p493
aVnan
p494
aVnan
p495
aVnan
p496
aVnan
p497
aVnan
p498
aVnan
p499
aVnan
p500
aVnan
p501
aVnan
p502
aVnan
p503
aVnan
p504
aVnan
p505
aVnan
p506
aVnan
p507
aVnan
p508
aVnan
p509
asg94
g0
(g95
g2
Ntp510
Rp511
(dp512
g99
Vxlsx_path = '/mnt/hgfs/josephhellerstein/home/Technical/SciSheets/CaseStudies/Kristen/workbooks/data.xlsx'\u000as.setColumnVisibility()\u000agene = ParmValues[0]\u000arun = ParmValues[1] == 'True'\u000ashow_raw = ParmValues[2] == 'True'\u000ashow_block1 = ParmValues[3] == 'True'\u000ashow_block2 = ParmValues[4] == 'True'\u000ashow_block3 = ParmValues[5] == 'True'\u000amax_std  = float(ParmValues[6])\u000amin_eff = float(ParmValues[7])\u000aworksheet = gene + "-I"\u000aif False:\u000a  Groups = []\u000a  GroupedCt = []\u000a  GroupedEff = []\u000a  MeanCt = []\u000a  Imp = []\u000a  s.deleteColumn('Ct')\u000a  s.deleteColumn('RunType')\u000a  s.deleteColumn('BRpl')\u000a  s.deleteColumn('TRpl')\u000a  s.deleteColumn('Treatment')\u000a  s.deleteColumn('SmplName')\u000a  s.deleteColumn('Eff')\u000aif run:\u000a  importExcelToTable(s, xlsx_path, worksheet=worksheet)\u000a  BRpl = s.getColumnValues('BRpl')\u000a  Ct = s.getColumnValues('Ct')\u000a  Eff = s.getColumnValues('Eff')\u000a  RunType = s.getColumnValues('RunType')\u000a  TRpl = s.getColumnValues('TRpl')\u000a  Treatment = s.getColumnValues('Treatment')\u000as.setColumnVisibility(['SmplName'], False)\u000as.setColumnVisibility(['BRpl', 'Ct', 'Eff', 'RunType', 'TRpl', 'Treatment'], is_visible=show_raw)
p513
sg100
g454
sg101
I00
sg102
I00
sg103
Vxlsx_path = '/mnt/hgfs/josephhellerstein/home/Technical/SciSheets/CaseStudies/Kristen/workbooks/data.xlsx'\u000as.setColumnVisibility()\u000agene = ParmValues[0]\u000arun = ParmValues[1] == 'True'\u000ashow_raw = ParmValues[2] == 'True'\u000ashow_block1 = ParmValues[3] == 'True'\u000ashow_block2 = ParmValues[4] == 'True'\u000ashow_block3 = ParmValues[5] == 'True'\u000amax_std  = float(ParmValues[6])\u000amin_eff = float(ParmValues[7])\u000aworksheet = gene + "-I"\u000aif False:\u000a  Groups = []\u000a  GroupedCt = []\u000a  GroupedEff = []\u000a  MeanCt = []\u000a  Imp = []\u000a  s.deleteColumn('Ct')\u000a  s.deleteColumn('RunType')\u000a  s.deleteColumn('BRpl')\u000a  s.deleteColumn('TRpl')\u000a  s.deleteColumn('Treatment')\u000a  s.deleteColumn('SmplName')\u000a  s.deleteColumn('Eff')\u000aif run:\u000a  importExcelToTable(s, xlsx_path, worksheet=worksheet)\u000a  BRpl = s.getColumnValues('BRpl')\u000a  Ct = s.getColumnValues('Ct')\u000a  Eff = s.getColumnValues('Eff')\u000a  RunType = s.getColumnValues('RunType')\u000a  TRpl = s.getColumnValues('TRpl')\u000a  Treatment = s.getColumnValues('Treatment')\u000as.setColumnVisibility(['SmplName'], False)\u000as.setColumnVisibility(['BRpl', 'Ct', 'Eff', 'RunType', 'TRpl', 'Treatment'], is_visible=show_raw)
p514
sbsg104
g0
(g105
g106
(g107
g108
tp515
tp516
Rp517
sg112
VParmValues
p518
sbag0
(g32
g2
Ntp519
Rp520
(dp521
g36
I00
sg37
g4
sg38
(lp522
(cnumpy.core.multiarray
scalar
p523
(g225
(S'i8'
p524
I0
I1
tp525
Rp526
(I3
S'<'
p527
NNNI-1
I-1
I0
tp528
bS'\x00\x00\x00\x00\x00\x00\x00\x00'
p529
tp530
Rp531
g142
g523
(g526
S'\x01\x00\x00\x00\x00\x00\x00\x00'
p532
tp533
Rp534
tp535
a(g523
(g526
S'\x00\x00\x00\x00\x00\x00\x00\x00'
p536
tp537
Rp538
VR1
p539
g523
(g526
S'\x01\x00\x00\x00\x00\x00\x00\x00'
p540
tp541
Rp542
tp543
a(g523
(g526
S'\x00\x00\x00\x00\x00\x00\x00\x00'
p544
tp545
Rp546
VR2
p547
g523
(g526
S'\x01\x00\x00\x00\x00\x00\x00\x00'
p548
tp549
Rp550
tp551
a(g523
(g526
S'\x01\x00\x00\x00\x00\x00\x00\x00'
p552
tp553
Rp554
g142
g523
(g526
S'\x01\x00\x00\x00\x00\x00\x00\x00'
p555
tp556
Rp557
tp558
a(g523
(g526
S'\x01\x00\x00\x00\x00\x00\x00\x00'
p559
tp560
Rp561
g142
g523
(g526
S'\x02\x00\x00\x00\x00\x00\x00\x00'
p562
tp563
Rp564
tp565
a(g523
(g526
S'\x01\x00\x00\x00\x00\x00\x00\x00'
p566
tp567
Rp568
g142
g523
(g526
S'\x03\x00\x00\x00\x00\x00\x00\x00'
p569
tp570
Rp571
tp572
a(g523
(g526
S'\x01\x00\x00\x00\x00\x00\x00\x00'
p573
tp574
Rp575
g539
g523
(g526
S'\x01\x00\x00\x00\x00\x00\x00\x00'
p576
tp577
Rp578
tp579
a(g523
(g526
S'\x01\x00\x00\x00\x00\x00\x00\x00'
p580
tp581
Rp582
g539
g523
(g526
S'\x02\x00\x00\x00\x00\x00\x00\x00'
p583
tp584
Rp585
tp586
a(g523
(g526
S'\x01\x00\x00\x00\x00\x00\x00\x00'
p587
tp588
Rp589
g539
g523
(g526
S'\x03\x00\x00\x00\x00\x00\x00\x00'
p590
tp591
Rp592
tp593
a(g523
(g526
S'\x01\x00\x00\x00\x00\x00\x00\x00'
p594
tp595
Rp596
g547
g523
(g526
S'\x01\x00\x00\x00\x00\x00\x00\x00'
p597
tp598
Rp599
tp600
a(g523
(g526
S'\x01\x00\x00\x00\x00\x00\x00\x00'
p601
tp602
Rp603
g547
g523
(g526
S'\x02\x00\x00\x00\x00\x00\x00\x00'
p604
tp605
Rp606
tp607
a(g523
(g526
S'\x01\x00\x00\x00\x00\x00\x00\x00'
p608
tp609
Rp610
g547
g523
(g526
S'\x03\x00\x00\x00\x00\x00\x00\x00'
p611
tp612
Rp613
tp614
a(g523
(g526
S'\x02\x00\x00\x00\x00\x00\x00\x00'
p615
tp616
Rp617
g142
g523
(g526
S'\x01\x00\x00\x00\x00\x00\x00\x00'
p618
tp619
Rp620
tp621
a(g523
(g526
S'\x02\x00\x00\x00\x00\x00\x00\x00'
p622
tp623
Rp624
g539
g523
(g526
S'\x01\x00\x00\x00\x00\x00\x00\x00'
p625
tp626
Rp627
tp628
a(g523
(g526
S'\x02\x00\x00\x00\x00\x00\x00\x00'
p629
tp630
Rp631
g547
g523
(g526
S'\x01\x00\x00\x00\x00\x00\x00\x00'
p632
tp633
Rp634
tp635
a(g523
(g526
S'\x03\x00\x00\x00\x00\x00\x00\x00'
p636
tp637
Rp638
g142
g523
(g526
S'\x01\x00\x00\x00\x00\x00\x00\x00'
p639
tp640
Rp641
tp642
a(g523
(g526
S'\x03\x00\x00\x00\x00\x00\x00\x00'
p643
tp644
Rp645
g539
g523
(g526
S'\x01\x00\x00\x00\x00\x00\x00\x00'
p646
tp647
Rp648
tp649
a(g523
(g526
S'\x03\x00\x00\x00\x00\x00\x00\x00'
p650
tp651
Rp652
g547
g523
(g526
S'\x01\x00\x00\x00\x00\x00\x00\x00'
p653
tp654
Rp655
tp656
aNaNaNaNaNaNaNaNaNaNaNaNaNaNaNaNaNaNaNaNaNaNaNaNaNaNaNaNaNaNaNaNaNaNaNaNasg94
g0
(g95
g2
Ntp657
Rp658
(dp659
g99
Vif run:\u000a  sel = Eff > min_eff\u000a  grouping_columns =   [\u000a      Treatment[sel],\u000a       RunType[sel], \u000a      BRpl[sel],      \u000a    ]\u000a  if True:\u000a    Groups, groupedCt = groupBy(\u000a      grouping_columns, Ct[sel])\u000a    Groups, groupedEff = groupBy(\u000a      grouping_columns, Eff[sel])\u000a    GroupedCt = roundValues(groupedCt,2)\u000a    GroupedEff = roundValues(groupedEff,2)\u000a    s.setColumnValues('GroupedCt', GroupedCt)\u000a    s.setColumnValues('GroupedEff', GroupedEff)
p660
sg100
g520
sg101
I00
sg102
I00
sg103
Vif run:\u000a  sel = Eff > min_eff\u000a  grouping_columns =   [\u000a      Treatment[sel],\u000a       RunType[sel], \u000a      BRpl[sel],      \u000a    ]\u000a  if True:\u000a    Groups, groupedCt = groupBy(\u000a      grouping_columns, Ct[sel])\u000a    Groups, groupedEff = groupBy(\u000a      grouping_columns, Eff[sel])\u000a    GroupedCt = roundValues(groupedCt,2)\u000a    GroupedEff = roundValues(groupedEff,2)\u000a    s.setColumnValues('GroupedCt', GroupedCt)\u000a    s.setColumnValues('GroupedEff', GroupedEff)
p661
sbsg104
g0
(g105
g106
(g107
g108
tp662
tp663
Rp664
sg112
VGroups
p665
sbag0
(g32
g2
Ntp666
Rp667
(dp668
g36
I00
sg37
g4
sg38
(lp669
(lp670
F0.92
aF0.91
aF0.91
aa(lp671
F0.83
aF0.83
aF0.85
aa(lp672
F0.82
aF0.85
aF0.82
aa(lp673
F0.85
aF0.84
aF0.85
aa(lp674
F0.87
aF0.78
aF0.85
aa(lp675
F0.84
aF0.84
aF0.77
aa(lp676
F0.92
aF0.98
aF0.9
aa(lp677
F0.9
aF0.83
aF0.84
aa(lp678
F0.87
aF0.85
aF0.83
aa(lp679
F0.79
aF0.84
aF0.86
aa(lp680
F0.83
aF0.82
aF0.83
aa(lp681
F0.81
aF0.82
aF0.8
aa(lp682
F0.84
aF0.79
aF0.81
aa(lp683
F0.77
aF0.87
aF0.81
aa(lp684
F0.78
aF0.77
aF0.79
aa(lp685
F0.88
aF0.86
aF0.89
aa(lp686
F0.87
aF0.9
aF0.86
aa(lp687
F0.82
aF0.82
aF0.79
aaNaNaNaNaNaNaNaNaNaNaNaNaNaNaNaNaNaNaNaNaNaNaNaNaNaNaNaNaNaNaNaNaNaNaNaNasg94
g0
(g95
g2
Ntp688
Rp689
(dp690
g99
Nsg100
g667
sg101
I00
sg102
I00
sg103
Nsbsg104
g0
(g105
g106
(g107
g108
tp691
tp692
Rp693
sg112
VGroupedEff
p694
sbag0
(g32
g2
Ntp695
Rp696
(dp697
g36
I00
sg37
g4
sg38
(lp698
(lp699
F18.31
aF18.29
aF18.15
aa(lp700
F18.24
aF18.22
aF18.36
aa(lp701
F19.72
aF19.75
aF20.01
aa(lp702
F22.42
aF22.5
aF22.44
aa(lp703
F21.92
aF22.03
aF21.94
aa(lp704
F23.4
aF23.47
aF23.41
aa(lp705
F19.92
aF19.85
aF20.0
aa(lp706
F21.86
aF22.09
aF21.84
aa(lp707
F23.89
aF23.54
aF24.27
aa(lp708
F22.18
aF21.71
aF21.75
aa(lp709
F23.88
aF23.42
aF23.63
aa(lp710
F24.59
aF24.61
aF24.34
aa(lp711
F23.48
aF23.31
aF23.45
aa(lp712
F23.22
aF23.8
aF23.49
aa(lp713
F26.37
aF26.36
aF26.17
aa(lp714
F18.82
aF18.97
aF18.92
aa(lp715
F18.91
aF18.78
aF18.8
aa(lp716
F20.5
aF20.47
aF20.28
aaNaNaNaNaNaNaNaNaNaNaNaNaNaNaNaNaNaNaNaNaNaNaNaNaNaNaNaNaNaNaNaNaNaNaNaNasg94
g0
(g95
g2
Ntp717
Rp718
(dp719
g99
Nsg100
g696
sg101
I00
sg102
I00
sg103
Nsbsg104
g0
(g105
g106
(g107
g108
tp720
tp721
Rp722
sg112
VGroupedCt
p723
sbag0
(g32
g2
Ntp724
Rp725
(dp726
g36
I00
sg37
g4
sg38
(lp727
(lp728
F18.3
aF18.3
aF18.1
aa(lp729
F18.2
aF18.2
aF18.4
aa(lp730
F19.7
aF19.8
aF20.0
aa(lp731
F22.4
aF22.5
aF22.4
aa(lp732
F21.9
aF22.0
aF21.9
aa(lp733
F23.4
aF23.5
aF23.4
aa(lp734
F19.9
aF19.9
aF20.0
aa(lp735
F21.9
aF22.1
aF21.8
aa(lp736
F23.9
aF23.5
aF24.3
aa(lp737
F22.2
aF21.7
aF21.8
aa(lp738
F23.9
aF23.4
aF23.6
aa(lp739
F24.6
aF24.6
aF24.3
aa(lp740
F23.5
aF23.3
aF23.4
aa(lp741
F23.2
aF23.8
aF23.5
aa(lp742
F26.4
aF26.4
aF26.2
aa(lp743
F18.8
aF19.0
aF18.9
aa(lp744
F18.9
aF18.8
aF18.8
aa(lp745
F20.5
aF20.5
aF20.3
aaNaNaNaNaNaNaNaNaNaNaNaNaNaNaNaNaNaNaNaNaNaNaNaNaNaNaNaNaNaNaNaNaNaNaNaNasg94
g0
(g95
g2
Ntp746
Rp747
(dp748
g99
Vif run:\u000a  StdFilteredGroupedCt = roundValues([filterExtremes(g, max_std, 2) for g in pruneNulls(GroupedCt)])\u000a  s.setColumnValues('StdFilteredGroupedCt', StdFilteredGroupedCt)
p749
sg100
g725
sg101
I00
sg102
I00
sg103
Vif run:\u000a  StdFilteredGroupedCt = roundValues([filterExtremes(g, max_std, 2) for g in pruneNulls(GroupedCt)])\u000a  s.setColumnValues('StdFilteredGroupedCt', StdFilteredGroupedCt)
p750
sbsg104
g0
(g105
g106
(g107
g108
tp751
tp752
Rp753
sg112
VStdFilteredGroupedCt
p754
sbag0
(g32
g2
Ntp755
Rp756
(dp757
g36
I00
sg37
g4
sg38
(lp758
F18.2
aF18.3
aF19.8
aF22.4
aF21.9
aF23.4
aF19.9
aF21.9
aF23.9
aF21.9
aF23.6
aF24.5
aF23.4
aF23.5
aF26.3
aF18.9
aF18.8
aF20.4
aFnan
aFnan
aFnan
aFnan
aFnan
aFnan
aFnan
aFnan
aFnan
aFnan
aFnan
aFnan
aFnan
aFnan
aFnan
aFnan
aFnan
aFnan
aFnan
aFnan
aFnan
aFnan
aFnan
aFnan
aFnan
aFnan
aFnan
aFnan
aFnan
aFnan
aFnan
aFnan
aFnan
aFnan
aFnan
aFnan
asg94
g0
(g95
g2
Ntp759
Rp760
(dp761
g99
Vif run:\u000a  MeanCt = [np.mean(g) for g in StdFilteredGroupedCt]\u000a  MeanCt = roundValues(MeanCt,1)\u000a  s.setColumnValues('MeanCt', MeanCt)\u000a  StdCt = [np.std(g, ddof=1) for g in StdFilteredGroupedCt]\u000a  StdCt = roundValues(StdCt,3)\u000a  s.setColumnValues('StdCt', StdCt)\u000as.setColumnVisibility(['Groups', 'GroupedEff', 'GroupedCt', 'StdFilteredGroupedCt', 'MeanCt', 'StdCt'], is_visible=show_block1)
p762
sg100
g756
sg101
I00
sg102
I00
sg103
Vif run:\u000a  MeanCt = [np.mean(g) for g in StdFilteredGroupedCt]\u000a  MeanCt = roundValues(MeanCt,1)\u000a  s.setColumnValues('MeanCt', MeanCt)\u000a  StdCt = [np.std(g, ddof=1) for g in StdFilteredGroupedCt]\u000a  StdCt = roundValues(StdCt,3)\u000a  s.setColumnValues('StdCt', StdCt)\u000as.setColumnVisibility(['Groups', 'GroupedEff', 'GroupedCt', 'StdFilteredGroupedCt', 'MeanCt', 'StdCt'], is_visible=show_block1)
p763
sbsg104
g0
(g105
g106
(g107
g108
tp764
tp765
Rp766
sg112
VMeanCt
p767
sbag0
(g32
g2
Ntp768
Rp769
(dp770
g36
I00
sg37
g4
sg38
(lp771
F0.115
aF0.115
aF0.153
aF0.058
aF0.058
aF0.058
aF0.058
aF0.153
aF0.4
aF0.265
aF0.252
aF0.173
aF0.1
aF0.3
aF0.115
aF0.1
aF0.058
aF0.115
aFnan
aFnan
aFnan
aFnan
aFnan
aFnan
aFnan
aFnan
aFnan
aFnan
aFnan
aFnan
aFnan
aFnan
aFnan
aFnan
aFnan
aFnan
aFnan
aFnan
aFnan
aFnan
aFnan
aFnan
aFnan
aFnan
aFnan
aFnan
aFnan
aFnan
aFnan
aFnan
aFnan
aFnan
aFnan
aFnan
asg94
g0
(g95
g2
Ntp772
Rp773
(dp774
g99
Nsg100
g769
sg101
I00
sg102
I00
sg103
Nsbsg104
g0
(g105
g106
(g107
g108
tp775
tp776
Rp777
sg112
VStdCt
p778
sbag0
(g32
g2
Ntp779
Rp780
(dp781
g36
I00
sg37
g4
sg38
(lp782
(lp783
g523
(g526
S'\x00\x00\x00\x00\x00\x00\x00\x00'
p784
tp785
Rp786
ag523
(g526
S'\x01\x00\x00\x00\x00\x00\x00\x00'
p787
tp788
Rp789
aa(lp790
g523
(g526
S'\x01\x00\x00\x00\x00\x00\x00\x00'
p791
tp792
Rp793
ag523
(g526
S'\x01\x00\x00\x00\x00\x00\x00\x00'
p794
tp795
Rp796
aa(lp797
g523
(g526
S'\x01\x00\x00\x00\x00\x00\x00\x00'
p798
tp799
Rp800
ag523
(g526
S'\x02\x00\x00\x00\x00\x00\x00\x00'
p801
tp802
Rp803
aa(lp804
g523
(g526
S'\x01\x00\x00\x00\x00\x00\x00\x00'
p805
tp806
Rp807
ag523
(g526
S'\x03\x00\x00\x00\x00\x00\x00\x00'
p808
tp809
Rp810
aa(lp811
g523
(g526
S'\x02\x00\x00\x00\x00\x00\x00\x00'
p812
tp813
Rp814
ag523
(g526
S'\x01\x00\x00\x00\x00\x00\x00\x00'
p815
tp816
Rp817
aa(lp818
g523
(g526
S'\x03\x00\x00\x00\x00\x00\x00\x00'
p819
tp820
Rp821
ag523
(g526
S'\x01\x00\x00\x00\x00\x00\x00\x00'
p822
tp823
Rp824
aaNaNaNaNaNaNaNaNaNaNaNaNaNaNaNaNaNaNaNaNaNaNaNaNaNaNaNaNaNaNaNaNaNaNaNaNaNaNaNaNaNaNaNaNaNaNaNaNasg94
g0
(g95
g2
Ntp825
Rp826
(dp827
g99
Vif run:\u000a      tabularize(s, 'Groups', 1, 'MeanCt',\u000a          new_category_colnm='BioRuns',\u000a          values_colnm_prefix='Gene_')\u000a      BioRuns = s.getColumnValues('BioRuns')\u000a      Gene_I = s.getColumnValues('Gene_I')\u000a      Gene_R1 = s.getColumnValues('Gene_R1')\u000a      Gene_R2 = s.getColumnValues('Gene_R2')\u000a
p828
sg100
g780
sg101
I00
sg102
I00
sg103
Vif run:\u000a      tabularize(s, 'Groups', 1, 'MeanCt',\u000a          new_category_colnm='BioRuns',\u000a          values_colnm_prefix='Gene_')\u000a      BioRuns = s.getColumnValues('BioRuns')\u000a      Gene_I = s.getColumnValues('Gene_I')\u000a      Gene_R1 = s.getColumnValues('Gene_R1')\u000a      Gene_R2 = s.getColumnValues('Gene_R2')\u000a
p829
sbsg104
g0
(g105
g106
(g107
g108
tp830
tp831
Rp832
sg112
VBioRuns
p833
sbag0
(g32
g2
Ntp834
Rp835
(dp836
g36
I00
sg37
g4
sg38
(lp837
F18.2
aF22.4
aF21.9
aF23.4
aF23.4
aF18.9
aFnan
aFnan
aFnan
aFnan
aFnan
aFnan
aFnan
aFnan
aFnan
aFnan
aFnan
aFnan
aFnan
aFnan
aFnan
aFnan
aFnan
aFnan
aFnan
aFnan
aFnan
aFnan
aFnan
aFnan
aFnan
aFnan
aFnan
aFnan
aFnan
aFnan
aFnan
aFnan
aFnan
aFnan
aFnan
aFnan
aFnan
aFnan
aFnan
aFnan
aFnan
aFnan
aFnan
aFnan
aFnan
aFnan
aFnan
aFnan
asg94
g0
(g95
g2
Ntp838
Rp839
(dp840
g99
Nsg100
g835
sg101
I00
sg102
I00
sg103
Nsbsg104
g0
(g105
g106
(g107
g108
tp841
tp842
Rp843
sg112
S'Gene_I'
p844
sbag0
(g32
g2
Ntp845
Rp846
(dp847
g36
I00
sg37
g4
sg38
(lp848
F18.3
aF19.9
aF21.9
aF23.9
aF23.5
aF18.8
aFnan
aFnan
aFnan
aFnan
aFnan
aFnan
aFnan
aFnan
aFnan
aFnan
aFnan
aFnan
aFnan
aFnan
aFnan
aFnan
aFnan
aFnan
aFnan
aFnan
aFnan
aFnan
aFnan
aFnan
aFnan
aFnan
aFnan
aFnan
aFnan
aFnan
aFnan
aFnan
aFnan
aFnan
aFnan
aFnan
aFnan
aFnan
aFnan
aFnan
aFnan
aFnan
aFnan
aFnan
aFnan
aFnan
aFnan
aFnan
asg94
g0
(g95
g2
Ntp849
Rp850
(dp851
g99
Nsg100
g846
sg101
I00
sg102
I00
sg103
Nsbsg104
g843
sg112
S'Gene_R1'
p852
sbag0
(g32
g2
Ntp853
Rp854
(dp855
g36
I00
sg37
g4
sg38
(lp856
F19.8
aF21.9
aF23.6
aF24.5
aF26.3
aF20.4
aFnan
aFnan
aFnan
aFnan
aFnan
aFnan
aFnan
aFnan
aFnan
aFnan
aFnan
aFnan
aFnan
aFnan
aFnan
aFnan
aFnan
aFnan
aFnan
aFnan
aFnan
aFnan
aFnan
aFnan
aFnan
aFnan
aFnan
aFnan
aFnan
aFnan
aFnan
aFnan
aFnan
aFnan
aFnan
aFnan
aFnan
aFnan
aFnan
aFnan
aFnan
aFnan
aFnan
aFnan
aFnan
aFnan
aFnan
aFnan
asg94
g0
(g95
g2
Ntp857
Rp858
(dp859
g99
Nsg100
g854
sg101
I00
sg102
I00
sg103
Nsbsg104
g843
sg112
S'Gene_R2'
p860
sbag0
(g32
g2
Ntp861
Rp862
(dp863
g36
I00
sg37
g4
sg38
(lp864
F1.07177
aF0.17678
aF1.0
aF1.41421
aF1.07177
aF0.93303
aFnan
aFnan
aFnan
aFnan
aFnan
aFnan
aFnan
aFnan
aFnan
aFnan
aFnan
aFnan
aFnan
aFnan
aFnan
aFnan
aFnan
aFnan
aFnan
aFnan
aFnan
aFnan
aFnan
aFnan
aFnan
aFnan
aFnan
aFnan
aFnan
aFnan
aFnan
aFnan
aFnan
aFnan
aFnan
aFnan
aFnan
aFnan
aFnan
aFnan
aFnan
aFnan
aFnan
aFnan
aFnan
aFnan
aFnan
aFnan
asg94
g0
(g95
g2
Ntp865
Rp866
(dp867
g99
VExprR1 = roundValues(2**(Gene_R1 - Gene_I),5)
p868
sg100
g862
sg101
I01
sg102
I00
sg103
VroundValues(2**(Gene_R1 - Gene_I),5)
p869
sbsg104
g0
(g105
g106
(g107
g108
tp870
tp871
Rp872
sg112
VExprR1
p873
sbag0
(g32
g2
Ntp874
Rp875
(dp876
g36
I00
sg37
g4
sg38
(lp877
F3.03143
aF0.70711
aF3.24901
aF2.14355
aF7.46426
aF2.82843
aFnan
aFnan
aFnan
aFnan
aFnan
aFnan
aFnan
aFnan
aFnan
aFnan
aFnan
aFnan
aFnan
aFnan
aFnan
aFnan
aFnan
aFnan
aFnan
aFnan
aFnan
aFnan
aFnan
aFnan
aFnan
aFnan
aFnan
aFnan
aFnan
aFnan
aFnan
aFnan
aFnan
aFnan
aFnan
aFnan
aFnan
aFnan
aFnan
aFnan
aFnan
aFnan
aFnan
aFnan
aFnan
aFnan
aFnan
aFnan
asg94
g0
(g95
g2
Ntp878
Rp879
(dp880
g99
VExprR2 = roundValues(2**(Gene_R2 - Gene_I),5)
p881
sg100
g875
sg101
I01
sg102
I00
sg103
VroundValues(2**(Gene_R2 - Gene_I),5)
p882
sbsg104
g0
(g105
g106
(g107
g108
tp883
tp884
Rp885
sg112
VExprR2
p886
sbag0
(g32
g2
Ntp887
Rp888
(dp889
g36
I00
sg37
g4
sg38
(lp890
F1.802
aF0.354
aF1.803
aF1.741
aF2.828
aF1.625
aFnan
aFnan
aFnan
aFnan
aFnan
aFnan
aFnan
aFnan
aFnan
aFnan
aFnan
aFnan
aFnan
aFnan
aFnan
aFnan
aFnan
aFnan
aFnan
aFnan
aFnan
aFnan
aFnan
aFnan
aFnan
aFnan
aFnan
aFnan
aFnan
aFnan
aFnan
aFnan
aFnan
aFnan
aFnan
aFnan
aFnan
aFnan
aFnan
aFnan
aFnan
aFnan
aFnan
aFnan
aFnan
aFnan
aFnan
aFnan
asg94
g0
(g95
g2
Ntp891
Rp892
(dp893
g99
Vif run:\u000a  GeoMean = roundValues(np.sqrt(ExprR1*ExprR2), 3)\u000as.setColumnVisibility(['BioRuns', 'Gene_I', 'Gene_R1', 'Gene_R2', 'ExprR1', 'ExprR2', 'GeoMean'], is_visible=show_block2)
p894
sg100
g888
sg101
I00
sg102
I00
sg103
Vif run:\u000a  GeoMean = roundValues(np.sqrt(ExprR1*ExprR2), 3)\u000as.setColumnVisibility(['BioRuns', 'Gene_I', 'Gene_R1', 'Gene_R2', 'ExprR1', 'ExprR2', 'GeoMean'], is_visible=show_block2)
p895
sbsg104
g0
(g105
g106
(g107
g108
tp896
tp897
Rp898
sg112
VGeoMean
p899
sbag203
ag216
ag259
ag296
ag309
ag115
ag123
ag131
ag139
ag34
ag184
ag195
asg22
V/home/ubuntu/SciSheets/mysite/user/guest/tables/kristen_single_gene.pcl
p900
sg112
VSingleGene
p901
sb.