ccopy_reg
_reconstructor
p0
(cscisheets.ui.dt_table
DTTable
p1
c__builtin__
object
p2
Ntp3
Rp4
(dp5
S'_versioned_file'
p6
g0
(cmysite.helpers.versioned_file
VersionedFile
p7
g2
Ntp8
Rp9
(dp10
S'_redo_stack'
p11
g0
(cmysite.helpers.file_stack
FileStack
p12
g2
Ntp13
Rp14
(dp15
S'_dirpath'
p16
S'/home/ubuntu/SciSheets/mysite/user/guest/tables/backup'
p17
sS'_max_depth'
p18
I5
sS'_filename_pfx'
p19
Vkristen_single_gene.r
p20
sbsS'_max_versions'
p21
I5
sS'_undo_stack'
p22
g0
(g12
g2
Ntp23
Rp24
(dp25
g16
g17
sg18
I5
sg19
Vkristen_single_gene.u
p26
sbsS'_checkpoint_history'
p27
(lp28
VCell/Update
p29
aVCell/Update
p30
aVCell/Update
p31
aVCell/Update
p32
aVCell/Update
p33
aVCell/Update
p34
aVCell/Update
p35
aVCell/Update
p36
aVCell/Update
p37
aVCell/Update
p38
aVCell/Update
p39
aVCell/Update
p40
aVColumn/Formula
p41
aVColumn/Formula
p42
aVColumn/Append
p43
aVColumn/Formula
p44
aVColumn/Delete
p45
aVCell/Update
p46
aVColumn/Formula
p47
aVCell/Update
p48
aVCell/Update
p49
aVColumn/Formula
p50
aVColumn/Formula
p51
aVCell/Update
p52
aVColumn/Formula
p53
aVColumn/Formula
p54
aVCell/Update
p55
aVCell/Update
p56
aVCell/Update
p57
aVCell/Update
p58
aVColumn/Formula
p59
aVCell/Update
p60
aVCell/Update
p61
aVCell/Update
p62
aVColumn/Formula
p63
aVCell/Update
p64
aVColumn/Formula
p65
aVColumn/Formula
p66
aVCell/Update
p67
aVCell/Update
p68
aVCell/Update
p69
aVCell/Update
p70
aVCell/Update
p71
aVCell/Update
p72
aVCell/Update
p73
aVCell/Update
p74
aVCell/Update
p75
aVColumn/Formula
p76
aVCell/Update
p77
aVCell/Update
p78
aVCell/Update
p79
aVCell/Update
p80
aVCell/Update
p81
aVCell/Update
p82
aVCell/Update
p83
aVCell/Update
p84
aVCell/Update
p85
aVCell/Update
p86
aVCell/Update
p87
aVCell/Update
p88
aVColumn/Formula
p89
aVColumn/Formula
p90
aVColumn/Formula
p91
aVCell/Update
p92
aVCell/Update
p93
aVCell/Update
p94
aVCell/Update
p95
aVCell/Update
p96
aVColumn/Formula
p97
aVCell/Update
p98
aVCell/Update
p99
aVCell/Update
p100
aVCell/Update
p101
aVCell/Update
p102
aVCell/Update
p103
aVCell/Update
p104
aVColumn/Formula
p105
aVColumn/Formula
p106
aVColumn/Formula
p107
aVCell/Update
p108
aVCell/Update
p109
aVColumn/Formula
p110
aVCell/Update
p111
aVCell/Update
p112
aVCell/Update
p113
aVCell/Update
p114
aVCell/Update
p115
aVCell/Update
p116
aVCell/Update
p117
aVCell/Update
p118
aVColumn/Formula
p119
aVCell/Update
p120
aVColumn/Formula
p121
aVColumn/Formula
p122
aVColumn/Formula
p123
aVCell/Update
p124
aVCell/Update
p125
aVColumn/Formula
p126
aVColumn/Formula
p127
aVColumn/Formula
p128
aVColumn/Formula
p129
aVCell/Update
p130
aVColumn/Formula
p131
aVColumn/Formula
p132
aVColumn/Formula
p133
aVCell/Update
p134
aVCell/Update
p135
aVCell/Update
p136
aVCell/Update
p137
aVCell/Update
p138
aVCell/Update
p139
aVCell/Update
p140
aVCell/Update
p141
aVCell/Update
p142
aVCell/Update
p143
aVColumn/Formula
p144
aVColumn/Formula
p145
aVColumn/Formula
p146
aVColumn/Formula
p147
aVCell/Update
p148
aVCell/Update
p149
aVColumn/Formula
p150
aVCell/Update
p151
aVCell/Update
p152
aVCell/Update
p153
aVCell/Update
p154
aVCell/Update
p155
aVCell/Update
p156
aVCell/Update
p157
aVCell/Update
p158
aVCell/Update
p159
aVCell/Update
p160
aVCell/Update
p161
aVCell/Update
p162
aVCell/Update
p163
aVColumn/Formula
p164
aVColumn/Formula
p165
aVCell/Update
p166
aVCell/Update
p167
aVCell/Update
p168
aVColumn/Formula
p169
aVCell/Update
p170
aVCell/Update
p171
aVCell/Update
p172
aVCell/Update
p173
aVColumn/Formula
p174
aVColumn/Formula
p175
aVColumn/Formula
p176
aVColumn/Formula
p177
aVCell/Update
p178
aVColumn/Formula
p179
aVCell/Update
p180
aVCell/Update
p181
aVCell/Update
p182
aVCell/Update
p183
aVCell/Update
p184
aVCell/Update
p185
aVCell/Update
p186
aVCell/Update
p187
aVCell/Update
p188
aVColumn/Formula
p189
aVCell/Update
p190
aVCell/Update
p191
aVCell/Update
p192
aVCell/Update
p193
aVCell/Update
p194
aVCell/Update
p195
aVCell/Update
p196
aVCell/Update
p197
aVCell/Update
p198
aVCell/Update
p199
aVCell/Update
p200
aVCell/Update
p201
aVCell/Update
p202
aVCell/Update
p203
aVCell/Update
p204
aVCell/Update
p205
aVCell/Update
p206
aVCell/Update
p207
aVCell/Update
p208
aVCell/Update
p209
aVCell/Update
p210
aVCell/Update
p211
aVCell/Update
p212
aVCell/Update
p213
aVCell/Update
p214
aVCell/Update
p215
aVCell/Update
p216
aVCell/Update
p217
aVCell/Update
p218
aVCell/Update
p219
aVCell/Update
p220
aVCell/Update
p221
aVCell/Update
p222
aVCell/Update
p223
aVCell/Update
p224
aVCell/Update
p225
aVCell/Update
p226
aVCell/Update
p227
aVCell/Update
p228
aVCell/Update
p229
aVCell/Update
p230
aVCell/Update
p231
aVCell/Update
p232
aVCell/Update
p233
aVCell/Update
p234
aVCell/Update
p235
aVCell/Update
p236
aVCell/Update
p237
aVCell/Update
p238
aVCell/Update
p239
aVCell/Update
p240
aVCell/Update
p241
aVCell/Update
p242
aVCell/Update
p243
aVCell/Update
p244
aVCell/Update
p245
aVCell/Update
p246
aVCell/Update
p247
aVCell/Update
p248
aVCell/Update
p249
aVCell/Update
p250
aVCell/Update
p251
aVCell/Update
p252
aVCell/Update
p253
aVCell/Update
p254
aVCell/Update
p255
aVCell/Update
p256
aVCell/Update
p257
aVCell/Update
p258
aVCell/Update
p259
aVCell/Update
p260
aVCell/Update
p261
aVCell/Update
p262
aVCell/Update
p263
aVCell/Update
p264
aVCell/Update
p265
aVCell/Update
p266
aVCell/Update
p267
aVCell/Update
p268
aVCell/Update
p269
aVCell/Update
p270
aVCell/Update
p271
aVColumn/Formula
p272
aVColumn/Formula
p273
aVCell/Update
p274
aVCell/Update
p275
aVCell/Update
p276
aVCell/Update
p277
aVColumn/Formula
p278
aVColumn/Formula
p279
aVColumn/Formula
p280
aVCell/Update
p281
aVCell/Update
p282
aVCell/Update
p283
aVCell/Update
p284
aVColumn/Formula
p285
aVColumn/Formula
p286
aVColumn/Formula
p287
aVCell/Update
p288
aVCell/Update
p289
aVColumn/Formula
p290
aVCell/Update
p291
aVCell/Update
p292
aVCell/Update
p293
aVCell/Update
p294
aVCell/Update
p295
aVCell/Update
p296
aVColumn/Formula
p297
aVCell/Update
p298
aVColumn/Formula
p299
aVCell/Update
p300
aVCell/Update
p301
aVColumn/Formula
p302
aVColumn/Formula
p303
aVCell/Update
p304
aVCell/Update
p305
aVCell/Update
p306
aVCell/Update
p307
aVColumn/Formula
p308
aVColumn/Formula
p309
aVColumn/Formula
p310
aVColumn/Formula
p311
aVColumn/Formula
p312
aVCell/Update
p313
aVCell/Update
p314
aVColumn/Formula
p315
aVCell/Update
p316
aVColumn/Formula
p317
aVColumn/Formula
p318
aVCell/Update
p319
aVCell/Update
p320
aVCell/Update
p321
aVColumn/Formula
p322
aVColumn/Formula
p323
aVColumn/Formula
p324
aVCell/Update
p325
aVColumn/Formula
p326
aVCell/Update
p327
aVColumn/Formula
p328
aVColumn/Formula
p329
aVColumn/Formula
p330
aVColumn/Formula
p331
aVColumn/Formula
p332
aVColumn/Formula
p333
aVCell/Update
p334
aVColumn/Formula
p335
aVCell/Update
p336
aVCell/Update
p337
aVCell/Update
p338
aVColumn/Formula
p339
aVColumn/Formula
p340
aVColumn/Formula
p341
aVColumn/Formula
p342
aVColumn/Formula
p343
aVCell/Update
p344
aVCell/Update
p345
aVCell/Update
p346
aVColumn/Formula
p347
aVCell/Update
p348
aVCell/Update
p349
aVColumn/Formula
p350
aVColumn/Formula
p351
aVColumn/Formula
p352
aVColumn/Formula
p353
aVColumn/Formula
p354
aVColumn/Formula
p355
aVCell/Update
p356
aVColumn/Formula
p357
aVColumn/Formula
p358
aVColumn/Formula
p359
aVCell/Update
p360
aVCell/Update
p361
aVCell/Update
p362
aVColumn/Formula
p363
aVColumn/Formula
p364
aVCell/Update
p365
aVColumn/Formula
p366
aVColumn/Formula
p367
aVColumn/Formula
p368
aVColumn/Formula
p369
aVColumn/Formula
p370
aVColumn/Formula
p371
aVCell/Update
p372
aVCell/Update
p373
aVColumn/Formula
p374
aVCell/Update
p375
aVColumn/Formula
p376
aVColumn/Formula
p377
aVCell/Update
p378
aVCell/Update
p379
aVCell/Update
p380
aVCell/Update
p381
aVCell/Update
p382
aVColumn/Formula
p383
aVCell/Update
p384
aVCell/Update
p385
aVColumn/Formula
p386
aVColumn/Formula
p387
aVCell/Update
p388
aVCell/Update
p389
aVColumn/Formula
p390
aVColumn/Formula
p391
aVCell/Update
p392
aVCell/Update
p393
aVCell/Update
p394
aVCell/Update
p395
aVCell/Update
p396
aVCell/Update
p397
aVColumn/Formula
p398
aVCell/Update
p399
aVColumn/Formula
p400
aVCell/Update
p401
aVCell/Update
p402
aVColumn/Formula
p403
aVCell/Update
p404
aVColumn/Formula
p405
aVCell/Update
p406
aVColumn/Formula
p407
aVColumn/Formula
p408
aVCell/Update
p409
aVCell/Update
p410
aVCell/Update
p411
aVColumn/Formula
p412
aVColumn/Formula
p413
aVColumn/Formula
p414
aVCell/Update
p415
aVCell/Update
p416
aVColumn/Formula
p417
aVCell/Update
p418
aVColumn/Formula
p419
aVCell/Update
p420
aVCell/Update
p421
aVCell/Update
p422
aVCell/Update
p423
aVCell/Update
p424
aVCell/Update
p425
aVCell/Update
p426
aVCell/Update
p427
aVCell/Update
p428
aVCell/Update
p429
aVCell/Update
p430
aVCell/Update
p431
aVCell/Update
p432
aVCell/Update
p433
aVCell/Update
p434
aVCell/Update
p435
aVCell/Update
p436
aVCell/Update
p437
aVCell/Update
p438
aVCell/Update
p439
aVCell/Update
p440
aVCell/Update
p441
aVCell/Update
p442
aVColumn/Formula
p443
aVCell/Update
p444
aVColumn/Formula
p445
aVCell/Update
p446
aVCell/Update
p447
aVCell/Update
p448
aVCell/Update
p449
aVCell/Update
p450
aVCell/Update
p451
aVCell/Update
p452
aVCell/Update
p453
aVCell/Update
p454
aVCell/Update
p455
aVCell/Update
p456
aVCell/Update
p457
aVCell/Update
p458
aVColumn/Formula
p459
aVCell/Update
p460
aVCell/Update
p461
aVCell/Update
p462
aVCell/Update
p463
aVColumn/Formula
p464
aVCell/Update
p465
aVCell/Update
p466
aVCell/Update
p467
aVCell/Update
p468
aVCell/Update
p469
aVCell/Update
p470
aVCell/Update
p471
aVColumn/Formula
p472
aVColumn/Formula
p473
aVCell/Update
p474
aVCell/Update
p475
aVColumn/Formula
p476
aVCell/Update
p477
aVCell/Update
p478
aVCell/Update
p479
aVCell/Update
p480
aVCell/Update
p481
aVCell/Update
p482
aVColumn/Formula
p483
aVColumn/Formula
p484
aVColumn/Formula
p485
aVColumn/Formula
p486
aVColumn/Formula
p487
aVColumn/Formula
p488
aVColumn/Formula
p489
aVCell/Update
p490
aVCell/Update
p491
aVCell/Update
p492
aVColumn/Formula
p493
aVColumn/Formula
p494
aVColumn/Formula
p495
aVCell/Update
p496
aVCell/Update
p497
aVCell/Update
p498
aVCell/Update
p499
aVCell/Update
p500
aVColumn/Formula
p501
aVCell/Update
p502
aVColumn/Formula
p503
aVCell/Update
p504
aVCell/Update
p505
aVCell/Update
p506
aVCell/Update
p507
aVCell/Update
p508
asS'_filepath'
p509
V/home/ubuntu/SciSheets/mysite/user/guest/tables/kristen_single_gene.pcl
p510
sS'_backup_dir'
p511
g17
sbsS'_namespace'
p512
(dp513
sS'_hidden_columns'
p514
(lp515
g0
(cscisheets.core.column
Column
p516
g2
Ntp517
Rp518
(dp519
S'_asis'
p520
I00
sS'_owning_table'
p521
g4
sS'_cells'
p522
(lp523
(lp524
cnumpy.core.multiarray
scalar
p525
(cnumpy
dtype
p526
(S'f8'
p527
I0
I1
tp528
Rp529
(I3
S'<'
p530
NNNI-1
I-1
I0
tp531
bS'\x00\x00\x00\x00\x00\x00\x00\x00'
p532
tp533
Rp534
aVI
p535
ag525
(g529
S'\x00\x00\x00\x00\x00\x00\xf0?'
p536
tp537
Rp538
aa(lp539
g525
(g529
S'\x00\x00\x00\x00\x00\x00\x00\x00'
p540
tp541
Rp542
aVR1
p543
ag525
(g529
S'\x00\x00\x00\x00\x00\x00\xf0?'
p544
tp545
Rp546
aa(lp547
g525
(g529
S'\x00\x00\x00\x00\x00\x00\x00\x00'
p548
tp549
Rp550
aVR2
p551
ag525
(g529
S'\x00\x00\x00\x00\x00\x00\xf0?'
p552
tp553
Rp554
aa(lp555
g525
(g529
S'\x00\x00\x00\x00\x00\x00\xf0?'
p556
tp557
Rp558
ag535
ag525
(g529
S'\x00\x00\x00\x00\x00\x00\xf0?'
p559
tp560
Rp561
aa(lp562
g525
(g529
S'\x00\x00\x00\x00\x00\x00\xf0?'
p563
tp564
Rp565
ag535
ag525
(g529
S'\x00\x00\x00\x00\x00\x00\x00@'
p566
tp567
Rp568
aa(lp569
g525
(g529
S'\x00\x00\x00\x00\x00\x00\xf0?'
p570
tp571
Rp572
ag535
ag525
(g529
S'\x00\x00\x00\x00\x00\x00\x08@'
p573
tp574
Rp575
aa(lp576
g525
(g529
S'\x00\x00\x00\x00\x00\x00\xf0?'
p577
tp578
Rp579
ag543
ag525
(g529
S'\x00\x00\x00\x00\x00\x00\xf0?'
p580
tp581
Rp582
aa(lp583
g525
(g529
S'\x00\x00\x00\x00\x00\x00\xf0?'
p584
tp585
Rp586
ag543
ag525
(g529
S'\x00\x00\x00\x00\x00\x00\x00@'
p587
tp588
Rp589
aa(lp590
g525
(g529
S'\x00\x00\x00\x00\x00\x00\xf0?'
p591
tp592
Rp593
ag543
ag525
(g529
S'\x00\x00\x00\x00\x00\x00\x08@'
p594
tp595
Rp596
aa(lp597
g525
(g529
S'\x00\x00\x00\x00\x00\x00\xf0?'
p598
tp599
Rp600
ag551
ag525
(g529
S'\x00\x00\x00\x00\x00\x00\xf0?'
p601
tp602
Rp603
aa(lp604
g525
(g529
S'\x00\x00\x00\x00\x00\x00\xf0?'
p605
tp606
Rp607
ag551
ag525
(g529
S'\x00\x00\x00\x00\x00\x00\x00@'
p608
tp609
Rp610
aa(lp611
g525
(g529
S'\x00\x00\x00\x00\x00\x00\xf0?'
p612
tp613
Rp614
ag551
ag525
(g529
S'\x00\x00\x00\x00\x00\x00\x08@'
p615
tp616
Rp617
aa(lp618
g525
(g529
S'\x00\x00\x00\x00\x00\x00\x00@'
p619
tp620
Rp621
ag535
ag525
(g529
S'\x00\x00\x00\x00\x00\x00\xf0?'
p622
tp623
Rp624
aa(lp625
g525
(g529
S'\x00\x00\x00\x00\x00\x00\x00@'
p626
tp627
Rp628
ag543
ag525
(g529
S'\x00\x00\x00\x00\x00\x00\xf0?'
p629
tp630
Rp631
aa(lp632
g525
(g529
S'\x00\x00\x00\x00\x00\x00\x00@'
p633
tp634
Rp635
ag551
ag525
(g529
S'\x00\x00\x00\x00\x00\x00\xf0?'
p636
tp637
Rp638
aa(lp639
g525
(g529
S'\x00\x00\x00\x00\x00\x00\x08@'
p640
tp641
Rp642
ag535
ag525
(g529
S'\x00\x00\x00\x00\x00\x00\xf0?'
p643
tp644
Rp645
aa(lp646
g525
(g529
S'\x00\x00\x00\x00\x00\x00\x08@'
p647
tp648
Rp649
ag543
ag525
(g529
S'\x00\x00\x00\x00\x00\x00\xf0?'
p650
tp651
Rp652
aa(lp653
g525
(g529
S'\x00\x00\x00\x00\x00\x00\x08@'
p654
tp655
Rp656
ag551
ag525
(g529
S'\x00\x00\x00\x00\x00\x00\xf0?'
p657
tp658
Rp659
aasS'_formula_statement'
p660
g0
(cscisheets.core.helpers.formula_statement
FormulaStatement
p661
g2
Ntp662
Rp663
(dp664
S'_statement'
p665
Vsel = [e > min_eff for e in Eff]\u000apairs = zip(range(len(sel)), sel)\u000apTreatment = [Treatment[i] for i,b in pairs if b]\u000apRunType = [RunType[i] for i,b in pairs if b]\u000apBRpl = [BRpl[i] for i,b in pairs if b]\u000agrouping_columns = [pTreatment, pRunType, pBRpl]\u000apCt = [Ct[i] for i,b in pairs if b]\u000apEff = [Eff[i] for i,b in pairs if b]\u000aGroups, groupedCt = groupBy(\u000a     grouping_columns, pCt)\u000aGroups, groupedEff = groupBy(\u000a     grouping_columns, pEff)\u000aGroups = [[g[0], g[1], g[2]] for g in Groups]\u000aGroupedCt = roundValues(groupedCt,2)\u000aGroupedEff = roundValues(groupedEff,2)
p666
sS'_name'
p667
VGroups
p668
sS'_isExpression'
p669
I00
sS'_isStatement'
p670
I00
sS'_formula'
p671
Vsel = [e > min_eff for e in Eff]\u000apairs = zip(range(len(sel)), sel)\u000apTreatment = [Treatment[i] for i,b in pairs if b]\u000apRunType = [RunType[i] for i,b in pairs if b]\u000apBRpl = [BRpl[i] for i,b in pairs if b]\u000agrouping_columns = [pTreatment, pRunType, pBRpl]\u000apCt = [Ct[i] for i,b in pairs if b]\u000apEff = [Eff[i] for i,b in pairs if b]\u000aGroups, groupedCt = groupBy(\u000a     grouping_columns, pCt)\u000aGroups, groupedEff = groupBy(\u000a     grouping_columns, pEff)\u000aGroups = [[g[0], g[1], g[2]] for g in Groups]\u000aGroupedCt = roundValues(groupedCt,2)\u000aGroupedEff = roundValues(groupedEff,2)
p672
sbsS'_data_class'
p673
g0
(cscisheets.core.helpers.api_util
DataClass
p674
c__builtin__
tuple
p675
(cnumpy
ndarray
p676
cscisheets.core.helpers.api_util
makeArray
p677
tp678
tp679
Rp680
sg667
g668
sbag0
(g516
g2
Ntp681
Rp682
(dp683
g520
I00
sg521
g4
sg522
(lp684
(lp685
F0.92
aF0.91
aF0.91
aa(lp686
F0.83
aF0.83
aF0.85
aa(lp687
F0.82
aF0.85
aF0.82
aa(lp688
F0.85
aF0.84
aF0.85
aa(lp689
F0.87
aF0.78
aF0.85
aa(lp690
F0.84
aF0.84
aF0.77
aa(lp691
F0.92
aF0.98
aF0.9
aa(lp692
F0.9
aF0.83
aF0.84
aa(lp693
F0.87
aF0.85
aF0.83
aa(lp694
F0.79
aF0.84
aF0.86
aa(lp695
F0.83
aF0.82
aF0.83
aa(lp696
F0.81
aF0.82
aF0.8
aa(lp697
F0.84
aF0.79
aF0.81
aa(lp698
F0.77
aF0.87
aF0.81
aa(lp699
F0.78
aF0.77
aF0.79
aa(lp700
F0.88
aF0.86
aF0.89
aa(lp701
F0.87
aF0.9
aF0.86
aa(lp702
F0.82
aF0.82
aF0.79
aasg660
g0
(g661
g2
Ntp703
Rp704
(dp705
g665
NsS'_column'
p706
g682
sg669
I00
sg670
I00
sg671
Nsbsg673
g0
(g674
g675
(g676
g677
tp707
tp708
Rp709
sg667
VGroupedEff
p710
sbag0
(g516
g2
Ntp711
Rp712
(dp713
g520
I00
sg521
g4
sg522
(lp714
(lp715
F18.31
aF18.29
aF18.15
aa(lp716
F18.24
aF18.22
aF18.36
aa(lp717
F19.72
aF19.75
aF20.01
aa(lp718
F22.42
aF22.5
aF22.44
aa(lp719
F21.92
aF22.03
aF21.94
aa(lp720
F23.4
aF23.47
aF23.41
aa(lp721
F19.92
aF19.85
aF20.0
aa(lp722
F21.86
aF22.09
aF21.84
aa(lp723
F23.89
aF23.54
aF24.27
aa(lp724
F22.18
aF21.71
aF21.75
aa(lp725
F23.88
aF23.42
aF23.63
aa(lp726
F24.59
aF24.61
aF24.34
aa(lp727
F23.48
aF23.31
aF23.45
aa(lp728
F23.22
aF23.8
aF23.49
aa(lp729
F26.37
aF26.36
aF26.17
aa(lp730
F18.82
aF18.97
aF18.92
aa(lp731
F18.91
aF18.78
aF18.8
aa(lp732
F20.5
aF20.47
aF20.28
aasg660
g0
(g661
g2
Ntp733
Rp734
(dp735
g665
Nsg706
g712
sg669
I00
sg670
I00
sg671
Nsbsg673
g0
(g674
g675
(g676
g677
tp736
tp737
Rp738
sg667
VGroupedCt
p739
sbag0
(g516
g2
Ntp740
Rp741
(dp742
g520
I00
sg521
g4
sg522
(lp743
(lp744
F18.3
aF18.3
aF18.1
aa(lp745
F18.2
aF18.2
aF18.4
aa(lp746
F19.7
aF19.8
aF20.0
aa(lp747
F22.4
aF22.5
aF22.4
aa(lp748
F21.9
aF22.0
aF21.9
aa(lp749
F23.4
aF23.5
aF23.4
aa(lp750
F19.9
aF19.9
aF20.0
aa(lp751
F21.9
aF22.1
aF21.8
aa(lp752
F23.9
aF23.5
aF24.3
aa(lp753
F22.2
aF21.7
aF21.8
aa(lp754
F23.9
aF23.4
aF23.6
aa(lp755
F24.6
aF24.6
aF24.3
aa(lp756
F23.5
aF23.3
aF23.4
aa(lp757
F23.2
aF23.8
aF23.5
aa(lp758
F26.4
aF26.4
aF26.2
aa(lp759
F18.8
aF19.0
aF18.9
aa(lp760
F18.9
aF18.8
aF18.8
aa(lp761
F20.5
aF20.5
aF20.3
aasg660
g0
(g661
g2
Ntp762
Rp763
(dp764
g665
Vlength = len(Groups)\u000aStdFilteredGroupedCt = roundValues([filterExtremes(g, max_std, 2) for g in pruneNulls(GroupedCt)])\u000a 
p765
sg667
VStdFilteredGroupedCt
p766
sg669
I00
sg670
I00
sg671
Vlength = len(Groups)\u000aStdFilteredGroupedCt = roundValues([filterExtremes(g, max_std, 2) for g in pruneNulls(GroupedCt)])\u000a 
p767
sbsg673
g0
(g674
g675
(g676
g677
tp768
tp769
Rp770
sg667
g766
sbag0
(g516
g2
Ntp771
Rp772
(dp773
g520
I00
sg521
g4
sg522
(lp774
F18.2
aF18.3
aF19.8
aF22.4
aF21.9
aF23.4
aF19.9
aF21.9
aF23.9
aF21.9
aF23.6
aF24.5
aF23.4
aF23.5
aF26.3
aF18.9
aF18.8
aF20.4
aFnan
aFnan
aFnan
aFnan
aFnan
aFnan
aFnan
aFnan
aFnan
aFnan
aFnan
aFnan
aFnan
aFnan
aFnan
aFnan
aFnan
aFnan
aFnan
aFnan
aFnan
aFnan
aFnan
aFnan
aFnan
aFnan
aFnan
aFnan
aFnan
aFnan
aFnan
aFnan
aFnan
aFnan
aFnan
aFnan
aFnan
aFnan
aFnan
aFnan
aFnan
aFnan
aFnan
aFnan
aFnan
aFnan
asg660
g0
(g661
g2
Ntp775
Rp776
(dp777
g665
VMeanCt = [np.mean(g) for g in StdFilteredGroupedCt]\u000aMeanCt = roundValues(MeanCt,1)\u000aStdCt = [np.std(g, ddof=1) if len(g) > 2 else 0 for g in StdFilteredGroupedCt]\u000aStdCt = roundValues(StdCt,3)
p778
sg667
VMeanCt
p779
sg669
I00
sg670
I00
sg671
VMeanCt = [np.mean(g) for g in StdFilteredGroupedCt]\u000aMeanCt = roundValues(MeanCt,1)\u000aStdCt = [np.std(g, ddof=1) if len(g) > 2 else 0 for g in StdFilteredGroupedCt]\u000aStdCt = roundValues(StdCt,3)
p780
sbsg673
g0
(g674
g675
(g676
g677
tp781
tp782
Rp783
sg667
g779
sbag0
(g516
g2
Ntp784
Rp785
(dp786
g520
I00
sg521
g4
sg522
(lp787
F0.115
aF0.115
aF0.153
aF0.058
aF0.058
aF0.058
aF0.058
aF0.153
aF0.4
aF0.265
aF0.252
aF0.173
aF0.1
aF0.3
aF0.115
aF0.1
aF0.058
aF0.115
asg660
g0
(g661
g2
Ntp788
Rp789
(dp790
g665
Nsg706
g785
sg669
I00
sg670
I00
sg671
Nsbsg673
g0
(g674
g675
(g676
g677
tp791
tp792
Rp793
sg667
VStdCt
p794
sbag0
(g516
g2
Ntp795
Rp796
(dp797
g520
I00
sg521
g4
sg522
(lp798
(lp799
g525
(g526
(S'i8'
p800
I0
I1
tp801
Rp802
(I3
S'<'
p803
NNNI-1
I-1
I0
tp804
bS'\x00\x00\x00\x00\x00\x00\x00\x00'
p805
tp806
Rp807
ag525
(g802
S'\x01\x00\x00\x00\x00\x00\x00\x00'
p808
tp809
Rp810
aa(lp811
g525
(g802
S'\x01\x00\x00\x00\x00\x00\x00\x00'
p812
tp813
Rp814
ag525
(g802
S'\x01\x00\x00\x00\x00\x00\x00\x00'
p815
tp816
Rp817
aa(lp818
g525
(g802
S'\x01\x00\x00\x00\x00\x00\x00\x00'
p819
tp820
Rp821
ag525
(g802
S'\x02\x00\x00\x00\x00\x00\x00\x00'
p822
tp823
Rp824
aa(lp825
g525
(g802
S'\x01\x00\x00\x00\x00\x00\x00\x00'
p826
tp827
Rp828
ag525
(g802
S'\x03\x00\x00\x00\x00\x00\x00\x00'
p829
tp830
Rp831
aa(lp832
g525
(g802
S'\x02\x00\x00\x00\x00\x00\x00\x00'
p833
tp834
Rp835
ag525
(g802
S'\x01\x00\x00\x00\x00\x00\x00\x00'
p836
tp837
Rp838
aa(lp839
g525
(g802
S'\x03\x00\x00\x00\x00\x00\x00\x00'
p840
tp841
Rp842
ag525
(g802
S'\x01\x00\x00\x00\x00\x00\x00\x00'
p843
tp844
Rp845
aa(lp846
g525
(g802
S'\x04\x00\x00\x00\x00\x00\x00\x00'
p847
tp848
Rp849
ag525
(g802
S'\x01\x00\x00\x00\x00\x00\x00\x00'
p850
tp851
Rp852
aaNaNaNaNaNaNaNaNaNaNaNaNaNaNaNaNaNaNaNaNaNaNaNaNaNaNaNaNaNaNaNaNaNaNaNaNaNaNaNaNaNaNaNaNaNaNaNaNaNaNaNaNaNaNaNaNaNasg660
g0
(g661
g2
Ntp853
Rp854
(dp855
g665
Vdummy = tabularize(s, 'Groups', 1, 'MeanCt', \u000a          new_category_colnm='BioRuns',\u000a          values_colnm_prefix='Gene_')
p856
sg667
VBioRuns
p857
sg669
I00
sg670
I00
sg671
Vdummy = tabularize(s, 'Groups', 1, 'MeanCt', \u000a          new_category_colnm='BioRuns',\u000a          values_colnm_prefix='Gene_')
p858
sbsg673
g0
(g674
g675
(g676
g677
tp859
tp860
Rp861
sg667
g857
sbag0
(g516
g2
Ntp862
Rp863
(dp864
g520
I00
sg521
g4
sg522
(lp865
F18.2
aF22.4
aF21.9
aF23.4
aF23.4
aF18.9
aFnan
aFnan
aFnan
aFnan
aFnan
aFnan
aFnan
aFnan
aFnan
aFnan
aFnan
aFnan
aFnan
aFnan
aFnan
aFnan
aFnan
aFnan
aFnan
aFnan
aFnan
aFnan
aFnan
aFnan
aFnan
aFnan
aFnan
aFnan
aFnan
aFnan
aFnan
aFnan
aFnan
aFnan
aFnan
aFnan
aFnan
aFnan
aFnan
aFnan
aFnan
aFnan
aFnan
aFnan
aFnan
aFnan
aFnan
aFnan
aFnan
aFnan
aFnan
aFnan
aFnan
aFnan
aFnan
aFnan
aFnan
aFnan
asg660
g0
(g661
g2
Ntp866
Rp867
(dp868
g665
Nsg706
g863
sg669
I00
sg670
I00
sg671
Nsbsg673
g0
(g674
g675
(g676
g677
tp869
tp870
Rp871
sg667
S'Gene_I'
p872
sbag0
(g516
g2
Ntp873
Rp874
(dp875
g520
I00
sg521
g4
sg522
(lp876
F18.3
aF19.9
aF21.9
aF23.9
aF23.5
aF18.8
aFnan
aFnan
aFnan
aFnan
aFnan
aFnan
aFnan
aFnan
aFnan
aFnan
aFnan
aFnan
aFnan
aFnan
aFnan
aFnan
aFnan
aFnan
aFnan
aFnan
aFnan
aFnan
aFnan
aFnan
aFnan
aFnan
aFnan
aFnan
aFnan
aFnan
aFnan
aFnan
aFnan
aFnan
aFnan
aFnan
aFnan
aFnan
aFnan
aFnan
aFnan
aFnan
aFnan
aFnan
aFnan
aFnan
aFnan
aFnan
aFnan
aFnan
aFnan
aFnan
aFnan
aFnan
aFnan
aFnan
aFnan
aFnan
asg660
g0
(g661
g2
Ntp877
Rp878
(dp879
g665
Nsg706
g874
sg669
I00
sg670
I00
sg671
Nsbsg673
g871
sg667
S'Gene_R1'
p880
sbag0
(g516
g2
Ntp881
Rp882
(dp883
g520
I00
sg521
g4
sg522
(lp884
F19.8
aF21.9
aF23.6
aF24.5
aF26.3
aF20.4
aFnan
aFnan
aFnan
aFnan
aFnan
aFnan
aFnan
aFnan
aFnan
aFnan
aFnan
aFnan
aFnan
aFnan
aFnan
aFnan
aFnan
aFnan
aFnan
aFnan
aFnan
aFnan
aFnan
aFnan
aFnan
aFnan
aFnan
aFnan
aFnan
aFnan
aFnan
aFnan
aFnan
aFnan
aFnan
aFnan
aFnan
aFnan
aFnan
aFnan
aFnan
aFnan
aFnan
aFnan
aFnan
aFnan
aFnan
aFnan
aFnan
aFnan
aFnan
aFnan
aFnan
aFnan
aFnan
aFnan
aFnan
aFnan
asg660
g0
(g661
g2
Ntp885
Rp886
(dp887
g665
Nsg706
g882
sg669
I00
sg670
I00
sg671
Nsbsg673
g871
sg667
S'Gene_R2'
p888
sbag0
(g516
g2
Ntp889
Rp890
(dp891
g520
I00
sg521
g4
sg522
(lp892
F1.07177
aF0.17678
aF1.0
aF1.41421
aF1.07177
aF0.93303
aFnan
aFnan
aFnan
aFnan
aFnan
aFnan
aFnan
aFnan
aFnan
aFnan
aFnan
aFnan
aFnan
aFnan
aFnan
aFnan
aFnan
aFnan
aFnan
aFnan
aFnan
aFnan
aFnan
aFnan
aFnan
aFnan
aFnan
aFnan
aFnan
aFnan
aFnan
aFnan
aFnan
aFnan
aFnan
aFnan
aFnan
aFnan
aFnan
aFnan
aFnan
aFnan
aFnan
aFnan
aFnan
aFnan
aFnan
aFnan
aFnan
aFnan
aFnan
aFnan
aFnan
aFnan
aFnan
aFnan
aFnan
aFnan
asg660
g0
(g661
g2
Ntp893
Rp894
(dp895
g665
VExprR1 = roundValues(2**(Gene_R1 - Gene_I),5)
p896
sg667
VExprR1
p897
sg669
I01
sg670
I00
sg671
VroundValues(2**(Gene_R1 - Gene_I),5)
p898
sbsg673
g0
(g674
g675
(g676
g677
tp899
tp900
Rp901
sg667
g897
sbag0
(g516
g2
Ntp902
Rp903
(dp904
g520
I00
sg521
g4
sg522
(lp905
F3.03143
aF0.70711
aF3.24901
aF2.14355
aF7.46426
aF2.82843
aFnan
aFnan
aFnan
aFnan
aFnan
aFnan
aFnan
aFnan
aFnan
aFnan
aFnan
aFnan
aFnan
aFnan
aFnan
aFnan
aFnan
aFnan
aFnan
aFnan
aFnan
aFnan
aFnan
aFnan
aFnan
aFnan
aFnan
aFnan
aFnan
aFnan
aFnan
aFnan
aFnan
aFnan
aFnan
aFnan
aFnan
aFnan
aFnan
aFnan
aFnan
aFnan
aFnan
aFnan
aFnan
aFnan
aFnan
aFnan
aFnan
aFnan
aFnan
aFnan
aFnan
aFnan
aFnan
aFnan
aFnan
aFnan
asg660
g0
(g661
g2
Ntp906
Rp907
(dp908
g665
VExprR2 = roundValues(2**(Gene_R2 - Gene_I),5)
p909
sg667
VExprR2
p910
sg669
I01
sg670
I00
sg671
VroundValues(2**(Gene_R2 - Gene_I),5)
p911
sbsg673
g0
(g674
g675
(g676
g677
tp912
tp913
Rp914
sg667
g910
sbag0
(g516
g2
Ntp915
Rp916
(dp917
g520
I00
sg521
g4
sg522
(lp918
F1.802
aF0.354
aF1.803
aF1.741
aF2.828
aF1.625
aFnan
aFnan
aFnan
aFnan
aFnan
aFnan
aFnan
aFnan
aFnan
aFnan
aFnan
aFnan
aFnan
aFnan
aFnan
aFnan
aFnan
aFnan
aFnan
aFnan
aFnan
aFnan
aFnan
aFnan
aFnan
aFnan
aFnan
aFnan
aFnan
aFnan
aFnan
aFnan
aFnan
aFnan
aFnan
aFnan
aFnan
aFnan
aFnan
aFnan
aFnan
aFnan
aFnan
aFnan
aFnan
aFnan
aFnan
aFnan
aFnan
aFnan
aFnan
aFnan
aFnan
aFnan
aFnan
aFnan
aFnan
aFnan
asg660
g0
(g661
g2
Ntp919
Rp920
(dp921
g665
VGeoMean = roundValues(np.sqrt(ExprR1*ExprR2), 3)
p922
sg667
VGeoMean
p923
sg669
I01
sg670
I00
sg671
VroundValues(np.sqrt(ExprR1*ExprR2), 3)
p924
sbsg673
g0
(g674
g675
(g676
g677
tp925
tp926
Rp927
sg667
g923
sbag0
(g516
g2
Ntp928
Rp929
(dp930
g520
I00
sg521
g4
sg522
(lp931
F1.0
aF1.0
aF1.0
aF1.0
aF1.0
aF1.0
aF1.0
aF1.0
aF1.0
aF1.0
aF1.0
aF1.0
aF2.0
aF2.0
aF2.0
aF3.0
aF3.0
aF3.0
aF1.0
aF1.0
aF1.0
aF2.0
aF2.0
aF2.0
aF3.0
aF3.0
aF3.0
aF1.0
aF1.0
aF1.0
aF2.0
aF2.0
aF2.0
aF3.0
aF3.0
aF3.0
aF1.0
aF1.0
aF1.0
aF1.0
aF1.0
aF1.0
aF1.0
aF1.0
aF1.0
aF1.0
aF1.0
aF1.0
aF1.0
aF1.0
aF1.0
aF1.0
aF1.0
aF1.0
aFnan
aFnan
aFnan
aFnan
aFnan
aFnan
aFnan
aFnan
aFnan
aFnan
asg660
g0
(g661
g2
Ntp932
Rp933
(dp934
g665
Nsg667
S'BRpl'
p935
sg669
I00
sg670
I00
sg671
Nsbsg673
g0
(g674
g675
(cscisheets.core.helpers.extended_array
ExtendedArray
p936
g677
tp937
tp938
Rp939
sg667
g935
sbag0
(g516
g2
Ntp940
Rp941
(dp942
g520
I00
sg521
g4
sg522
(lp943
F18.31
aF18.29
aF18.15
aF18.24
aF18.22
aF18.36
aF19.72
aF19.75
aF20.01
aF22.42
aF22.5
aF22.44
aF21.92
aF22.03
aF21.94
aF23.4
aF23.47
aF23.41
aF19.92
aF19.85
aF20.0
aF21.86
aF22.09
aF21.84
aF23.89
aF23.54
aF24.27
aF22.18
aF21.71
aF21.75
aF23.88
aF23.42
aF23.63
aF24.59
aF24.61
aF24.34
aF23.48
aF23.31
aF23.45
aF23.22
aF23.8
aF23.49
aF26.37
aF26.36
aF26.17
aF18.82
aF18.97
aF18.92
aF18.91
aF18.78
aF18.8
aF20.5
aF20.47
aF20.28
aFnan
aFnan
aFnan
aFnan
aFnan
aFnan
aFnan
aFnan
aFnan
aFnan
asg660
g0
(g661
g2
Ntp944
Rp945
(dp946
g665
Nsg667
S'Ct'
p947
sg669
I00
sg670
I00
sg671
Nsbsg673
g939
sg667
g947
sbag0
(g516
g2
Ntp948
Rp949
(dp950
g520
I00
sg521
g4
sg522
(lp951
F0.919
aF0.9106
aF0.9129
aF0.8266
aF0.8343
aF0.8496
aF0.8157
aF0.8543
aF0.8208
aF0.8453
aF0.8426
aF0.8524
aF0.8658
aF0.7809
aF0.8512
aF0.8442
aF0.8357
aF0.7658
aF0.9179
aF0.9783
aF0.8971
aF0.8957
aF0.8287
aF0.8387
aF0.8746
aF0.8493
aF0.8349
aF0.7857
aF0.8427
aF0.8637
aF0.8281
aF0.8203
aF0.8288
aF0.8138
aF0.8242
aF0.804
aF0.8352
aF0.7886
aF0.8105
aF0.7701
aF0.8746
aF0.8139
aF0.7795
aF0.7676
aF0.7947
aF0.876
aF0.8597
aF0.8873
aF0.8715
aF0.8977
aF0.856
aF0.8179
aF0.8173
aF0.7894
aFnan
aFnan
aFnan
aFnan
aFnan
aFnan
aFnan
aFnan
aFnan
aFnan
asg660
g0
(g661
g2
Ntp952
Rp953
(dp954
g665
Nsg667
S'Eff'
p955
sg669
I00
sg670
I00
sg671
Nsbsg673
g939
sg667
g955
sbag0
(g516
g2
Ntp956
Rp957
(dp958
g520
I00
sg521
g4
sg522
(lp959
g535
ag535
ag535
ag543
ag543
ag543
ag551
ag551
ag551
ag535
ag535
ag535
ag535
ag535
ag535
ag535
ag535
ag535
ag543
ag543
ag543
ag543
ag543
ag543
ag543
ag543
ag543
ag551
ag551
ag551
ag551
ag551
ag551
ag551
ag551
ag551
ag535
ag535
ag535
ag543
ag543
ag543
ag551
ag551
ag551
ag535
ag535
ag535
ag543
ag543
ag543
ag551
ag551
ag551
aNaNaNaNaNaNaNaNaNaNasg660
g0
(g661
g2
Ntp960
Rp961
(dp962
g665
Nsg667
S'RunType'
p963
sg669
I00
sg670
I00
sg671
Nsbsg673
g939
sg667
g963
sbag0
(g516
g2
Ntp964
Rp965
(dp966
g520
I00
sg521
g4
sg522
(lp967
Va
p968
aVb
p969
aVc
p970
ag968
ag969
ag970
ag968
ag969
ag970
ag968
ag969
ag970
ag968
ag969
ag970
ag968
ag969
ag970
ag968
ag969
ag970
ag968
ag969
ag970
ag968
ag969
ag970
ag968
ag969
ag970
ag968
ag969
ag970
ag968
ag969
ag970
ag968
ag969
ag970
ag968
ag969
ag970
ag968
ag969
ag970
ag968
ag969
ag970
ag968
ag969
ag970
ag968
ag969
ag970
aNaNaNaNaNaNaNaNaNaNasg660
g0
(g661
g2
Ntp971
Rp972
(dp973
g665
Nsg667
S'TRpl'
p974
sg669
I00
sg670
I00
sg671
Nsbsg673
g939
sg667
g974
sbag0
(g516
g2
Ntp975
Rp976
(dp977
g520
I00
sg521
g4
sg522
(lp978
F0.0
aF0.0
aF0.0
aF0.0
aF0.0
aF0.0
aF0.0
aF0.0
aF0.0
aF1.0
aF1.0
aF1.0
aF1.0
aF1.0
aF1.0
aF1.0
aF1.0
aF1.0
aF1.0
aF1.0
aF1.0
aF1.0
aF1.0
aF1.0
aF1.0
aF1.0
aF1.0
aF1.0
aF1.0
aF1.0
aF1.0
aF1.0
aF1.0
aF1.0
aF1.0
aF1.0
aF2.0
aF2.0
aF2.0
aF2.0
aF2.0
aF2.0
aF2.0
aF2.0
aF2.0
aF3.0
aF3.0
aF3.0
aF3.0
aF3.0
aF3.0
aF3.0
aF3.0
aF3.0
aFnan
aFnan
aFnan
aFnan
aFnan
aFnan
aFnan
aFnan
aFnan
aFnan
asg660
g0
(g661
g2
Ntp979
Rp980
(dp981
g665
Nsg667
S'Treatment'
p982
sg669
I00
sg670
I00
sg671
Nsbsg673
g939
sg667
g982
sbasS'_is_evaluate_formulas'
p983
I01
sS'_prologue'
p984
g0
(g661
g2
Ntp985
Rp986
(dp987
g665
V# Prologue\u000aimport math as mt\u000aimport numpy as np\u000afrom os import listdir\u000afrom os.path import isfile, join\u000aimport pandas as pd\u000aimport scipy as sp\u000afrom numpy import nan  # Must follow sympy import \u000a\u000axlsx_path =   '/mnt/hgfs/josephhellerstein/home/Technical/SciSheets/CaseStudies/Kristen/workbooks/data.xlsx'\u000agene = ParmValues[0]\u000arun = ParmValues[1] == 'True'\u000ashow_raw = ParmValues[2] == 'True'\u000ashow_block1 = ParmValues[3] == 'True'\u000ashow_block2 = ParmValues[4] == 'True'\u000ashow_block3 = ParmValues[5] == 'True'\u000ashow_params = ParmValues[8] == 'True'\u000a#show_params = True\u000amax_std  = float(ParmValues[6])\u000amin_eff = float(ParmValues[7])\u000aworksheet = gene + "-I"\u000as.getTable().setIsEvaluateFormulas(run)\u000as.setColumnVisibility()\u000as.setColumnVisibility(['Groups', 'GroupedEff', 'GroupedCt', 'StdFilteredGroupedCt', 'MeanCt',\u000a    'StdCt'], is_visible=show_block1)\u000as.setColumnVisibility(['BioRuns', 'Gene_I', 'Gene_R1', 'Gene_R2', 'ExprR1', 'ExprR2', \u000a    'GeoMean'], is_visible=show_block2)\u000as.setColumnVisibility(['GeoGroups', 'GroupedGeoMeans', 'NrmlGeoGroupedMeans', \u000a    'MeanNrmlGeoGroups', 'StdNrmlGeoGroups'], is_visible=show_block3)\u000aif run:\u000a  Groups = []\u000a  GroupedCt = []\u000a  GroupedEff = []\u000a  MeanCt = []\u000a  Imp = []\u000a  s.deleteColumn('Ct')\u000a  s.deleteColumn('RunType')\u000a  s.deleteColumn('BRpl')\u000a  s.deleteColumn('TRpl')\u000a  s.deleteColumn('Treatment')\u000a  s.deleteColumn('Eff')\u000aif run:\u000a  importExcelToTable(s, xlsx_path, worksheet=worksheet,\u000a      column_position='ParmValues',\u000a      names=['Treatment', 'RunType', 'BRpl', 'TRpl', 'Eff', 'Ct'])\u000as.setColumnVisibility(['BRpl', 'Ct', 'Eff', 'RunType', 'TRpl', 'Treatment'], is_visible=show_raw)\u000as.setColumnVisibility(['ParmNames', 'ParmValues'], show_params)
p988
sg667
VSingleGene
p989
sg669
I00
sg670
I00
sg671
V# Prologue\u000aimport math as mt\u000aimport numpy as np\u000afrom os import listdir\u000afrom os.path import isfile, join\u000aimport pandas as pd\u000aimport scipy as sp\u000afrom numpy import nan  # Must follow sympy import \u000a\u000axlsx_path =   '/mnt/hgfs/josephhellerstein/home/Technical/SciSheets/CaseStudies/Kristen/workbooks/data.xlsx'\u000agene = ParmValues[0]\u000arun = ParmValues[1] == 'True'\u000ashow_raw = ParmValues[2] == 'True'\u000ashow_block1 = ParmValues[3] == 'True'\u000ashow_block2 = ParmValues[4] == 'True'\u000ashow_block3 = ParmValues[5] == 'True'\u000ashow_params = ParmValues[8] == 'True'\u000a#show_params = True\u000amax_std  = float(ParmValues[6])\u000amin_eff = float(ParmValues[7])\u000aworksheet = gene + "-I"\u000as.getTable().setIsEvaluateFormulas(run)\u000as.setColumnVisibility()\u000as.setColumnVisibility(['Groups', 'GroupedEff', 'GroupedCt', 'StdFilteredGroupedCt', 'MeanCt',\u000a    'StdCt'], is_visible=show_block1)\u000as.setColumnVisibility(['BioRuns', 'Gene_I', 'Gene_R1', 'Gene_R2', 'ExprR1', 'ExprR2', \u000a    'GeoMean'], is_visible=show_block2)\u000as.setColumnVisibility(['GeoGroups', 'GroupedGeoMeans', 'NrmlGeoGroupedMeans', \u000a    'MeanNrmlGeoGroups', 'StdNrmlGeoGroups'], is_visible=show_block3)\u000aif run:\u000a  Groups = []\u000a  GroupedCt = []\u000a  GroupedEff = []\u000a  MeanCt = []\u000a  Imp = []\u000a  s.deleteColumn('Ct')\u000a  s.deleteColumn('RunType')\u000a  s.deleteColumn('BRpl')\u000a  s.deleteColumn('TRpl')\u000a  s.deleteColumn('Treatment')\u000a  s.deleteColumn('Eff')\u000aif run:\u000a  importExcelToTable(s, xlsx_path, worksheet=worksheet,\u000a      column_position='ParmValues',\u000a      names=['Treatment', 'RunType', 'BRpl', 'TRpl', 'Eff', 'Ct'])\u000as.setColumnVisibility(['BRpl', 'Ct', 'Eff', 'RunType', 'TRpl', 'Treatment'], is_visible=show_raw)\u000as.setColumnVisibility(['ParmNames', 'ParmValues'], show_params)
p990
sbsS'_epilogue'
p991
g0
(g661
g2
Ntp992
Rp993
(dp994
g665
V# Epilogue\u000aif run:\u000a  worksheet = "%s-O" % gene\u000a  exportTableToExcel(s, xlsx_path, worksheet=worksheet, columns=['GeoGroups',  \u000a      'MeanNrmlGeoGroups', 'StdNrmlGeoGroups'])\u000a
p995
sg667
g989
sg669
I00
sg670
I00
sg671
V# Epilogue\u000aif run:\u000a  worksheet = "%s-O" % gene\u000a  exportTableToExcel(s, xlsx_path, worksheet=worksheet, columns=['GeoGroups',  \u000a      'MeanNrmlGeoGroups', 'StdNrmlGeoGroups'])\u000a
p996
sbsg667
g989
sS'_columns'
p997
(lp998
g0
(g516
g2
Ntp999
Rp1000
(dp1001
g520
I01
sg521
g4
sg522
(lp1002
S'1'
p1003
aS'2'
p1004
aS'3'
p1005
aS'4'
p1006
aS'5'
p1007
aS'6'
p1008
aS'7'
p1009
aS'8'
p1010
aS'9'
p1011
aS'10'
p1012
aS'11'
p1013
aS'12'
p1014
aS'13'
p1015
aS'14'
p1016
aS'15'
p1017
aS'16'
p1018
aS'17'
p1019
aS'18'
p1020
aS'19'
p1021
aS'20'
p1022
aS'21'
p1023
aS'22'
p1024
aS'23'
p1025
aS'24'
p1026
aS'25'
p1027
aS'26'
p1028
aS'27'
p1029
aS'28'
p1030
aS'29'
p1031
aS'30'
p1032
aS'31'
p1033
aS'32'
p1034
aS'33'
p1035
aS'34'
p1036
aS'35'
p1037
aS'36'
p1038
aS'37'
p1039
aS'38'
p1040
aS'39'
p1041
aS'40'
p1042
aS'41'
p1043
aS'42'
p1044
aS'43'
p1045
aS'44'
p1046
aS'45'
p1047
aS'46'
p1048
aS'47'
p1049
aS'48'
p1050
aS'49'
p1051
aS'50'
p1052
aS'51'
p1053
aS'52'
p1054
aS'53'
p1055
aS'54'
p1056
aS'55'
p1057
aS'56'
p1058
aS'57'
p1059
aS'58'
p1060
aS'59'
p1061
aS'60'
p1062
aS'61'
p1063
aS'62'
p1064
aS'63'
p1065
aS'64'
p1066
asg660
g0
(g661
g2
Ntp1067
Rp1068
(dp1069
g665
Nsg706
g1000
sg669
I00
sg670
I00
sg671
Nsbsg673
g0
(g674
g675
(g676
g677
tp1070
tp1071
Rp1072
sg667
S'row'
p1073
sbag0
(g516
g2
Ntp1074
Rp1075
(dp1076
g520
I00
sg521
g4
sg522
(lp1077
Vgene
p1078
aVrun
p1079
aVshow_raw
p1080
aVshow_block1
p1081
aVshow_block2
p1082
aVshow_block3
p1083
aVmax_std
p1084
aVmin_eff
p1085
aVshow_params
p1086
aVnan
p1087
aVnan
p1088
aVnan
p1089
aVnan
p1090
aVnan
p1091
aVnan
p1092
aVnan
p1093
aVnan
p1094
aVnan
p1095
aVnan
p1096
aVnan
p1097
aVnan
p1098
aVnan
p1099
aVnan
p1100
aVnan
p1101
aVnan
p1102
aVnan
p1103
aVnan
p1104
aVnan
p1105
aVnan
p1106
aVnan
p1107
aVnan
p1108
aVnan
p1109
aVnan
p1110
aVnan
p1111
aVnan
p1112
aVnan
p1113
aVnan
p1114
aVnan
p1115
aVnan
p1116
aVnan
p1117
aVnan
p1118
aVnan
p1119
aVnan
p1120
aVnan
p1121
aVnan
p1122
aVnan
p1123
aVnan
p1124
aVnan
p1125
aVnan
p1126
aVnan
p1127
aVnan
p1128
aVnan
p1129
aVnan
p1130
aVnan
p1131
aNaNaNaNaNaNaNaNaNaNasg660
g0
(g661
g2
Ntp1132
Rp1133
(dp1134
g665
Nsg706
g1075
sg669
I00
sg670
I00
sg671
Nsbsg673
g0
(g674
g675
(g676
g677
tp1135
tp1136
Rp1137
sg667
VParmNames
p1138
sbag0
(g516
g2
Ntp1139
Rp1140
(dp1141
g520
I00
sg521
g4
sg522
(lp1142
VGene2
p1143
aVTrue
p1144
aVFalse
p1145
aVFalse
p1146
aVFalse
p1147
aVTrue
p1148
aF0.5
aF0.7
aVTrue
p1149
aV
p1150
aVnan
p1151
aVnan
p1152
aVnan
p1153
aVnan
p1154
aVnan
p1155
aVnan
p1156
aVnan
p1157
aVnan
p1158
aVnan
p1159
aVnan
p1160
aVnan
p1161
aVnan
p1162
aVnan
p1163
aVnan
p1164
aVnan
p1165
aVnan
p1166
aVnan
p1167
aVnan
p1168
aVnan
p1169
aVnan
p1170
aVnan
p1171
aVnan
p1172
aVnan
p1173
aVnan
p1174
aVnan
p1175
aVnan
p1176
aVnan
p1177
aVnan
p1178
aVnan
p1179
aVnan
p1180
aVnan
p1181
aVnan
p1182
aVnan
p1183
aVnan
p1184
aVnan
p1185
aVnan
p1186
aVnan
p1187
aVnan
p1188
aVnan
p1189
aVnan
p1190
aVnan
p1191
aVnan
p1192
aVnan
p1193
aVnan
p1194
aNaNaNaNaNaNaNaNaNaNasg660
g0
(g661
g2
Ntp1195
Rp1196
(dp1197
g665
Nsg667
VParmValues
p1198
sg669
I00
sg670
I00
sg671
Nsbsg673
g0
(g674
g675
(g676
g677
tp1199
tp1200
Rp1201
sg667
g1198
sbag976
ag957
ag929
ag965
ag949
ag941
ag518
ag682
ag712
ag741
ag772
ag785
ag796
ag863
ag874
ag882
ag890
ag903
ag916
ag0
(g516
g2
Ntp1202
Rp1203
(dp1204
g520
I00
sg521
g4
sg522
(lp1205
I0
aI1
aI2
aI3
aI4
asg660
g0
(g661
g2
Ntp1206
Rp1207
(dp1208
g665
Vcat_vals = [br[0] for br in pruneNulls(BioRuns)]\u000aclean_geo = [x for x in GeoMean if x is not None]\u000aGeoGroups, groupedGeoMeans = groupBy(cat_vals, clean_geo)\u000aGroupedGeoMeans = roundValues(groupedGeoMeans, 3)
p1209
sg667
VGeoGroups
p1210
sg669
I00
sg670
I00
sg671
Vcat_vals = [br[0] for br in pruneNulls(BioRuns)]\u000aclean_geo = [x for x in GeoMean if x is not None]\u000aGeoGroups, groupedGeoMeans = groupBy(cat_vals, clean_geo)\u000aGroupedGeoMeans = roundValues(groupedGeoMeans, 3)
p1211
sbsg673
g0
(g674
g675
(g676
g677
tp1212
tp1213
Rp1214
sg667
g1210
sbag0
(g516
g2
Ntp1215
Rp1216
(dp1217
g520
I00
sg521
g4
sg522
(lp1218
cnumpy.core.multiarray
_reconstruct
p1219
(g676
(I0
tp1220
S'b'
p1221
tp1222
Rp1223
(I1
(I1
tp1224
g529
I00
S'\xa2E\xb6\xf3\xfd\xd4\xfc?'
p1225
tp1226
bag1219
(g676
(I0
tp1227
g1221
tp1228
Rp1229
(I1
(I3
tp1230
g529
I00
S'\x0e-\xb2\x9d\xef\xa7\xd6?\x0c\x02+\x87\x16\xd9\xfc?B`\xe5\xd0"\xdb\xfb?'
p1231
tp1232
bag1219
(g676
(I0
tp1233
g1221
tp1234
Rp1235
(I1
(I1
tp1236
g529
I00
S'9\xb4\xc8v\xbe\x9f\x06@'
p1237
tp1238
bag1219
(g676
(I0
tp1239
g1221
tp1240
Rp1241
(I1
(I1
tp1242
g529
I00
S'\x00\x00\x00\x00\x00\x00\xfa?'
p1243
tp1244
bag1219
(g676
(I0
tp1245
g1221
tp1246
Rp1247
(I1
(I1
tp1248
g529
I00
S'\x00\x00\x00\x00\x00\x00\xf8\x7f'
p1249
tp1250
basg660
g0
(g661
g2
Ntp1251
Rp1252
(dp1253
g665
Nsg706
g1216
sg669
I00
sg670
I00
sg671
Nsbsg673
g0
(g674
g675
(g676
g677
tp1254
tp1255
Rp1256
sg667
VGroupedGeoMeans
p1257
sbag0
(g516
g2
Ntp1258
Rp1259
(dp1260
g520
I00
sg521
g4
sg522
(lp1261
g1219
(g676
(I0
tp1262
g1221
tp1263
Rp1264
(I1
(I1
tp1265
g529
I00
S'\x00\x00\x00\x00\x00\x00\xf0?'
p1266
tp1267
bag1219
(g676
(I0
tp1268
g1221
tp1269
Rp1270
(I1
(I3
tp1271
g529
I00
S'J\x0c\x02+\x87\x16\xc9?j\xbct\x93\x18\x04\xf0?\xb6\xf3\xfd\xd4x\xe9\xee?'
p1272
tp1273
bag1219
(g676
(I0
tp1274
g1221
tp1275
Rp1276
(I1
(I1
tp1277
g529
I00
S'\xb4\xc8v\xbe\x9f\x1a\xf9?'
p1278
tp1279
bag1219
(g676
(I0
tp1280
g1221
tp1281
Rp1282
(I1
(I1
tp1283
g529
I00
S'w\xbe\x9f\x1a/\xdd\xec?'
p1284
tp1285
bag1219
(g676
(I0
tp1286
g1221
tp1287
Rp1288
(I1
(I1
tp1289
g529
I00
S'\x00\x00\x00\x00\x00\x00\xf8\x7f'
p1290
tp1291
basg660
g0
(g661
g2
Ntp1292
Rp1293
(dp1294
g665
Vref = np.mean(GroupedGeoMeans[0])\u000aNrmlGeoGroupedMeans = [ [x/ref for x in g] for g in GroupedGeoMeans if g is not None]  \u000aNrmlGeoGroupedMeans = roundValues(NrmlGeoGroupedMeans, 3)
p1295
sg667
VNrmlGeoGroupedMeans
p1296
sg669
I00
sg670
I00
sg671
Vref = np.mean(GroupedGeoMeans[0])\u000aNrmlGeoGroupedMeans = [ [x/ref for x in g] for g in GroupedGeoMeans if g is not None]  \u000aNrmlGeoGroupedMeans = roundValues(NrmlGeoGroupedMeans, 3)
p1297
sbsg673
g0
(g674
g675
(g676
g677
tp1298
tp1299
Rp1300
sg667
g1296
sbag0
(g516
g2
Ntp1301
Rp1302
(dp1303
g520
I00
sg521
g4
sg522
(lp1304
F1.0
aF0.721
aF1.569
aF0.902
aFnan
asg660
g0
(g661
g2
Ntp1305
Rp1306
(dp1307
g665
VMeanNrmlGeoGroups = [round(np.mean(g), 3) for g in NrmlGeoGroupedMeans]
p1308
sg667
VMeanNrmlGeoGroups
p1309
sg669
I01
sg670
I00
sg671
V[round(np.mean(g), 3) for g in NrmlGeoGroupedMeans]
p1310
sbsg673
g0
(g674
g675
(g676
g677
tp1311
tp1312
Rp1313
sg667
g1309
sbag0
(g516
g2
Ntp1314
Rp1315
(dp1316
g520
I00
sg521
g4
sg522
(lp1317
F0.263
asg660
g0
(g661
g2
Ntp1318
Rp1319
(dp1320
g665
VStdNrmlGeoGroups = []\u000afor grp in NrmlGeoGroupedMeans:\u000a  if len(grp) > 1:\u000a    val = np.std(grp, ddof=1)/np.sqrt(len(grp))\u000a    val = round(val, 3)\u000a    StdNrmlGeoGroups.append(val)\u000a
p1321
sg667
VStdNrmlGeoGroups
p1322
sg669
I00
sg670
I00
sg671
VStdNrmlGeoGroups = []\u000afor grp in NrmlGeoGroupedMeans:\u000a  if len(grp) > 1:\u000a    val = np.std(grp, ddof=1)/np.sqrt(len(grp))\u000a    val = round(val, 3)\u000a    StdNrmlGeoGroups.append(val)\u000a
p1323
sbsg673
g0
(g674
g675
(g676
g677
tp1324
tp1325
Rp1326
sg667
g1322
sbasg509
V/home/ubuntu/SciSheets/mysite/user/guest/tables/kristen_single_gene.pcl
p1327
sb.