ccopy_reg
_reconstructor
p0
(cscisheets.ui.dt_table
DTTable
p1
c__builtin__
object
p2
Ntp3
Rp4
(dp5
S'_hidden_columns'
p6
(lp7
g0
(cscisheets.core.column
Column
p8
g2
Ntp9
Rp10
(dp11
S'_asis'
p12
I00
sS'_owning_table'
p13
g4
sS'_cells'
p14
(lp15
VSEP1 2012 P17F4 3a
p16
aVSEP1 2012 P17F4 b
p17
aVSEP1 2012 P17F4 c
p18
aVSEP1 2012 P17F5 a
p19
aVSEP1 2012 P17F5 b
p20
aVSEP1 2012 P17F5 c
p21
aVSEP1 2012 P1F3 SEP1a
p22
aVSEP1 2012 P1F3 SEP1b
p23
aVSEP1 2012 P1F3 SEP1c
p24
aVSEP1-2 2012 P11aF2 a
p25
aVSEP1-2 2012 P11aF2 b
p26
aVSEP1-2 2012 P11aF2 c
p27
aVSEP1-3 2012 P15F2 a
p28
aVSEP1-3 2012 P15F2 b
p29
aVSEP1-3 2012 P15F2 c
p30
aVuntreated 2012 P12F1 SEP3-3 1:2a
p31
aVuntreated 2012 P12F1 SEP3-3 1:2b
p32
aVuntreated 2012 P12F1 SEP3-3 1:2c
p33
aVSEP1 2012 P17F4 ACTa
p34
aVSEP1 2012 P17F4 ACTb
p35
aVSEP1 2012 P17F4 ACTc
p36
aVSEP1 2012 P17F5 ACTa
p37
aVSEP1 2012 P17F5 ACTb
p38
aVSEP1 2012 P17F5 ACTc
p39
aVSEP1 2012 P1F3 ACTa
p40
aVSEP1 2012 P1F3 ACTb
p41
aVSEP1 2012 P1F3 ACTc
p42
aVSEP1-2 2012 P11aF2 ACTa
p43
aVSEP1-2 2012 P11aF2 ACTb
p44
aVSEP1-2 2012 P11aF2 ACTc
p45
aVSEP1-3 2012 P15F2 ACTa
p46
aVSEP1-3 2012 P15F2 ACTb
p47
aVSEP1-3 2012 P15F2 ACTc
p48
aVuntreated 2012 P12F1 ACTa
p49
aVuntreated 2012 P12F1 ACTb
p50
aVuntreated 2012 P12F1 ACTc
p51
aVSEP1 2012 P17F4 EEF1a
p52
aVSEP1 2012 P17F4 EEF1b
p53
aVSEP1 2012 P17F4 EEF1c
p54
aVSEP1 2012 P17F5 EEF1a
p55
aVSEP1 2012 P17F5 EEF1b
p56
aVSEP1 2012 P17F5 EEF1c
p57
aVSEP1 2012 P1F3 EEF1a
p58
aVSEP1 2012 P1F3 EEF1b
p59
aVSEP1 2012 P1F3 EEF1c
p60
aVSEP1-2 2012 P11aF2 EEF1a
p61
aVSEP1-2 2012 P11aF2 EEF1b
p62
aVSEP1-2 2012 P11aF2 EEF1c
p63
aVSEP1-3 2012 P15F2 EEF1a
p64
aVSEP1-3 2012 P15F2 EEF1b
p65
aVSEP1-3 2012 P15F2 EEF1c
p66
aVuntreated 2012 P12F1 EEF1a
p67
aVuntreated 2012 P12F1 EEF1b
p68
aVuntreated 2012 P12F1 EEF1c
p69
asS'_formula_statement'
p70
g0
(cscisheets.core.column
FormulaStatement
p71
g2
Ntp72
Rp73
(dp74
S'_statement'
p75
NsS'_column'
p76
g10
sS'_isExpression'
p77
I00
sS'_isStatement'
p78
I00
sS'_formula'
p79
NsbsS'_data_class'
p80
g0
(cscisheets.core.helpers.api_util
DataClass
p81
c__builtin__
tuple
p82
(cnumpy
ndarray
p83
cscisheets.core.helpers.api_util
makeArray
p84
tp85
tp86
Rp87
sS'_name'
p88
S'SmplName'
p89
sbag0
(g8
g2
Ntp90
Rp91
(dp92
g12
I00
sg13
g4
sg14
(lp93
(lp94
S'1'
p95
aS'0'
p96
aa(lp97
g95
ag95
aa(lp98
g95
aS'2'
p99
aa(lp100
g95
aS'3'
p101
aa(lp102
g99
ag95
aa(lp103
g101
ag95
aaNaNaNaNaNaNaNaNaNaNaNaNaNaNaNaNaNaNaNaNaNaNaNaNaNaNaNaNaNaNaNaNaNaNaNaNaNaNaNaNaNaNaNaNaNaNaNaNasg70
g0
(g71
g2
Ntp104
Rp105
(dp106
g75
Vif run:\u000a  tabularize(s, 'Groups', 1, 'MeanCt', \u000a      new_category_colnm='BioRuns',\u000a      values_colnm_prefix='Gene_')\u000a  BioRuns = s.getColumnValues('BioRuns')
p107
sg76
g91
sg77
I00
sg78
I00
sg79
Vif run:\u000a  tabularize(s, 'Groups', 1, 'MeanCt', \u000a      new_category_colnm='BioRuns',\u000a      values_colnm_prefix='Gene_')\u000a  BioRuns = s.getColumnValues('BioRuns')
p108
sbsg80
g0
(g81
g82
(g83
g84
tp109
tp110
Rp111
sg88
VBioRuns
p112
sbag0
(g8
g2
Ntp113
Rp114
(dp115
g12
I00
sg13
g4
sg14
(lp116
F18.2
aF22.4
aF23.4
aF18.9
aF21.9
aF23.4
aFnan
aFnan
aFnan
aFnan
aFnan
aFnan
aFnan
aFnan
aFnan
aFnan
aFnan
aFnan
aFnan
aFnan
aFnan
aFnan
aFnan
aFnan
aFnan
aFnan
aFnan
aFnan
aFnan
aFnan
aFnan
aFnan
aFnan
aFnan
aFnan
aFnan
aFnan
aFnan
aFnan
aFnan
aFnan
aFnan
aFnan
aFnan
aFnan
aFnan
aFnan
aFnan
aFnan
aFnan
aFnan
aFnan
aFnan
aFnan
asg70
g0
(g71
g2
Ntp117
Rp118
(dp119
g75
Nsg76
g114
sg77
I00
sg78
I00
sg79
Nsbsg80
g0
(g81
g82
(g83
g84
tp120
tp121
Rp122
sg88
S'Gene_I'
p123
sbag0
(g8
g2
Ntp124
Rp125
(dp126
g12
I00
sg13
g4
sg14
(lp127
F18.3
aF19.9
aF23.5
aF18.8
aF21.9
aF23.9
aFnan
aFnan
aFnan
aFnan
aFnan
aFnan
aFnan
aFnan
aFnan
aFnan
aFnan
aFnan
aFnan
aFnan
aFnan
aFnan
aFnan
aFnan
aFnan
aFnan
aFnan
aFnan
aFnan
aFnan
aFnan
aFnan
aFnan
aFnan
aFnan
aFnan
aFnan
aFnan
aFnan
aFnan
aFnan
aFnan
aFnan
aFnan
aFnan
aFnan
aFnan
aFnan
aFnan
aFnan
aFnan
aFnan
aFnan
aFnan
asg70
g0
(g71
g2
Ntp128
Rp129
(dp130
g75
Nsg76
g125
sg77
I00
sg78
I00
sg79
Nsbsg80
g122
sg88
S'Gene_R1'
p131
sbag0
(g8
g2
Ntp132
Rp133
(dp134
g12
I00
sg13
g4
sg14
(lp135
F19.8
aF21.9
aF26.3
aF20.4
aF23.6
aF24.5
aFnan
aFnan
aFnan
aFnan
aFnan
aFnan
aFnan
aFnan
aFnan
aFnan
aFnan
aFnan
aFnan
aFnan
aFnan
aFnan
aFnan
aFnan
aFnan
aFnan
aFnan
aFnan
aFnan
aFnan
aFnan
aFnan
aFnan
aFnan
aFnan
aFnan
aFnan
aFnan
aFnan
aFnan
aFnan
aFnan
aFnan
aFnan
aFnan
aFnan
aFnan
aFnan
aFnan
aFnan
aFnan
aFnan
aFnan
aFnan
asg70
g0
(g71
g2
Ntp136
Rp137
(dp138
g75
Nsg76
g133
sg77
I00
sg78
I00
sg79
Nsbsg80
g122
sg88
S'Gene_R2'
p139
sbag0
(g8
g2
Ntp140
Rp141
(dp142
g12
I00
sg13
g4
sg14
(lp143
F1.07177
aF0.17678
aF1.07177
aF0.93303
aF1.0
aF1.41421
aFnan
aFnan
aFnan
aFnan
aFnan
aFnan
aFnan
aFnan
aFnan
aFnan
aFnan
aFnan
aFnan
aFnan
aFnan
aFnan
aFnan
aFnan
aFnan
aFnan
aFnan
aFnan
aFnan
aFnan
aFnan
aFnan
aFnan
aFnan
aFnan
aFnan
aFnan
aFnan
aFnan
aFnan
aFnan
aFnan
aFnan
aFnan
aFnan
aFnan
aFnan
aFnan
aFnan
aFnan
aFnan
aFnan
aFnan
aFnan
asg70
g0
(g71
g2
Ntp144
Rp145
(dp146
g75
VExprR1 = roundValues(2**(Gene_R1 - Gene_I),5)
p147
sg76
g141
sg77
I01
sg78
I00
sg79
VroundValues(2**(Gene_R1 - Gene_I),5)
p148
sbsg80
g0
(g81
g82
(g83
g84
tp149
tp150
Rp151
sg88
VExprR1
p152
sbag0
(g8
g2
Ntp153
Rp154
(dp155
g12
I00
sg13
g4
sg14
(lp156
F3.03143
aF0.70711
aF7.46426
aF2.82843
aF3.24901
aF2.14355
aFnan
aFnan
aFnan
aFnan
aFnan
aFnan
aFnan
aFnan
aFnan
aFnan
aFnan
aFnan
aFnan
aFnan
aFnan
aFnan
aFnan
aFnan
aFnan
aFnan
aFnan
aFnan
aFnan
aFnan
aFnan
aFnan
aFnan
aFnan
aFnan
aFnan
aFnan
aFnan
aFnan
aFnan
aFnan
aFnan
aFnan
aFnan
aFnan
aFnan
aFnan
aFnan
aFnan
aFnan
aFnan
aFnan
aFnan
aFnan
asg70
g0
(g71
g2
Ntp157
Rp158
(dp159
g75
VExprR2 = roundValues(2**(Gene_R2 - Gene_I),5)
p160
sg76
g154
sg77
I01
sg78
I00
sg79
VroundValues(2**(Gene_R2 - Gene_I),5)
p161
sbsg80
g0
(g81
g82
(g83
g84
tp162
tp163
Rp164
sg88
VExprR2
p165
sbag0
(g8
g2
Ntp166
Rp167
(dp168
g12
I00
sg13
g4
sg14
(lp169
F1.802
aF0.354
aF2.828
aF1.625
aF1.803
aF1.741
aFnan
aFnan
aFnan
aFnan
aFnan
aFnan
aFnan
aFnan
aFnan
aFnan
aFnan
aFnan
aFnan
aFnan
aFnan
aFnan
aFnan
aFnan
aFnan
aFnan
aFnan
aFnan
aFnan
aFnan
aFnan
aFnan
aFnan
aFnan
aFnan
aFnan
aFnan
aFnan
aFnan
aFnan
aFnan
aFnan
aFnan
aFnan
aFnan
aFnan
aFnan
aFnan
aFnan
aFnan
aFnan
aFnan
aFnan
aFnan
asg70
g0
(g71
g2
Ntp170
Rp171
(dp172
g75
VroundValues(np.sqrt(ExprR1*ExprR2), 3)\u000as.setColumnVisibility(['BioRuns', 'Gene_I', 'Gene_R1', 'Gene_R2', 'ExprR1', 'ExprR2', 'GeoMean'], is_visible=show_block2)
p173
sg76
g167
sg77
I00
sg78
I00
sg79
VroundValues(np.sqrt(ExprR1*ExprR2), 3)\u000as.setColumnVisibility(['BioRuns', 'Gene_I', 'Gene_R1', 'Gene_R2', 'ExprR1', 'ExprR2', 'GeoMean'], is_visible=show_block2)
p174
sbsg80
g0
(g81
g82
(g83
g84
tp175
tp176
Rp177
sg88
VGeoMean
p178
sbag0
(g8
g2
Ntp179
Rp180
(dp181
g12
I00
sg13
g4
sg14
(lp182
(lp183
S'0'
p184
aa(lp185
S'1'
p186
aa(lp187
S'2'
p188
aa(lp189
S'3'
p190
aaNaNaNaNaNaNaNaNaNaNaNaNaNaNaNaNaNaNaNaNaNaNaNaNaNaNaNaNaNaNaNaNaNaNaNaNaNaNaNaNaNaNaNaNaNaNaNaNaNaNasg70
g0
(g71
g2
Ntp191
Rp192
(dp193
g75
Nsg76
g180
sg77
I00
sg78
I00
sg79
Nsbsg80
g0
(g81
g82
(g83
g84
tp194
tp195
Rp196
sg88
VGeoGroups
p197
sbag0
(g8
g2
Ntp198
Rp199
(dp200
g12
I00
sg13
g4
sg14
(lp201
cnumpy.core.multiarray
_reconstruct
p202
(g83
(I0
tp203
S'b'
p204
tp205
Rp206
(I1
(I1
tp207
cnumpy
dtype
p208
(S'f8'
p209
I0
I1
tp210
Rp211
(I3
S'<'
p212
NNNI-1
I-1
I0
tp213
bI00
S'\xa2E\xb6\xf3\xfd\xd4\xfc?'
p214
tp215
bag202
(g83
(I0
tp216
g204
tp217
Rp218
(I1
(I3
tp219
g211
I00
S'\x0e-\xb2\x9d\xef\xa7\xd6?\x0c\x02+\x87\x16\xd9\xfc?B`\xe5\xd0"\xdb\xfb?'
p220
tp221
bag202
(g83
(I0
tp222
g204
tp223
Rp224
(I1
(I1
tp225
g211
I00
S'9\xb4\xc8v\xbe\x9f\x06@'
p226
tp227
bag202
(g83
(I0
tp228
g204
tp229
Rp230
(I1
(I1
tp231
g211
I00
S'\x00\x00\x00\x00\x00\x00\xfa?'
p232
tp233
baNaNaNaNaNaNaNaNaNaNaNaNaNaNaNaNaNaNaNaNaNaNaNaNaNaNaNaNaNaNaNaNaNaNaNaNaNaNaNaNaNaNaNaNaNaNaNaNaNaNasg70
g0
(g71
g2
Ntp234
Rp235
(dp236
g75
Vcat_vals = [br for br in BioRuns if br is not None]\u000acat_vals = [br[1] for br in cat_vals]\u000aclean_geo = [x for x in GeoMean if not np.isnan(x)]\u000aGeoGroups, groupedGeoMean = groupBy(cat_vals, clean_geo)\u000aGroupedGeoMean = roundValues(groupedGeoMean, 3)
p237
sg76
g199
sg77
I00
sg78
I00
sg79
Vcat_vals = [br for br in BioRuns if br is not None]\u000acat_vals = [br[1] for br in cat_vals]\u000aclean_geo = [x for x in GeoMean if not np.isnan(x)]\u000aGeoGroups, groupedGeoMean = groupBy(cat_vals, clean_geo)\u000aGroupedGeoMean = roundValues(groupedGeoMean, 3)
p238
sbsg80
g0
(g81
g82
(g83
g84
tp239
tp240
Rp241
sg88
VGroupedGeoMeans
p242
sbag0
(g8
g2
Ntp243
Rp244
(dp245
g12
I00
sg13
g4
sg14
(lp246
g202
(g83
(I0
tp247
g204
tp248
Rp249
(I1
(I1
tp250
g208
(S'f8'
p251
I0
I1
tp252
Rp253
(I3
S'<'
p254
NNNI-1
I-1
I0
tp255
bI00
S'\x00\x00\x00\x00\x00\x00\xf0?'
p256
tp257
bag202
(g83
(I0
tp258
g204
tp259
Rp260
(I1
(I3
tp261
g253
I00
S'J\x0c\x02+\x87\x16\xc9?j\xbct\x93\x18\x04\xf0?\xb6\xf3\xfd\xd4x\xe9\xee?'
p262
tp263
bag202
(g83
(I0
tp264
g204
tp265
Rp266
(I1
(I1
tp267
g253
I00
S'\xb4\xc8v\xbe\x9f\x1a\xf9?'
p268
tp269
bag202
(g83
(I0
tp270
g204
tp271
Rp272
(I1
(I1
tp273
g253
I00
S'w\xbe\x9f\x1a/\xdd\xec?'
p274
tp275
baNaNaNaNaNaNaNaNaNaNaNaNaNaNaNaNaNaNaNaNaNaNaNaNaNaNaNaNaNaNaNaNaNaNaNaNaNaNaNaNaNaNaNaNaNaNaNaNaNaNasg70
g0
(g71
g2
Ntp276
Rp277
(dp278
g75
Vref = np.mean(GroupedGeoMean[0])\u000aNrmlGeoGroupedMeans = []\u000atruncated_group = [g for g in GroupedGeoMeans if g is not None]\u000afor g in truncated_group:\u000a  new_g = [x/ref for x in g]\u000a  NrmlGeoGroupedMeans.append(new_g)\u000aNrmlGeoGroupedMeans = roundValues(NrmlGeoGroupedMeans, 3)
p279
sg76
g244
sg77
I00
sg78
I00
sg79
Vref = np.mean(GroupedGeoMean[0])\u000aNrmlGeoGroupedMeans = []\u000atruncated_group = [g for g in GroupedGeoMeans if g is not None]\u000afor g in truncated_group:\u000a  new_g = [x/ref for x in g]\u000a  NrmlGeoGroupedMeans.append(new_g)\u000aNrmlGeoGroupedMeans = roundValues(NrmlGeoGroupedMeans, 3)
p280
sbsg80
g0
(g81
g82
(g83
g84
tp281
tp282
Rp283
sg88
VNrmlGeoGroupedMeans
p284
sbag0
(g8
g2
Ntp285
Rp286
(dp287
g12
I00
sg13
g4
sg14
(lp288
F1.0
aF0.721
aF1.569
aF0.902
aFnan
aFnan
aFnan
aFnan
aFnan
aFnan
aFnan
aFnan
aFnan
aFnan
aFnan
aFnan
aFnan
aFnan
aFnan
aFnan
aFnan
aFnan
aFnan
aFnan
aFnan
aFnan
aFnan
aFnan
aFnan
aFnan
aFnan
aFnan
aFnan
aFnan
aFnan
aFnan
aFnan
aFnan
aFnan
aFnan
aFnan
aFnan
aFnan
aFnan
aFnan
aFnan
aFnan
aFnan
aFnan
aFnan
aFnan
aFnan
aFnan
aFnan
asg70
g0
(g71
g2
Ntp289
Rp290
(dp291
g75
VMeanNrmlGeoGroups = [round(np.mean(g), 3) for g in NrmlGeoGroupedMeans]
p292
sg76
g286
sg77
I01
sg78
I00
sg79
V[round(np.mean(g), 3) for g in NrmlGeoGroupedMeans]
p293
sbsg80
g0
(g81
g82
(g83
g84
tp294
tp295
Rp296
sg88
VMeanNrmlGeoGroups
p297
sbag0
(g8
g2
Ntp298
Rp299
(dp300
g12
I00
sg13
g4
sg14
(lp301
F0.0
aF0.372
aF0.0
aF0.0
aFnan
aFnan
aFnan
aFnan
aFnan
aFnan
aFnan
aFnan
aFnan
aFnan
aFnan
aFnan
aFnan
aFnan
aFnan
aFnan
aFnan
aFnan
aFnan
aFnan
aFnan
aFnan
aFnan
aFnan
aFnan
aFnan
aFnan
aFnan
aFnan
aFnan
aFnan
aFnan
aFnan
aFnan
aFnan
aFnan
aFnan
aFnan
aFnan
aFnan
aFnan
aFnan
aFnan
aFnan
aFnan
aFnan
aFnan
aFnan
aFnan
aFnan
asg70
g0
(g71
g2
Ntp302
Rp303
(dp304
g75
VStdNrmlGeoGroups = [round(np.std(g), 3) for g in NrmlGeoGroupedMeans]\u000as.setColumnVisibility(['GeoGroups', 'GroupedGeoMeans', 'NrmlGeoGroupedMeans', 'MeanNrmlGeoGroups', 'StdNrmlGeoGroups'], is_visible=show_block3)
p305
sg76
g299
sg77
I00
sg78
I00
sg79
VStdNrmlGeoGroups = [round(np.std(g), 3) for g in NrmlGeoGroupedMeans]\u000as.setColumnVisibility(['GeoGroups', 'GroupedGeoMeans', 'NrmlGeoGroupedMeans', 'MeanNrmlGeoGroups', 'StdNrmlGeoGroups'], is_visible=show_block3)
p306
sbsg80
g0
(g81
g82
(g83
g84
tp307
tp308
Rp309
sg88
VStdNrmlGeoGroups
p310
sbasS'_columns'
p311
(lp312
g0
(g8
g2
Ntp313
Rp314
(dp315
g12
I01
sg13
g4
sg14
(lp316
g186
ag188
ag190
aS'4'
p317
aS'5'
p318
aS'6'
p319
aS'7'
p320
aS'8'
p321
aS'9'
p322
aS'10'
p323
aS'11'
p324
aS'12'
p325
aS'13'
p326
aS'14'
p327
aS'15'
p328
aS'16'
p329
aS'17'
p330
aS'18'
p331
aS'19'
p332
aS'20'
p333
aS'21'
p334
aS'22'
p335
aS'23'
p336
aS'24'
p337
aS'25'
p338
aS'26'
p339
aS'27'
p340
aS'28'
p341
aS'29'
p342
aS'30'
p343
aS'31'
p344
aS'32'
p345
aS'33'
p346
aS'34'
p347
aS'35'
p348
aS'36'
p349
aS'37'
p350
aS'38'
p351
aS'39'
p352
aS'40'
p353
aS'41'
p354
aS'42'
p355
aS'43'
p356
aS'44'
p357
aS'45'
p358
aS'46'
p359
aS'47'
p360
aS'48'
p361
aS'49'
p362
aS'50'
p363
aS'51'
p364
aS'52'
p365
aS'53'
p366
aS'54'
p367
asg70
g0
(g71
g2
Ntp368
Rp369
(dp370
g75
Nsg76
g314
sg77
I00
sg78
I00
sg79
Nsbsg80
g0
(g81
g82
(g83
g84
tp371
tp372
Rp373
sg88
S'row'
p374
sbag0
(g8
g2
Ntp375
Rp376
(dp377
g12
I00
sg13
g4
sg14
(lp378
Vgene
p379
aVrun
p380
aVshow_raw
p381
aVshow_block1
p382
aVshow_block2
p383
aVshow_block3
p384
aVnan
p385
aVnan
p386
aVnan
p387
aVnan
p388
aVnan
p389
aVnan
p390
aVnan
p391
aVnan
p392
aVnan
p393
aVnan
p394
aVnan
p395
aVnan
p396
aVnan
p397
aVnan
p398
aVnan
p399
aVnan
p400
aVnan
p401
aVnan
p402
aVnan
p403
aVnan
p404
aVnan
p405
aVnan
p406
aVnan
p407
aVnan
p408
aVnan
p409
aVnan
p410
aVnan
p411
aVnan
p412
aVnan
p413
aVnan
p414
aVnan
p415
aVnan
p416
aVnan
p417
aVnan
p418
aVnan
p419
aVnan
p420
aVnan
p421
aVnan
p422
aVnan
p423
aVnan
p424
aVnan
p425
aVnan
p426
aVnan
p427
aVnan
p428
aVnan
p429
aVnan
p430
aVnan
p431
aVnan
p432
asg70
g0
(g71
g2
Ntp433
Rp434
(dp435
g75
Nsg76
g376
sg77
I00
sg78
I00
sg79
Nsbsg80
g0
(g81
g82
(g83
g84
tp436
tp437
Rp438
sg88
VParmNames
p439
sbag0
(g8
g2
Ntp440
Rp441
(dp442
g12
I00
sg13
g4
sg14
(lp443
VGene1
p444
aVTrue
p445
aVTrue
p446
aVTrue
p447
aVFalse
p448
aVFalse
p449
aVnan
p450
aVnan
p451
aVnan
p452
aVnan
p453
aVnan
p454
aVnan
p455
aVnan
p456
aVnan
p457
aVnan
p458
aVnan
p459
aVnan
p460
aVnan
p461
aVnan
p462
aVnan
p463
aVnan
p464
aVnan
p465
aVnan
p466
aVnan
p467
aVnan
p468
aVnan
p469
aVnan
p470
aVnan
p471
aVnan
p472
aVnan
p473
aVnan
p474
aVnan
p475
aVnan
p476
aVnan
p477
aVnan
p478
aVnan
p479
aVnan
p480
aVnan
p481
aVnan
p482
aVnan
p483
aVnan
p484
aVnan
p485
aVnan
p486
aVnan
p487
aVnan
p488
aVnan
p489
aVnan
p490
aVnan
p491
aVnan
p492
aVnan
p493
aVnan
p494
aVnan
p495
aVnan
p496
aVnan
p497
asg70
g0
(g71
g2
Ntp498
Rp499
(dp500
g75
Vxlsx_path = '/mnt/hgfs/josephhellerstein/home/Technical/SciSheets/CaseStudies/Kristen/workbooks/data.xlsx'\u000as.setColumnVisibility()\u000agene = ParmValues[0]\u000arun = ParmValues[1] == 'True'\u000ashow_raw = ParmValues[2] == 'True'\u000ashow_block1 = ParmValues[3] == 'True'\u000ashow_block2 = ParmValues[4] == 'True'\u000ashow_block3 = ParmValues[5] == 'True'\u000aworksheet = gene + "-I"\u000aif False:\u000a  Groups = []\u000a  GroupedCt = []\u000a  GroupedEff = []\u000a  MeanCt = []\u000a  Imp = []\u000a  s.deleteColumn('Ct')\u000a  s.deleteColumn('RunType')\u000a  s.deleteColumn('BRpl')\u000a  s.deleteColumn('TRpl')\u000a  s.deleteColumn('Treatment')\u000a  s.deleteColumn('SmplName')\u000a  s.deleteColumn('Eff')\u000aif run:\u000a  importExcelToTable(s, xlsx_path, worksheet=worksheet)\u000a  BRpl = s.getColumnValues('BRpl')\u000a  Ct = s.getColumnValues('Ct')\u000a  Eff = s.getColumnValues('Eff')\u000a  RunType = s.getColumnValues('RunType')\u000a  TRpl = s.getColumnValues('TRpl')\u000a  Treatment = s.getColumnValues('Treatment')\u000as.setColumnVisibility(['SmplName'], False)\u000as.setColumnVisibility(['BRpl', 'Ct', 'Eff', 'RunType', 'TRpl', 'Treatment'], is_visible=show_raw)
p501
sg76
g441
sg77
I00
sg78
I00
sg79
Vxlsx_path = '/mnt/hgfs/josephhellerstein/home/Technical/SciSheets/CaseStudies/Kristen/workbooks/data.xlsx'\u000as.setColumnVisibility()\u000agene = ParmValues[0]\u000arun = ParmValues[1] == 'True'\u000ashow_raw = ParmValues[2] == 'True'\u000ashow_block1 = ParmValues[3] == 'True'\u000ashow_block2 = ParmValues[4] == 'True'\u000ashow_block3 = ParmValues[5] == 'True'\u000aworksheet = gene + "-I"\u000aif False:\u000a  Groups = []\u000a  GroupedCt = []\u000a  GroupedEff = []\u000a  MeanCt = []\u000a  Imp = []\u000a  s.deleteColumn('Ct')\u000a  s.deleteColumn('RunType')\u000a  s.deleteColumn('BRpl')\u000a  s.deleteColumn('TRpl')\u000a  s.deleteColumn('Treatment')\u000a  s.deleteColumn('SmplName')\u000a  s.deleteColumn('Eff')\u000aif run:\u000a  importExcelToTable(s, xlsx_path, worksheet=worksheet)\u000a  BRpl = s.getColumnValues('BRpl')\u000a  Ct = s.getColumnValues('Ct')\u000a  Eff = s.getColumnValues('Eff')\u000a  RunType = s.getColumnValues('RunType')\u000a  TRpl = s.getColumnValues('TRpl')\u000a  Treatment = s.getColumnValues('Treatment')\u000as.setColumnVisibility(['SmplName'], False)\u000as.setColumnVisibility(['BRpl', 'Ct', 'Eff', 'RunType', 'TRpl', 'Treatment'], is_visible=show_raw)
p502
sbsg80
g0
(g81
g82
(g83
g84
tp503
tp504
Rp505
sg88
VParmValues
p506
sbag0
(g8
g2
Ntp507
Rp508
(dp509
g12
I00
sg13
g4
sg14
(lp510
(lp511
g186
aS'I'
p512
ag184
aa(lp513
g186
aS'I'
p514
ag186
aa(lp515
g186
aS'I'
p516
ag188
aa(lp517
g186
aS'I'
p518
ag190
aa(lp519
g186
aS'R1'
p520
ag184
aa(lp521
g186
aS'R1'
p522
ag186
aa(lp523
g186
aS'R1'
p524
ag188
aa(lp525
g186
aS'R1'
p526
ag190
aa(lp527
g186
aS'R2'
p528
ag184
aa(lp529
g186
aS'R2'
p530
ag186
aa(lp531
g186
aS'R2'
p532
ag188
aa(lp533
g186
aS'R2'
p534
ag190
aa(lp535
g188
aS'I'
p536
ag186
aa(lp537
g188
aS'R1'
p538
ag186
aa(lp539
g188
aS'R2'
p540
ag186
aa(lp541
g190
aS'I'
p542
ag186
aa(lp543
g190
aS'R1'
p544
ag186
aa(lp545
g190
aS'R2'
p546
ag186
aaNaNaNaNaNaNaNaNaNaNaNaNaNaNaNaNaNaNaNaNaNaNaNaNaNaNaNaNaNaNaNaNaNaNaNaNasg70
g0
(g71
g2
Ntp547
Rp548
(dp549
g75
Vif run:\u000a  sel = Eff > 0.7\u000a  grouping_columns =   [\u000a      BRpl[sel],\u000a      RunType[sel], \u000a      Treatment[sel]\u000a    ]\u000a  Groups, groupedCt = groupBy(\u000a    grouping_columns, Ct[sel])\u000a  Groups, groupedEff = groupBy(\u000a    grouping_columns, Eff[sel])\u000a  GroupedCt = roundValues(groupedCt,2)\u000a  GroupedEff = roundValues(groupedEff,2)
p550
sg76
g508
sg77
I00
sg78
I00
sg79
Vif run:\u000a  sel = Eff > 0.7\u000a  grouping_columns =   [\u000a      BRpl[sel],\u000a      RunType[sel], \u000a      Treatment[sel]\u000a    ]\u000a  Groups, groupedCt = groupBy(\u000a    grouping_columns, Ct[sel])\u000a  Groups, groupedEff = groupBy(\u000a    grouping_columns, Eff[sel])\u000a  GroupedCt = roundValues(groupedCt,2)\u000a  GroupedEff = roundValues(groupedEff,2)
p551
sbsg80
g0
(g81
g82
(g83
g84
tp552
tp553
Rp554
sg88
VGroups
p555
sbag0
(g8
g2
Ntp556
Rp557
(dp558
g12
I00
sg13
g4
sg14
(lp559
(lp560
F0.84
aF0.89
aF0.9
aa(lp561
F0.94
aF0.83
aF0.84
aa(lp562
F0.84
aF0.8
aF0.81
aa(lp563
F0.85
aF0.85
aF0.84
aa(lp564
F0.83
aF0.83
aF0.85
aa(lp565
F0.92
aF0.98
aF0.9
aa(lp566
F0.77
aF0.87
aF0.81
aa(lp567
F0.87
aF0.9
aF0.86
aa(lp568
F0.82
aF0.85
aF0.82
aa(lp569
F0.79
aF0.84
aF0.86
aa(lp570
F0.78
aF0.77
aF0.79
aa(lp571
F0.82
aF0.82
aF0.79
aa(lp572
F0.8
aF0.84
aF0.79
aa(lp573
F0.9
aF0.83
aF0.84
aa(lp574
F0.83
aF0.82
aF0.83
aa(lp575
F0.83
aF0.8
aF0.83
aa(lp576
F0.87
aF0.85
aF0.83
aa(lp577
F0.81
aF0.82
aF0.8
aaNaNaNaNaNaNaNaNaNaNaNaNaNaNaNaNaNaNaNaNaNaNaNaNaNaNaNaNaNaNaNaNaNaNaNaNasg70
g0
(g71
g2
Ntp578
Rp579
(dp580
g75
Nsg76
g557
sg77
I00
sg78
I00
sg79
Nsbsg80
g0
(g81
g82
(g83
g84
tp581
tp582
Rp583
sg88
VGroupedEff
p584
sbag0
(g8
g2
Ntp585
Rp586
(dp587
g12
I00
sg13
g4
sg14
(lp588
(lp589
F23.0
aF22.86
aF22.8
aa(lp590
F26.68
aF27.13
aF27.21
aa(lp591
F29.95
aF30.45
aF29.88
aa(lp592
F24.8
aF24.97
aF24.63
aa(lp593
F18.24
aF18.22
aF18.36
aa(lp594
F19.92
aF19.85
aF20.0
aa(lp595
F23.22
aF23.8
aF23.49
aa(lp596
F18.91
aF18.78
aF18.8
aa(lp597
F19.72
aF19.75
aF20.01
aa(lp598
F22.18
aF21.71
aF21.75
aa(lp599
F26.37
aF26.36
aF26.17
aa(lp600
F20.5
aF20.47
aF20.28
aa(lp601
F26.76
aF26.71
aF26.19
aa(lp602
F21.86
aF22.09
aF21.84
aa(lp603
F23.88
aF23.42
aF23.63
aa(lp604
F29.98
aF30.12
aF29.41
aa(lp605
F23.89
aF23.54
aF24.27
aa(lp606
F24.59
aF24.61
aF24.34
aaNaNaNaNaNaNaNaNaNaNaNaNaNaNaNaNaNaNaNaNaNaNaNaNaNaNaNaNaNaNaNaNaNaNaNaNasg70
g0
(g71
g2
Ntp607
Rp608
(dp609
g75
Nsg76
g586
sg77
I00
sg78
I00
sg79
Nsbsg80
g0
(g81
g82
(g83
g84
tp610
tp611
Rp612
sg88
VGroupedCt
p613
sbag0
(g8
g2
Ntp614
Rp615
(dp616
g12
I00
sg13
g4
sg14
(lp617
F22.9
aF27.0
aF30.1
aF24.8
aF18.3
aF19.9
aF23.5
aF18.8
aF19.8
aF21.9
aF26.3
aF20.4
aF26.6
aF21.9
aF23.6
aF29.8
aF23.9
aF24.5
aFnan
aFnan
aFnan
aFnan
aFnan
aFnan
aFnan
aFnan
aFnan
aFnan
aFnan
aFnan
aFnan
aFnan
aFnan
aFnan
aFnan
aFnan
aFnan
aFnan
aFnan
aFnan
aFnan
aFnan
aFnan
aFnan
aFnan
aFnan
aFnan
aFnan
aFnan
aFnan
aFnan
aFnan
aFnan
aFnan
asg70
g0
(g71
g2
Ntp618
Rp619
(dp620
g75
Vif run:\u000a  filtered_group = [filterExtremes(g, 0.5, 2) for g in GroupedCt]\u000a  MeanCt = [np.mean(g) for g in filtered_group]\u000a  MeanCt = roundValues(MeanCt,1)\u000a  StdCt = [np.std(g, ddof=1) for g in filtered_group]\u000a  StdCt = roundValues(StdCt,3)\u000as.setColumnVisibility(['Groups', 'GroupedEff', 'GroupedCt', 'MeanCt', 'StdCt'], is_visible=show_block1)
p621
sg76
g615
sg77
I00
sg78
I00
sg79
Vif run:\u000a  filtered_group = [filterExtremes(g, 0.5, 2) for g in GroupedCt]\u000a  MeanCt = [np.mean(g) for g in filtered_group]\u000a  MeanCt = roundValues(MeanCt,1)\u000a  StdCt = [np.std(g, ddof=1) for g in filtered_group]\u000a  StdCt = roundValues(StdCt,3)\u000as.setColumnVisibility(['Groups', 'GroupedEff', 'GroupedCt', 'MeanCt', 'StdCt'], is_visible=show_block1)
p622
sbsg80
g0
(g81
g82
(g83
g84
tp623
tp624
Rp625
sg88
VMeanCt
p626
sbag0
(g8
g2
Ntp627
Rp628
(dp629
g12
I00
sg13
g4
sg14
(lp630
F0.103
aF0.286
aF0.311
aF0.17
aF0.076
aF0.075
aF0.29
aF0.07
aF0.159
aF0.261
aF0.113
aF0.119
aF0.316
aF0.139
aF0.23
aF0.376
aF0.365
aF0.15
aFnan
aFnan
aFnan
aFnan
aFnan
aFnan
aFnan
aFnan
aFnan
aFnan
aFnan
aFnan
aFnan
aFnan
aFnan
aFnan
aFnan
aFnan
aFnan
aFnan
aFnan
aFnan
aFnan
aFnan
aFnan
aFnan
aFnan
aFnan
aFnan
aFnan
aFnan
aFnan
aFnan
aFnan
aFnan
aFnan
asg70
g0
(g71
g2
Ntp631
Rp632
(dp633
g75
Nsg76
g628
sg77
I00
sg78
I00
sg79
Nsbsg80
g0
(g81
g82
(g83
g84
tp634
tp635
Rp636
sg88
VStdCt
p637
sbag91
ag114
ag125
ag133
ag141
ag154
ag167
ag180
ag199
ag244
ag286
ag299
ag0
(g8
g2
Ntp638
Rp639
(dp640
g12
I00
sg13
g4
sg14
(lp641
I1
aI1
aI1
aI2
aI2
aI2
aI3
aI3
aI3
aI1
aI1
aI1
aI1
aI1
aI1
aI1
aI1
aI1
aI1
aI1
aI1
aI2
aI2
aI2
aI3
aI3
aI3
aI1
aI1
aI1
aI1
aI1
aI1
aI1
aI1
aI1
aI1
aI1
aI1
aI2
aI2
aI2
aI3
aI3
aI3
aI1
aI1
aI1
aI1
aI1
aI1
aI1
aI1
aI1
asg70
g0
(g71
g2
Ntp642
Rp643
(dp644
g75
Nsg76
g639
sg77
I00
sg78
I00
sg79
Nsbsg80
g87
sg88
S'BRpl'
p645
sbag0
(g8
g2
Ntp646
Rp647
(dp648
g12
I00
sg13
g4
sg14
(lp649
F26.68
aF27.13
aF27.21
aF26.76
aF26.71
aF26.19
aF29.98
aF30.12
aF29.41
aF29.95
aF30.45
aF29.88
aF24.8
aF24.97
aF24.63
aF23.0
aF22.86
aF22.8
aF19.92
aF19.85
aF20.0
aF21.86
aF22.09
aF21.84
aF23.89
aF23.54
aF24.27
aF23.22
aF23.8
aF23.49
aF18.91
aF18.78
aF18.8
aF18.24
aF18.22
aF18.36
aF22.18
aF21.71
aF21.75
aF23.88
aF23.42
aF23.63
aF24.59
aF24.61
aF24.34
aF26.37
aF26.36
aF26.17
aF20.5
aF20.47
aF20.28
aF19.72
aF19.75
aF20.01
asg70
g0
(g71
g2
Ntp650
Rp651
(dp652
g75
Nsg76
g647
sg77
I00
sg78
I00
sg79
Nsbsg80
g87
sg88
S'Ct'
p653
sbag0
(g8
g2
Ntp654
Rp655
(dp656
g12
I00
sg13
g4
sg14
(lp657
F0.9399
aF0.8296
aF0.8361
aF0.8039
aF0.8399
aF0.7935
aF0.8264
aF0.7974
aF0.8252
aF0.8418
aF0.7959
aF0.8071
aF0.8513
aF0.8485
aF0.8401
aF0.8371
aF0.891
aF0.8956
aF0.9179
aF0.9783
aF0.8971
aF0.8957
aF0.8287
aF0.8387
aF0.8746
aF0.8493
aF0.8349
aF0.7701
aF0.8746
aF0.8139
aF0.8715
aF0.8977
aF0.856
aF0.8266
aF0.8343
aF0.8496
aF0.7857
aF0.8427
aF0.8637
aF0.8281
aF0.8203
aF0.8288
aF0.8138
aF0.8242
aF0.804
aF0.7795
aF0.7676
aF0.7947
aF0.8179
aF0.8173
aF0.7894
aF0.8157
aF0.8543
aF0.8208
asg70
g0
(g71
g2
Ntp658
Rp659
(dp660
g75
Nsg76
g655
sg77
I00
sg78
I00
sg79
Nsbsg80
g87
sg88
S'Eff'
p661
sbag0
(g8
g2
Ntp662
Rp663
(dp664
g12
I00
sg13
g4
sg14
(lp665
VI
p666
ag666
ag666
ag666
ag666
ag666
ag666
ag666
ag666
ag666
ag666
ag666
ag666
ag666
ag666
ag666
ag666
ag666
aVR1
p667
aVR1
p668
aVR1
p669
aVR1
p670
aVR1
p671
aVR1
p672
aVR1
p673
aVR1
p674
aVR1
p675
aVR1
p676
aVR1
p677
aVR1
p678
aVR1
p679
aVR1
p680
aVR1
p681
aVR1
p682
aVR1
p683
aVR1
p684
aVR2
p685
aVR2
p686
aVR2
p687
aVR2
p688
aVR2
p689
aVR2
p690
aVR2
p691
aVR2
p692
aVR2
p693
aVR2
p694
aVR2
p695
aVR2
p696
aVR2
p697
aVR2
p698
aVR2
p699
aVR2
p700
aVR2
p701
aVR2
p702
asg70
g0
(g71
g2
Ntp703
Rp704
(dp705
g75
Nsg76
g663
sg77
I00
sg78
I00
sg79
Nsbsg80
g87
sg88
S'RunType'
p706
sbag10
ag0
(g8
g2
Ntp707
Rp708
(dp709
g12
I00
sg13
g4
sg14
(lp710
Va
p711
aVb
p712
aVc
p713
ag711
ag712
ag713
ag711
ag712
ag713
ag711
ag712
ag713
ag711
ag712
ag713
ag711
ag712
ag713
ag711
ag712
ag713
ag711
ag712
ag713
ag711
ag712
ag713
ag711
ag712
ag713
ag711
ag712
ag713
ag711
ag712
ag713
ag711
ag712
ag713
ag711
ag712
ag713
ag711
ag712
ag713
ag711
ag712
ag713
ag711
ag712
ag713
ag711
ag712
ag713
asg70
g0
(g71
g2
Ntp714
Rp715
(dp716
g75
Nsg76
g708
sg77
I00
sg78
I00
sg79
Nsbsg80
g87
sg88
S'TRpl'
p717
sbag0
(g8
g2
Ntp718
Rp719
(dp720
g12
I00
sg13
g4
sg14
(lp721
I1
aI1
aI1
aI1
aI1
aI1
aI1
aI1
aI1
aI2
aI2
aI2
aI3
aI3
aI3
aI0
aI0
aI0
aI1
aI1
aI1
aI1
aI1
aI1
aI1
aI1
aI1
aI2
aI2
aI2
aI3
aI3
aI3
aI0
aI0
aI0
aI1
aI1
aI1
aI1
aI1
aI1
aI1
aI1
aI1
aI2
aI2
aI2
aI3
aI3
aI3
aI0
aI0
aI0
asg70
g0
(g71
g2
Ntp722
Rp723
(dp724
g75
Nsg76
g719
sg77
I00
sg78
I00
sg79
Nsbsg80
g87
sg88
S'Treatment'
p725
sbasS'_filepath'
p726
V/home/ubuntu/SciSheets/mysite/user/guest/tables/kristen_single_gene.pcl
p727
sg88
VSingleGene
p728
sb.