ccopy_reg
_reconstructor
p0
(cscisheets.ui.dt_table
DTTable
p1
c__builtin__
object
p2
Ntp3
Rp4
(dp5
S'_versioned_file'
p6
g0
(cmysite.helpers.versioned_file
VersionedFile
p7
g2
Ntp8
Rp9
(dp10
S'_redo_stack'
p11
g0
(cmysite.helpers.file_stack
FileStack
p12
g2
Ntp13
Rp14
(dp15
S'_dirpath'
p16
S'/home/ubuntu/SciSheets/mysite/user/guest/tables/backup'
p17
sS'_max_depth'
p18
I5
sS'_filename_pfx'
p19
Vkristen_single_gene.r
p20
sbsS'_max_versions'
p21
I5
sS'_undo_stack'
p22
g0
(g12
g2
Ntp23
Rp24
(dp25
g16
g17
sg18
I5
sg19
Vkristen_single_gene.u
p26
sbsS'_checkpoint_history'
p27
(lp28
VCell/Update
p29
aVCell/Update
p30
aVCell/Update
p31
aVCell/Update
p32
aVCell/Update
p33
aVCell/Update
p34
aVCell/Update
p35
aVCell/Update
p36
aVCell/Update
p37
aVCell/Update
p38
aVCell/Update
p39
aVCell/Update
p40
aVColumn/Formula
p41
aVColumn/Formula
p42
aVColumn/Append
p43
aVColumn/Formula
p44
aVColumn/Delete
p45
aVCell/Update
p46
aVColumn/Formula
p47
aVCell/Update
p48
aVCell/Update
p49
aVColumn/Formula
p50
aVColumn/Formula
p51
aVCell/Update
p52
aVColumn/Formula
p53
aVColumn/Formula
p54
aVCell/Update
p55
aVCell/Update
p56
aVCell/Update
p57
aVCell/Update
p58
aVColumn/Formula
p59
aVCell/Update
p60
aVCell/Update
p61
aVCell/Update
p62
aVColumn/Formula
p63
aVCell/Update
p64
aVColumn/Formula
p65
aVColumn/Formula
p66
aVCell/Update
p67
aVCell/Update
p68
aVCell/Update
p69
aVCell/Update
p70
aVCell/Update
p71
aVCell/Update
p72
aVCell/Update
p73
aVCell/Update
p74
aVCell/Update
p75
aVColumn/Formula
p76
aVCell/Update
p77
aVCell/Update
p78
aVCell/Update
p79
aVCell/Update
p80
aVCell/Update
p81
aVCell/Update
p82
aVCell/Update
p83
aVCell/Update
p84
aVCell/Update
p85
aVCell/Update
p86
aVCell/Update
p87
aVCell/Update
p88
aVColumn/Formula
p89
aVColumn/Formula
p90
aVColumn/Formula
p91
aVCell/Update
p92
aVCell/Update
p93
aVCell/Update
p94
aVCell/Update
p95
aVCell/Update
p96
aVColumn/Formula
p97
aVCell/Update
p98
aVCell/Update
p99
aVCell/Update
p100
aVCell/Update
p101
aVCell/Update
p102
aVCell/Update
p103
aVCell/Update
p104
aVColumn/Formula
p105
aVColumn/Formula
p106
aVColumn/Formula
p107
aVCell/Update
p108
aVCell/Update
p109
aVColumn/Formula
p110
aVCell/Update
p111
aVCell/Update
p112
aVCell/Update
p113
aVCell/Update
p114
aVCell/Update
p115
aVCell/Update
p116
aVCell/Update
p117
aVCell/Update
p118
aVColumn/Formula
p119
aVCell/Update
p120
aVColumn/Formula
p121
aVColumn/Formula
p122
aVColumn/Formula
p123
aVCell/Update
p124
aVCell/Update
p125
aVColumn/Formula
p126
aVColumn/Formula
p127
aVColumn/Formula
p128
aVColumn/Formula
p129
aVCell/Update
p130
aVColumn/Formula
p131
aVColumn/Formula
p132
aVColumn/Formula
p133
aVCell/Update
p134
aVCell/Update
p135
aVCell/Update
p136
aVCell/Update
p137
aVCell/Update
p138
aVCell/Update
p139
aVCell/Update
p140
aVCell/Update
p141
aVCell/Update
p142
aVCell/Update
p143
aVColumn/Formula
p144
aVColumn/Formula
p145
aVColumn/Formula
p146
aVColumn/Formula
p147
aVCell/Update
p148
aVCell/Update
p149
aVColumn/Formula
p150
aVCell/Update
p151
aVCell/Update
p152
aVCell/Update
p153
aVCell/Update
p154
aVCell/Update
p155
aVCell/Update
p156
aVCell/Update
p157
aVCell/Update
p158
aVCell/Update
p159
aVCell/Update
p160
aVCell/Update
p161
aVCell/Update
p162
aVCell/Update
p163
aVColumn/Formula
p164
aVColumn/Formula
p165
aVCell/Update
p166
aVCell/Update
p167
aVCell/Update
p168
aVColumn/Formula
p169
aVCell/Update
p170
aVCell/Update
p171
aVCell/Update
p172
aVCell/Update
p173
aVColumn/Formula
p174
aVColumn/Formula
p175
aVColumn/Formula
p176
aVColumn/Formula
p177
aVCell/Update
p178
aVColumn/Formula
p179
aVCell/Update
p180
aVCell/Update
p181
aVCell/Update
p182
aVCell/Update
p183
aVCell/Update
p184
aVCell/Update
p185
aVCell/Update
p186
aVCell/Update
p187
aVCell/Update
p188
aVColumn/Formula
p189
aVCell/Update
p190
aVCell/Update
p191
aVCell/Update
p192
aVCell/Update
p193
aVCell/Update
p194
aVCell/Update
p195
aVCell/Update
p196
aVCell/Update
p197
aVCell/Update
p198
aVCell/Update
p199
aVCell/Update
p200
aVCell/Update
p201
aVCell/Update
p202
aVCell/Update
p203
aVCell/Update
p204
aVCell/Update
p205
aVCell/Update
p206
aVCell/Update
p207
aVCell/Update
p208
aVCell/Update
p209
aVCell/Update
p210
aVCell/Update
p211
aVCell/Update
p212
aVCell/Update
p213
aVCell/Update
p214
aVCell/Update
p215
aVCell/Update
p216
aVCell/Update
p217
aVCell/Update
p218
aVCell/Update
p219
aVCell/Update
p220
aVCell/Update
p221
aVCell/Update
p222
aVCell/Update
p223
aVCell/Update
p224
aVCell/Update
p225
aVCell/Update
p226
aVCell/Update
p227
aVCell/Update
p228
aVCell/Update
p229
aVCell/Update
p230
aVCell/Update
p231
aVCell/Update
p232
aVCell/Update
p233
aVCell/Update
p234
aVCell/Update
p235
aVCell/Update
p236
aVCell/Update
p237
aVCell/Update
p238
aVCell/Update
p239
aVCell/Update
p240
aVCell/Update
p241
aVCell/Update
p242
aVCell/Update
p243
aVCell/Update
p244
aVCell/Update
p245
aVCell/Update
p246
aVCell/Update
p247
aVCell/Update
p248
aVCell/Update
p249
aVCell/Update
p250
aVCell/Update
p251
aVCell/Update
p252
aVCell/Update
p253
aVCell/Update
p254
aVCell/Update
p255
aVCell/Update
p256
aVCell/Update
p257
aVCell/Update
p258
aVCell/Update
p259
aVCell/Update
p260
aVCell/Update
p261
aVCell/Update
p262
aVCell/Update
p263
aVCell/Update
p264
aVCell/Update
p265
aVCell/Update
p266
aVCell/Update
p267
aVCell/Update
p268
aVCell/Update
p269
aVCell/Update
p270
aVCell/Update
p271
aVColumn/Formula
p272
aVColumn/Formula
p273
aVCell/Update
p274
aVCell/Update
p275
aVCell/Update
p276
aVCell/Update
p277
aVColumn/Formula
p278
aVColumn/Formula
p279
aVColumn/Formula
p280
aVCell/Update
p281
aVCell/Update
p282
aVCell/Update
p283
aVCell/Update
p284
aVColumn/Formula
p285
aVColumn/Formula
p286
aVColumn/Formula
p287
aVCell/Update
p288
aVCell/Update
p289
aVColumn/Formula
p290
aVCell/Update
p291
aVCell/Update
p292
aVCell/Update
p293
aVCell/Update
p294
aVCell/Update
p295
aVCell/Update
p296
aVColumn/Formula
p297
aVCell/Update
p298
aVColumn/Formula
p299
aVCell/Update
p300
aVCell/Update
p301
aVColumn/Formula
p302
aVColumn/Formula
p303
aVCell/Update
p304
aVCell/Update
p305
aVCell/Update
p306
aVCell/Update
p307
aVColumn/Formula
p308
aVColumn/Formula
p309
aVColumn/Formula
p310
aVColumn/Formula
p311
aVColumn/Formula
p312
aVCell/Update
p313
aVCell/Update
p314
aVColumn/Formula
p315
aVCell/Update
p316
aVColumn/Formula
p317
aVColumn/Formula
p318
aVCell/Update
p319
aVCell/Update
p320
aVCell/Update
p321
aVColumn/Formula
p322
aVColumn/Formula
p323
aVColumn/Formula
p324
aVCell/Update
p325
aVColumn/Formula
p326
aVCell/Update
p327
aVColumn/Formula
p328
aVColumn/Formula
p329
aVColumn/Formula
p330
aVColumn/Formula
p331
aVColumn/Formula
p332
aVColumn/Formula
p333
aVCell/Update
p334
aVColumn/Formula
p335
aVCell/Update
p336
aVCell/Update
p337
aVCell/Update
p338
aVColumn/Formula
p339
aVColumn/Formula
p340
aVColumn/Formula
p341
aVColumn/Formula
p342
aVColumn/Formula
p343
aVCell/Update
p344
aVCell/Update
p345
aVCell/Update
p346
aVColumn/Formula
p347
aVCell/Update
p348
aVCell/Update
p349
aVColumn/Formula
p350
aVColumn/Formula
p351
aVColumn/Formula
p352
aVColumn/Formula
p353
aVColumn/Formula
p354
aVColumn/Formula
p355
aVCell/Update
p356
aVColumn/Formula
p357
aVColumn/Formula
p358
aVColumn/Formula
p359
aVCell/Update
p360
aVCell/Update
p361
aVCell/Update
p362
aVColumn/Formula
p363
aVColumn/Formula
p364
aVCell/Update
p365
aVColumn/Formula
p366
aVColumn/Formula
p367
aVColumn/Formula
p368
aVColumn/Formula
p369
aVColumn/Formula
p370
aVColumn/Formula
p371
aVCell/Update
p372
aVCell/Update
p373
aVColumn/Formula
p374
aVCell/Update
p375
aVColumn/Formula
p376
aVColumn/Formula
p377
aVCell/Update
p378
aVCell/Update
p379
aVCell/Update
p380
aVCell/Update
p381
aVCell/Update
p382
aVColumn/Formula
p383
aVCell/Update
p384
aVCell/Update
p385
aVColumn/Formula
p386
aVColumn/Formula
p387
aVCell/Update
p388
aVCell/Update
p389
aVColumn/Formula
p390
aVColumn/Formula
p391
aVCell/Update
p392
aVCell/Update
p393
aVCell/Update
p394
aVCell/Update
p395
aVCell/Update
p396
aVCell/Update
p397
aVColumn/Formula
p398
aVCell/Update
p399
aVColumn/Formula
p400
aVCell/Update
p401
aVCell/Update
p402
aVColumn/Formula
p403
aVCell/Update
p404
aVColumn/Formula
p405
aVCell/Update
p406
aVColumn/Formula
p407
aVColumn/Formula
p408
aVCell/Update
p409
aVCell/Update
p410
aVCell/Update
p411
aVColumn/Formula
p412
aVColumn/Formula
p413
aVColumn/Formula
p414
aVCell/Update
p415
aVCell/Update
p416
aVColumn/Formula
p417
aVCell/Update
p418
aVColumn/Formula
p419
aVCell/Update
p420
aVCell/Update
p421
aVCell/Update
p422
aVCell/Update
p423
aVCell/Update
p424
aVCell/Update
p425
aVCell/Update
p426
aVCell/Update
p427
aVCell/Update
p428
aVCell/Update
p429
aVCell/Update
p430
aVCell/Update
p431
aVCell/Update
p432
aVCell/Update
p433
aVCell/Update
p434
aVCell/Update
p435
aVCell/Update
p436
aVCell/Update
p437
aVCell/Update
p438
aVCell/Update
p439
aVCell/Update
p440
aVCell/Update
p441
aVCell/Update
p442
aVColumn/Formula
p443
aVCell/Update
p444
aVColumn/Formula
p445
aVCell/Update
p446
aVCell/Update
p447
aVCell/Update
p448
aVCell/Update
p449
aVCell/Update
p450
aVCell/Update
p451
aVCell/Update
p452
aVCell/Update
p453
aVCell/Update
p454
aVCell/Update
p455
aVCell/Update
p456
aVCell/Update
p457
aVCell/Update
p458
aVColumn/Formula
p459
aVCell/Update
p460
aVCell/Update
p461
aVCell/Update
p462
aVCell/Update
p463
aVColumn/Formula
p464
aVCell/Update
p465
aVCell/Update
p466
aVCell/Update
p467
aVCell/Update
p468
aVCell/Update
p469
aVCell/Update
p470
aVCell/Update
p471
aVColumn/Formula
p472
aVColumn/Formula
p473
aVCell/Update
p474
aVCell/Update
p475
aVColumn/Formula
p476
aVCell/Update
p477
aVCell/Update
p478
aVCell/Update
p479
aVCell/Update
p480
aVCell/Update
p481
aVCell/Update
p482
aVColumn/Formula
p483
aVColumn/Formula
p484
aVColumn/Formula
p485
aVColumn/Formula
p486
aVColumn/Formula
p487
aVColumn/Formula
p488
aVColumn/Formula
p489
aVCell/Update
p490
aVCell/Update
p491
aVCell/Update
p492
aVColumn/Formula
p493
aVColumn/Formula
p494
aVColumn/Formula
p495
aVCell/Update
p496
aVCell/Update
p497
aVCell/Update
p498
aVCell/Update
p499
aVCell/Update
p500
aVColumn/Formula
p501
aVCell/Update
p502
aVColumn/Formula
p503
aVCell/Update
p504
aVCell/Update
p505
aVCell/Update
p506
aVCell/Update
p507
aVCell/Update
p508
aVCell/Update
p509
aVCell/Update
p510
aVCell/Update
p511
asS'_filepath'
p512
V/home/ubuntu/SciSheets/mysite/user/guest/tables/kristen_single_gene.pcl
p513
sS'_backup_dir'
p514
g17
sbsS'_namespace'
p515
(dp516
sS'_columns'
p517
(lp518
g0
(cscisheets.core.column
Column
p519
g2
Ntp520
Rp521
(dp522
S'_asis'
p523
I01
sS'_children'
p524
(lp525
sS'_cells'
p526
(lp527
S'1'
p528
aS'2'
p529
aS'3'
p530
aS'4'
p531
aS'5'
p532
aS'6'
p533
aS'7'
p534
aS'8'
p535
aS'9'
p536
aS'10'
p537
aS'11'
p538
aS'12'
p539
aS'13'
p540
aS'14'
p541
aS'15'
p542
aS'16'
p543
aS'17'
p544
aS'18'
p545
aS'19'
p546
aS'20'
p547
aS'21'
p548
aS'22'
p549
aS'23'
p550
aS'24'
p551
aS'25'
p552
aS'26'
p553
aS'27'
p554
aS'28'
p555
aS'29'
p556
aS'30'
p557
aS'31'
p558
aS'32'
p559
aS'33'
p560
aS'34'
p561
aS'35'
p562
aS'36'
p563
aS'37'
p564
aS'38'
p565
aS'39'
p566
aS'40'
p567
aS'41'
p568
aS'42'
p569
aS'43'
p570
aS'44'
p571
aS'45'
p572
aS'46'
p573
aS'47'
p574
aS'48'
p575
aS'49'
p576
aS'50'
p577
aS'51'
p578
aS'52'
p579
aS'53'
p580
aS'54'
p581
aS'55'
p582
aS'56'
p583
aS'57'
p584
aS'58'
p585
aS'59'
p586
aS'60'
p587
aS'61'
p588
aS'62'
p589
aS'63'
p590
aS'64'
p591
asS'_formula_statement'
p592
g0
(cscisheets.core.helpers.formula_statement
FormulaStatement
p593
g2
Ntp594
Rp595
(dp596
S'_statement'
p597
NsS'_name'
p598
S'row'
p599
sS'_isExpression'
p600
I00
sS'_isStatement'
p601
I00
sS'_formula'
p602
NsbsS'_parent'
p603
g4
sS'_data_class'
p604
g0
(cscisheets.core.helpers.api_util
DataClass
p605
c__builtin__
tuple
p606
(cscisheets.core.helpers.extended_array
ExtendedArray
p607
cscisheets.core.helpers.api_util
makeArray
p608
tp609
tp610
Rp611
sg598
g599
sbag0
(g519
g2
Ntp612
Rp613
(dp614
g523
I00
sg524
(lp615
sg526
(lp616
Vgene
p617
aVrun
p618
aVshow_raw
p619
aVshow_block1
p620
aVshow_block2
p621
aVshow_block3
p622
aVmax_std
p623
aVmin_eff
p624
aVshow_params
p625
aVnan
p626
aVnan
p627
aVnan
p628
aVnan
p629
aVnan
p630
aVnan
p631
aVnan
p632
aVnan
p633
aVnan
p634
aVnan
p635
aVnan
p636
aVnan
p637
aVnan
p638
aVnan
p639
aVnan
p640
aVnan
p641
aVnan
p642
aVnan
p643
aVnan
p644
aVnan
p645
aVnan
p646
aVnan
p647
aVnan
p648
aVnan
p649
aVnan
p650
aVnan
p651
aVnan
p652
aVnan
p653
aVnan
p654
aVnan
p655
aVnan
p656
aVnan
p657
aVnan
p658
aVnan
p659
aVnan
p660
aVnan
p661
aVnan
p662
aVnan
p663
aVnan
p664
aVnan
p665
aVnan
p666
aVnan
p667
aVnan
p668
aVnan
p669
aVnan
p670
aNaNaNaNaNaNaNaNaNaNasg592
g0
(g593
g2
Ntp671
Rp672
(dp673
g597
Nsg598
VParmNames
p674
sg600
I00
sg601
I00
sg602
Nsbsg603
g4
sg604
g0
(g605
g606
(cnumpy
ndarray
p675
g608
tp676
tp677
Rp678
sg598
g674
sbag0
(g519
g2
Ntp679
Rp680
(dp681
g523
I00
sg524
(lp682
sg526
(lp683
VGene1
p684
aVTrue
p685
aVFalse
p686
aVFalse
p687
aVFalse
p688
aVTrue
p689
aF0.5
aF0.7
aVTrue
p690
aV
p691
aVnan
p692
aVnan
p693
aVnan
p694
aVnan
p695
aVnan
p696
aVnan
p697
aVnan
p698
aVnan
p699
aVnan
p700
aVnan
p701
aVnan
p702
aVnan
p703
aVnan
p704
aVnan
p705
aVnan
p706
aVnan
p707
aVnan
p708
aVnan
p709
aVnan
p710
aVnan
p711
aVnan
p712
aVnan
p713
aVnan
p714
aVnan
p715
aVnan
p716
aVnan
p717
aVnan
p718
aVnan
p719
aVnan
p720
aVnan
p721
aVnan
p722
aVnan
p723
aVnan
p724
aVnan
p725
aVnan
p726
aVnan
p727
aVnan
p728
aVnan
p729
aVnan
p730
aVnan
p731
aVnan
p732
aVnan
p733
aVnan
p734
aVnan
p735
aNaNaNaNaNaNaNaNaNaNasg592
g0
(g593
g2
Ntp736
Rp737
(dp738
g597
Nsg598
VParmValues
p739
sg600
I00
sg601
I00
sg602
Nsbsg603
g4
sg604
g0
(g605
g606
(g675
g608
tp740
tp741
Rp742
sg598
g739
sbag0
(g519
g2
Ntp743
Rp744
(dp745
g523
I00
sg524
(lp746
sg526
(lp747
F0.0
aF0.0
aF0.0
aF0.0
aF0.0
aF0.0
aF0.0
aF0.0
aF0.0
aF1.0
aF1.0
aF1.0
aF1.0
aF1.0
aF1.0
aF1.0
aF1.0
aF1.0
aF1.0
aF1.0
aF1.0
aF1.0
aF1.0
aF1.0
aF1.0
aF1.0
aF1.0
aF1.0
aF1.0
aF1.0
aF1.0
aF1.0
aF1.0
aF1.0
aF1.0
aF1.0
aF2.0
aF2.0
aF2.0
aF2.0
aF2.0
aF2.0
aF2.0
aF2.0
aF2.0
aF3.0
aF3.0
aF3.0
aF3.0
aF3.0
aF3.0
aF3.0
aF3.0
aF3.0
aFnan
aFnan
aFnan
aFnan
aFnan
aFnan
aFnan
aFnan
aFnan
aFnan
asg592
g0
(g593
g2
Ntp748
Rp749
(dp750
g597
Nsg598
S'Treatment'
p751
sg600
I00
sg601
I00
sg602
Nsbsg603
g4
sg604
g0
(g605
g606
(g607
g608
tp752
tp753
Rp754
sg598
g751
sbag0
(g519
g2
Ntp755
Rp756
(dp757
g523
I00
sg524
(lp758
sg526
(lp759
VI
p760
ag760
ag760
aVR1
p761
ag761
ag761
aVR2
p762
ag762
ag762
ag760
ag760
ag760
ag760
ag760
ag760
ag760
ag760
ag760
ag761
ag761
ag761
ag761
ag761
ag761
ag761
ag761
ag761
ag762
ag762
ag762
ag762
ag762
ag762
ag762
ag762
ag762
ag760
ag760
ag760
ag761
ag761
ag761
ag762
ag762
ag762
ag760
ag760
ag760
ag761
ag761
ag761
ag762
ag762
ag762
aNaNaNaNaNaNaNaNaNaNasg592
g0
(g593
g2
Ntp763
Rp764
(dp765
g597
Nsg598
S'RunType'
p766
sg600
I00
sg601
I00
sg602
Nsbsg603
g4
sg604
g754
sg598
g766
sbag0
(g519
g2
Ntp767
Rp768
(dp769
g523
I00
sg524
(lp770
sg526
(lp771
F1.0
aF1.0
aF1.0
aF1.0
aF1.0
aF1.0
aF1.0
aF1.0
aF1.0
aF1.0
aF1.0
aF1.0
aF2.0
aF2.0
aF2.0
aF3.0
aF3.0
aF3.0
aF1.0
aF1.0
aF1.0
aF2.0
aF2.0
aF2.0
aF3.0
aF3.0
aF3.0
aF1.0
aF1.0
aF1.0
aF2.0
aF2.0
aF2.0
aF3.0
aF3.0
aF3.0
aF1.0
aF1.0
aF1.0
aF1.0
aF1.0
aF1.0
aF1.0
aF1.0
aF1.0
aF1.0
aF1.0
aF1.0
aF1.0
aF1.0
aF1.0
aF1.0
aF1.0
aF1.0
aFnan
aFnan
aFnan
aFnan
aFnan
aFnan
aFnan
aFnan
aFnan
aFnan
asg592
g0
(g593
g2
Ntp772
Rp773
(dp774
g597
Nsg598
S'BRpl'
p775
sg600
I00
sg601
I00
sg602
Nsbsg603
g4
sg604
g754
sg598
g775
sbag0
(g519
g2
Ntp776
Rp777
(dp778
g523
I00
sg524
(lp779
sg526
(lp780
Va
p781
aVb
p782
aVc
p783
ag781
ag782
ag783
ag781
ag782
ag783
ag781
ag782
ag783
ag781
ag782
ag783
ag781
ag782
ag783
ag781
ag782
ag783
ag781
ag782
ag783
ag781
ag782
ag783
ag781
ag782
ag783
ag781
ag782
ag783
ag781
ag782
ag783
ag781
ag782
ag783
ag781
ag782
ag783
ag781
ag782
ag783
ag781
ag782
ag783
ag781
ag782
ag783
ag781
ag782
ag783
aNaNaNaNaNaNaNaNaNaNasg592
g0
(g593
g2
Ntp784
Rp785
(dp786
g597
Nsg598
S'TRpl'
p787
sg600
I00
sg601
I00
sg602
Nsbsg603
g4
sg604
g754
sg598
g787
sbag0
(g519
g2
Ntp788
Rp789
(dp790
g523
I00
sg524
(lp791
sg526
(lp792
F0.919
aF0.9106
aF0.9129
aF0.8266
aF0.8343
aF0.8496
aF0.8157
aF0.8543
aF0.8208
aF0.8453
aF0.8426
aF0.8524
aF0.8658
aF0.7809
aF0.8512
aF0.8442
aF0.8357
aF0.7658
aF0.9179
aF0.9783
aF0.8971
aF0.8957
aF0.8287
aF0.8387
aF0.8746
aF0.8493
aF0.8349
aF0.7857
aF0.8427
aF0.8637
aF0.8281
aF0.8203
aF0.8288
aF0.8138
aF0.8242
aF0.804
aF0.8352
aF0.7886
aF0.8105
aF0.7701
aF0.8746
aF0.8139
aF0.7795
aF0.7676
aF0.7947
aF0.876
aF0.8597
aF0.8873
aF0.8715
aF0.8977
aF0.856
aF0.8179
aF0.8173
aF0.7894
aFnan
aFnan
aFnan
aFnan
aFnan
aFnan
aFnan
aFnan
aFnan
aFnan
asg592
g0
(g593
g2
Ntp793
Rp794
(dp795
g597
Nsg598
S'Eff'
p796
sg600
I00
sg601
I00
sg602
Nsbsg603
g4
sg604
g754
sg598
g796
sbag0
(g519
g2
Ntp797
Rp798
(dp799
g523
I00
sg524
(lp800
sg526
(lp801
F18.31
aF18.29
aF18.15
aF18.24
aF18.22
aF18.36
aF19.72
aF19.75
aF20.01
aF22.42
aF22.5
aF22.44
aF21.92
aF22.03
aF21.94
aF23.4
aF23.47
aF23.41
aF19.92
aF19.85
aF20.0
aF21.86
aF22.09
aF21.84
aF23.89
aF23.54
aF24.27
aF22.18
aF21.71
aF21.75
aF23.88
aF23.42
aF23.63
aF24.59
aF24.61
aF24.34
aF23.48
aF23.31
aF23.45
aF23.22
aF23.8
aF23.49
aF26.37
aF26.36
aF26.17
aF18.82
aF18.97
aF18.92
aF18.91
aF18.78
aF18.8
aF20.5
aF20.47
aF20.28
aFnan
aFnan
aFnan
aFnan
aFnan
aFnan
aFnan
aFnan
aFnan
aFnan
asg592
g0
(g593
g2
Ntp802
Rp803
(dp804
g597
Nsg598
S'Ct'
p805
sg600
I00
sg601
I00
sg602
Nsbsg603
g4
sg604
g754
sg598
g805
sbag0
(g519
g2
Ntp806
Rp807
(dp808
g523
I00
sg524
(lp809
sg526
(lp810
(lp811
cnumpy.core.multiarray
scalar
p812
(cnumpy
dtype
p813
(S'f8'
p814
I0
I1
tp815
Rp816
(I3
S'<'
p817
NNNI-1
I-1
I0
tp818
bS'\x00\x00\x00\x00\x00\x00\x00\x00'
p819
tp820
Rp821
ag760
ag812
(g816
S'\x00\x00\x00\x00\x00\x00\xf0?'
p822
tp823
Rp824
aa(lp825
g812
(g816
S'\x00\x00\x00\x00\x00\x00\x00\x00'
p826
tp827
Rp828
ag761
ag812
(g816
S'\x00\x00\x00\x00\x00\x00\xf0?'
p829
tp830
Rp831
aa(lp832
g812
(g816
S'\x00\x00\x00\x00\x00\x00\x00\x00'
p833
tp834
Rp835
ag762
ag812
(g816
S'\x00\x00\x00\x00\x00\x00\xf0?'
p836
tp837
Rp838
aa(lp839
g812
(g816
S'\x00\x00\x00\x00\x00\x00\xf0?'
p840
tp841
Rp842
ag760
ag812
(g816
S'\x00\x00\x00\x00\x00\x00\xf0?'
p843
tp844
Rp845
aa(lp846
g812
(g816
S'\x00\x00\x00\x00\x00\x00\xf0?'
p847
tp848
Rp849
ag760
ag812
(g816
S'\x00\x00\x00\x00\x00\x00\x00@'
p850
tp851
Rp852
aa(lp853
g812
(g816
S'\x00\x00\x00\x00\x00\x00\xf0?'
p854
tp855
Rp856
ag760
ag812
(g816
S'\x00\x00\x00\x00\x00\x00\x08@'
p857
tp858
Rp859
aa(lp860
g812
(g816
S'\x00\x00\x00\x00\x00\x00\xf0?'
p861
tp862
Rp863
ag761
ag812
(g816
S'\x00\x00\x00\x00\x00\x00\xf0?'
p864
tp865
Rp866
aa(lp867
g812
(g816
S'\x00\x00\x00\x00\x00\x00\xf0?'
p868
tp869
Rp870
ag761
ag812
(g816
S'\x00\x00\x00\x00\x00\x00\x00@'
p871
tp872
Rp873
aa(lp874
g812
(g816
S'\x00\x00\x00\x00\x00\x00\xf0?'
p875
tp876
Rp877
ag761
ag812
(g816
S'\x00\x00\x00\x00\x00\x00\x08@'
p878
tp879
Rp880
aa(lp881
g812
(g816
S'\x00\x00\x00\x00\x00\x00\xf0?'
p882
tp883
Rp884
ag762
ag812
(g816
S'\x00\x00\x00\x00\x00\x00\xf0?'
p885
tp886
Rp887
aa(lp888
g812
(g816
S'\x00\x00\x00\x00\x00\x00\xf0?'
p889
tp890
Rp891
ag762
ag812
(g816
S'\x00\x00\x00\x00\x00\x00\x00@'
p892
tp893
Rp894
aa(lp895
g812
(g816
S'\x00\x00\x00\x00\x00\x00\xf0?'
p896
tp897
Rp898
ag762
ag812
(g816
S'\x00\x00\x00\x00\x00\x00\x08@'
p899
tp900
Rp901
aa(lp902
g812
(g816
S'\x00\x00\x00\x00\x00\x00\x00@'
p903
tp904
Rp905
ag760
ag812
(g816
S'\x00\x00\x00\x00\x00\x00\xf0?'
p906
tp907
Rp908
aa(lp909
g812
(g816
S'\x00\x00\x00\x00\x00\x00\x00@'
p910
tp911
Rp912
ag761
ag812
(g816
S'\x00\x00\x00\x00\x00\x00\xf0?'
p913
tp914
Rp915
aa(lp916
g812
(g816
S'\x00\x00\x00\x00\x00\x00\x00@'
p917
tp918
Rp919
ag762
ag812
(g816
S'\x00\x00\x00\x00\x00\x00\xf0?'
p920
tp921
Rp922
aa(lp923
g812
(g816
S'\x00\x00\x00\x00\x00\x00\x08@'
p924
tp925
Rp926
ag760
ag812
(g816
S'\x00\x00\x00\x00\x00\x00\xf0?'
p927
tp928
Rp929
aa(lp930
g812
(g816
S'\x00\x00\x00\x00\x00\x00\x08@'
p931
tp932
Rp933
ag761
ag812
(g816
S'\x00\x00\x00\x00\x00\x00\xf0?'
p934
tp935
Rp936
aa(lp937
g812
(g816
S'\x00\x00\x00\x00\x00\x00\x08@'
p938
tp939
Rp940
ag762
ag812
(g816
S'\x00\x00\x00\x00\x00\x00\xf0?'
p941
tp942
Rp943
aaNaNaNaNaNaNaNaNaNaNaNaNaNaNaNaNaNaNaNaNaNaNaNaNaNaNaNaNaNaNaNaNaNaNaNaNaNaNaNaNaNaNaNaNaNaNasg592
g0
(g593
g2
Ntp944
Rp945
(dp946
g597
Vsel = [e > min_eff for e in Eff]\u000apairs = zip(range(len(sel)), sel)\u000apTreatment = [Treatment[i] for i,b in pairs if b]\u000apRunType = [RunType[i] for i,b in pairs if b]\u000apBRpl = [BRpl[i] for i,b in pairs if b]\u000agrouping_columns = [pTreatment, pRunType, pBRpl]\u000apCt = [Ct[i] for i,b in pairs if b]\u000apEff = [Eff[i] for i,b in pairs if b]\u000aGroups, groupedCt = groupBy(\u000a     grouping_columns, pCt)\u000aGroups, groupedEff = groupBy(\u000a     grouping_columns, pEff)\u000aGroups = [[g[0], g[1], g[2]] for g in Groups]\u000aGroupedCt = roundValues(groupedCt,2)\u000aGroupedEff = roundValues(groupedEff,2)
p947
sg598
VGroups
p948
sg600
I00
sg601
I00
sg602
Vsel = [e > min_eff for e in Eff]\u000apairs = zip(range(len(sel)), sel)\u000apTreatment = [Treatment[i] for i,b in pairs if b]\u000apRunType = [RunType[i] for i,b in pairs if b]\u000apBRpl = [BRpl[i] for i,b in pairs if b]\u000agrouping_columns = [pTreatment, pRunType, pBRpl]\u000apCt = [Ct[i] for i,b in pairs if b]\u000apEff = [Eff[i] for i,b in pairs if b]\u000aGroups, groupedCt = groupBy(\u000a     grouping_columns, pCt)\u000aGroups, groupedEff = groupBy(\u000a     grouping_columns, pEff)\u000aGroups = [[g[0], g[1], g[2]] for g in Groups]\u000aGroupedCt = roundValues(groupedCt,2)\u000aGroupedEff = roundValues(groupedEff,2)
p949
sbsg603
g4
sg604
g0
(g605
g606
(g675
g608
tp950
tp951
Rp952
sg598
g948
sbag0
(g519
g2
Ntp953
Rp954
(dp955
g523
I00
sg524
(lp956
sg526
(lp957
(lp958
F0.92
aF0.91
aF0.91
aa(lp959
F0.83
aF0.83
aF0.85
aa(lp960
F0.82
aF0.85
aF0.82
aa(lp961
F0.85
aF0.84
aF0.85
aa(lp962
F0.87
aF0.78
aF0.85
aa(lp963
F0.84
aF0.84
aF0.77
aa(lp964
F0.92
aF0.98
aF0.9
aa(lp965
F0.9
aF0.83
aF0.84
aa(lp966
F0.87
aF0.85
aF0.83
aa(lp967
F0.79
aF0.84
aF0.86
aa(lp968
F0.83
aF0.82
aF0.83
aa(lp969
F0.81
aF0.82
aF0.8
aa(lp970
F0.84
aF0.79
aF0.81
aa(lp971
F0.77
aF0.87
aF0.81
aa(lp972
F0.78
aF0.77
aF0.79
aa(lp973
F0.88
aF0.86
aF0.89
aa(lp974
F0.87
aF0.9
aF0.86
aa(lp975
F0.82
aF0.82
aF0.79
aaNaNaNaNaNaNaNaNaNaNaNaNaNaNaNaNaNaNaNaNaNaNaNaNaNaNaNaNaNaNaNaNaNaNaNaNaNaNaNaNaNaNaNaNaNaNasg592
g0
(g593
g2
Ntp976
Rp977
(dp978
g597
Nsg598
VGroupedEff
p979
sg600
I00
sg601
I00
sg602
Nsbsg603
g4
sg604
g0
(g605
g606
(g675
g608
tp980
tp981
Rp982
sg598
g979
sbag0
(g519
g2
Ntp983
Rp984
(dp985
g523
I00
sg524
(lp986
sg526
(lp987
(lp988
F18.31
aF18.29
aF18.15
aa(lp989
F18.24
aF18.22
aF18.36
aa(lp990
F19.72
aF19.75
aF20.01
aa(lp991
F22.42
aF22.5
aF22.44
aa(lp992
F21.92
aF22.03
aF21.94
aa(lp993
F23.4
aF23.47
aF23.41
aa(lp994
F19.92
aF19.85
aF20.0
aa(lp995
F21.86
aF22.09
aF21.84
aa(lp996
F23.89
aF23.54
aF24.27
aa(lp997
F22.18
aF21.71
aF21.75
aa(lp998
F23.88
aF23.42
aF23.63
aa(lp999
F24.59
aF24.61
aF24.34
aa(lp1000
F23.48
aF23.31
aF23.45
aa(lp1001
F23.22
aF23.8
aF23.49
aa(lp1002
F26.37
aF26.36
aF26.17
aa(lp1003
F18.82
aF18.97
aF18.92
aa(lp1004
F18.91
aF18.78
aF18.8
aa(lp1005
F20.5
aF20.47
aF20.28
aaNaNaNaNaNaNaNaNaNaNaNaNaNaNaNaNaNaNaNaNaNaNaNaNaNaNaNaNaNaNaNaNaNaNaNaNaNaNaNaNaNaNaNaNaNaNasg592
g0
(g593
g2
Ntp1006
Rp1007
(dp1008
g597
Nsg598
VGroupedCt
p1009
sg600
I00
sg601
I00
sg602
Nsbsg603
g4
sg604
g0
(g605
g606
(g675
g608
tp1010
tp1011
Rp1012
sg598
g1009
sbag0
(g519
g2
Ntp1013
Rp1014
(dp1015
g523
I00
sg524
(lp1016
sg526
(lp1017
(lp1018
F18.3
aF18.3
aF18.1
aa(lp1019
F18.2
aF18.2
aF18.4
aa(lp1020
F19.7
aF19.8
aF20.0
aa(lp1021
F22.4
aF22.5
aF22.4
aa(lp1022
F21.9
aF22.0
aF21.9
aa(lp1023
F23.4
aF23.5
aF23.4
aa(lp1024
F19.9
aF19.9
aF20.0
aa(lp1025
F21.9
aF22.1
aF21.8
aa(lp1026
F23.9
aF23.5
aF24.3
aa(lp1027
F22.2
aF21.7
aF21.8
aa(lp1028
F23.9
aF23.4
aF23.6
aa(lp1029
F24.6
aF24.6
aF24.3
aa(lp1030
F23.5
aF23.3
aF23.4
aa(lp1031
F23.2
aF23.8
aF23.5
aa(lp1032
F26.4
aF26.4
aF26.2
aa(lp1033
F18.8
aF19.0
aF18.9
aa(lp1034
F18.9
aF18.8
aF18.8
aa(lp1035
F20.5
aF20.5
aF20.3
aaNaNaNaNaNaNaNaNaNaNaNaNaNaNaNaNaNaNaNaNaNaNaNaNaNaNaNaNaNaNaNaNaNaNaNaNaNaNaNaNaNaNaNaNaNaNasg592
g0
(g593
g2
Ntp1036
Rp1037
(dp1038
g597
Vlength = len(Groups)\u000aStdFilteredGroupedCt = roundValues([filterExtremes(g, max_std, 2) for g in pruneNulls(GroupedCt)])\u000a 
p1039
sg598
VStdFilteredGroupedCt
p1040
sg600
I00
sg601
I00
sg602
Vlength = len(Groups)\u000aStdFilteredGroupedCt = roundValues([filterExtremes(g, max_std, 2) for g in pruneNulls(GroupedCt)])\u000a 
p1041
sbsg603
g4
sg604
g0
(g605
g606
(g675
g608
tp1042
tp1043
Rp1044
sg598
g1040
sbag0
(g519
g2
Ntp1045
Rp1046
(dp1047
g523
I00
sg524
(lp1048
sg526
(lp1049
F18.2
aF18.3
aF19.8
aF22.4
aF21.9
aF23.4
aF19.9
aF21.9
aF23.9
aF21.9
aF23.6
aF24.5
aF23.4
aF23.5
aF26.3
aF18.9
aF18.8
aF20.4
aFnan
aFnan
aFnan
aFnan
aFnan
aFnan
aFnan
aFnan
aFnan
aFnan
aFnan
aFnan
aFnan
aFnan
aFnan
aFnan
aFnan
aFnan
aFnan
aFnan
aFnan
aFnan
aFnan
aFnan
aFnan
aFnan
aFnan
aFnan
aFnan
aFnan
aFnan
aFnan
aFnan
aFnan
aFnan
aFnan
aFnan
aFnan
aFnan
aFnan
aFnan
aFnan
aFnan
aFnan
aFnan
aFnan
asg592
g0
(g593
g2
Ntp1050
Rp1051
(dp1052
g597
VMeanCt = [np.mean(g) for g in StdFilteredGroupedCt]\u000aMeanCt = roundValues(MeanCt,1)\u000aStdCt = [np.std(g, ddof=1) if len(g) > 2 else 0 for g in StdFilteredGroupedCt]\u000aStdCt = roundValues(StdCt,3)
p1053
sg598
VMeanCt
p1054
sg600
I00
sg601
I00
sg602
VMeanCt = [np.mean(g) for g in StdFilteredGroupedCt]\u000aMeanCt = roundValues(MeanCt,1)\u000aStdCt = [np.std(g, ddof=1) if len(g) > 2 else 0 for g in StdFilteredGroupedCt]\u000aStdCt = roundValues(StdCt,3)
p1055
sbsg603
g4
sg604
g0
(g605
g606
(g675
g608
tp1056
tp1057
Rp1058
sg598
g1054
sbag0
(g519
g2
Ntp1059
Rp1060
(dp1061
g523
I00
sg524
(lp1062
sg526
(lp1063
F0.115
aF0.115
aF0.153
aF0.058
aF0.058
aF0.058
aF0.058
aF0.153
aF0.4
aF0.265
aF0.252
aF0.173
aF0.1
aF0.3
aF0.115
aF0.1
aF0.058
aF0.115
aFnan
aFnan
aFnan
aFnan
aFnan
aFnan
aFnan
aFnan
aFnan
aFnan
aFnan
aFnan
aFnan
aFnan
aFnan
aFnan
aFnan
aFnan
aFnan
aFnan
aFnan
aFnan
aFnan
aFnan
aFnan
aFnan
aFnan
aFnan
aFnan
aFnan
aFnan
aFnan
aFnan
aFnan
aFnan
aFnan
aFnan
aFnan
aFnan
aFnan
aFnan
aFnan
aFnan
aFnan
aFnan
aFnan
asg592
g0
(g593
g2
Ntp1064
Rp1065
(dp1066
g597
Nsg598
VStdCt
p1067
sg600
I00
sg601
I00
sg602
Nsbsg603
g4
sg604
g0
(g605
g606
(g675
g608
tp1068
tp1069
Rp1070
sg598
g1067
sbag0
(g519
g2
Ntp1071
Rp1072
(dp1073
g523
I00
sg524
(lp1074
sg526
(lp1075
(lp1076
g812
(g813
(S'i8'
p1077
I0
I1
tp1078
Rp1079
(I3
S'<'
p1080
NNNI-1
I-1
I0
tp1081
bS'\x00\x00\x00\x00\x00\x00\x00\x00'
p1082
tp1083
Rp1084
ag812
(g1079
S'\x01\x00\x00\x00\x00\x00\x00\x00'
p1085
tp1086
Rp1087
aa(lp1088
g812
(g1079
S'\x01\x00\x00\x00\x00\x00\x00\x00'
p1089
tp1090
Rp1091
ag812
(g1079
S'\x01\x00\x00\x00\x00\x00\x00\x00'
p1092
tp1093
Rp1094
aa(lp1095
g812
(g1079
S'\x01\x00\x00\x00\x00\x00\x00\x00'
p1096
tp1097
Rp1098
ag812
(g1079
S'\x02\x00\x00\x00\x00\x00\x00\x00'
p1099
tp1100
Rp1101
aa(lp1102
g812
(g1079
S'\x01\x00\x00\x00\x00\x00\x00\x00'
p1103
tp1104
Rp1105
ag812
(g1079
S'\x03\x00\x00\x00\x00\x00\x00\x00'
p1106
tp1107
Rp1108
aa(lp1109
g812
(g1079
S'\x02\x00\x00\x00\x00\x00\x00\x00'
p1110
tp1111
Rp1112
ag812
(g1079
S'\x01\x00\x00\x00\x00\x00\x00\x00'
p1113
tp1114
Rp1115
aa(lp1116
g812
(g1079
S'\x03\x00\x00\x00\x00\x00\x00\x00'
p1117
tp1118
Rp1119
ag812
(g1079
S'\x01\x00\x00\x00\x00\x00\x00\x00'
p1120
tp1121
Rp1122
aa(lp1123
g812
(g1079
S'\x04\x00\x00\x00\x00\x00\x00\x00'
p1124
tp1125
Rp1126
ag812
(g1079
S'\x01\x00\x00\x00\x00\x00\x00\x00'
p1127
tp1128
Rp1129
aaNaNaNaNaNaNaNaNaNaNaNaNaNaNaNaNaNaNaNaNaNaNaNaNaNaNaNaNaNaNaNaNaNaNaNaNaNaNaNaNaNaNaNaNaNaNaNaNaNaNaNaNaNaNaNaNaNasg592
g0
(g593
g2
Ntp1130
Rp1131
(dp1132
g597
Vdummy = tabularize(s, 'Groups', 1, 'MeanCt', \u000a          new_category_colnm='BioRuns',\u000a          values_colnm_prefix='Gene_')
p1133
sg598
VBioRuns
p1134
sg600
I00
sg601
I00
sg602
Vdummy = tabularize(s, 'Groups', 1, 'MeanCt', \u000a          new_category_colnm='BioRuns',\u000a          values_colnm_prefix='Gene_')
p1135
sbsg603
g4
sg604
g0
(g605
g606
(g675
g608
tp1136
tp1137
Rp1138
sg598
g1134
sbag0
(g519
g2
Ntp1139
Rp1140
(dp1141
g523
I00
sg524
(lp1142
sg526
(lp1143
F18.2
aF22.4
aF21.9
aF23.4
aF23.4
aF18.9
aFnan
aFnan
aFnan
aFnan
aFnan
aFnan
aFnan
aFnan
aFnan
aFnan
aFnan
aFnan
aFnan
aFnan
aFnan
aFnan
aFnan
aFnan
aFnan
aFnan
aFnan
aFnan
aFnan
aFnan
aFnan
aFnan
aFnan
aFnan
aFnan
aFnan
aFnan
aFnan
aFnan
aFnan
aFnan
aFnan
aFnan
aFnan
aFnan
aFnan
aFnan
aFnan
aFnan
aFnan
aFnan
aFnan
aFnan
aFnan
aFnan
aFnan
aFnan
aFnan
aFnan
aFnan
aFnan
aFnan
aFnan
aFnan
asg592
g0
(g593
g2
Ntp1144
Rp1145
(dp1146
g597
Nsg598
S'Gene_I'
p1147
sg600
I00
sg601
I00
sg602
Nsbsg603
g4
sg604
g0
(g605
g606
(g675
g608
tp1148
tp1149
Rp1150
sg598
g1147
sbag0
(g519
g2
Ntp1151
Rp1152
(dp1153
g523
I00
sg524
(lp1154
sg526
(lp1155
F18.3
aF19.9
aF21.9
aF23.9
aF23.5
aF18.8
aFnan
aFnan
aFnan
aFnan
aFnan
aFnan
aFnan
aFnan
aFnan
aFnan
aFnan
aFnan
aFnan
aFnan
aFnan
aFnan
aFnan
aFnan
aFnan
aFnan
aFnan
aFnan
aFnan
aFnan
aFnan
aFnan
aFnan
aFnan
aFnan
aFnan
aFnan
aFnan
aFnan
aFnan
aFnan
aFnan
aFnan
aFnan
aFnan
aFnan
aFnan
aFnan
aFnan
aFnan
aFnan
aFnan
aFnan
aFnan
aFnan
aFnan
aFnan
aFnan
aFnan
aFnan
aFnan
aFnan
aFnan
aFnan
asg592
g0
(g593
g2
Ntp1156
Rp1157
(dp1158
g597
Nsg598
S'Gene_R1'
p1159
sg600
I00
sg601
I00
sg602
Nsbsg603
g4
sg604
g1150
sg598
g1159
sbag0
(g519
g2
Ntp1160
Rp1161
(dp1162
g523
I00
sg524
(lp1163
sg526
(lp1164
F19.8
aF21.9
aF23.6
aF24.5
aF26.3
aF20.4
aFnan
aFnan
aFnan
aFnan
aFnan
aFnan
aFnan
aFnan
aFnan
aFnan
aFnan
aFnan
aFnan
aFnan
aFnan
aFnan
aFnan
aFnan
aFnan
aFnan
aFnan
aFnan
aFnan
aFnan
aFnan
aFnan
aFnan
aFnan
aFnan
aFnan
aFnan
aFnan
aFnan
aFnan
aFnan
aFnan
aFnan
aFnan
aFnan
aFnan
aFnan
aFnan
aFnan
aFnan
aFnan
aFnan
aFnan
aFnan
aFnan
aFnan
aFnan
aFnan
aFnan
aFnan
aFnan
aFnan
aFnan
aFnan
asg592
g0
(g593
g2
Ntp1165
Rp1166
(dp1167
g597
Nsg598
S'Gene_R2'
p1168
sg600
I00
sg601
I00
sg602
Nsbsg603
g4
sg604
g1150
sg598
g1168
sbag0
(g519
g2
Ntp1169
Rp1170
(dp1171
g523
I00
sg524
(lp1172
sg526
(lp1173
F1.07177
aF0.17678
aF1.0
aF1.41421
aF1.07177
aF0.93303
aFnan
aFnan
aFnan
aFnan
aFnan
aFnan
aFnan
aFnan
aFnan
aFnan
aFnan
aFnan
aFnan
aFnan
aFnan
aFnan
aFnan
aFnan
aFnan
aFnan
aFnan
aFnan
aFnan
aFnan
aFnan
aFnan
aFnan
aFnan
aFnan
aFnan
aFnan
aFnan
aFnan
aFnan
aFnan
aFnan
aFnan
aFnan
aFnan
aFnan
aFnan
aFnan
aFnan
aFnan
aFnan
aFnan
aFnan
aFnan
aFnan
aFnan
aFnan
aFnan
aFnan
aFnan
aFnan
aFnan
aFnan
aFnan
asg592
g0
(g593
g2
Ntp1174
Rp1175
(dp1176
g597
VExprR1 = roundValues(2**(Gene_R1 - Gene_I),5)
p1177
sg598
VExprR1
p1178
sg600
I01
sg601
I00
sg602
VroundValues(2**(Gene_R1 - Gene_I),5)
p1179
sbsg603
g4
sg604
g0
(g605
g606
(g675
g608
tp1180
tp1181
Rp1182
sg598
g1178
sbag0
(g519
g2
Ntp1183
Rp1184
(dp1185
g523
I00
sg524
(lp1186
sg526
(lp1187
F3.03143
aF0.70711
aF3.24901
aF2.14355
aF7.46426
aF2.82843
aFnan
aFnan
aFnan
aFnan
aFnan
aFnan
aFnan
aFnan
aFnan
aFnan
aFnan
aFnan
aFnan
aFnan
aFnan
aFnan
aFnan
aFnan
aFnan
aFnan
aFnan
aFnan
aFnan
aFnan
aFnan
aFnan
aFnan
aFnan
aFnan
aFnan
aFnan
aFnan
aFnan
aFnan
aFnan
aFnan
aFnan
aFnan
aFnan
aFnan
aFnan
aFnan
aFnan
aFnan
aFnan
aFnan
aFnan
aFnan
aFnan
aFnan
aFnan
aFnan
aFnan
aFnan
aFnan
aFnan
aFnan
aFnan
asg592
g0
(g593
g2
Ntp1188
Rp1189
(dp1190
g597
VExprR2 = roundValues(2**(Gene_R2 - Gene_I),5)
p1191
sg598
VExprR2
p1192
sg600
I01
sg601
I00
sg602
VroundValues(2**(Gene_R2 - Gene_I),5)
p1193
sbsg603
g4
sg604
g0
(g605
g606
(g675
g608
tp1194
tp1195
Rp1196
sg598
g1192
sbag0
(g519
g2
Ntp1197
Rp1198
(dp1199
g523
I00
sg524
(lp1200
sg526
(lp1201
F1.802
aF0.354
aF1.803
aF1.741
aF2.828
aF1.625
aFnan
aFnan
aFnan
aFnan
aFnan
aFnan
aFnan
aFnan
aFnan
aFnan
aFnan
aFnan
aFnan
aFnan
aFnan
aFnan
aFnan
aFnan
aFnan
aFnan
aFnan
aFnan
aFnan
aFnan
aFnan
aFnan
aFnan
aFnan
aFnan
aFnan
aFnan
aFnan
aFnan
aFnan
aFnan
aFnan
aFnan
aFnan
aFnan
aFnan
aFnan
aFnan
aFnan
aFnan
aFnan
aFnan
aFnan
aFnan
aFnan
aFnan
aFnan
aFnan
aFnan
aFnan
aFnan
aFnan
aFnan
aFnan
asg592
g0
(g593
g2
Ntp1202
Rp1203
(dp1204
g597
VGeoMean = roundValues(np.sqrt(ExprR1*ExprR2), 3)
p1205
sg598
VGeoMean
p1206
sg600
I01
sg601
I00
sg602
VroundValues(np.sqrt(ExprR1*ExprR2), 3)
p1207
sbsg603
g4
sg604
g0
(g605
g606
(g675
g608
tp1208
tp1209
Rp1210
sg598
g1206
sbag0
(g519
g2
Ntp1211
Rp1212
(dp1213
g523
I00
sg524
(lp1214
sg526
(lp1215
F0.0
aF1.0
aF2.0
aF3.0
aF4.0
aFnan
aFnan
aFnan
aFnan
aFnan
aFnan
aFnan
aFnan
aFnan
aFnan
aFnan
aFnan
aFnan
aFnan
aFnan
aFnan
aFnan
aFnan
aFnan
aFnan
aFnan
aFnan
aFnan
aFnan
aFnan
aFnan
aFnan
aFnan
aFnan
aFnan
aFnan
aFnan
aFnan
aFnan
aFnan
aFnan
aFnan
aFnan
aFnan
aFnan
aFnan
aFnan
aFnan
aFnan
aFnan
aFnan
aFnan
aFnan
aFnan
aFnan
aFnan
aFnan
aFnan
aFnan
aFnan
aFnan
aFnan
aFnan
aFnan
asg592
g0
(g593
g2
Ntp1216
Rp1217
(dp1218
g597
Vcat_vals = [br[0] for br in pruneNulls(BioRuns)]\u000aclean_geo = [x for x in GeoMean if x is not None]\u000aGeoGroups, groupedGeoMeans = groupBy(cat_vals, clean_geo)\u000aGroupedGeoMeans = roundValues(groupedGeoMeans, 3)
p1219
sg598
VGeoGroups
p1220
sg600
I00
sg601
I00
sg602
Vcat_vals = [br[0] for br in pruneNulls(BioRuns)]\u000aclean_geo = [x for x in GeoMean if x is not None]\u000aGeoGroups, groupedGeoMeans = groupBy(cat_vals, clean_geo)\u000aGroupedGeoMeans = roundValues(groupedGeoMeans, 3)
p1221
sbsg603
g4
sg604
g0
(g605
g606
(g675
g608
tp1222
tp1223
Rp1224
sg598
g1220
sbag0
(g519
g2
Ntp1225
Rp1226
(dp1227
g523
I00
sg524
(lp1228
sg526
(lp1229
cnumpy.core.multiarray
_reconstruct
p1230
(g675
(I0
tp1231
S'b'
p1232
tp1233
Rp1234
(I1
(I1
tp1235
g813
(S'f8'
p1236
I0
I1
tp1237
Rp1238
(I3
S'<'
p1239
NNNI-1
I-1
I0
tp1240
bI00
S'\xa2E\xb6\xf3\xfd\xd4\xfc?'
p1241
tp1242
bag1230
(g675
(I0
tp1243
g1232
tp1244
Rp1245
(I1
(I3
tp1246
g1238
I00
S'\x0e-\xb2\x9d\xef\xa7\xd6?\x0c\x02+\x87\x16\xd9\xfc?B`\xe5\xd0"\xdb\xfb?'
p1247
tp1248
bag1230
(g675
(I0
tp1249
g1232
tp1250
Rp1251
(I1
(I1
tp1252
g1238
I00
S'9\xb4\xc8v\xbe\x9f\x06@'
p1253
tp1254
bag1230
(g675
(I0
tp1255
g1232
tp1256
Rp1257
(I1
(I1
tp1258
g1238
I00
S'\x00\x00\x00\x00\x00\x00\xfa?'
p1259
tp1260
bag1230
(g675
(I0
tp1261
g1232
tp1262
Rp1263
(I1
(I1
tp1264
g1238
I00
S'\x00\x00\x00\x00\x00\x00\xf8\x7f'
p1265
tp1266
baNaNaNaNaNaNaNaNaNaNaNaNaNaNaNaNaNaNaNaNaNaNaNaNaNaNaNaNaNaNaNaNaNaNaNaNaNaNaNaNaNaNaNaNaNaNaNaNaNaNaNaNaNaNaNaNaNaNaNasg592
g0
(g593
g2
Ntp1267
Rp1268
(dp1269
g597
Nsg598
VGroupedGeoMeans
p1270
sg600
I00
sg601
I00
sg602
Nsbsg603
g4
sg604
g0
(g605
g606
(g675
g608
tp1271
tp1272
Rp1273
sg598
g1270
sbag0
(g519
g2
Ntp1274
Rp1275
(dp1276
g523
I00
sg524
(lp1277
sg526
(lp1278
g1230
(g675
(I0
tp1279
g1232
tp1280
Rp1281
(I1
(I1
tp1282
g1238
I00
S'\x00\x00\x00\x00\x00\x00\xf0?'
p1283
tp1284
bag1230
(g675
(I0
tp1285
g1232
tp1286
Rp1287
(I1
(I3
tp1288
g1238
I00
S'J\x0c\x02+\x87\x16\xc9?j\xbct\x93\x18\x04\xf0?\xb6\xf3\xfd\xd4x\xe9\xee?'
p1289
tp1290
bag1230
(g675
(I0
tp1291
g1232
tp1292
Rp1293
(I1
(I1
tp1294
g1238
I00
S'\xb4\xc8v\xbe\x9f\x1a\xf9?'
p1295
tp1296
bag1230
(g675
(I0
tp1297
g1232
tp1298
Rp1299
(I1
(I1
tp1300
g1238
I00
S'w\xbe\x9f\x1a/\xdd\xec?'
p1301
tp1302
bag1230
(g675
(I0
tp1303
g1232
tp1304
Rp1305
(I1
(I1
tp1306
g1238
I00
S'\x00\x00\x00\x00\x00\x00\xf8\x7f'
p1307
tp1308
baNaNaNaNaNaNaNaNaNaNaNaNaNaNaNaNaNaNaNaNaNaNaNaNaNaNaNaNaNaNaNaNaNaNaNaNaNaNaNaNaNaNaNaNaNaNaNaNaNaNaNaNaNaNaNaNaNaNaNasg592
g0
(g593
g2
Ntp1309
Rp1310
(dp1311
g597
Vref = np.mean(GroupedGeoMeans[0])\u000aNrmlGeoGroupedMeans = [ [x/ref for x in g] for g in GroupedGeoMeans if g is not None]  \u000aNrmlGeoGroupedMeans = roundValues(NrmlGeoGroupedMeans, 3)
p1312
sg598
VNrmlGeoGroupedMeans
p1313
sg600
I00
sg601
I00
sg602
Vref = np.mean(GroupedGeoMeans[0])\u000aNrmlGeoGroupedMeans = [ [x/ref for x in g] for g in GroupedGeoMeans if g is not None]  \u000aNrmlGeoGroupedMeans = roundValues(NrmlGeoGroupedMeans, 3)
p1314
sbsg603
g4
sg604
g0
(g605
g606
(g675
g608
tp1315
tp1316
Rp1317
sg598
g1313
sbag0
(g519
g2
Ntp1318
Rp1319
(dp1320
g523
I00
sg524
(lp1321
sg526
(lp1322
F1.0
aF0.721
aF1.569
aF0.902
aFnan
aFnan
aFnan
aFnan
aFnan
aFnan
aFnan
aFnan
aFnan
aFnan
aFnan
aFnan
aFnan
aFnan
aFnan
aFnan
aFnan
aFnan
aFnan
aFnan
aFnan
aFnan
aFnan
aFnan
aFnan
aFnan
aFnan
aFnan
aFnan
aFnan
aFnan
aFnan
aFnan
aFnan
aFnan
aFnan
aFnan
aFnan
aFnan
aFnan
aFnan
aFnan
aFnan
aFnan
aFnan
aFnan
aFnan
aFnan
aFnan
aFnan
aFnan
aFnan
aFnan
aFnan
aFnan
aFnan
aFnan
aFnan
aFnan
aFnan
asg592
g0
(g593
g2
Ntp1323
Rp1324
(dp1325
g597
VMeanNrmlGeoGroups = [round(np.mean(g), 3) for g in NrmlGeoGroupedMeans]
p1326
sg598
VMeanNrmlGeoGroups
p1327
sg600
I01
sg601
I00
sg602
V[round(np.mean(g), 3) for g in NrmlGeoGroupedMeans]
p1328
sbsg603
g4
sg604
g0
(g605
g606
(g675
g608
tp1329
tp1330
Rp1331
sg598
g1327
sbag0
(g519
g2
Ntp1332
Rp1333
(dp1334
g523
I00
sg524
(lp1335
sg526
(lp1336
F0.263
aFnan
aFnan
aFnan
aFnan
aFnan
aFnan
aFnan
aFnan
aFnan
aFnan
aFnan
aFnan
aFnan
aFnan
aFnan
aFnan
aFnan
aFnan
aFnan
aFnan
aFnan
aFnan
aFnan
aFnan
aFnan
aFnan
aFnan
aFnan
aFnan
aFnan
aFnan
aFnan
aFnan
aFnan
aFnan
aFnan
aFnan
aFnan
aFnan
aFnan
aFnan
aFnan
aFnan
aFnan
aFnan
aFnan
aFnan
aFnan
aFnan
aFnan
aFnan
aFnan
aFnan
aFnan
aFnan
aFnan
aFnan
aFnan
aFnan
aFnan
aFnan
aFnan
aFnan
asg592
g0
(g593
g2
Ntp1337
Rp1338
(dp1339
g597
VStdNrmlGeoGroups = []\u000afor grp in NrmlGeoGroupedMeans:\u000a  if len(grp) > 1:\u000a    val = np.std(grp, ddof=1)/np.sqrt(len(grp))\u000a    val = round(val, 3)\u000a    StdNrmlGeoGroups.append(val)\u000a
p1340
sg598
VStdNrmlGeoGroups
p1341
sg600
I00
sg601
I00
sg602
VStdNrmlGeoGroups = []\u000afor grp in NrmlGeoGroupedMeans:\u000a  if len(grp) > 1:\u000a    val = np.std(grp, ddof=1)/np.sqrt(len(grp))\u000a    val = round(val, 3)\u000a    StdNrmlGeoGroups.append(val)\u000a
p1342
sbsg603
g4
sg604
g0
(g605
g606
(g675
g608
tp1343
tp1344
Rp1345
sg598
g1341
sbasS'_is_evaluate_formulas'
p1346
I01
sS'_prologue'
p1347
g0
(g593
g2
Ntp1348
Rp1349
(dp1350
g597
V# Prologue\u000aimport math as mt\u000aimport numpy as np\u000afrom os import listdir\u000afrom os.path import isfile, join\u000aimport pandas as pd\u000aimport scipy as sp\u000afrom numpy import nan  # Must follow sympy import\u000a\u000agene = ParmValues[0]\u000a
p1351
sg598
VSingleGene
p1352
sg600
I00
sg601
I00
sg602
V# Prologue\u000aimport math as mt\u000aimport numpy as np\u000afrom os import listdir\u000afrom os.path import isfile, join\u000aimport pandas as pd\u000aimport scipy as sp\u000afrom numpy import nan  # Must follow sympy import\u000a\u000agene = ParmValues[0]\u000a
p1353
sbsS'_epilogue'
p1354
g0
(g593
g2
Ntp1355
Rp1356
(dp1357
g597
Nsg598
S'x'
p1358
sg600
I00
sg601
I00
sg602
S'# Epilogue\n'
p1359
sbsg598
g1352
sS'_hidden_columns'
p1360
(lp1361
sb.