ccopy_reg
_reconstructor
p0
(cscisheets.ui.dt_table
DTTable
p1
c__builtin__
object
p2
Ntp3
Rp4
(dp5
S'_versioned_file'
p6
g0
(cmysite.helpers.versioned_file
VersionedFile
p7
g2
Ntp8
Rp9
(dp10
S'_redo_stack'
p11
g0
(cmysite.helpers.file_stack
FileStack
p12
g2
Ntp13
Rp14
(dp15
S'_dirpath'
p16
S'/home/ubuntu/SciSheets/mysite/user/guest/tables/backup'
p17
sS'_max_depth'
p18
I5
sS'_filename_pfx'
p19
Vkristen_single_gene.r
p20
sbsS'_max_versions'
p21
I5
sS'_undo_stack'
p22
g0
(g12
g2
Ntp23
Rp24
(dp25
g16
g17
sg18
I5
sg19
Vkristen_single_gene.u
p26
sbsS'_checkpoint_history'
p27
(lp28
VCell/Update
p29
aVCell/Update
p30
aVCell/Update
p31
aVCell/Update
p32
aVCell/Update
p33
aVCell/Update
p34
aVCell/Update
p35
aVCell/Update
p36
aVCell/Update
p37
aVCell/Update
p38
aVCell/Update
p39
aVCell/Update
p40
aVColumn/Formula
p41
aVColumn/Formula
p42
aVColumn/Append
p43
aVColumn/Formula
p44
aVColumn/Delete
p45
aVCell/Update
p46
aVColumn/Formula
p47
aVCell/Update
p48
aVCell/Update
p49
aVColumn/Formula
p50
aVColumn/Formula
p51
aVCell/Update
p52
aVColumn/Formula
p53
aVColumn/Formula
p54
aVCell/Update
p55
aVCell/Update
p56
aVCell/Update
p57
aVCell/Update
p58
aVColumn/Formula
p59
aVCell/Update
p60
aVCell/Update
p61
aVCell/Update
p62
aVColumn/Formula
p63
aVCell/Update
p64
aVColumn/Formula
p65
aVColumn/Formula
p66
aVCell/Update
p67
aVCell/Update
p68
aVCell/Update
p69
aVCell/Update
p70
aVCell/Update
p71
aVCell/Update
p72
aVCell/Update
p73
aVCell/Update
p74
aVCell/Update
p75
aVColumn/Formula
p76
aVCell/Update
p77
aVCell/Update
p78
aVCell/Update
p79
aVCell/Update
p80
aVCell/Update
p81
aVCell/Update
p82
aVCell/Update
p83
aVCell/Update
p84
aVCell/Update
p85
aVCell/Update
p86
aVCell/Update
p87
aVCell/Update
p88
aVColumn/Formula
p89
aVColumn/Formula
p90
aVColumn/Formula
p91
aVCell/Update
p92
aVCell/Update
p93
aVCell/Update
p94
aVCell/Update
p95
aVCell/Update
p96
aVColumn/Formula
p97
aVCell/Update
p98
aVCell/Update
p99
aVCell/Update
p100
aVCell/Update
p101
aVCell/Update
p102
aVCell/Update
p103
aVCell/Update
p104
aVColumn/Formula
p105
aVColumn/Formula
p106
aVColumn/Formula
p107
aVCell/Update
p108
aVCell/Update
p109
aVColumn/Formula
p110
aVCell/Update
p111
aVCell/Update
p112
aVCell/Update
p113
aVCell/Update
p114
aVCell/Update
p115
aVCell/Update
p116
aVCell/Update
p117
aVCell/Update
p118
aVColumn/Formula
p119
aVCell/Update
p120
aVColumn/Formula
p121
aVColumn/Formula
p122
aVColumn/Formula
p123
aVCell/Update
p124
aVCell/Update
p125
aVColumn/Formula
p126
aVColumn/Formula
p127
aVColumn/Formula
p128
aVColumn/Formula
p129
aVCell/Update
p130
aVColumn/Formula
p131
aVColumn/Formula
p132
aVColumn/Formula
p133
aVCell/Update
p134
aVCell/Update
p135
aVCell/Update
p136
aVCell/Update
p137
aVCell/Update
p138
aVCell/Update
p139
aVCell/Update
p140
aVCell/Update
p141
aVCell/Update
p142
aVCell/Update
p143
aVColumn/Formula
p144
aVColumn/Formula
p145
aVColumn/Formula
p146
aVColumn/Formula
p147
aVCell/Update
p148
aVCell/Update
p149
aVColumn/Formula
p150
aVCell/Update
p151
aVCell/Update
p152
aVCell/Update
p153
aVCell/Update
p154
aVCell/Update
p155
aVCell/Update
p156
aVCell/Update
p157
aVCell/Update
p158
aVCell/Update
p159
aVCell/Update
p160
aVCell/Update
p161
aVCell/Update
p162
aVCell/Update
p163
aVColumn/Formula
p164
aVColumn/Formula
p165
aVCell/Update
p166
aVCell/Update
p167
aVCell/Update
p168
aVColumn/Formula
p169
aVCell/Update
p170
aVCell/Update
p171
aVCell/Update
p172
aVCell/Update
p173
aVColumn/Formula
p174
aVColumn/Formula
p175
aVColumn/Formula
p176
aVColumn/Formula
p177
aVCell/Update
p178
aVColumn/Formula
p179
aVCell/Update
p180
aVCell/Update
p181
aVCell/Update
p182
aVCell/Update
p183
aVCell/Update
p184
aVCell/Update
p185
aVCell/Update
p186
aVCell/Update
p187
aVCell/Update
p188
aVColumn/Formula
p189
aVCell/Update
p190
aVCell/Update
p191
aVCell/Update
p192
aVCell/Update
p193
aVCell/Update
p194
aVCell/Update
p195
aVCell/Update
p196
aVCell/Update
p197
aVCell/Update
p198
aVCell/Update
p199
aVCell/Update
p200
aVCell/Update
p201
aVCell/Update
p202
aVCell/Update
p203
aVCell/Update
p204
aVCell/Update
p205
aVCell/Update
p206
aVCell/Update
p207
aVCell/Update
p208
aVCell/Update
p209
aVCell/Update
p210
aVCell/Update
p211
aVCell/Update
p212
aVCell/Update
p213
aVCell/Update
p214
aVCell/Update
p215
aVCell/Update
p216
aVCell/Update
p217
aVCell/Update
p218
aVCell/Update
p219
aVCell/Update
p220
aVCell/Update
p221
aVCell/Update
p222
aVCell/Update
p223
aVCell/Update
p224
aVCell/Update
p225
aVCell/Update
p226
aVCell/Update
p227
aVCell/Update
p228
aVCell/Update
p229
aVCell/Update
p230
aVCell/Update
p231
aVCell/Update
p232
aVCell/Update
p233
aVCell/Update
p234
aVCell/Update
p235
aVCell/Update
p236
aVCell/Update
p237
aVCell/Update
p238
aVCell/Update
p239
aVCell/Update
p240
aVCell/Update
p241
aVCell/Update
p242
aVCell/Update
p243
aVCell/Update
p244
aVCell/Update
p245
aVCell/Update
p246
aVCell/Update
p247
aVCell/Update
p248
aVCell/Update
p249
aVCell/Update
p250
aVCell/Update
p251
aVCell/Update
p252
aVCell/Update
p253
aVCell/Update
p254
aVCell/Update
p255
aVCell/Update
p256
aVCell/Update
p257
aVCell/Update
p258
aVCell/Update
p259
aVCell/Update
p260
aVCell/Update
p261
aVCell/Update
p262
aVCell/Update
p263
aVCell/Update
p264
aVCell/Update
p265
aVCell/Update
p266
aVCell/Update
p267
aVCell/Update
p268
aVCell/Update
p269
aVCell/Update
p270
aVCell/Update
p271
aVColumn/Formula
p272
aVColumn/Formula
p273
aVCell/Update
p274
aVCell/Update
p275
aVCell/Update
p276
aVCell/Update
p277
aVColumn/Formula
p278
aVColumn/Formula
p279
aVColumn/Formula
p280
aVCell/Update
p281
aVCell/Update
p282
aVCell/Update
p283
aVCell/Update
p284
aVColumn/Formula
p285
aVColumn/Formula
p286
aVColumn/Formula
p287
aVCell/Update
p288
aVCell/Update
p289
aVColumn/Formula
p290
aVCell/Update
p291
aVCell/Update
p292
aVCell/Update
p293
aVCell/Update
p294
aVCell/Update
p295
aVCell/Update
p296
aVColumn/Formula
p297
aVCell/Update
p298
aVColumn/Formula
p299
aVCell/Update
p300
aVCell/Update
p301
aVColumn/Formula
p302
aVColumn/Formula
p303
aVCell/Update
p304
aVCell/Update
p305
aVCell/Update
p306
aVCell/Update
p307
aVColumn/Formula
p308
aVColumn/Formula
p309
aVColumn/Formula
p310
aVColumn/Formula
p311
aVColumn/Formula
p312
aVCell/Update
p313
aVCell/Update
p314
aVColumn/Formula
p315
aVCell/Update
p316
aVColumn/Formula
p317
aVColumn/Formula
p318
aVCell/Update
p319
aVCell/Update
p320
aVCell/Update
p321
aVColumn/Formula
p322
aVColumn/Formula
p323
aVColumn/Formula
p324
aVCell/Update
p325
aVColumn/Formula
p326
aVCell/Update
p327
aVColumn/Formula
p328
aVColumn/Formula
p329
aVColumn/Formula
p330
aVColumn/Formula
p331
aVColumn/Formula
p332
aVColumn/Formula
p333
aVCell/Update
p334
aVColumn/Formula
p335
aVCell/Update
p336
aVCell/Update
p337
aVCell/Update
p338
aVColumn/Formula
p339
aVColumn/Formula
p340
aVColumn/Formula
p341
aVColumn/Formula
p342
aVColumn/Formula
p343
aVCell/Update
p344
aVCell/Update
p345
aVCell/Update
p346
aVColumn/Formula
p347
aVCell/Update
p348
aVCell/Update
p349
aVColumn/Formula
p350
aVColumn/Formula
p351
aVColumn/Formula
p352
aVColumn/Formula
p353
aVColumn/Formula
p354
aVColumn/Formula
p355
aVCell/Update
p356
aVColumn/Formula
p357
aVColumn/Formula
p358
aVColumn/Formula
p359
aVCell/Update
p360
aVCell/Update
p361
aVCell/Update
p362
aVColumn/Formula
p363
aVColumn/Formula
p364
aVCell/Update
p365
aVColumn/Formula
p366
aVColumn/Formula
p367
aVColumn/Formula
p368
aVColumn/Formula
p369
aVColumn/Formula
p370
aVColumn/Formula
p371
aVCell/Update
p372
aVCell/Update
p373
aVColumn/Formula
p374
aVCell/Update
p375
aVColumn/Formula
p376
aVColumn/Formula
p377
aVCell/Update
p378
aVCell/Update
p379
aVCell/Update
p380
aVCell/Update
p381
aVCell/Update
p382
aVColumn/Formula
p383
aVCell/Update
p384
aVCell/Update
p385
aVColumn/Formula
p386
aVColumn/Formula
p387
aVCell/Update
p388
aVCell/Update
p389
aVColumn/Formula
p390
aVColumn/Formula
p391
aVCell/Update
p392
aVCell/Update
p393
aVCell/Update
p394
aVCell/Update
p395
aVCell/Update
p396
aVCell/Update
p397
aVColumn/Formula
p398
aVCell/Update
p399
aVColumn/Formula
p400
aVCell/Update
p401
aVCell/Update
p402
aVColumn/Formula
p403
aVCell/Update
p404
asS'_filepath'
p405
V/home/ubuntu/SciSheets/mysite/user/guest/tables/kristen_single_gene.pcl
p406
sS'_backup_dir'
p407
g17
sbsS'_namespace'
p408
(dp409
sS'_hidden_columns'
p410
(lp411
g0
(cscisheets.core.column
Column
p412
g2
Ntp413
Rp414
(dp415
S'_asis'
p416
I00
sS'_owning_table'
p417
g4
sS'_cells'
p418
(lp419
(lp420
cnumpy.core.multiarray
scalar
p421
(cnumpy
dtype
p422
(S'i8'
p423
I0
I1
tp424
Rp425
(I3
S'<'
p426
NNNI-1
I-1
I0
tp427
bS'\x00\x00\x00\x00\x00\x00\x00\x00'
p428
tp429
Rp430
ag421
(g422
(S'U1'
p431
I0
I1
tp432
Rp433
(I3
S'<'
p434
NNNI4
I4
I8
tp435
bS'I\x00\x00\x00'
p436
tp437
Rp438
ag421
(g425
S'\x01\x00\x00\x00\x00\x00\x00\x00'
p439
tp440
Rp441
aa(lp442
g421
(g425
S'\x00\x00\x00\x00\x00\x00\x00\x00'
p443
tp444
Rp445
ag421
(g422
(S'U2'
p446
I0
I1
tp447
Rp448
(I3
S'<'
p449
NNNI8
I4
I8
tp450
bS'R\x00\x00\x001\x00\x00\x00'
p451
tp452
Rp453
ag421
(g425
S'\x01\x00\x00\x00\x00\x00\x00\x00'
p454
tp455
Rp456
aa(lp457
g421
(g425
S'\x00\x00\x00\x00\x00\x00\x00\x00'
p458
tp459
Rp460
ag421
(g422
(S'U2'
p461
I0
I1
tp462
Rp463
(I3
S'<'
p464
NNNI8
I4
I8
tp465
bS'R\x00\x00\x002\x00\x00\x00'
p466
tp467
Rp468
ag421
(g425
S'\x01\x00\x00\x00\x00\x00\x00\x00'
p469
tp470
Rp471
aa(lp472
g421
(g425
S'\x01\x00\x00\x00\x00\x00\x00\x00'
p473
tp474
Rp475
ag438
ag421
(g425
S'\x01\x00\x00\x00\x00\x00\x00\x00'
p476
tp477
Rp478
aa(lp479
g421
(g425
S'\x01\x00\x00\x00\x00\x00\x00\x00'
p480
tp481
Rp482
ag438
ag421
(g425
S'\x02\x00\x00\x00\x00\x00\x00\x00'
p483
tp484
Rp485
aa(lp486
g421
(g425
S'\x01\x00\x00\x00\x00\x00\x00\x00'
p487
tp488
Rp489
ag438
ag421
(g425
S'\x03\x00\x00\x00\x00\x00\x00\x00'
p490
tp491
Rp492
aa(lp493
g421
(g425
S'\x01\x00\x00\x00\x00\x00\x00\x00'
p494
tp495
Rp496
ag453
ag421
(g425
S'\x01\x00\x00\x00\x00\x00\x00\x00'
p497
tp498
Rp499
aa(lp500
g421
(g425
S'\x01\x00\x00\x00\x00\x00\x00\x00'
p501
tp502
Rp503
ag453
ag421
(g425
S'\x02\x00\x00\x00\x00\x00\x00\x00'
p504
tp505
Rp506
aa(lp507
g421
(g425
S'\x01\x00\x00\x00\x00\x00\x00\x00'
p508
tp509
Rp510
ag453
ag421
(g425
S'\x03\x00\x00\x00\x00\x00\x00\x00'
p511
tp512
Rp513
aa(lp514
g421
(g425
S'\x01\x00\x00\x00\x00\x00\x00\x00'
p515
tp516
Rp517
ag468
ag421
(g425
S'\x01\x00\x00\x00\x00\x00\x00\x00'
p518
tp519
Rp520
aa(lp521
g421
(g425
S'\x01\x00\x00\x00\x00\x00\x00\x00'
p522
tp523
Rp524
ag468
ag421
(g425
S'\x02\x00\x00\x00\x00\x00\x00\x00'
p525
tp526
Rp527
aa(lp528
g421
(g425
S'\x01\x00\x00\x00\x00\x00\x00\x00'
p529
tp530
Rp531
ag468
ag421
(g425
S'\x03\x00\x00\x00\x00\x00\x00\x00'
p532
tp533
Rp534
aa(lp535
g421
(g425
S'\x02\x00\x00\x00\x00\x00\x00\x00'
p536
tp537
Rp538
ag438
ag421
(g425
S'\x01\x00\x00\x00\x00\x00\x00\x00'
p539
tp540
Rp541
aa(lp542
g421
(g425
S'\x02\x00\x00\x00\x00\x00\x00\x00'
p543
tp544
Rp545
ag453
ag421
(g425
S'\x01\x00\x00\x00\x00\x00\x00\x00'
p546
tp547
Rp548
aa(lp549
g421
(g425
S'\x02\x00\x00\x00\x00\x00\x00\x00'
p550
tp551
Rp552
ag468
ag421
(g425
S'\x01\x00\x00\x00\x00\x00\x00\x00'
p553
tp554
Rp555
aa(lp556
g421
(g425
S'\x03\x00\x00\x00\x00\x00\x00\x00'
p557
tp558
Rp559
ag438
ag421
(g425
S'\x01\x00\x00\x00\x00\x00\x00\x00'
p560
tp561
Rp562
aa(lp563
g421
(g425
S'\x03\x00\x00\x00\x00\x00\x00\x00'
p564
tp565
Rp566
ag453
ag421
(g425
S'\x01\x00\x00\x00\x00\x00\x00\x00'
p567
tp568
Rp569
aa(lp570
g421
(g425
S'\x03\x00\x00\x00\x00\x00\x00\x00'
p571
tp572
Rp573
ag468
ag421
(g425
S'\x01\x00\x00\x00\x00\x00\x00\x00'
p574
tp575
Rp576
aa(lp577
g421
(g425
S'\x04\x00\x00\x00\x00\x00\x00\x00'
p578
tp579
Rp580
ag438
ag421
(g425
S'\x01\x00\x00\x00\x00\x00\x00\x00'
p581
tp582
Rp583
aa(lp584
g421
(g425
S'\x04\x00\x00\x00\x00\x00\x00\x00'
p585
tp586
Rp587
ag453
ag421
(g425
S'\x01\x00\x00\x00\x00\x00\x00\x00'
p588
tp589
Rp590
aa(lp591
g421
(g425
S'\x04\x00\x00\x00\x00\x00\x00\x00'
p592
tp593
Rp594
ag468
ag421
(g425
S'\x01\x00\x00\x00\x00\x00\x00\x00'
p595
tp596
Rp597
aaNaNaNaNaNaNaNaNaNaNaNaNaNaNaNaNaNaNaNaNaNaNaNaNaNaNaNaNaNaNaNaNaNaNaNaNaNaNaNaNaNaNaNasS'_formula_statement'
p598
g0
(cscisheets.core.helpers.formula_statement
FormulaStatement
p599
g2
Ntp600
Rp601
(dp602
S'_statement'
p603
Vsel = [e > min_eff for e in Eff]\u000apairs = zip(range(len(sel)), sel)\u000apTreatment = [Treatment[i] for i,b in pairs if b]\u000apRunType = [RunType[i] for i,b in pairs if b]\u000apBRpl = [BRpl[i] for i,b in pairs if b]\u000agrouping_columns = [pTreatment, pRunType, pBRpl]\u000apCt = [Ct[i] for i,b in pairs if b]\u000apEff = [Eff[i] for i,b in pairs if b]\u000aGroups, groupedCt = groupBy(\u000a     grouping_columns, pCt)\u000aGroups, groupedEff = groupBy(\u000a     grouping_columns, pEff)\u000aGroups = [[g[0], g[1], g[2]] for g in Groups]\u000aGroupedCt = roundValues(groupedCt,2)\u000aGroupedEff = roundValues(groupedEff,2)
p604
sS'_name'
p605
VGroups
p606
sS'_isExpression'
p607
I00
sS'_isStatement'
p608
I00
sS'_formula'
p609
Vsel = [e > min_eff for e in Eff]\u000apairs = zip(range(len(sel)), sel)\u000apTreatment = [Treatment[i] for i,b in pairs if b]\u000apRunType = [RunType[i] for i,b in pairs if b]\u000apBRpl = [BRpl[i] for i,b in pairs if b]\u000agrouping_columns = [pTreatment, pRunType, pBRpl]\u000apCt = [Ct[i] for i,b in pairs if b]\u000apEff = [Eff[i] for i,b in pairs if b]\u000aGroups, groupedCt = groupBy(\u000a     grouping_columns, pCt)\u000aGroups, groupedEff = groupBy(\u000a     grouping_columns, pEff)\u000aGroups = [[g[0], g[1], g[2]] for g in Groups]\u000aGroupedCt = roundValues(groupedCt,2)\u000aGroupedEff = roundValues(groupedEff,2)
p610
sbsS'_data_class'
p611
g0
(cscisheets.core.helpers.api_util
DataClass
p612
c__builtin__
tuple
p613
(cnumpy
ndarray
p614
cscisheets.core.helpers.api_util
makeArray
p615
tp616
tp617
Rp618
sg605
g606
sbag0
(g412
g2
Ntp619
Rp620
(dp621
g416
I00
sg417
g4
sg418
(lp622
cnumpy.core.multiarray
_reconstruct
p623
(g614
(I0
tp624
S'b'
p625
tp626
Rp627
(I1
(I4
tp628
g422
(S'f8'
p629
I0
I1
tp630
Rp631
(I3
S'<'
p632
NNNI-1
I-1
I0
tp633
bI00
S'\xe1z\x14\xaeG\xe1\xea?{\x14\xaeG\xe1z\xec?\xcd\xcc\xcc\xcc\xcc\xcc\xec?\xd7\xa3p=\n\xd7\xeb?'
p634
tp635
bag623
(g614
(I0
tp636
g625
tp637
Rp638
(I1
(I3
tp639
g631
I00
S'\x8f\xc2\xf5(\\\x8f\xea?\x8f\xc2\xf5(\\\x8f\xea?333333\xeb?'
p640
tp641
bag623
(g614
(I0
tp642
g625
tp643
Rp644
(I1
(I3
tp645
g631
I00
S'=\n\xd7\xa3p=\xea?333333\xeb?=\n\xd7\xa3p=\xea?'
p646
tp647
bag623
(g614
(I0
tp648
g625
tp649
Rp650
(I1
(I3
tp651
g631
I00
S'\x14\xaeG\xe1z\x14\xee?\x8f\xc2\xf5(\\\x8f\xea?\xe1z\x14\xaeG\xe1\xea?'
p652
tp653
bag623
(g614
(I0
tp654
g625
tp655
Rp656
(I1
(I3
tp657
g631
I00
S'\x9a\x99\x99\x99\x99\x99\xe9?\xe1z\x14\xaeG\xe1\xea?H\xe1z\x14\xaeG\xe9?'
p658
tp659
bag623
(g614
(I0
tp660
g625
tp661
Rp662
(I1
(I3
tp663
g631
I00
S'\x8f\xc2\xf5(\\\x8f\xea?\x9a\x99\x99\x99\x99\x99\xe9?\x8f\xc2\xf5(\\\x8f\xea?'
p664
tp665
bag623
(g614
(I0
tp666
g625
tp667
Rp668
(I1
(I3
tp669
g631
I00
S'q=\n\xd7\xa3p\xed?\\\x8f\xc2\xf5(\\\xef?\xcd\xcc\xcc\xcc\xcc\xcc\xec?'
p670
tp671
bag623
(g614
(I0
tp672
g625
tp673
Rp674
(I1
(I3
tp675
g631
I00
S'\xcd\xcc\xcc\xcc\xcc\xcc\xec?\x8f\xc2\xf5(\\\x8f\xea?\xe1z\x14\xaeG\xe1\xea?'
p676
tp677
bag623
(g614
(I0
tp678
g625
tp679
Rp680
(I1
(I3
tp681
g631
I00
S'\xd7\xa3p=\n\xd7\xeb?333333\xeb?\x8f\xc2\xf5(\\\x8f\xea?'
p682
tp683
bag623
(g614
(I0
tp684
g625
tp685
Rp686
(I1
(I3
tp687
g631
I00
S'H\xe1z\x14\xaeG\xe9?\xe1z\x14\xaeG\xe1\xea?\x85\xebQ\xb8\x1e\x85\xeb?'
p688
tp689
bag623
(g614
(I0
tp690
g625
tp691
Rp692
(I1
(I3
tp693
g631
I00
S'\x8f\xc2\xf5(\\\x8f\xea?=\n\xd7\xa3p=\xea?\x8f\xc2\xf5(\\\x8f\xea?'
p694
tp695
bag623
(g614
(I0
tp696
g625
tp697
Rp698
(I1
(I3
tp699
g631
I00
S'\xecQ\xb8\x1e\x85\xeb\xe9?=\n\xd7\xa3p=\xea?\x9a\x99\x99\x99\x99\x99\xe9?'
p700
tp701
bag623
(g614
(I0
tp702
g625
tp703
Rp704
(I1
(I3
tp705
g631
I00
S'\xe1z\x14\xaeG\xe1\xea?\x9a\x99\x99\x99\x99\x99\xe9?\xecQ\xb8\x1e\x85\xeb\xe9?'
p706
tp707
bag623
(g614
(I0
tp708
g625
tp709
Rp710
(I1
(I3
tp711
g631
I00
S'\xa4p=\n\xd7\xa3\xe8?\xd7\xa3p=\n\xd7\xeb?\xecQ\xb8\x1e\x85\xeb\xe9?'
p712
tp713
bag623
(g614
(I0
tp714
g625
tp715
Rp716
(I1
(I3
tp717
g631
I00
S'\xf6(\\\x8f\xc2\xf5\xe8?\xa4p=\n\xd7\xa3\xe8?H\xe1z\x14\xaeG\xe9?'
p718
tp719
bag623
(g614
(I0
tp720
g625
tp721
Rp722
(I1
(I3
tp723
g631
I00
S'333333\xeb?333333\xeb?\xe1z\x14\xaeG\xe1\xea?'
p724
tp725
bag623
(g614
(I0
tp726
g625
tp727
Rp728
(I1
(I3
tp729
g631
I00
S'\xd7\xa3p=\n\xd7\xeb?\xcd\xcc\xcc\xcc\xcc\xcc\xec?\x85\xebQ\xb8\x1e\x85\xeb?'
p730
tp731
bag623
(g614
(I0
tp732
g625
tp733
Rp734
(I1
(I3
tp735
g631
I00
S'=\n\xd7\xa3p=\xea?=\n\xd7\xa3p=\xea?H\xe1z\x14\xaeG\xe9?'
p736
tp737
bag623
(g614
(I0
tp738
g625
tp739
Rp740
(I1
(I3
tp741
g631
I00
S'333333\xeb?333333\xeb?\xe1z\x14\xaeG\xe1\xea?'
p742
tp743
bag623
(g614
(I0
tp744
g625
tp745
Rp746
(I1
(I3
tp747
g631
I00
S'\xd7\xa3p=\n\xd7\xeb?\xcd\xcc\xcc\xcc\xcc\xcc\xec?\x85\xebQ\xb8\x1e\x85\xeb?'
p748
tp749
bag623
(g614
(I0
tp750
g625
tp751
Rp752
(I1
(I3
tp753
g631
I00
S'=\n\xd7\xa3p=\xea?=\n\xd7\xa3p=\xea?H\xe1z\x14\xaeG\xe9?'
p754
tp755
baNaNaNaNaNaNaNaNaNaNaNaNaNaNaNaNaNaNaNaNaNaNaNaNaNaNaNaNaNaNaNaNaNaNaNaNaNaNaNaNaNaNaNasg598
g0
(g599
g2
Ntp756
Rp757
(dp758
g603
NsS'_column'
p759
g620
sg607
I00
sg608
I00
sg609
Nsbsg611
g0
(g612
g613
(g614
g615
tp760
tp761
Rp762
sg605
VGroupedEff
p763
sbag0
(g412
g2
Ntp764
Rp765
(dp766
g416
I00
sg417
g4
sg418
(lp767
g623
(g614
(I0
tp768
g625
tp769
Rp770
(I1
(I4
tp771
g631
I00
S'\x00\x00\x00\x00\x00\x007@\\\x8f\xc2\xf5(\xdc6@\xcd\xcc\xcc\xcc\xcc\xcc6@\x00\x00\x00\x00\x00\x007@'
p772
tp773
bag623
(g614
(I0
tp774
g625
tp775
Rp776
(I1
(I3
tp777
g631
I00
S'=\n\xd7\xa3p=2@\xb8\x1e\x85\xebQ82@\\\x8f\xc2\xf5(\\2@'
p778
tp779
bag623
(g614
(I0
tp780
g625
tp781
Rp782
(I1
(I3
tp783
g631
I00
S'\xb8\x1e\x85\xebQ\xb83@\x00\x00\x00\x00\x00\xc03@\xc3\xf5(\\\x8f\x024@'
p784
tp785
bag623
(g614
(I0
tp786
g625
tp787
Rp788
(I1
(I3
tp789
g631
I00
S'\xaeG\xe1z\x14\xae:@\xe1z\x14\xaeG!;@\xf6(\\\x8f\xc25;@'
p790
tp791
bag623
(g614
(I0
tp792
g625
tp793
Rp794
(I1
(I3
tp795
g631
I00
S'\xc3\xf5(\\\x8f\xc2:@\xf6(\\\x8f\xc2\xb5:@q=\n\xd7\xa30:@'
p796
tp797
bag623
(g614
(I0
tp798
g625
tp799
Rp800
(I1
(I3
tp801
g631
I00
S'{\x14\xaeG\xe1\xfa=@\x1f\x85\xebQ\xb8\x1e>@)\\\x8f\xc2\xf5h=@'
p802
tp803
bag623
(g614
(I0
tp804
g625
tp805
Rp806
(I1
(I3
tp807
g631
I00
S'\xecQ\xb8\x1e\x85\xeb3@\x9a\x99\x99\x99\x99\xd93@\x00\x00\x00\x00\x00\x004@'
p808
tp809
bag623
(g614
(I0
tp810
g625
tp811
Rp812
(I1
(I3
tp813
g631
I00
S'\\\x8f\xc2\xf5(\xdc5@\xd7\xa3p=\n\x176@\xd7\xa3p=\n\xd75@'
p814
tp815
bag623
(g614
(I0
tp816
g625
tp817
Rp818
(I1
(I3
tp819
g631
I00
S'\xa4p=\n\xd7\xe37@\n\xd7\xa3p=\x8a7@\x85\xebQ\xb8\x1eE8@'
p820
tp821
bag623
(g614
(I0
tp822
g625
tp823
Rp824
(I1
(I3
tp825
g631
I00
S'\xaeG\xe1z\x14.6@\xf6(\\\x8f\xc2\xb55@\x00\x00\x00\x00\x00\xc05@'
p826
tp827
bag623
(g614
(I0
tp828
g625
tp829
Rp830
(I1
(I3
tp831
g631
I00
S'\xe1z\x14\xaeG\xe17@\xecQ\xb8\x1e\x85k7@\xe1z\x14\xaeG\xa17@'
p832
tp833
bag623
(g614
(I0
tp834
g625
tp835
Rp836
(I1
(I3
tp837
g631
I00
S'\xd7\xa3p=\n\x978@\\\x8f\xc2\xf5(\x9c8@\xd7\xa3p=\nW8@'
p838
tp839
bag623
(g614
(I0
tp840
g625
tp841
Rp842
(I1
(I3
tp843
g631
I00
S'33333\xf3=@33333s>@\xe1z\x14\xaeG\xe1=@'
p844
tp845
bag623
(g614
(I0
tp846
g625
tp847
Rp848
(I1
(I3
tp849
g631
I00
S'\xb8\x1e\x85\xebQ87@\xcd\xcc\xcc\xcc\xcc\xcc7@=\n\xd7\xa3p}7@'
p850
tp851
bag623
(g614
(I0
tp852
g625
tp853
Rp854
(I1
(I3
tp855
g631
I00
S'\x1f\x85\xebQ\xb8^:@\\\x8f\xc2\xf5(\\:@\xecQ\xb8\x1e\x85+:@'
p856
tp857
bag623
(g614
(I0
tp858
g625
tp859
Rp860
(I1
(I3
tp861
g631
I00
S'\xcd\xcc\xcc\xcc\xcc\xcc8@\xb8\x1e\x85\xebQ\xf88@\xe1z\x14\xaeG\xa18@'
p862
tp863
bag623
(g614
(I0
tp864
g625
tp865
Rp866
(I1
(I3
tp867
g631
I00
S')\\\x8f\xc2\xf5\xe82@H\xe1z\x14\xae\xc72@\xcd\xcc\xcc\xcc\xcc\xcc2@'
p868
tp869
bag623
(g614
(I0
tp870
g625
tp871
Rp872
(I1
(I3
tp873
g631
I00
S'\x00\x00\x00\x00\x00\x804@\xb8\x1e\x85\xebQx4@H\xe1z\x14\xaeG4@'
p874
tp875
bag623
(g614
(I0
tp876
g625
tp877
Rp878
(I1
(I3
tp879
g631
I00
S'\xcd\xcc\xcc\xcc\xcc\xcc8@\xb8\x1e\x85\xebQ\xf88@\xe1z\x14\xaeG\xa18@'
p880
tp881
bag623
(g614
(I0
tp882
g625
tp883
Rp884
(I1
(I3
tp885
g631
I00
S')\\\x8f\xc2\xf5\xe82@H\xe1z\x14\xae\xc72@\xcd\xcc\xcc\xcc\xcc\xcc2@'
p886
tp887
bag623
(g614
(I0
tp888
g625
tp889
Rp890
(I1
(I3
tp891
g631
I00
S'\x00\x00\x00\x00\x00\x804@\xb8\x1e\x85\xebQx4@H\xe1z\x14\xaeG4@'
p892
tp893
baNaNaNaNaNaNaNaNaNaNaNaNaNaNaNaNaNaNaNaNaNaNaNaNaNaNaNaNaNaNaNaNaNaNaNaNaNaNaNaNaNaNaNasg598
g0
(g599
g2
Ntp894
Rp895
(dp896
g603
Nsg759
g765
sg607
I00
sg608
I00
sg609
Nsbsg611
g0
(g612
g613
(g614
g615
tp897
tp898
Rp899
sg605
VGroupedCt
p900
sbag0
(g412
g2
Ntp901
Rp902
(dp903
g416
I00
sg417
g4
sg418
(lp904
g623
(g614
(I0
tp905
g625
tp906
Rp907
(I1
(I4
tp908
g631
I00
S'\x00\x00\x00\x00\x00\x007@fffff\xe66@\xcd\xcc\xcc\xcc\xcc\xcc6@\x00\x00\x00\x00\x00\x007@'
p909
tp910
bag623
(g614
(I0
tp911
g625
tp912
Rp913
(I1
(I3
tp914
g631
I00
S'3333332@3333332@ffffff2@'
p915
tp916
bag623
(g614
(I0
tp917
g625
tp918
Rp919
(I1
(I3
tp920
g631
I00
S'33333\xb33@\xcd\xcc\xcc\xcc\xcc\xcc3@\x00\x00\x00\x00\x00\x004@'
p921
tp922
bag623
(g614
(I0
tp923
g625
tp924
Rp925
(I1
(I3
tp926
g631
I00
S'33333\xb3:@\x9a\x99\x99\x99\x99\x19;@333333;@'
p927
tp928
bag623
(g614
(I0
tp929
g625
tp930
Rp931
(I1
(I3
tp932
g631
I00
S'\xcd\xcc\xcc\xcc\xcc\xcc:@33333\xb3:@333333:@'
p933
tp934
bag623
(g614
(I0
tp935
g625
tp936
Rp937
(I1
(I3
tp938
g631
I00
S'\x00\x00\x00\x00\x00\x00>@\x9a\x99\x99\x99\x99\x19>@ffffff=@'
p939
tp940
bag623
(g614
(I0
tp941
g625
tp942
Rp943
(I1
(I3
tp944
g631
I00
S'fffff\xe63@fffff\xe63@\x00\x00\x00\x00\x00\x004@'
p945
tp946
bag623
(g614
(I0
tp947
g625
tp948
Rp949
(I1
(I3
tp950
g631
I00
S'fffff\xe65@\x9a\x99\x99\x99\x99\x196@\xcd\xcc\xcc\xcc\xcc\xcc5@'
p951
tp952
bag623
(g614
(I0
tp953
g625
tp954
Rp955
(I1
(I3
tp956
g631
I00
S'fffff\xe67@\x00\x00\x00\x00\x00\x807@\xcd\xcc\xcc\xcc\xccL8@'
p957
tp958
bag623
(g614
(I0
tp959
g625
tp960
Rp961
(I1
(I3
tp962
g631
I00
S'3333336@33333\xb35@\xcd\xcc\xcc\xcc\xcc\xcc5@'
p963
tp964
bag623
(g614
(I0
tp965
g625
tp966
Rp967
(I1
(I3
tp968
g631
I00
S'fffff\xe67@ffffff7@\x9a\x99\x99\x99\x99\x997@'
p969
tp970
bag623
(g614
(I0
tp971
g625
tp972
Rp973
(I1
(I3
tp974
g631
I00
S'\x9a\x99\x99\x99\x99\x998@\x9a\x99\x99\x99\x99\x998@\xcd\xcc\xcc\xcc\xccL8@'
p975
tp976
bag623
(g614
(I0
tp977
g625
tp978
Rp979
(I1
(I3
tp980
g631
I00
S'fffff\xe6=@ffffff>@fffff\xe6=@'
p981
tp982
bag623
(g614
(I0
tp983
g625
tp984
Rp985
(I1
(I3
tp986
g631
I00
S'3333337@\xcd\xcc\xcc\xcc\xcc\xcc7@\x00\x00\x00\x00\x00\x807@'
p987
tp988
bag623
(g614
(I0
tp989
g625
tp990
Rp991
(I1
(I3
tp992
g631
I00
S'ffffff:@ffffff:@333333:@'
p993
tp994
bag623
(g614
(I0
tp995
g625
tp996
Rp997
(I1
(I3
tp998
g631
I00
S'\xcd\xcc\xcc\xcc\xcc\xcc8@\x00\x00\x00\x00\x00\x009@\x9a\x99\x99\x99\x99\x998@'
p999
tp1000
bag623
(g614
(I0
tp1001
g625
tp1002
Rp1003
(I1
(I3
tp1004
g631
I00
S'fffff\xe62@\xcd\xcc\xcc\xcc\xcc\xcc2@\xcd\xcc\xcc\xcc\xcc\xcc2@'
p1005
tp1006
bag623
(g614
(I0
tp1007
g625
tp1008
Rp1009
(I1
(I3
tp1010
g631
I00
S'\x00\x00\x00\x00\x00\x804@\x00\x00\x00\x00\x00\x804@\xcd\xcc\xcc\xcc\xccL4@'
p1011
tp1012
bag623
(g614
(I0
tp1013
g625
tp1014
Rp1015
(I1
(I3
tp1016
g631
I00
S'\xcd\xcc\xcc\xcc\xcc\xcc8@\x00\x00\x00\x00\x00\x009@\x9a\x99\x99\x99\x99\x998@'
p1017
tp1018
bag623
(g614
(I0
tp1019
g625
tp1020
Rp1021
(I1
(I3
tp1022
g631
I00
S'fffff\xe62@\xcd\xcc\xcc\xcc\xcc\xcc2@\xcd\xcc\xcc\xcc\xcc\xcc2@'
p1023
tp1024
bag623
(g614
(I0
tp1025
g625
tp1026
Rp1027
(I1
(I3
tp1028
g631
I00
S'\x00\x00\x00\x00\x00\x804@\x00\x00\x00\x00\x00\x804@\xcd\xcc\xcc\xcc\xccL4@'
p1029
tp1030
baNaNaNaNaNaNaNaNaNaNaNaNaNaNaNaNaNaNaNaNaNaNaNaNaNaNaNaNaNaNaNaNaNaNaNaNaNaNaNaNaNaNaNasg598
g0
(g599
g2
Ntp1031
Rp1032
(dp1033
g603
Vlength = len(Groups)\u000aStdFilteredGroupedCt = roundValues([filterExtremes(g, max_std, 2) for g in pruneNulls(GroupedCt)])\u000a 
p1034
sg605
VStdFilteredGroupedCt
p1035
sg607
I00
sg608
I00
sg609
Vlength = len(Groups)\u000aStdFilteredGroupedCt = roundValues([filterExtremes(g, max_std, 2) for g in pruneNulls(GroupedCt)])\u000a 
p1036
sbsg611
g0
(g612
g613
(g614
g615
tp1037
tp1038
Rp1039
sg605
g1035
sbag0
(g412
g2
Ntp1040
Rp1041
(dp1042
g416
I00
sg417
g4
sg418
(lp1043
F22.9
aF18.3
aF19.8
aF27.0
aF26.6
aF29.8
aF19.9
aF21.9
aF23.9
aF21.9
aF23.6
aF24.5
aF30.1
aF23.5
aF26.3
aF24.8
aF18.8
aF20.4
aF24.8
aF18.8
aF20.4
aFnan
aFnan
aFnan
aFnan
aFnan
aFnan
aFnan
aFnan
aFnan
aFnan
aFnan
aFnan
aFnan
aFnan
aFnan
aFnan
aFnan
aFnan
aFnan
aFnan
aFnan
aFnan
aFnan
aFnan
aFnan
aFnan
aFnan
aFnan
aFnan
aFnan
aFnan
aFnan
aFnan
aFnan
aFnan
aFnan
aFnan
aFnan
aFnan
aFnan
aFnan
aFnan
aFnan
asg598
g0
(g599
g2
Ntp1044
Rp1045
(dp1046
g603
VMeanCt = [np.mean(g) for g in StdFilteredGroupedCt]\u000aMeanCt = roundValues(MeanCt,1)\u000aStdCt = [np.std(g, ddof=1) for g in StdFilteredGroupedCt]\u000aStdCt = roundValues(StdCt,3)
p1047
sg605
VMeanCt
p1048
sg607
I00
sg608
I00
sg609
VMeanCt = [np.mean(g) for g in StdFilteredGroupedCt]\u000aMeanCt = roundValues(MeanCt,1)\u000aStdCt = [np.std(g, ddof=1) for g in StdFilteredGroupedCt]\u000aStdCt = roundValues(StdCt,3)
p1049
sbsg611
g0
(g612
g613
(g614
g615
tp1050
tp1051
Rp1052
sg605
g1048
sbag0
(g412
g2
Ntp1053
Rp1054
(dp1055
g416
I00
sg417
g4
sg418
(lp1056
F0.096
aF0.115
aF0.153
aF0.265
aF0.321
aF0.379
aF0.058
aF0.153
aF0.4
aF0.265
aF0.252
aF0.173
aF0.289
aF0.3
aF0.115
aF0.2
aF0.058
aF0.115
aF0.2
aF0.058
aF0.115
aFnan
aFnan
aFnan
aFnan
aFnan
aFnan
aFnan
aFnan
aFnan
aFnan
aFnan
aFnan
aFnan
aFnan
aFnan
aFnan
aFnan
aFnan
aFnan
aFnan
aFnan
aFnan
aFnan
aFnan
aFnan
aFnan
aFnan
aFnan
aFnan
aFnan
aFnan
aFnan
aFnan
aFnan
aFnan
aFnan
aFnan
aFnan
aFnan
aFnan
aFnan
aFnan
aFnan
asg598
g0
(g599
g2
Ntp1057
Rp1058
(dp1059
g603
Nsg759
g1054
sg607
I00
sg608
I00
sg609
Nsbsg611
g0
(g612
g613
(g614
g615
tp1060
tp1061
Rp1062
sg605
VStdCt
p1063
sbag0
(g412
g2
Ntp1064
Rp1065
(dp1066
g416
I00
sg417
g4
sg418
(lp1067
(lp1068
g421
(g422
(S'U1'
p1069
I0
I1
tp1070
Rp1071
(I3
S'<'
p1072
NNNI4
I4
I8
tp1073
bS'0\x00\x00\x00'
p1074
tp1075
Rp1076
ag421
(g422
(S'U1'
p1077
I0
I1
tp1078
Rp1079
(I3
S'<'
p1080
NNNI4
I4
I8
tp1081
bS'1\x00\x00\x00'
p1082
tp1083
Rp1084
aa(lp1085
g421
(g422
(S'U1'
p1086
I0
I1
tp1087
Rp1088
(I3
S'<'
p1089
NNNI4
I4
I8
tp1090
bS'1\x00\x00\x00'
p1091
tp1092
Rp1093
ag421
(g422
(S'U1'
p1094
I0
I1
tp1095
Rp1096
(I3
S'<'
p1097
NNNI4
I4
I8
tp1098
bS'1\x00\x00\x00'
p1099
tp1100
Rp1101
aa(lp1102
g421
(g422
(S'U1'
p1103
I0
I1
tp1104
Rp1105
(I3
S'<'
p1106
NNNI4
I4
I8
tp1107
bS'1\x00\x00\x00'
p1108
tp1109
Rp1110
ag421
(g422
(S'U1'
p1111
I0
I1
tp1112
Rp1113
(I3
S'<'
p1114
NNNI4
I4
I8
tp1115
bS'2\x00\x00\x00'
p1116
tp1117
Rp1118
aa(lp1119
g421
(g422
(S'U1'
p1120
I0
I1
tp1121
Rp1122
(I3
S'<'
p1123
NNNI4
I4
I8
tp1124
bS'1\x00\x00\x00'
p1125
tp1126
Rp1127
ag421
(g422
(S'U1'
p1128
I0
I1
tp1129
Rp1130
(I3
S'<'
p1131
NNNI4
I4
I8
tp1132
bS'3\x00\x00\x00'
p1133
tp1134
Rp1135
aa(lp1136
g421
(g422
(S'U1'
p1137
I0
I1
tp1138
Rp1139
(I3
S'<'
p1140
NNNI4
I4
I8
tp1141
bS'2\x00\x00\x00'
p1142
tp1143
Rp1144
ag421
(g422
(S'U1'
p1145
I0
I1
tp1146
Rp1147
(I3
S'<'
p1148
NNNI4
I4
I8
tp1149
bS'1\x00\x00\x00'
p1150
tp1151
Rp1152
aa(lp1153
g421
(g422
(S'U1'
p1154
I0
I1
tp1155
Rp1156
(I3
S'<'
p1157
NNNI4
I4
I8
tp1158
bS'3\x00\x00\x00'
p1159
tp1160
Rp1161
ag421
(g422
(S'U1'
p1162
I0
I1
tp1163
Rp1164
(I3
S'<'
p1165
NNNI4
I4
I8
tp1166
bS'1\x00\x00\x00'
p1167
tp1168
Rp1169
aa(lp1170
g421
(g422
(S'U1'
p1171
I0
I1
tp1172
Rp1173
(I3
S'<'
p1174
NNNI4
I4
I8
tp1175
bS'4\x00\x00\x00'
p1176
tp1177
Rp1178
ag421
(g422
(S'U1'
p1179
I0
I1
tp1180
Rp1181
(I3
S'<'
p1182
NNNI4
I4
I8
tp1183
bS'1\x00\x00\x00'
p1184
tp1185
Rp1186
aaNaNaNaNaNaNaNaNaNaNaNaNaNaNaNaNaNaNaNaNaNaNaNaNaNaNaNaNaNaNaNaNaNaNaNaNaNaNaNaNaNaNaNaNaNaNaNaNaNaNaNaNaNaNaNaNaNasg598
g0
(g599
g2
Ntp1187
Rp1188
(dp1189
g603
Vdummy = tabularize(s, 'Groups', 1, 'MeanCt', \u000a          new_category_colnm='BioRuns',\u000a          values_colnm_prefix='Gene_')
p1190
sg605
VBioRuns
p1191
sg607
I00
sg608
I00
sg609
Vdummy = tabularize(s, 'Groups', 1, 'MeanCt', \u000a          new_category_colnm='BioRuns',\u000a          values_colnm_prefix='Gene_')
p1192
sbsg611
g0
(g612
g613
(g614
g615
tp1193
tp1194
Rp1195
sg605
g1191
sbag0
(g412
g2
Ntp1196
Rp1197
(dp1198
g416
I00
sg417
g4
sg418
(lp1199
F22.9
aF27.0
aF26.6
aF29.8
aF30.1
aF24.8
aF24.8
aFnan
aFnan
aFnan
aFnan
aFnan
aFnan
aFnan
aFnan
aFnan
aFnan
aFnan
aFnan
aFnan
aFnan
aFnan
aFnan
aFnan
aFnan
aFnan
aFnan
aFnan
aFnan
aFnan
aFnan
aFnan
aFnan
aFnan
aFnan
aFnan
aFnan
aFnan
aFnan
aFnan
aFnan
aFnan
aFnan
aFnan
aFnan
aFnan
aFnan
aFnan
aFnan
aFnan
aFnan
aFnan
aFnan
aFnan
aFnan
aFnan
aFnan
aFnan
aFnan
aFnan
aFnan
aFnan
aFnan
aFnan
asg598
g0
(g599
g2
Ntp1200
Rp1201
(dp1202
g603
Nsg759
g1197
sg607
I00
sg608
I00
sg609
Nsbsg611
g0
(g612
g613
(g614
g615
tp1203
tp1204
Rp1205
sg605
S'Gene_I'
p1206
sbag0
(g412
g2
Ntp1207
Rp1208
(dp1209
g416
I00
sg417
g4
sg418
(lp1210
F18.3
aF19.9
aF21.9
aF23.9
aF23.5
aF18.8
aF18.8
aFnan
aFnan
aFnan
aFnan
aFnan
aFnan
aFnan
aFnan
aFnan
aFnan
aFnan
aFnan
aFnan
aFnan
aFnan
aFnan
aFnan
aFnan
aFnan
aFnan
aFnan
aFnan
aFnan
aFnan
aFnan
aFnan
aFnan
aFnan
aFnan
aFnan
aFnan
aFnan
aFnan
aFnan
aFnan
aFnan
aFnan
aFnan
aFnan
aFnan
aFnan
aFnan
aFnan
aFnan
aFnan
aFnan
aFnan
aFnan
aFnan
aFnan
aFnan
aFnan
aFnan
aFnan
aFnan
aFnan
aFnan
asg598
g0
(g599
g2
Ntp1211
Rp1212
(dp1213
g603
Nsg759
g1208
sg607
I00
sg608
I00
sg609
Nsbsg611
g1205
sg605
S'Gene_R1'
p1214
sbag0
(g412
g2
Ntp1215
Rp1216
(dp1217
g416
I00
sg417
g4
sg418
(lp1218
F19.8
aF21.9
aF23.6
aF24.5
aF26.3
aF20.4
aF20.4
aFnan
aFnan
aFnan
aFnan
aFnan
aFnan
aFnan
aFnan
aFnan
aFnan
aFnan
aFnan
aFnan
aFnan
aFnan
aFnan
aFnan
aFnan
aFnan
aFnan
aFnan
aFnan
aFnan
aFnan
aFnan
aFnan
aFnan
aFnan
aFnan
aFnan
aFnan
aFnan
aFnan
aFnan
aFnan
aFnan
aFnan
aFnan
aFnan
aFnan
aFnan
aFnan
aFnan
aFnan
aFnan
aFnan
aFnan
aFnan
aFnan
aFnan
aFnan
aFnan
aFnan
aFnan
aFnan
aFnan
aFnan
asg598
g0
(g599
g2
Ntp1219
Rp1220
(dp1221
g603
Nsg759
g1216
sg607
I00
sg608
I00
sg609
Nsbsg611
g1205
sg605
S'Gene_R2'
p1222
sbag0
(g412
g2
Ntp1223
Rp1224
(dp1225
g416
I00
sg417
g4
sg418
(lp1226
F0.04123
aF0.00729
aF0.03847
aF0.01675
aF0.01031
aF0.01563
aF0.01563
aFnan
aFnan
aFnan
aFnan
aFnan
aFnan
aFnan
aFnan
aFnan
aFnan
aFnan
aFnan
aFnan
aFnan
aFnan
aFnan
aFnan
aFnan
aFnan
aFnan
aFnan
aFnan
aFnan
aFnan
aFnan
aFnan
aFnan
aFnan
aFnan
aFnan
aFnan
aFnan
aFnan
aFnan
aFnan
aFnan
aFnan
aFnan
aFnan
aFnan
aFnan
aFnan
aFnan
aFnan
aFnan
aFnan
aFnan
aFnan
aFnan
aFnan
aFnan
aFnan
aFnan
aFnan
aFnan
aFnan
aFnan
asg598
g0
(g599
g2
Ntp1227
Rp1228
(dp1229
g603
VExprR1 = roundValues(2**(Gene_R1 - Gene_I),5)
p1230
sg605
VExprR1
p1231
sg607
I01
sg608
I00
sg609
VroundValues(2**(Gene_R1 - Gene_I),5)
p1232
sbsg611
g0
(g612
g613
(g614
g615
tp1233
tp1234
Rp1235
sg605
g1231
sbag0
(g412
g2
Ntp1236
Rp1237
(dp1238
g416
I00
sg417
g4
sg418
(lp1239
F0.11663
aF0.02916
aF0.125
aF0.02538
aF0.07179
aF0.04737
aF0.04737
aFnan
aFnan
aFnan
aFnan
aFnan
aFnan
aFnan
aFnan
aFnan
aFnan
aFnan
aFnan
aFnan
aFnan
aFnan
aFnan
aFnan
aFnan
aFnan
aFnan
aFnan
aFnan
aFnan
aFnan
aFnan
aFnan
aFnan
aFnan
aFnan
aFnan
aFnan
aFnan
aFnan
aFnan
aFnan
aFnan
aFnan
aFnan
aFnan
aFnan
aFnan
aFnan
aFnan
aFnan
aFnan
aFnan
aFnan
aFnan
aFnan
aFnan
aFnan
aFnan
aFnan
aFnan
aFnan
aFnan
aFnan
asg598
g0
(g599
g2
Ntp1240
Rp1241
(dp1242
g603
VExprR2 = roundValues(2**(Gene_R2 - Gene_I),5)
p1243
sg605
VExprR2
p1244
sg607
I01
sg608
I00
sg609
VroundValues(2**(Gene_R2 - Gene_I),5)
p1245
sbsg611
g0
(g612
g613
(g614
g615
tp1246
tp1247
Rp1248
sg605
g1244
sbag0
(g412
g2
Ntp1249
Rp1250
(dp1251
g416
I00
sg417
g4
sg418
(lp1252
F0.069
aF0.015
aF0.069
aF0.021
aF0.027
aF0.027
aF0.027
aFnan
aFnan
aFnan
aFnan
aFnan
aFnan
aFnan
aFnan
aFnan
aFnan
aFnan
aFnan
aFnan
aFnan
aFnan
aFnan
aFnan
aFnan
aFnan
aFnan
aFnan
aFnan
aFnan
aFnan
aFnan
aFnan
aFnan
aFnan
aFnan
aFnan
aFnan
aFnan
aFnan
aFnan
aFnan
aFnan
aFnan
aFnan
aFnan
aFnan
aFnan
aFnan
aFnan
aFnan
aFnan
aFnan
aFnan
aFnan
aFnan
aFnan
aFnan
aFnan
aFnan
aFnan
aFnan
aFnan
aFnan
asg598
g0
(g599
g2
Ntp1253
Rp1254
(dp1255
g603
VGeoMean = roundValues(np.sqrt(ExprR1*ExprR2), 3)
p1256
sg605
VGeoMean
p1257
sg607
I01
sg608
I00
sg609
VroundValues(np.sqrt(ExprR1*ExprR2), 3)
p1258
sbsg611
g0
(g612
g613
(g614
g615
tp1259
tp1260
Rp1261
sg605
g1257
sbag0
(g412
g2
Ntp1262
Rp1263
(dp1264
g416
I00
sg417
g4
sg418
(lp1265
I1
aI1
aI1
aI1
aI1
aI1
aI1
aI1
aI1
aI1
aI1
aI1
aI1
aI2
aI2
aI2
aI3
aI3
aI3
aI1
aI1
aI1
aI2
aI2
aI2
aI3
aI3
aI3
aI1
aI1
aI1
aI2
aI2
aI2
aI3
aI3
aI3
aI1
aI1
aI1
aI1
aI1
aI1
aI1
aI1
aI1
aI1
aI1
aI1
aI1
aI1
aI1
aI1
aI1
aI1
aI1
aI1
aI1
aI1
aI1
aI1
aI1
aI1
aI1
asg598
g0
(g599
g2
Ntp1266
Rp1267
(dp1268
g603
Nsg605
S'BRpl'
p1269
sg607
I00
sg608
I00
sg609
Nsbsg611
g0
(g612
g613
(cscisheets.core.helpers.extended_array
ExtendedArray
p1270
g615
tp1271
tp1272
Rp1273
sg605
g1269
sbag0
(g412
g2
Ntp1274
Rp1275
(dp1276
g416
I00
sg417
g4
sg418
(lp1277
F23.0
aF22.86
aF22.8
aF23.0
aF18.24
aF18.22
aF18.36
aF19.72
aF19.75
aF20.01
aF26.68
aF27.13
aF27.21
aF26.76
aF26.71
aF26.19
aF29.98
aF30.12
aF29.41
aF19.92
aF19.85
aF20.0
aF21.86
aF22.09
aF21.84
aF23.89
aF23.54
aF24.27
aF22.18
aF21.71
aF21.75
aF23.88
aF23.42
aF23.63
aF24.59
aF24.61
aF24.34
aF29.95
aF30.45
aF29.88
aF23.22
aF23.8
aF23.49
aF26.37
aF26.36
aF26.17
aF24.8
aF24.97
aF24.63
aF18.91
aF18.78
aF18.8
aF20.5
aF20.47
aF20.28
aF24.8
aF24.97
aF24.63
aF18.91
aF18.78
aF18.8
aF20.5
aF20.47
aF20.28
asg598
g0
(g599
g2
Ntp1278
Rp1279
(dp1280
g603
Nsg605
S'Ct'
p1281
sg607
I00
sg608
I00
sg609
Nsbsg611
g1273
sg605
g1281
sbag0
(g412
g2
Ntp1282
Rp1283
(dp1284
g416
I00
sg417
g4
sg418
(lp1285
F0.8371
aF0.891
aF0.8956
aF0.8671
aF0.8266
aF0.8343
aF0.8496
aF0.8157
aF0.8543
aF0.8208
aF0.9399
aF0.8296
aF0.8361
aF0.8039
aF0.8399
aF0.7935
aF0.8264
aF0.7974
aF0.8252
aF0.9179
aF0.9783
aF0.8971
aF0.8957
aF0.8287
aF0.8387
aF0.8746
aF0.8493
aF0.8349
aF0.7857
aF0.8427
aF0.8637
aF0.8281
aF0.8203
aF0.8288
aF0.8138
aF0.8242
aF0.804
aF0.8418
aF0.7959
aF0.8071
aF0.7701
aF0.8746
aF0.8139
aF0.7795
aF0.7676
aF0.7947
aF0.8513
aF0.8485
aF0.8401
aF0.8715
aF0.8977
aF0.856
aF0.8179
aF0.8173
aF0.7894
aF0.8513
aF0.8485
aF0.8401
aF0.8715
aF0.8977
aF0.856
aF0.8179
aF0.8173
aF0.7894
asg598
g0
(g599
g2
Ntp1286
Rp1287
(dp1288
g603
Nsg605
S'Eff'
p1289
sg607
I00
sg608
I00
sg609
Nsbsg611
g1273
sg605
g1289
sbag0
(g412
g2
Ntp1290
Rp1291
(dp1292
g416
I00
sg417
g4
sg418
(lp1293
VI
p1294
ag1294
ag1294
ag1294
aVR1
p1295
aVR1
p1296
aVR1
p1297
aVR2
p1298
aVR2
p1299
aVR2
p1300
ag1294
ag1294
ag1294
ag1294
ag1294
ag1294
ag1294
ag1294
ag1294
aVR1
p1301
aVR1
p1302
aVR1
p1303
aVR1
p1304
aVR1
p1305
aVR1
p1306
aVR1
p1307
aVR1
p1308
aVR1
p1309
aVR2
p1310
aVR2
p1311
aVR2
p1312
aVR2
p1313
aVR2
p1314
aVR2
p1315
aVR2
p1316
aVR2
p1317
aVR2
p1318
ag1294
ag1294
ag1294
aVR1
p1319
aVR1
p1320
aVR1
p1321
aVR2
p1322
aVR2
p1323
aVR2
p1324
ag1294
ag1294
ag1294
aVR1
p1325
aVR1
p1326
aVR1
p1327
aVR2
p1328
aVR2
p1329
aVR2
p1330
ag1294
ag1294
ag1294
aVR1
p1331
aVR1
p1332
aVR1
p1333
aVR2
p1334
aVR2
p1335
aVR2
p1336
asg598
g0
(g599
g2
Ntp1337
Rp1338
(dp1339
g603
Nsg605
S'RunType'
p1340
sg607
I00
sg608
I00
sg609
Nsbsg611
g1273
sg605
g1340
sbag0
(g412
g2
Ntp1341
Rp1342
(dp1343
g416
I00
sg417
g4
sg418
(lp1344
Va
p1345
aVb
p1346
aVc
p1347
aVd
p1348
ag1345
ag1346
ag1347
ag1345
ag1346
ag1347
ag1345
ag1346
ag1347
ag1345
ag1346
ag1347
ag1345
ag1346
ag1347
ag1345
ag1346
ag1347
ag1345
ag1346
ag1347
ag1345
ag1346
ag1347
ag1345
ag1346
ag1347
ag1345
ag1346
ag1347
ag1345
ag1346
ag1347
ag1345
ag1346
ag1347
ag1345
ag1346
ag1347
ag1345
ag1346
ag1347
ag1345
ag1346
ag1347
ag1345
ag1346
ag1347
ag1345
ag1346
ag1347
ag1345
ag1346
ag1347
ag1345
ag1346
ag1347
ag1345
ag1346
ag1347
asg598
g0
(g599
g2
Ntp1349
Rp1350
(dp1351
g603
Nsg605
S'TRpl'
p1352
sg607
I00
sg608
I00
sg609
Nsbsg611
g1273
sg605
g1352
sbag0
(g412
g2
Ntp1353
Rp1354
(dp1355
g416
I00
sg417
g4
sg418
(lp1356
I0
aI0
aI0
aI0
aI0
aI0
aI0
aI0
aI0
aI0
aI1
aI1
aI1
aI1
aI1
aI1
aI1
aI1
aI1
aI1
aI1
aI1
aI1
aI1
aI1
aI1
aI1
aI1
aI1
aI1
aI1
aI1
aI1
aI1
aI1
aI1
aI1
aI2
aI2
aI2
aI2
aI2
aI2
aI2
aI2
aI2
aI3
aI3
aI3
aI3
aI3
aI3
aI3
aI3
aI3
aI4
aI4
aI4
aI4
aI4
aI4
aI4
aI4
aI4
asg598
g0
(g599
g2
Ntp1357
Rp1358
(dp1359
g603
Nsg605
S'Treatment'
p1360
sg607
I00
sg608
I00
sg609
Nsbsg611
g1273
sg605
g1360
sbasS'_is_evaluate_formulas'
p1361
I01
sS'_prologue'
p1362
g0
(g599
g2
Ntp1363
Rp1364
(dp1365
g603
V# Prologue\u000aimport math as mt\u000aimport numpy as np\u000afrom os import listdir\u000afrom os.path import isfile, join\u000aimport pandas as pd\u000aimport scipy as sp\u000afrom numpy import nan  # Must follow sympy import \u000a\u000axlsx_path =   '/mnt/hgfs/josephhellerstein/home/Technical/SciSheets/CaseStudies/Kristen/workbooks/data.xlsx'\u000agene = ParmValues[0]\u000arun = ParmValues[1] == 'True'\u000ashow_raw = ParmValues[2] == 'True'\u000ashow_block1 = ParmValues[3] == 'True'\u000ashow_block2 = ParmValues[4] == 'True'\u000ashow_block3 = ParmValues[5] == 'True'\u000ashow_params = ParmValues[8] == 'True'\u000a#show_params = True\u000amax_std  = float(ParmValues[6])\u000amin_eff = float(ParmValues[7])\u000aworksheet = gene + "-I"\u000as.getTable().setIsEvaluateFormulas(run)\u000as.setColumnVisibility()\u000as.setColumnVisibility(['Groups', 'GroupedEff', 'GroupedCt', 'StdFilteredGroupedCt', 'MeanCt',\u000a    'StdCt'], is_visible=show_block1)\u000as.setColumnVisibility(['BioRuns', 'Gene_I', 'Gene_R1', 'Gene_R2', 'ExprR1', 'ExprR2', \u000a    'GeoMean'], is_visible=show_block2)\u000as.setColumnVisibility(['GeoGroups', 'GroupedGeoMeans', 'NrmlGeoGroupedMeans', \u000a    'MeanNrmlGeoGroups', 'StdNrmlGeoGroups'], is_visible=show_block3)\u000aif run:\u000a  Groups = []\u000a  GroupedCt = []\u000a  GroupedEff = []\u000a  MeanCt = []\u000a  Imp = []\u000a  s.deleteColumn('Ct')\u000a  s.deleteColumn('RunType')\u000a  s.deleteColumn('BRpl')\u000a  s.deleteColumn('TRpl')\u000a  s.deleteColumn('Treatment')\u000a  s.deleteColumn('Eff')\u000aif run:\u000a  importExcelToTable(s, xlsx_path, worksheet=worksheet,\u000a      column_position='ParmValues',\u000a      names=['Treatment', 'RunType', 'BRpl', 'TRpl', 'Eff', 'Ct'])\u000as.setColumnVisibility(['BRpl', 'Ct', 'Eff', 'RunType', 'TRpl', 'Treatment'], is_visible=show_raw)\u000as.setColumnVisibility(['ParmNames', 'ParmValues'], show_params)
p1366
sg605
VSingleGene
p1367
sg607
I00
sg608
I00
sg609
V# Prologue\u000aimport math as mt\u000aimport numpy as np\u000afrom os import listdir\u000afrom os.path import isfile, join\u000aimport pandas as pd\u000aimport scipy as sp\u000afrom numpy import nan  # Must follow sympy import \u000a\u000axlsx_path =   '/mnt/hgfs/josephhellerstein/home/Technical/SciSheets/CaseStudies/Kristen/workbooks/data.xlsx'\u000agene = ParmValues[0]\u000arun = ParmValues[1] == 'True'\u000ashow_raw = ParmValues[2] == 'True'\u000ashow_block1 = ParmValues[3] == 'True'\u000ashow_block2 = ParmValues[4] == 'True'\u000ashow_block3 = ParmValues[5] == 'True'\u000ashow_params = ParmValues[8] == 'True'\u000a#show_params = True\u000amax_std  = float(ParmValues[6])\u000amin_eff = float(ParmValues[7])\u000aworksheet = gene + "-I"\u000as.getTable().setIsEvaluateFormulas(run)\u000as.setColumnVisibility()\u000as.setColumnVisibility(['Groups', 'GroupedEff', 'GroupedCt', 'StdFilteredGroupedCt', 'MeanCt',\u000a    'StdCt'], is_visible=show_block1)\u000as.setColumnVisibility(['BioRuns', 'Gene_I', 'Gene_R1', 'Gene_R2', 'ExprR1', 'ExprR2', \u000a    'GeoMean'], is_visible=show_block2)\u000as.setColumnVisibility(['GeoGroups', 'GroupedGeoMeans', 'NrmlGeoGroupedMeans', \u000a    'MeanNrmlGeoGroups', 'StdNrmlGeoGroups'], is_visible=show_block3)\u000aif run:\u000a  Groups = []\u000a  GroupedCt = []\u000a  GroupedEff = []\u000a  MeanCt = []\u000a  Imp = []\u000a  s.deleteColumn('Ct')\u000a  s.deleteColumn('RunType')\u000a  s.deleteColumn('BRpl')\u000a  s.deleteColumn('TRpl')\u000a  s.deleteColumn('Treatment')\u000a  s.deleteColumn('Eff')\u000aif run:\u000a  importExcelToTable(s, xlsx_path, worksheet=worksheet,\u000a      column_position='ParmValues',\u000a      names=['Treatment', 'RunType', 'BRpl', 'TRpl', 'Eff', 'Ct'])\u000as.setColumnVisibility(['BRpl', 'Ct', 'Eff', 'RunType', 'TRpl', 'Treatment'], is_visible=show_raw)\u000as.setColumnVisibility(['ParmNames', 'ParmValues'], show_params)
p1368
sbsS'_epilogue'
p1369
g0
(g599
g2
Ntp1370
Rp1371
(dp1372
g603
V# Epilogue\u000aif run:\u000a  worksheet = "%s-O" % gene\u000a  exportTableToExcel(s, xlsx_path, worksheet=worksheet, columns=['GeoGroups',  \u000a      'MeanNrmlGeoGroups', 'StdNrmlGeoGroups'])\u000a
p1373
sg605
g1367
sg607
I00
sg608
I00
sg609
V# Epilogue\u000aif run:\u000a  worksheet = "%s-O" % gene\u000a  exportTableToExcel(s, xlsx_path, worksheet=worksheet, columns=['GeoGroups',  \u000a      'MeanNrmlGeoGroups', 'StdNrmlGeoGroups'])\u000a
p1374
sbsg605
g1367
sS'_columns'
p1375
(lp1376
g0
(g412
g2
Ntp1377
Rp1378
(dp1379
g416
I01
sg417
g4
sg418
(lp1380
S'1'
p1381
aS'2'
p1382
aS'3'
p1383
aS'4'
p1384
aS'5'
p1385
aS'6'
p1386
aS'7'
p1387
aS'8'
p1388
aS'9'
p1389
aS'10'
p1390
aS'11'
p1391
aS'12'
p1392
aS'13'
p1393
aS'14'
p1394
aS'15'
p1395
aS'16'
p1396
aS'17'
p1397
aS'18'
p1398
aS'19'
p1399
aS'20'
p1400
aS'21'
p1401
aS'22'
p1402
aS'23'
p1403
aS'24'
p1404
aS'25'
p1405
aS'26'
p1406
aS'27'
p1407
aS'28'
p1408
aS'29'
p1409
aS'30'
p1410
aS'31'
p1411
aS'32'
p1412
aS'33'
p1413
aS'34'
p1414
aS'35'
p1415
aS'36'
p1416
aS'37'
p1417
aS'38'
p1418
aS'39'
p1419
aS'40'
p1420
aS'41'
p1421
aS'42'
p1422
aS'43'
p1423
aS'44'
p1424
aS'45'
p1425
aS'46'
p1426
aS'47'
p1427
aS'48'
p1428
aS'49'
p1429
aS'50'
p1430
aS'51'
p1431
aS'52'
p1432
aS'53'
p1433
aS'54'
p1434
aS'55'
p1435
aS'56'
p1436
aS'57'
p1437
aS'58'
p1438
aS'59'
p1439
aS'60'
p1440
aS'61'
p1441
aS'62'
p1442
aS'63'
p1443
aS'64'
p1444
asg598
g0
(g599
g2
Ntp1445
Rp1446
(dp1447
g603
Nsg759
g1378
sg607
I00
sg608
I00
sg609
Nsbsg611
g0
(g612
g613
(g614
g615
tp1448
tp1449
Rp1450
sg605
S'row'
p1451
sbag0
(g412
g2
Ntp1452
Rp1453
(dp1454
g416
I00
sg417
g4
sg418
(lp1455
Vgene
p1456
aVrun
p1457
aVshow_raw
p1458
aVshow_block1
p1459
aVshow_block2
p1460
aVshow_block3
p1461
aVmax_std
p1462
aVmin_eff
p1463
aVshow_params
p1464
aVnan
p1465
aVnan
p1466
aVnan
p1467
aVnan
p1468
aVnan
p1469
aVnan
p1470
aVnan
p1471
aVnan
p1472
aVnan
p1473
aVnan
p1474
aVnan
p1475
aVnan
p1476
aVnan
p1477
aVnan
p1478
aVnan
p1479
aVnan
p1480
aVnan
p1481
aVnan
p1482
aVnan
p1483
aVnan
p1484
aVnan
p1485
aVnan
p1486
aVnan
p1487
aVnan
p1488
aVnan
p1489
aVnan
p1490
aVnan
p1491
aVnan
p1492
aVnan
p1493
aVnan
p1494
aVnan
p1495
aVnan
p1496
aVnan
p1497
aVnan
p1498
aVnan
p1499
aVnan
p1500
aVnan
p1501
aVnan
p1502
aVnan
p1503
aVnan
p1504
aVnan
p1505
aVnan
p1506
aVnan
p1507
aVnan
p1508
aVnan
p1509
aNaNaNaNaNaNaNaNaNaNasg598
g0
(g599
g2
Ntp1510
Rp1511
(dp1512
g603
Nsg759
g1453
sg607
I00
sg608
I00
sg609
Nsbsg611
g0
(g612
g613
(g614
g615
tp1513
tp1514
Rp1515
sg605
VParmNames
p1516
sbag0
(g412
g2
Ntp1517
Rp1518
(dp1519
g416
I00
sg417
g4
sg418
(lp1520
VGene1
p1521
aVTrue
p1522
aVFalse
p1523
aVFalse
p1524
aVFalse
p1525
aVTrue
p1526
aF0.5
aV0.7
p1527
aVTrue
p1528
aV
p1529
aVnan
p1530
aVnan
p1531
aVnan
p1532
aVnan
p1533
aVnan
p1534
aVnan
p1535
aVnan
p1536
aVnan
p1537
aVnan
p1538
aVnan
p1539
aVnan
p1540
aVnan
p1541
aVnan
p1542
aVnan
p1543
aVnan
p1544
aVnan
p1545
aVnan
p1546
aVnan
p1547
aVnan
p1548
aVnan
p1549
aVnan
p1550
aVnan
p1551
aVnan
p1552
aVnan
p1553
aVnan
p1554
aVnan
p1555
aVnan
p1556
aVnan
p1557
aVnan
p1558
aVnan
p1559
aVnan
p1560
aVnan
p1561
aVnan
p1562
aVnan
p1563
aVnan
p1564
aVnan
p1565
aVnan
p1566
aVnan
p1567
aVnan
p1568
aVnan
p1569
aVnan
p1570
aVnan
p1571
aVnan
p1572
aVnan
p1573
aNaNaNaNaNaNaNaNaNaNasg598
g0
(g599
g2
Ntp1574
Rp1575
(dp1576
g603
Nsg605
VParmValues
p1577
sg607
I00
sg608
I00
sg609
Nsbsg611
g0
(g612
g613
(g614
g615
tp1578
tp1579
Rp1580
sg605
g1577
sbag1354
ag1291
ag1263
ag1342
ag1283
ag1275
ag414
ag620
ag765
ag902
ag1041
ag1054
ag1065
ag1197
ag1208
ag1216
ag1224
ag1237
ag1250
ag0
(g412
g2
Ntp1581
Rp1582
(dp1583
g416
I00
sg417
g4
sg418
(lp1584
(lp1585
g1076
aa(lp1586
g1093
aa(lp1587
g1144
aa(lp1588
g1161
aa(lp1589
g1178
aasg598
g0
(g599
g2
Ntp1590
Rp1591
(dp1592
g603
Vcat_vals = [br[0] for br in pruneNulls(BioRuns)]\u000aclean_geo = [x for x in GeoMean if x is not None]\u000aGeoGroups, groupedGeoMeans = groupBy(cat_vals, clean_geo)\u000aGroupedGeoMeans = roundValues(groupedGeoMeans, 3)\u000aGeoGroups = [[x] for x in GeoGroups]
p1593
sg605
VGeoGroups
p1594
sg607
I00
sg608
I00
sg609
Vcat_vals = [br[0] for br in pruneNulls(BioRuns)]\u000aclean_geo = [x for x in GeoMean if x is not None]\u000aGeoGroups, groupedGeoMeans = groupBy(cat_vals, clean_geo)\u000aGroupedGeoMeans = roundValues(groupedGeoMeans, 3)\u000aGeoGroups = [[x] for x in GeoGroups]
p1595
sbsg611
g0
(g612
g613
(g614
g615
tp1596
tp1597
Rp1598
sg605
g1594
sbag0
(g412
g2
Ntp1599
Rp1600
(dp1601
g416
I00
sg417
g4
sg418
(lp1602
g623
(g614
(I0
tp1603
g625
tp1604
Rp1605
(I1
(I1
tp1606
g631
I00
S'D\x8bl\xe7\xfb\xa9\xb1?'
p1607
tp1608
bag623
(g614
(I0
tp1609
g625
tp1610
Rp1611
(I1
(I3
tp1612
g631
I00
S'\xb8\x1e\x85\xebQ\xb8\x8e?D\x8bl\xe7\xfb\xa9\xb1?\x1b/\xdd$\x06\x81\x95?'
p1613
tp1614
bag623
(g614
(I0
tp1615
g625
tp1616
Rp1617
(I1
(I1
tp1618
g631
I00
S'\xd9\xce\xf7S\xe3\xa5\x9b?'
p1619
tp1620
bag623
(g614
(I0
tp1621
g625
tp1622
Rp1623
(I1
(I1
tp1624
g631
I00
S'\xd9\xce\xf7S\xe3\xa5\x9b?'
p1625
tp1626
bag623
(g614
(I0
tp1627
g625
tp1628
Rp1629
(I1
(I1
tp1630
g631
I00
S'\xd9\xce\xf7S\xe3\xa5\x9b?'
p1631
tp1632
basg598
g0
(g599
g2
Ntp1633
Rp1634
(dp1635
g603
Nsg759
g1600
sg607
I00
sg608
I00
sg609
Nsbsg611
g0
(g612
g613
(g614
g615
tp1636
tp1637
Rp1638
sg605
VGroupedGeoMeans
p1639
sbag0
(g412
g2
Ntp1640
Rp1641
(dp1642
g416
I00
sg417
g4
sg418
(lp1643
g623
(g614
(I0
tp1644
g625
tp1645
Rp1646
(I1
(I1
tp1647
g631
I00
S'\x00\x00\x00\x00\x00\x00\xf0?'
p1648
tp1649
bag623
(g614
(I0
tp1650
g625
tp1651
Rp1652
(I1
(I3
tp1653
g631
I00
S'-\xb2\x9d\xef\xa7\xc6\xcb?\x00\x00\x00\x00\x00\x00\xf0?\xdb\xf9~j\xbct\xd3?'
p1654
tp1655
bag623
(g614
(I0
tp1656
g625
tp1657
Rp1658
(I1
(I1
tp1659
g631
I00
S'\xa0\x1a/\xdd$\x06\xd9?'
p1660
tp1661
bag623
(g614
(I0
tp1662
g625
tp1663
Rp1664
(I1
(I1
tp1665
g631
I00
S'\xa0\x1a/\xdd$\x06\xd9?'
p1666
tp1667
bag623
(g614
(I0
tp1668
g625
tp1669
Rp1670
(I1
(I1
tp1671
g631
I00
S'\xa0\x1a/\xdd$\x06\xd9?'
p1672
tp1673
basg598
g0
(g599
g2
Ntp1674
Rp1675
(dp1676
g603
Vref = np.mean(GroupedGeoMeans[0])\u000aNrmlGeoGroupedMeans = [ [x/ref for x in g] for g in GroupedGeoMeans if g is not None]  \u000aNrmlGeoGroupedMeans = roundValues(NrmlGeoGroupedMeans, 3)
p1677
sg605
VNrmlGeoGroupedMeans
p1678
sg607
I00
sg608
I00
sg609
Vref = np.mean(GroupedGeoMeans[0])\u000aNrmlGeoGroupedMeans = [ [x/ref for x in g] for g in GroupedGeoMeans if g is not None]  \u000aNrmlGeoGroupedMeans = roundValues(NrmlGeoGroupedMeans, 3)
p1679
sbsg611
g0
(g612
g613
(g614
g615
tp1680
tp1681
Rp1682
sg605
g1678
sbag0
(g412
g2
Ntp1683
Rp1684
(dp1685
g416
I00
sg417
g4
sg418
(lp1686
F1.0
aF0.507
aF0.391
aF0.391
aF0.391
asg598
g0
(g599
g2
Ntp1687
Rp1688
(dp1689
g603
VMeanNrmlGeoGroups = [round(np.mean(g), 3) for g in NrmlGeoGroupedMeans]
p1690
sg605
VMeanNrmlGeoGroups
p1691
sg607
I01
sg608
I00
sg609
V[round(np.mean(g), 3) for g in NrmlGeoGroupedMeans]
p1692
sbsg611
g0
(g612
g613
(g614
g615
tp1693
tp1694
Rp1695
sg605
g1691
sbag0
(g412
g2
Ntp1696
Rp1697
(dp1698
g416
I00
sg417
g4
sg418
(lp1699
F0.248
asg598
g0
(g599
g2
Ntp1700
Rp1701
(dp1702
g603
VStdNrmlGeoGroups = []\u000afor grp in NrmlGeoGroupedMeans:\u000a  if len(grp) > 1:\u000a    val = np.std(grp, ddof=1)/np.sqrt(len(grp))\u000a    val = round(val, 3)\u000a    StdNrmlGeoGroups.append(val)\u000a
p1703
sg605
VStdNrmlGeoGroups
p1704
sg607
I00
sg608
I00
sg609
VStdNrmlGeoGroups = []\u000afor grp in NrmlGeoGroupedMeans:\u000a  if len(grp) > 1:\u000a    val = np.std(grp, ddof=1)/np.sqrt(len(grp))\u000a    val = round(val, 3)\u000a    StdNrmlGeoGroups.append(val)\u000a
p1705
sbsg611
g0
(g612
g613
(g614
g615
tp1706
tp1707
Rp1708
sg605
g1704
sbasg405
V/home/ubuntu/SciSheets/mysite/user/guest/tables/kristen_single_gene.pcl
p1709
sb.