ccopy_reg
_reconstructor
p0
(cscisheets.ui.dt_table
DTTable
p1
c__builtin__
object
p2
Ntp3
Rp4
(dp5
S'_versioned_file'
p6
g0
(cmysite.helpers.versioned_file
VersionedFile
p7
g2
Ntp8
Rp9
(dp10
S'_max_versions'
p11
I5
sS'_undo_stack'
p12
g0
(cmysite.helpers.file_stack
FileStack
p13
g2
Ntp14
Rp15
(dp16
S'_dirpath'
p17
S'/home/ubuntu/SciSheets/mysite/user/guest/tables/backup'
p18
sS'_max_depth'
p19
I5
sS'_filename_pfx'
p20
Vkristen_single_gene.u
p21
sbsS'_filepath'
p22
V/home/ubuntu/SciSheets/mysite/user/guest/tables/kristen_single_gene.pcl
p23
sS'_backup_dir'
p24
g18
sS'_redo_stack'
p25
g0
(g13
g2
Ntp26
Rp27
(dp28
g17
g18
sg19
I5
sg20
Vkristen_single_gene.r
p29
sbsbsS'_hidden_columns'
p30
(lp31
g0
(cscisheets.core.column
Column
p32
g2
Ntp33
Rp34
(dp35
S'_asis'
p36
I00
sS'_owning_table'
p37
g4
sS'_cells'
p38
(lp39
VSEP1 2012 P17F4 a
p40
aVSEP1 2012 P17F4 b
p41
aVSEP1 2012 P17F4 c
p42
aVSEP1 2012 P17F5 a
p43
aVSEP1 2012 P17F5 b
p44
aVSEP1 2012 P17F5 c
p45
aVSEP1 2012 P1F3 SEP1a
p46
aVSEP1 2012 P1F3 SEP1b
p47
aVSEP1 2012 P1F3 SEP1c
p48
aVSEP1-2 2012 P11aF2 a
p49
aVSEP1-2 2012 P11aF2 b
p50
aVSEP1-2 2012 P11aF2 c
p51
aVSEP1-3 2012 P15F2 a
p52
aVSEP1-3 2012 P15F2 b
p53
aVSEP1-3 2012 P15F2 c
p54
aVuntreated 2012 P12F1 SEP1 1:2a
p55
aVuntreated 2012 P12F1 SEP1 1:2b
p56
aVuntreated 2012 P12F1 SEP1 1:2c
p57
aVSEP1 2012 P17F4 ACTa
p58
aVSEP1 2012 P17F4 ACTb
p59
aVSEP1 2012 P17F4 ACTc
p60
aVSEP1 2012 P17F5 ACTa
p61
aVSEP1 2012 P17F5 ACTb
p62
aVSEP1 2012 P17F5 ACTc
p63
aVSEP1 2012 P1F3 ACTa
p64
aVSEP1 2012 P1F3 ACTb
p65
aVSEP1 2012 P1F3 ACTc
p66
aVSEP1-2 2012 P11aF2 ACTa
p67
aVSEP1-2 2012 P11aF2 ACTb
p68
aVSEP1-2 2012 P11aF2 ACTc
p69
aVSEP1-3 2012 P15F2 ACTa
p70
aVSEP1-3 2012 P15F2 ACTb
p71
aVSEP1-3 2012 P15F2 ACTc
p72
aVuntreated 2012 P12F1 ACTa
p73
aVuntreated 2012 P12F1 ACTb
p74
aVuntreated 2012 P12F1 ACTc
p75
aVSEP1 2012 P17F4 EEF1a
p76
aVSEP1 2012 P17F4 EEF1b
p77
aVSEP1 2012 P17F4 EEF1c
p78
aVSEP1 2012 P17F5 EEF1a
p79
aVSEP1 2012 P17F5 EEF1b
p80
aVSEP1 2012 P17F5 EEF1c
p81
aVSEP1 2012 P1F3 EEF1a
p82
aVSEP1 2012 P1F3 EEF1b
p83
aVSEP1 2012 P1F3 EEF1c
p84
aVSEP1-2 2012 P11aF2 EEF1a
p85
aVSEP1-2 2012 P11aF2 EEF1b
p86
aVSEP1-2 2012 P11aF2 EEF1c
p87
aVSEP1-3 2012 P15F2 EEF1a
p88
aVSEP1-3 2012 P15F2 EEF1b
p89
aVSEP1-3 2012 P15F2 EEF1c
p90
aVuntreated 2012 P12F1 EEF1a
p91
aVuntreated 2012 P12F1 EEF1b
p92
aVuntreated 2012 P12F1 EEF1c
p93
asS'_formula_statement'
p94
g0
(cscisheets.core.column
FormulaStatement
p95
g2
Ntp96
Rp97
(dp98
S'_statement'
p99
NsS'_column'
p100
g34
sS'_isExpression'
p101
I00
sS'_isStatement'
p102
I00
sS'_formula'
p103
NsbsS'_data_class'
p104
g0
(cscisheets.core.helpers.api_util
DataClass
p105
c__builtin__
tuple
p106
(cnumpy
ndarray
p107
cscisheets.core.helpers.api_util
makeArray
p108
tp109
tp110
Rp111
sS'_name'
p112
S'SmplName'
p113
sbag0
(g32
g2
Ntp114
Rp115
(dp116
g36
I00
sg37
g4
sg38
(lp117
I1
aI1
aI1
aI2
aI2
aI2
aI3
aI3
aI3
aI1
aI1
aI1
aI1
aI1
aI1
aI1
aI1
aI1
aI1
aI1
aI1
aI2
aI2
aI2
aI3
aI3
aI3
aI1
aI1
aI1
aI1
aI1
aI1
aI1
aI1
aI1
aI1
aI1
aI1
aI2
aI2
aI2
aI3
aI3
aI3
aI1
aI1
aI1
aI1
aI1
aI1
aI1
aI1
aI1
asg94
g0
(g95
g2
Ntp118
Rp119
(dp120
g99
Nsg100
g115
sg101
I00
sg102
I00
sg103
Nsbsg104
g111
sg112
S'BRpl'
p121
sbag0
(g32
g2
Ntp122
Rp123
(dp124
g36
I00
sg37
g4
sg38
(lp125
F26.68
aF27.13
aF27.21
aF26.76
aF26.71
aF26.19
aF29.98
aF30.12
aF29.41
aF29.95
aF30.45
aF29.88
aF24.8
aF24.97
aF24.63
aF23.0
aF22.86
aF22.8
aF19.92
aF19.85
aF20.0
aF21.86
aF22.09
aF21.84
aF23.89
aF23.54
aF24.27
aF23.22
aF23.8
aF23.49
aF18.91
aF18.78
aF18.8
aF18.24
aF18.22
aF18.36
aF22.18
aF21.71
aF21.75
aF23.88
aF23.42
aF23.63
aF24.59
aF24.61
aF24.34
aF26.37
aF26.36
aF26.17
aF20.5
aF20.47
aF20.28
aF19.72
aF19.75
aF20.01
asg94
g0
(g95
g2
Ntp126
Rp127
(dp128
g99
Nsg100
g123
sg101
I00
sg102
I00
sg103
Nsbsg104
g111
sg112
S'Ct'
p129
sbag0
(g32
g2
Ntp130
Rp131
(dp132
g36
I00
sg37
g4
sg38
(lp133
F0.9399
aF0.8296
aF0.8361
aF0.8039
aF0.8399
aF0.7935
aF0.8264
aF0.7974
aF0.8252
aF0.8418
aF0.7959
aF0.8071
aF0.8513
aF0.8485
aF0.8401
aF0.8371
aF0.891
aF0.8956
aF0.9179
aF0.9783
aF0.8971
aF0.8957
aF0.8287
aF0.8387
aF0.8746
aF0.8493
aF0.8349
aF0.7701
aF0.8746
aF0.8139
aF0.8715
aF0.8977
aF0.856
aF0.8266
aF0.8343
aF0.8496
aF0.7857
aF0.8427
aF0.8637
aF0.8281
aF0.8203
aF0.8288
aF0.8138
aF0.8242
aF0.804
aF0.7795
aF0.7676
aF0.7947
aF0.8179
aF0.8173
aF0.7894
aF0.8157
aF0.8543
aF0.8208
asg94
g0
(g95
g2
Ntp134
Rp135
(dp136
g99
Nsg100
g131
sg101
I00
sg102
I00
sg103
Nsbsg104
g111
sg112
S'Eff'
p137
sbag0
(g32
g2
Ntp138
Rp139
(dp140
g36
I00
sg37
g4
sg38
(lp141
VI
p142
ag142
ag142
ag142
ag142
ag142
ag142
ag142
ag142
ag142
ag142
ag142
ag142
ag142
ag142
ag142
ag142
ag142
aVR1
p143
aVR1
p144
aVR1
p145
aVR1
p146
aVR1
p147
aVR1
p148
aVR1
p149
aVR1
p150
aVR1
p151
aVR1
p152
aVR1
p153
aVR1
p154
aVR1
p155
aVR1
p156
aVR1
p157
aVR1
p158
aVR1
p159
aVR1
p160
aVR2
p161
aVR2
p162
aVR2
p163
aVR2
p164
aVR2
p165
aVR2
p166
aVR2
p167
aVR2
p168
aVR2
p169
aVR2
p170
aVR2
p171
aVR2
p172
aVR2
p173
aVR2
p174
aVR2
p175
aVR2
p176
aVR2
p177
aVR2
p178
asg94
g0
(g95
g2
Ntp179
Rp180
(dp181
g99
Nsg100
g139
sg101
I00
sg102
I00
sg103
Nsbsg104
g111
sg112
S'RunType'
p182
sbag0
(g32
g2
Ntp183
Rp184
(dp185
g36
I00
sg37
g4
sg38
(lp186
Va
p187
aVb
p188
aVc
p189
ag187
ag188
ag189
ag187
ag188
ag189
ag187
ag188
ag189
ag187
ag188
ag189
ag187
ag188
ag189
ag187
ag188
ag189
ag187
ag188
ag189
ag187
ag188
ag189
ag187
ag188
ag189
ag187
ag188
ag189
ag187
ag188
ag189
ag187
ag188
ag189
ag187
ag188
ag189
ag187
ag188
ag189
ag187
ag188
ag189
ag187
ag188
ag189
ag187
ag188
ag189
asg94
g0
(g95
g2
Ntp190
Rp191
(dp192
g99
Nsg100
g184
sg101
I00
sg102
I00
sg103
Nsbsg104
g111
sg112
S'TRpl'
p193
sbag0
(g32
g2
Ntp194
Rp195
(dp196
g36
I00
sg37
g4
sg38
(lp197
I1
aI1
aI1
aI1
aI1
aI1
aI1
aI1
aI1
aI2
aI2
aI2
aI3
aI3
aI3
aI0
aI0
aI0
aI1
aI1
aI1
aI1
aI1
aI1
aI1
aI1
aI1
aI2
aI2
aI2
aI3
aI3
aI3
aI0
aI0
aI0
aI1
aI1
aI1
aI1
aI1
aI1
aI1
aI1
aI1
aI2
aI2
aI2
aI3
aI3
aI3
aI0
aI0
aI0
asg94
g0
(g95
g2
Ntp198
Rp199
(dp200
g99
Nsg100
g195
sg101
I00
sg102
I00
sg103
Nsbsg104
g111
sg112
S'Treatment'
p201
sbag0
(g32
g2
Ntp202
Rp203
(dp204
g36
I00
sg37
g4
sg38
(lp205
(cnumpy.core.multiarray
scalar
p206
(cnumpy
dtype
p207
(S'i8'
p208
I0
I1
tp209
Rp210
(I3
S'<'
p211
NNNI-1
I-1
I0
tp212
bS'\x00\x00\x00\x00\x00\x00\x00\x00'
p213
tp214
Rp215
g142
g206
(g210
S'\x01\x00\x00\x00\x00\x00\x00\x00'
p216
tp217
Rp218
tp219
a(g206
(g210
S'\x00\x00\x00\x00\x00\x00\x00\x00'
p220
tp221
Rp222
VR1
p223
g206
(g210
S'\x01\x00\x00\x00\x00\x00\x00\x00'
p224
tp225
Rp226
tp227
a(g206
(g210
S'\x00\x00\x00\x00\x00\x00\x00\x00'
p228
tp229
Rp230
VR2
p231
g206
(g210
S'\x01\x00\x00\x00\x00\x00\x00\x00'
p232
tp233
Rp234
tp235
a(g206
(g210
S'\x01\x00\x00\x00\x00\x00\x00\x00'
p236
tp237
Rp238
g142
g206
(g210
S'\x01\x00\x00\x00\x00\x00\x00\x00'
p239
tp240
Rp241
tp242
a(g206
(g210
S'\x01\x00\x00\x00\x00\x00\x00\x00'
p243
tp244
Rp245
g142
g206
(g210
S'\x02\x00\x00\x00\x00\x00\x00\x00'
p246
tp247
Rp248
tp249
a(g206
(g210
S'\x01\x00\x00\x00\x00\x00\x00\x00'
p250
tp251
Rp252
g142
g206
(g210
S'\x03\x00\x00\x00\x00\x00\x00\x00'
p253
tp254
Rp255
tp256
a(g206
(g210
S'\x01\x00\x00\x00\x00\x00\x00\x00'
p257
tp258
Rp259
g223
g206
(g210
S'\x01\x00\x00\x00\x00\x00\x00\x00'
p260
tp261
Rp262
tp263
a(g206
(g210
S'\x01\x00\x00\x00\x00\x00\x00\x00'
p264
tp265
Rp266
g223
g206
(g210
S'\x02\x00\x00\x00\x00\x00\x00\x00'
p267
tp268
Rp269
tp270
a(g206
(g210
S'\x01\x00\x00\x00\x00\x00\x00\x00'
p271
tp272
Rp273
g223
g206
(g210
S'\x03\x00\x00\x00\x00\x00\x00\x00'
p274
tp275
Rp276
tp277
a(g206
(g210
S'\x01\x00\x00\x00\x00\x00\x00\x00'
p278
tp279
Rp280
g231
g206
(g210
S'\x01\x00\x00\x00\x00\x00\x00\x00'
p281
tp282
Rp283
tp284
a(g206
(g210
S'\x01\x00\x00\x00\x00\x00\x00\x00'
p285
tp286
Rp287
g231
g206
(g210
S'\x02\x00\x00\x00\x00\x00\x00\x00'
p288
tp289
Rp290
tp291
a(g206
(g210
S'\x01\x00\x00\x00\x00\x00\x00\x00'
p292
tp293
Rp294
g231
g206
(g210
S'\x03\x00\x00\x00\x00\x00\x00\x00'
p295
tp296
Rp297
tp298
a(g206
(g210
S'\x02\x00\x00\x00\x00\x00\x00\x00'
p299
tp300
Rp301
g142
g206
(g210
S'\x01\x00\x00\x00\x00\x00\x00\x00'
p302
tp303
Rp304
tp305
a(g206
(g210
S'\x02\x00\x00\x00\x00\x00\x00\x00'
p306
tp307
Rp308
g223
g206
(g210
S'\x01\x00\x00\x00\x00\x00\x00\x00'
p309
tp310
Rp311
tp312
a(g206
(g210
S'\x02\x00\x00\x00\x00\x00\x00\x00'
p313
tp314
Rp315
g231
g206
(g210
S'\x01\x00\x00\x00\x00\x00\x00\x00'
p316
tp317
Rp318
tp319
a(g206
(g210
S'\x03\x00\x00\x00\x00\x00\x00\x00'
p320
tp321
Rp322
g142
g206
(g210
S'\x01\x00\x00\x00\x00\x00\x00\x00'
p323
tp324
Rp325
tp326
a(g206
(g210
S'\x03\x00\x00\x00\x00\x00\x00\x00'
p327
tp328
Rp329
g223
g206
(g210
S'\x01\x00\x00\x00\x00\x00\x00\x00'
p330
tp331
Rp332
tp333
a(g206
(g210
S'\x03\x00\x00\x00\x00\x00\x00\x00'
p334
tp335
Rp336
g231
g206
(g210
S'\x01\x00\x00\x00\x00\x00\x00\x00'
p337
tp338
Rp339
tp340
aNaNaNaNaNaNaNaNaNaNaNaNaNaNaNaNaNaNaNaNaNaNaNaNaNaNaNaNaNaNaNaNaNaNaNaNasg94
g0
(g95
g2
Ntp341
Rp342
(dp343
g99
Vif run:\u000a  sel = Eff > min_eff\u000a  grouping_columns =   [\u000a      Treatment[sel],\u000a       RunType[sel], \u000a      BRpl[sel],      \u000a    ]\u000a  if True:\u000a    Groups, groupedCt = groupBy(\u000a      grouping_columns, Ct[sel])\u000a    Groups, groupedEff = groupBy(\u000a      grouping_columns, Eff[sel])\u000a    GroupedCt = roundValues(groupedCt,2)\u000a    GroupedEff = roundValues(groupedEff,2)\u000a    s.setColumnValues('Groups', Groups)\u000a    s.setColumnValues('GroupedCt', GroupedCt)\u000a    s.setColumnValues('GroupedEff', GroupedEff)
p344
sg100
g203
sg101
I00
sg102
I00
sg103
Vif run:\u000a  sel = Eff > min_eff\u000a  grouping_columns =   [\u000a      Treatment[sel],\u000a       RunType[sel], \u000a      BRpl[sel],      \u000a    ]\u000a  if True:\u000a    Groups, groupedCt = groupBy(\u000a      grouping_columns, Ct[sel])\u000a    Groups, groupedEff = groupBy(\u000a      grouping_columns, Eff[sel])\u000a    GroupedCt = roundValues(groupedCt,2)\u000a    GroupedEff = roundValues(groupedEff,2)\u000a    s.setColumnValues('Groups', Groups)\u000a    s.setColumnValues('GroupedCt', GroupedCt)\u000a    s.setColumnValues('GroupedEff', GroupedEff)
p345
sbsg104
g0
(g105
g106
(g107
g108
tp346
tp347
Rp348
sg112
VGroups
p349
sbag0
(g32
g2
Ntp350
Rp351
(dp352
g36
I00
sg37
g4
sg38
(lp353
(lp354
F0.84
aF0.89
aF0.9
aa(lp355
F0.83
aF0.83
aF0.85
aa(lp356
F0.82
aF0.85
aF0.82
aa(lp357
F0.94
aF0.83
aF0.84
aa(lp358
F0.8
aF0.84
aF0.79
aa(lp359
F0.83
aF0.8
aF0.83
aa(lp360
F0.92
aF0.98
aF0.9
aa(lp361
F0.9
aF0.83
aF0.84
aa(lp362
F0.87
aF0.85
aF0.83
aa(lp363
F0.79
aF0.84
aF0.86
aa(lp364
F0.83
aF0.82
aF0.83
aa(lp365
F0.81
aF0.82
aF0.8
aa(lp366
F0.84
aF0.8
aF0.81
aa(lp367
F0.77
aF0.87
aF0.81
aa(lp368
F0.78
aF0.77
aF0.79
aa(lp369
F0.85
aF0.85
aF0.84
aa(lp370
F0.87
aF0.9
aF0.86
aa(lp371
F0.82
aF0.82
aF0.79
aaNaNaNaNaNaNaNaNaNaNaNaNaNaNaNaNaNaNaNaNaNaNaNaNaNaNaNaNaNaNaNaNaNaNaNaNasg94
g0
(g95
g2
Ntp372
Rp373
(dp374
g99
Nsg100
g351
sg101
I00
sg102
I00
sg103
Nsbsg104
g0
(g105
g106
(g107
g108
tp375
tp376
Rp377
sg112
VGroupedEff
p378
sbag0
(g32
g2
Ntp379
Rp380
(dp381
g36
I00
sg37
g4
sg38
(lp382
(lp383
F23.0
aF22.86
aF22.8
aa(lp384
F18.24
aF18.22
aF18.36
aa(lp385
F19.72
aF19.75
aF20.01
aa(lp386
F26.68
aF27.13
aF27.21
aa(lp387
F26.76
aF26.71
aF26.19
aa(lp388
F29.98
aF30.12
aF29.41
aa(lp389
F19.92
aF19.85
aF20.0
aa(lp390
F21.86
aF22.09
aF21.84
aa(lp391
F23.89
aF23.54
aF24.27
aa(lp392
F22.18
aF21.71
aF21.75
aa(lp393
F23.88
aF23.42
aF23.63
aa(lp394
F24.59
aF24.61
aF24.34
aa(lp395
F29.95
aF30.45
aF29.88
aa(lp396
F23.22
aF23.8
aF23.49
aa(lp397
F26.37
aF26.36
aF26.17
aa(lp398
F24.8
aF24.97
aF24.63
aa(lp399
F18.91
aF18.78
aF18.8
aa(lp400
F20.5
aF20.47
aF20.28
aaNaNaNaNaNaNaNaNaNaNaNaNaNaNaNaNaNaNaNaNaNaNaNaNaNaNaNaNaNaNaNaNaNaNaNaNasg94
g0
(g95
g2
Ntp401
Rp402
(dp403
g99
Nsg100
g380
sg101
I00
sg102
I00
sg103
Nsbsg104
g0
(g105
g106
(g107
g108
tp404
tp405
Rp406
sg112
VGroupedCt
p407
sbag0
(g32
g2
Ntp408
Rp409
(dp410
g36
I00
sg37
g4
sg38
(lp411
(lp412
F23.0
aF22.9
aF22.8
aa(lp413
F18.2
aF18.2
aF18.4
aa(lp414
F19.7
aF19.8
aF20.0
aa(lp415
F26.7
aF27.1
aF27.2
aa(lp416
F26.8
aF26.7
aF26.2
aa(lp417
F30.0
aF30.1
aF29.4
aa(lp418
F19.9
aF19.9
aF20.0
aa(lp419
F21.9
aF22.1
aF21.8
aa(lp420
F23.9
aF23.5
aF24.3
aa(lp421
F22.2
aF21.7
aF21.8
aa(lp422
F23.9
aF23.4
aF23.6
aa(lp423
F24.6
aF24.6
aF24.3
aa(lp424
F29.9
aF30.4
aF29.9
aa(lp425
F23.2
aF23.8
aF23.5
aa(lp426
F26.4
aF26.4
aF26.2
aa(lp427
F24.8
aF25.0
aF24.6
aa(lp428
F18.9
aF18.8
aF18.8
aa(lp429
F20.5
aF20.5
aF20.3
aaNaNaNaNaNaNaNaNaNaNaNaNaNaNaNaNaNaNaNaNaNaNaNaNaNaNaNaNaNaNaNaNaNaNaNaNasg94
g0
(g95
g2
Ntp430
Rp431
(dp432
g99
Vif run:\u000a  length = len(Groups)\u000a  StdFilteredGroupedCt = roundValues([filterExtremes(g, max_std, 2) for g in pruneNulls(GroupedCt, required_length=length)])\u000a  s.setColumnValues('StdFilteredGroupedCt', StdFilteredGroupedCt)
p433
sg100
g409
sg101
I00
sg102
I00
sg103
Vif run:\u000a  length = len(Groups)\u000a  StdFilteredGroupedCt = roundValues([filterExtremes(g, max_std, 2) for g in pruneNulls(GroupedCt, required_length=length)])\u000a  s.setColumnValues('StdFilteredGroupedCt', StdFilteredGroupedCt)
p434
sbsg104
g0
(g105
g106
(g107
g108
tp435
tp436
Rp437
sg112
VStdFilteredGroupedCt
p438
sbag0
(g32
g2
Ntp439
Rp440
(dp441
g36
I00
sg37
g4
sg38
(lp442
F22.9
aF18.3
aF19.8
aF27.0
aF26.6
aF29.8
aF19.9
aF21.9
aF23.9
aF21.9
aF23.6
aF24.5
aF30.1
aF23.5
aF26.3
aF24.8
aF18.8
aF20.4
aFnan
aFnan
aFnan
aFnan
aFnan
aFnan
aFnan
aFnan
aFnan
aFnan
aFnan
aFnan
aFnan
aFnan
aFnan
aFnan
aFnan
aFnan
aFnan
aFnan
aFnan
aFnan
aFnan
aFnan
aFnan
aFnan
aFnan
aFnan
aFnan
aFnan
aFnan
aFnan
aFnan
aFnan
aFnan
aFnan
asg94
g0
(g95
g2
Ntp443
Rp444
(dp445
g99
Vif run:\u000a  MeanCt = [np.mean(g) for g in StdFilteredGroupedCt]\u000a  MeanCt = roundValues(MeanCt,1)\u000a  s.setColumnValues('MeanCt', MeanCt)\u000a  StdCt = [np.std(g, ddof=1) for g in StdFilteredGroupedCt]\u000a  StdCt = roundValues(StdCt,3)\u000a  s.setColumnValues('StdCt', StdCt)\u000as.setColumnVisibility(['Groups', 'GroupedEff', 'GroupedCt', 'StdFilteredGroupedCt', 'MeanCt', 'StdCt'], is_visible=show_block1)
p446
sg100
g440
sg101
I00
sg102
I00
sg103
Vif run:\u000a  MeanCt = [np.mean(g) for g in StdFilteredGroupedCt]\u000a  MeanCt = roundValues(MeanCt,1)\u000a  s.setColumnValues('MeanCt', MeanCt)\u000a  StdCt = [np.std(g, ddof=1) for g in StdFilteredGroupedCt]\u000a  StdCt = roundValues(StdCt,3)\u000a  s.setColumnValues('StdCt', StdCt)\u000as.setColumnVisibility(['Groups', 'GroupedEff', 'GroupedCt', 'StdFilteredGroupedCt', 'MeanCt', 'StdCt'], is_visible=show_block1)
p447
sbsg104
g0
(g105
g106
(g107
g108
tp448
tp449
Rp450
sg112
VMeanCt
p451
sbag0
(g32
g2
Ntp452
Rp453
(dp454
g36
I00
sg37
g4
sg38
(lp455
F0.1
aF0.115
aF0.153
aF0.265
aF0.321
aF0.379
aF0.058
aF0.153
aF0.4
aF0.265
aF0.252
aF0.173
aF0.289
aF0.3
aF0.115
aF0.2
aF0.058
aF0.115
aFnan
aFnan
aFnan
aFnan
aFnan
aFnan
aFnan
aFnan
aFnan
aFnan
aFnan
aFnan
aFnan
aFnan
aFnan
aFnan
aFnan
aFnan
aFnan
aFnan
aFnan
aFnan
aFnan
aFnan
aFnan
aFnan
aFnan
aFnan
aFnan
aFnan
aFnan
aFnan
aFnan
aFnan
aFnan
aFnan
asg94
g0
(g95
g2
Ntp456
Rp457
(dp458
g99
Nsg100
g453
sg101
I00
sg102
I00
sg103
Nsbsg104
g0
(g105
g106
(g107
g108
tp459
tp460
Rp461
sg112
VStdCt
p462
sbag0
(g32
g2
Ntp463
Rp464
(dp465
g36
I00
sg37
g4
sg38
(lp466
(lp467
g215
ag218
aa(lp468
g238
ag241
aa(lp469
g245
ag248
aa(lp470
g252
ag255
aa(lp471
g301
ag304
aa(lp472
g322
ag325
aaNaNaNaNaNaNaNaNaNaNaNaNaNaNaNaNaNaNaNaNaNaNaNaNaNaNaNaNaNaNaNaNaNaNaNaNaNaNaNaNaNaNaNaNaNaNaNaNasg94
g0
(g95
g2
Ntp473
Rp474
(dp475
g99
Vif run:\u000a      tabularize(s, 'Groups', 1, 'MeanCt', \u000a          new_category_colnm='BioRuns',\u000a          values_colnm_prefix='Gene_')\u000a      BioRuns = s.getColumnValues('BioRuns')\u000a      Gene_I = s.getColumnValues('Gene_I')\u000a      Gene_R1 = s.getColumnValues('Gene_R1')\u000a      Gene_R2 = s.getColumnValues('Gene_R2')
p476
sg100
g464
sg101
I00
sg102
I00
sg103
Vif run:\u000a      tabularize(s, 'Groups', 1, 'MeanCt', \u000a          new_category_colnm='BioRuns',\u000a          values_colnm_prefix='Gene_')\u000a      BioRuns = s.getColumnValues('BioRuns')\u000a      Gene_I = s.getColumnValues('Gene_I')\u000a      Gene_R1 = s.getColumnValues('Gene_R1')\u000a      Gene_R2 = s.getColumnValues('Gene_R2')
p477
sbsg104
g0
(g105
g106
(g107
g108
tp478
tp479
Rp480
sg112
VBioRuns
p481
sbag0
(g32
g2
Ntp482
Rp483
(dp484
g36
I00
sg37
g4
sg38
(lp485
F22.9
aF27.0
aF26.6
aF29.8
aF30.1
aF24.8
aFnan
aFnan
aFnan
aFnan
aFnan
aFnan
aFnan
aFnan
aFnan
aFnan
aFnan
aFnan
aFnan
aFnan
aFnan
aFnan
aFnan
aFnan
aFnan
aFnan
aFnan
aFnan
aFnan
aFnan
aFnan
aFnan
aFnan
aFnan
aFnan
aFnan
aFnan
aFnan
aFnan
aFnan
aFnan
aFnan
aFnan
aFnan
aFnan
aFnan
aFnan
aFnan
aFnan
aFnan
aFnan
aFnan
aFnan
aFnan
asg94
g0
(g95
g2
Ntp486
Rp487
(dp488
g99
Nsg100
g483
sg101
I00
sg102
I00
sg103
Nsbsg104
g0
(g105
g106
(g107
g108
tp489
tp490
Rp491
sg112
S'Gene_I'
p492
sbag0
(g32
g2
Ntp493
Rp494
(dp495
g36
I00
sg37
g4
sg38
(lp496
F18.3
aF19.9
aF21.9
aF23.9
aF23.5
aF18.8
aFnan
aFnan
aFnan
aFnan
aFnan
aFnan
aFnan
aFnan
aFnan
aFnan
aFnan
aFnan
aFnan
aFnan
aFnan
aFnan
aFnan
aFnan
aFnan
aFnan
aFnan
aFnan
aFnan
aFnan
aFnan
aFnan
aFnan
aFnan
aFnan
aFnan
aFnan
aFnan
aFnan
aFnan
aFnan
aFnan
aFnan
aFnan
aFnan
aFnan
aFnan
aFnan
aFnan
aFnan
aFnan
aFnan
aFnan
aFnan
asg94
g0
(g95
g2
Ntp497
Rp498
(dp499
g99
Nsg100
g494
sg101
I00
sg102
I00
sg103
Nsbsg104
g491
sg112
S'Gene_R1'
p500
sbag0
(g32
g2
Ntp501
Rp502
(dp503
g36
I00
sg37
g4
sg38
(lp504
F19.8
aF21.9
aF23.6
aF24.5
aF26.3
aF20.4
aFnan
aFnan
aFnan
aFnan
aFnan
aFnan
aFnan
aFnan
aFnan
aFnan
aFnan
aFnan
aFnan
aFnan
aFnan
aFnan
aFnan
aFnan
aFnan
aFnan
aFnan
aFnan
aFnan
aFnan
aFnan
aFnan
aFnan
aFnan
aFnan
aFnan
aFnan
aFnan
aFnan
aFnan
aFnan
aFnan
aFnan
aFnan
aFnan
aFnan
aFnan
aFnan
aFnan
aFnan
aFnan
aFnan
aFnan
aFnan
asg94
g0
(g95
g2
Ntp505
Rp506
(dp507
g99
Nsg100
g502
sg101
I00
sg102
I00
sg103
Nsbsg104
g491
sg112
S'Gene_R2'
p508
sbag0
(g32
g2
Ntp509
Rp510
(dp511
g36
I00
sg37
g4
sg38
(lp512
F0.04123
aF0.00729
aF0.03847
aF0.01675
aF0.01031
aF0.01563
aFnan
aFnan
aFnan
aFnan
aFnan
aFnan
aFnan
aFnan
aFnan
aFnan
aFnan
aFnan
aFnan
aFnan
aFnan
aFnan
aFnan
aFnan
aFnan
aFnan
aFnan
aFnan
aFnan
aFnan
aFnan
aFnan
aFnan
aFnan
aFnan
aFnan
aFnan
aFnan
aFnan
aFnan
aFnan
aFnan
aFnan
aFnan
aFnan
aFnan
aFnan
aFnan
aFnan
aFnan
aFnan
aFnan
aFnan
aFnan
asg94
g0
(g95
g2
Ntp513
Rp514
(dp515
g99
VExprR1 = roundValues(2**(Gene_R1 - Gene_I),5)
p516
sg100
g510
sg101
I01
sg102
I00
sg103
VroundValues(2**(Gene_R1 - Gene_I),5)
p517
sbsg104
g0
(g105
g106
(g107
g108
tp518
tp519
Rp520
sg112
VExprR1
p521
sbag0
(g32
g2
Ntp522
Rp523
(dp524
g36
I00
sg37
g4
sg38
(lp525
F0.11663
aF0.02916
aF0.125
aF0.02538
aF0.07179
aF0.04737
aFnan
aFnan
aFnan
aFnan
aFnan
aFnan
aFnan
aFnan
aFnan
aFnan
aFnan
aFnan
aFnan
aFnan
aFnan
aFnan
aFnan
aFnan
aFnan
aFnan
aFnan
aFnan
aFnan
aFnan
aFnan
aFnan
aFnan
aFnan
aFnan
aFnan
aFnan
aFnan
aFnan
aFnan
aFnan
aFnan
aFnan
aFnan
aFnan
aFnan
aFnan
aFnan
aFnan
aFnan
aFnan
aFnan
aFnan
aFnan
asg94
g0
(g95
g2
Ntp526
Rp527
(dp528
g99
VExprR2 = roundValues(2**(Gene_R2 - Gene_I),5)
p529
sg100
g523
sg101
I01
sg102
I00
sg103
VroundValues(2**(Gene_R2 - Gene_I),5)
p530
sbsg104
g0
(g105
g106
(g107
g108
tp531
tp532
Rp533
sg112
VExprR2
p534
sbag0
(g32
g2
Ntp535
Rp536
(dp537
g36
I00
sg37
g4
sg38
(lp538
F0.069
aF0.015
aF0.069
aF0.021
aF0.027
aF0.027
aFnan
aFnan
aFnan
aFnan
aFnan
aFnan
aFnan
aFnan
aFnan
aFnan
aFnan
aFnan
aFnan
aFnan
aFnan
aFnan
aFnan
aFnan
aFnan
aFnan
aFnan
aFnan
aFnan
aFnan
aFnan
aFnan
aFnan
aFnan
aFnan
aFnan
aFnan
aFnan
aFnan
aFnan
aFnan
aFnan
aFnan
aFnan
aFnan
aFnan
aFnan
aFnan
aFnan
aFnan
aFnan
aFnan
aFnan
aFnan
asg94
g0
(g95
g2
Ntp539
Rp540
(dp541
g99
Vif run:\u000a  GeoMean = roundValues(np.sqrt(ExprR1*ExprR2), 3)\u000as.setColumnVisibility(['BioRuns', 'Gene_I', 'Gene_R1', 'Gene_R2', 'ExprR1', 'ExprR2', 'GeoMean'], is_visible=show_block2)
p542
sg100
g536
sg101
I00
sg102
I00
sg103
Vif run:\u000a  GeoMean = roundValues(np.sqrt(ExprR1*ExprR2), 3)\u000as.setColumnVisibility(['BioRuns', 'Gene_I', 'Gene_R1', 'Gene_R2', 'ExprR1', 'ExprR2', 'GeoMean'], is_visible=show_block2)
p543
sbsg104
g0
(g105
g106
(g107
g108
tp544
tp545
Rp546
sg112
VGeoMean
p547
sbasS'_columns'
p548
(lp549
g0
(g32
g2
Ntp550
Rp551
(dp552
g36
I01
sg37
g4
sg38
(lp553
S'1'
p554
aS'2'
p555
aS'3'
p556
aS'4'
p557
aS'5'
p558
aS'6'
p559
aS'7'
p560
aS'8'
p561
aS'9'
p562
aS'10'
p563
aS'11'
p564
aS'12'
p565
aS'13'
p566
aS'14'
p567
aS'15'
p568
aS'16'
p569
aS'17'
p570
aS'18'
p571
aS'19'
p572
aS'20'
p573
aS'21'
p574
aS'22'
p575
aS'23'
p576
aS'24'
p577
aS'25'
p578
aS'26'
p579
aS'27'
p580
aS'28'
p581
aS'29'
p582
aS'30'
p583
aS'31'
p584
aS'32'
p585
aS'33'
p586
aS'34'
p587
aS'35'
p588
aS'36'
p589
aS'37'
p590
aS'38'
p591
aS'39'
p592
aS'40'
p593
aS'41'
p594
aS'42'
p595
aS'43'
p596
aS'44'
p597
aS'45'
p598
aS'46'
p599
aS'47'
p600
aS'48'
p601
aS'49'
p602
aS'50'
p603
aS'51'
p604
aS'52'
p605
aS'53'
p606
aS'54'
p607
asg94
g0
(g95
g2
Ntp608
Rp609
(dp610
g99
Nsg100
g551
sg101
I00
sg102
I00
sg103
Nsbsg104
g0
(g105
g106
(g107
g108
tp611
tp612
Rp613
sg112
S'row'
p614
sbag0
(g32
g2
Ntp615
Rp616
(dp617
g36
I00
sg37
g4
sg38
(lp618
Vgene
p619
aVrun
p620
aVshow_raw
p621
aVshow_block1
p622
aVshow_block2
p623
aVshow_block3
p624
aVmax_std
p625
aVmin_eff
p626
aVnan
p627
aVnan
p628
aVnan
p629
aVnan
p630
aVnan
p631
aVnan
p632
aVnan
p633
aVnan
p634
aVnan
p635
aVnan
p636
aVnan
p637
aVnan
p638
aVnan
p639
aVnan
p640
aVnan
p641
aVnan
p642
aVnan
p643
aVnan
p644
aVnan
p645
aVnan
p646
aVnan
p647
aVnan
p648
aVnan
p649
aVnan
p650
aVnan
p651
aVnan
p652
aVnan
p653
aVnan
p654
aVnan
p655
aVnan
p656
aVnan
p657
aVnan
p658
aVnan
p659
aVnan
p660
aVnan
p661
aVnan
p662
aVnan
p663
aVnan
p664
aVnan
p665
aVnan
p666
aVnan
p667
aVnan
p668
aVnan
p669
aVnan
p670
aVnan
p671
aVnan
p672
asg94
g0
(g95
g2
Ntp673
Rp674
(dp675
g99
Nsg100
g616
sg101
I00
sg102
I00
sg103
Nsbsg104
g0
(g105
g106
(g107
g108
tp676
tp677
Rp678
sg112
VParmNames
p679
sbag0
(g32
g2
Ntp680
Rp681
(dp682
g36
I00
sg37
g4
sg38
(lp683
VGene1
p684
aVTrue
p685
aVFalse
p686
aVFalse
p687
aVFalse
p688
aVTrue
p689
aV0.5
p690
aV0.7
p691
aV
p692
ag692
aVnan
p693
aVnan
p694
aVnan
p695
aVnan
p696
aVnan
p697
aVnan
p698
aVnan
p699
aVnan
p700
aVnan
p701
aVnan
p702
aVnan
p703
aVnan
p704
aVnan
p705
aVnan
p706
aVnan
p707
aVnan
p708
aVnan
p709
aVnan
p710
aVnan
p711
aVnan
p712
aVnan
p713
aVnan
p714
aVnan
p715
aVnan
p716
aVnan
p717
aVnan
p718
aVnan
p719
aVnan
p720
aVnan
p721
aVnan
p722
aVnan
p723
aVnan
p724
aVnan
p725
aVnan
p726
aVnan
p727
aVnan
p728
aVnan
p729
aVnan
p730
aVnan
p731
aVnan
p732
aVnan
p733
aVnan
p734
aVnan
p735
aVnan
p736
asg94
g0
(g95
g2
Ntp737
Rp738
(dp739
g99
Vxlsx_path = '/mnt/hgfs/josephhellerstein/home/Technical/SciSheets/CaseStudies/Kristen/workbooks/data.xlsx'\u000as.setColumnVisibility()\u000agene = ParmValues[0]\u000arun = ParmValues[1] == 'True'\u000ashow_raw = ParmValues[2] == 'True'\u000ashow_block1 = ParmValues[3] == 'True'\u000ashow_block2 = ParmValues[4] == 'True'\u000ashow_block3 = ParmValues[5] == 'True'\u000amax_std  = float(ParmValues[6])\u000amin_eff = float(ParmValues[7])\u000aworksheet = gene + "-I"\u000aif False:\u000a  Groups = []\u000a  GroupedCt = []\u000a  GroupedEff = []\u000a  MeanCt = []\u000a  Imp = []\u000a  s.deleteColumn('Ct')\u000a  s.deleteColumn('RunType')\u000a  s.deleteColumn('BRpl')\u000a  s.deleteColumn('TRpl')\u000a  s.deleteColumn('Treatment')\u000a  s.deleteColumn('SmplName')\u000a  s.deleteColumn('Eff')\u000aif run:\u000a  importExcelToTable(s, xlsx_path, worksheet=worksheet)\u000a  BRpl = s.getColumnValues('BRpl')\u000a  Ct = s.getColumnValues('Ct')\u000a  Eff = s.getColumnValues('Eff')\u000a  RunType = s.getColumnValues('RunType')\u000a  TRpl = s.getColumnValues('TRpl')\u000a  Treatment = s.getColumnValues('Treatment')\u000as.setColumnVisibility(['SmplName'], False)\u000as.setColumnVisibility(['BRpl', 'Ct', 'Eff', 'RunType', 'TRpl', 'Treatment'], is_visible=show_raw)
p740
sg100
g681
sg101
I00
sg102
I00
sg103
Vxlsx_path = '/mnt/hgfs/josephhellerstein/home/Technical/SciSheets/CaseStudies/Kristen/workbooks/data.xlsx'\u000as.setColumnVisibility()\u000agene = ParmValues[0]\u000arun = ParmValues[1] == 'True'\u000ashow_raw = ParmValues[2] == 'True'\u000ashow_block1 = ParmValues[3] == 'True'\u000ashow_block2 = ParmValues[4] == 'True'\u000ashow_block3 = ParmValues[5] == 'True'\u000amax_std  = float(ParmValues[6])\u000amin_eff = float(ParmValues[7])\u000aworksheet = gene + "-I"\u000aif False:\u000a  Groups = []\u000a  GroupedCt = []\u000a  GroupedEff = []\u000a  MeanCt = []\u000a  Imp = []\u000a  s.deleteColumn('Ct')\u000a  s.deleteColumn('RunType')\u000a  s.deleteColumn('BRpl')\u000a  s.deleteColumn('TRpl')\u000a  s.deleteColumn('Treatment')\u000a  s.deleteColumn('SmplName')\u000a  s.deleteColumn('Eff')\u000aif run:\u000a  importExcelToTable(s, xlsx_path, worksheet=worksheet)\u000a  BRpl = s.getColumnValues('BRpl')\u000a  Ct = s.getColumnValues('Ct')\u000a  Eff = s.getColumnValues('Eff')\u000a  RunType = s.getColumnValues('RunType')\u000a  TRpl = s.getColumnValues('TRpl')\u000a  Treatment = s.getColumnValues('Treatment')\u000as.setColumnVisibility(['SmplName'], False)\u000as.setColumnVisibility(['BRpl', 'Ct', 'Eff', 'RunType', 'TRpl', 'Treatment'], is_visible=show_raw)
p741
sbsg104
g0
(g105
g106
(g107
g108
tp742
tp743
Rp744
sg112
VParmValues
p745
sbag203
ag351
ag380
ag409
ag440
ag453
ag464
ag483
ag494
ag502
ag510
ag523
ag536
ag0
(g32
g2
Ntp746
Rp747
(dp748
g36
I00
sg37
g4
sg38
(lp749
F0.0
aF1.0
aF2.0
aF3.0
aFnan
aFnan
aFnan
aFnan
aFnan
aFnan
aFnan
aFnan
aFnan
aFnan
aFnan
aFnan
aFnan
aFnan
aFnan
aFnan
aFnan
aFnan
aFnan
aFnan
aFnan
aFnan
aFnan
aFnan
aFnan
aFnan
aFnan
aFnan
aFnan
aFnan
aFnan
aFnan
aFnan
aFnan
aFnan
aFnan
aFnan
aFnan
aFnan
aFnan
aFnan
aFnan
aFnan
aFnan
aFnan
aFnan
aFnan
aFnan
aFnan
aFnan
asg94
g0
(g95
g2
Ntp750
Rp751
(dp752
g99
Vif run:\u000a  cat_vals = [br[0] for br in pruneNulls(BioRuns)]\u000a  clean_geo = [x for x in GeoMean if x is not None]\u000a  GeoGroups, groupedGeoMeans = groupBy(cat_vals, clean_geo)\u000a  GroupedGeoMeans = roundValues(groupedGeoMeans, 3)
p753
sg100
g747
sg101
I00
sg102
I00
sg103
Vif run:\u000a  cat_vals = [br[0] for br in pruneNulls(BioRuns)]\u000a  clean_geo = [x for x in GeoMean if x is not None]\u000a  GeoGroups, groupedGeoMeans = groupBy(cat_vals, clean_geo)\u000a  GroupedGeoMeans = roundValues(groupedGeoMeans, 3)
p754
sbsg104
g0
(g105
g106
(g107
g108
tp755
tp756
Rp757
sg112
VGeoGroups
p758
sbag0
(g32
g2
Ntp759
Rp760
(dp761
g36
I00
sg37
g4
sg38
(lp762
cnumpy.core.multiarray
_reconstruct
p763
(g107
(I0
tp764
S'b'
p765
tp766
Rp767
(I1
(I1
tp768
g207
(S'f8'
p769
I0
I1
tp770
Rp771
(I3
S'<'
p772
NNNI-1
I-1
I0
tp773
bI00
S'D\x8bl\xe7\xfb\xa9\xb1?'
p774
tp775
bag763
(g107
(I0
tp776
g765
tp777
Rp778
(I1
(I3
tp779
g771
I00
S'\xb8\x1e\x85\xebQ\xb8\x8e?D\x8bl\xe7\xfb\xa9\xb1?\x1b/\xdd$\x06\x81\x95?'
p780
tp781
bag763
(g107
(I0
tp782
g765
tp783
Rp784
(I1
(I1
tp785
g771
I00
S'\xd9\xce\xf7S\xe3\xa5\x9b?'
p786
tp787
bag763
(g107
(I0
tp788
g765
tp789
Rp790
(I1
(I1
tp791
g771
I00
S'\xd9\xce\xf7S\xe3\xa5\x9b?'
p792
tp793
baNaNaNaNaNaNaNaNaNaNaNaNaNaNaNaNaNaNaNaNaNaNaNaNaNaNaNaNaNaNaNaNaNaNaNaNaNaNaNaNaNaNaNaNaNaNaNaNaNaNasg94
g0
(g95
g2
Ntp794
Rp795
(dp796
g99
Nsg100
g760
sg101
I00
sg102
I00
sg103
Nsbsg104
g0
(g105
g106
(g107
g108
tp797
tp798
Rp799
sg112
VGroupedGeoMeans
p800
sbag0
(g32
g2
Ntp801
Rp802
(dp803
g36
I00
sg37
g4
sg38
(lp804
g763
(g107
(I0
tp805
g765
tp806
Rp807
(I1
(I1
tp808
g771
I00
S'\x00\x00\x00\x00\x00\x00\xf0?'
p809
tp810
bag763
(g107
(I0
tp811
g765
tp812
Rp813
(I1
(I3
tp814
g771
I00
S'-\xb2\x9d\xef\xa7\xc6\xcb?\x00\x00\x00\x00\x00\x00\xf0?\xdb\xf9~j\xbct\xd3?'
p815
tp816
bag763
(g107
(I0
tp817
g765
tp818
Rp819
(I1
(I1
tp820
g771
I00
S'\xa0\x1a/\xdd$\x06\xd9?'
p821
tp822
bag763
(g107
(I0
tp823
g765
tp824
Rp825
(I1
(I1
tp826
g771
I00
S'\xa0\x1a/\xdd$\x06\xd9?'
p827
tp828
baNaNaNaNaNaNaNaNaNaNaNaNaNaNaNaNaNaNaNaNaNaNaNaNaNaNaNaNaNaNaNaNaNaNaNaNaNaNaNaNaNaNaNaNaNaNaNaNaNaNasg94
g0
(g95
g2
Ntp829
Rp830
(dp831
g99
Vif run:\u000a  ref = np.mean(GroupedGeoMeans[0])\u000a  NrmlGeoGroupedMeans = []\u000a  truncated_group = [g for g in GroupedGeoMeans if g is not None]\u000a  for g in truncated_group:\u000a    new_g = [x/ref for x in g]\u000a    NrmlGeoGroupedMeans.append(new_g)\u000a  NrmlGeoGroupedMeans = roundValues(NrmlGeoGroupedMeans, 3)
p832
sg100
g802
sg101
I00
sg102
I00
sg103
Vif run:\u000a  ref = np.mean(GroupedGeoMeans[0])\u000a  NrmlGeoGroupedMeans = []\u000a  truncated_group = [g for g in GroupedGeoMeans if g is not None]\u000a  for g in truncated_group:\u000a    new_g = [x/ref for x in g]\u000a    NrmlGeoGroupedMeans.append(new_g)\u000a  NrmlGeoGroupedMeans = roundValues(NrmlGeoGroupedMeans, 3)
p833
sbsg104
g0
(g105
g106
(g107
g108
tp834
tp835
Rp836
sg112
VNrmlGeoGroupedMeans
p837
sbag0
(g32
g2
Ntp838
Rp839
(dp840
g36
I00
sg37
g4
sg38
(lp841
F1.0
aF0.507
aF0.391
aF0.391
aFnan
aFnan
aFnan
aFnan
aFnan
aFnan
aFnan
aFnan
aFnan
aFnan
aFnan
aFnan
aFnan
aFnan
aFnan
aFnan
aFnan
aFnan
aFnan
aFnan
aFnan
aFnan
aFnan
aFnan
aFnan
aFnan
aFnan
aFnan
aFnan
aFnan
aFnan
aFnan
aFnan
aFnan
aFnan
aFnan
aFnan
aFnan
aFnan
aFnan
aFnan
aFnan
aFnan
aFnan
aFnan
aFnan
aFnan
aFnan
aFnan
aFnan
asg94
g0
(g95
g2
Ntp842
Rp843
(dp844
g99
Vif run:\u000a  MeanNrmlGeoGroups = [round(np.mean(g), 3) for g in NrmlGeoGroupedMeans]
p845
sg100
g839
sg101
I00
sg102
I00
sg103
Vif run:\u000a  MeanNrmlGeoGroups = [round(np.mean(g), 3) for g in NrmlGeoGroupedMeans]
p846
sbsg104
g0
(g105
g106
(g107
g108
tp847
tp848
Rp849
sg112
VMeanNrmlGeoGroups
p850
sbag0
(g32
g2
Ntp851
Rp852
(dp853
g36
I00
sg37
g4
sg38
(lp854
Fnan
aF0.429
aFnan
aFnan
aFnan
aFnan
aFnan
aFnan
aFnan
aFnan
aFnan
aFnan
aFnan
aFnan
aFnan
aFnan
aFnan
aFnan
aFnan
aFnan
aFnan
aFnan
aFnan
aFnan
aFnan
aFnan
aFnan
aFnan
aFnan
aFnan
aFnan
aFnan
aFnan
aFnan
aFnan
aFnan
aFnan
aFnan
aFnan
aFnan
aFnan
aFnan
aFnan
aFnan
aFnan
aFnan
aFnan
aFnan
aFnan
aFnan
aFnan
aFnan
aFnan
aFnan
asg94
g0
(g95
g2
Ntp855
Rp856
(dp857
g99
Vif run:\u000a  StdNrmlGeoGroups = [round(np.std(g, ddof=1), 3) for g in NrmlGeoGroupedMeans]\u000as.setColumnVisibility(['GeoGroups', 'GroupedGeoMeans', 'NrmlGeoGroupedMeans', 'MeanNrmlGeoGroups', 'StdNrmlGeoGroups'], is_visible=show_block3)\u000a#s.setColumnVisibility()
p858
sg100
g852
sg101
I00
sg102
I00
sg103
Vif run:\u000a  StdNrmlGeoGroups = [round(np.std(g, ddof=1), 3) for g in NrmlGeoGroupedMeans]\u000as.setColumnVisibility(['GeoGroups', 'GroupedGeoMeans', 'NrmlGeoGroupedMeans', 'MeanNrmlGeoGroups', 'StdNrmlGeoGroups'], is_visible=show_block3)\u000a#s.setColumnVisibility()
p859
sbsg104
g0
(g105
g106
(g107
g108
tp860
tp861
Rp862
sg112
VStdNrmlGeoGroups
p863
sbag115
ag123
ag131
ag139
ag34
ag184
ag195
asg22
V/home/ubuntu/SciSheets/mysite/user/guest/tables/kristen_single_gene.pcl
p864
sg112
VSingleGene
p865
sb.