ccopy_reg
_reconstructor
p0
(cscisheets.ui.dt_table
DTTable
p1
c__builtin__
object
p2
Ntp3
Rp4
(dp5
S'_versioned_file'
p6
g0
(cmysite.helpers.versioned_file
VersionedFile
p7
g2
Ntp8
Rp9
(dp10
S'_redo_stack'
p11
g0
(cmysite.helpers.file_stack
FileStack
p12
g2
Ntp13
Rp14
(dp15
S'_dirpath'
p16
S'/home/ubuntu/SciSheets/mysite/user/guest/tables/backup'
p17
sS'_max_depth'
p18
I5
sS'_filename_pfx'
p19
Vkristen_single_gene.r
p20
sbsS'_max_versions'
p21
I5
sS'_undo_stack'
p22
g0
(g12
g2
Ntp23
Rp24
(dp25
g16
g17
sg18
I5
sg19
Vkristen_single_gene.u
p26
sbsS'_checkpoint_history'
p27
(lp28
VCell/Update
p29
aVCell/Update
p30
aVCell/Update
p31
aVCell/Update
p32
aVCell/Update
p33
aVCell/Update
p34
aVCell/Update
p35
aVCell/Update
p36
aVCell/Update
p37
aVCell/Update
p38
aVCell/Update
p39
aVCell/Update
p40
aVColumn/Formula
p41
aVColumn/Formula
p42
aVColumn/Append
p43
aVColumn/Formula
p44
aVColumn/Delete
p45
aVCell/Update
p46
aVColumn/Formula
p47
aVCell/Update
p48
aVCell/Update
p49
aVColumn/Formula
p50
aVColumn/Formula
p51
aVCell/Update
p52
aVColumn/Formula
p53
aVColumn/Formula
p54
aVCell/Update
p55
aVCell/Update
p56
aVCell/Update
p57
aVCell/Update
p58
aVColumn/Formula
p59
aVCell/Update
p60
aVCell/Update
p61
aVCell/Update
p62
aVColumn/Formula
p63
aVCell/Update
p64
aVColumn/Formula
p65
aVColumn/Formula
p66
aVCell/Update
p67
aVCell/Update
p68
aVCell/Update
p69
aVCell/Update
p70
aVCell/Update
p71
aVCell/Update
p72
aVCell/Update
p73
aVCell/Update
p74
aVCell/Update
p75
aVColumn/Formula
p76
aVCell/Update
p77
aVCell/Update
p78
aVCell/Update
p79
aVCell/Update
p80
aVCell/Update
p81
aVCell/Update
p82
aVCell/Update
p83
aVCell/Update
p84
aVCell/Update
p85
aVCell/Update
p86
aVCell/Update
p87
aVCell/Update
p88
aVColumn/Formula
p89
aVColumn/Formula
p90
aVColumn/Formula
p91
aVCell/Update
p92
aVCell/Update
p93
aVCell/Update
p94
aVCell/Update
p95
aVCell/Update
p96
aVColumn/Formula
p97
aVCell/Update
p98
aVCell/Update
p99
aVCell/Update
p100
aVCell/Update
p101
aVCell/Update
p102
aVCell/Update
p103
aVCell/Update
p104
aVColumn/Formula
p105
aVColumn/Formula
p106
aVColumn/Formula
p107
aVCell/Update
p108
aVCell/Update
p109
aVColumn/Formula
p110
aVCell/Update
p111
aVCell/Update
p112
aVCell/Update
p113
aVCell/Update
p114
aVCell/Update
p115
aVCell/Update
p116
aVCell/Update
p117
aVCell/Update
p118
aVColumn/Formula
p119
aVCell/Update
p120
aVColumn/Formula
p121
aVColumn/Formula
p122
aVColumn/Formula
p123
aVCell/Update
p124
aVCell/Update
p125
aVColumn/Formula
p126
aVColumn/Formula
p127
aVColumn/Formula
p128
aVColumn/Formula
p129
aVCell/Update
p130
aVColumn/Formula
p131
aVColumn/Formula
p132
aVColumn/Formula
p133
aVCell/Update
p134
aVCell/Update
p135
aVCell/Update
p136
aVCell/Update
p137
aVCell/Update
p138
aVCell/Update
p139
aVCell/Update
p140
aVCell/Update
p141
aVCell/Update
p142
aVCell/Update
p143
aVColumn/Formula
p144
aVColumn/Formula
p145
aVColumn/Formula
p146
aVColumn/Formula
p147
aVCell/Update
p148
aVCell/Update
p149
aVColumn/Formula
p150
aVCell/Update
p151
aVCell/Update
p152
aVCell/Update
p153
aVCell/Update
p154
aVCell/Update
p155
aVCell/Update
p156
aVCell/Update
p157
aVCell/Update
p158
aVCell/Update
p159
aVCell/Update
p160
aVCell/Update
p161
aVCell/Update
p162
aVCell/Update
p163
aVColumn/Formula
p164
aVColumn/Formula
p165
aVCell/Update
p166
aVCell/Update
p167
aVCell/Update
p168
aVColumn/Formula
p169
aVCell/Update
p170
aVCell/Update
p171
aVCell/Update
p172
aVCell/Update
p173
aVColumn/Formula
p174
aVColumn/Formula
p175
aVColumn/Formula
p176
aVColumn/Formula
p177
aVCell/Update
p178
aVColumn/Formula
p179
aVCell/Update
p180
aVCell/Update
p181
aVCell/Update
p182
aVCell/Update
p183
aVCell/Update
p184
aVCell/Update
p185
aVCell/Update
p186
aVCell/Update
p187
aVCell/Update
p188
aVColumn/Formula
p189
aVCell/Update
p190
aVCell/Update
p191
aVCell/Update
p192
aVCell/Update
p193
aVCell/Update
p194
aVCell/Update
p195
aVCell/Update
p196
aVCell/Update
p197
aVCell/Update
p198
aVCell/Update
p199
aVCell/Update
p200
aVCell/Update
p201
aVCell/Update
p202
aVCell/Update
p203
aVCell/Update
p204
aVCell/Update
p205
aVCell/Update
p206
aVCell/Update
p207
aVCell/Update
p208
aVCell/Update
p209
aVCell/Update
p210
aVCell/Update
p211
aVCell/Update
p212
aVCell/Update
p213
aVCell/Update
p214
aVCell/Update
p215
aVCell/Update
p216
aVCell/Update
p217
aVCell/Update
p218
aVCell/Update
p219
aVCell/Update
p220
aVCell/Update
p221
aVCell/Update
p222
aVCell/Update
p223
aVCell/Update
p224
aVCell/Update
p225
aVCell/Update
p226
aVCell/Update
p227
aVCell/Update
p228
aVCell/Update
p229
aVCell/Update
p230
aVCell/Update
p231
aVCell/Update
p232
aVCell/Update
p233
aVCell/Update
p234
aVCell/Update
p235
aVCell/Update
p236
aVCell/Update
p237
aVCell/Update
p238
aVCell/Update
p239
aVCell/Update
p240
aVCell/Update
p241
aVCell/Update
p242
aVCell/Update
p243
aVCell/Update
p244
aVCell/Update
p245
aVCell/Update
p246
aVCell/Update
p247
aVCell/Update
p248
aVCell/Update
p249
aVCell/Update
p250
aVCell/Update
p251
aVCell/Update
p252
aVCell/Update
p253
aVCell/Update
p254
aVCell/Update
p255
aVCell/Update
p256
aVCell/Update
p257
aVCell/Update
p258
aVCell/Update
p259
aVCell/Update
p260
aVCell/Update
p261
aVCell/Update
p262
aVCell/Update
p263
aVCell/Update
p264
aVCell/Update
p265
aVCell/Update
p266
aVCell/Update
p267
aVCell/Update
p268
aVCell/Update
p269
aVCell/Update
p270
aVCell/Update
p271
aVColumn/Formula
p272
aVColumn/Formula
p273
aVCell/Update
p274
aVCell/Update
p275
aVCell/Update
p276
aVCell/Update
p277
aVColumn/Formula
p278
aVColumn/Formula
p279
aVColumn/Formula
p280
aVCell/Update
p281
aVCell/Update
p282
aVCell/Update
p283
aVCell/Update
p284
aVColumn/Formula
p285
aVColumn/Formula
p286
aVColumn/Formula
p287
aVCell/Update
p288
aVCell/Update
p289
aVColumn/Formula
p290
aVCell/Update
p291
aVCell/Update
p292
aVCell/Update
p293
asS'_filepath'
p294
V/home/ubuntu/SciSheets/mysite/user/guest/tables/kristen_single_gene.pcl
p295
sS'_backup_dir'
p296
g17
sbsS'_namespace'
p297
(dp298
sS'_hidden_columns'
p299
(lp300
g0
(cscisheets.core.column
Column
p301
g2
Ntp302
Rp303
(dp304
S'_asis'
p305
I00
sS'_owning_table'
p306
g4
sS'_cells'
p307
(lp308
(lp309
cnumpy.core.multiarray
scalar
p310
(cnumpy
dtype
p311
(S'i8'
p312
I0
I1
tp313
Rp314
(I3
S'<'
p315
NNNI-1
I-1
I0
tp316
bS'\x00\x00\x00\x00\x00\x00\x00\x00'
p317
tp318
Rp319
aVI
p320
ag310
(g314
S'\x01\x00\x00\x00\x00\x00\x00\x00'
p321
tp322
Rp323
aa(lp324
g310
(g314
S'\x00\x00\x00\x00\x00\x00\x00\x00'
p325
tp326
Rp327
aVR1
p328
ag310
(g314
S'\x01\x00\x00\x00\x00\x00\x00\x00'
p329
tp330
Rp331
aa(lp332
g310
(g314
S'\x00\x00\x00\x00\x00\x00\x00\x00'
p333
tp334
Rp335
aVR2
p336
ag310
(g314
S'\x01\x00\x00\x00\x00\x00\x00\x00'
p337
tp338
Rp339
aa(lp340
g310
(g314
S'\x01\x00\x00\x00\x00\x00\x00\x00'
p341
tp342
Rp343
ag320
ag310
(g314
S'\x01\x00\x00\x00\x00\x00\x00\x00'
p344
tp345
Rp346
aa(lp347
g310
(g314
S'\x01\x00\x00\x00\x00\x00\x00\x00'
p348
tp349
Rp350
ag320
ag310
(g314
S'\x02\x00\x00\x00\x00\x00\x00\x00'
p351
tp352
Rp353
aa(lp354
g310
(g314
S'\x01\x00\x00\x00\x00\x00\x00\x00'
p355
tp356
Rp357
ag320
ag310
(g314
S'\x03\x00\x00\x00\x00\x00\x00\x00'
p358
tp359
Rp360
aa(lp361
g310
(g314
S'\x01\x00\x00\x00\x00\x00\x00\x00'
p362
tp363
Rp364
ag328
ag310
(g314
S'\x01\x00\x00\x00\x00\x00\x00\x00'
p365
tp366
Rp367
aa(lp368
g310
(g314
S'\x01\x00\x00\x00\x00\x00\x00\x00'
p369
tp370
Rp371
ag328
ag310
(g314
S'\x02\x00\x00\x00\x00\x00\x00\x00'
p372
tp373
Rp374
aa(lp375
g310
(g314
S'\x01\x00\x00\x00\x00\x00\x00\x00'
p376
tp377
Rp378
ag328
ag310
(g314
S'\x03\x00\x00\x00\x00\x00\x00\x00'
p379
tp380
Rp381
aa(lp382
g310
(g314
S'\x01\x00\x00\x00\x00\x00\x00\x00'
p383
tp384
Rp385
ag336
ag310
(g314
S'\x01\x00\x00\x00\x00\x00\x00\x00'
p386
tp387
Rp388
aa(lp389
g310
(g314
S'\x01\x00\x00\x00\x00\x00\x00\x00'
p390
tp391
Rp392
ag336
ag310
(g314
S'\x02\x00\x00\x00\x00\x00\x00\x00'
p393
tp394
Rp395
aa(lp396
g310
(g314
S'\x01\x00\x00\x00\x00\x00\x00\x00'
p397
tp398
Rp399
ag336
ag310
(g314
S'\x03\x00\x00\x00\x00\x00\x00\x00'
p400
tp401
Rp402
aa(lp403
g310
(g314
S'\x02\x00\x00\x00\x00\x00\x00\x00'
p404
tp405
Rp406
ag320
ag310
(g314
S'\x01\x00\x00\x00\x00\x00\x00\x00'
p407
tp408
Rp409
aa(lp410
g310
(g314
S'\x02\x00\x00\x00\x00\x00\x00\x00'
p411
tp412
Rp413
ag328
ag310
(g314
S'\x01\x00\x00\x00\x00\x00\x00\x00'
p414
tp415
Rp416
aa(lp417
g310
(g314
S'\x02\x00\x00\x00\x00\x00\x00\x00'
p418
tp419
Rp420
ag336
ag310
(g314
S'\x01\x00\x00\x00\x00\x00\x00\x00'
p421
tp422
Rp423
aa(lp424
g310
(g314
S'\x03\x00\x00\x00\x00\x00\x00\x00'
p425
tp426
Rp427
ag320
ag310
(g314
S'\x01\x00\x00\x00\x00\x00\x00\x00'
p428
tp429
Rp430
aa(lp431
g310
(g314
S'\x03\x00\x00\x00\x00\x00\x00\x00'
p432
tp433
Rp434
ag328
ag310
(g314
S'\x01\x00\x00\x00\x00\x00\x00\x00'
p435
tp436
Rp437
aa(lp438
g310
(g314
S'\x03\x00\x00\x00\x00\x00\x00\x00'
p439
tp440
Rp441
ag336
ag310
(g314
S'\x01\x00\x00\x00\x00\x00\x00\x00'
p442
tp443
Rp444
aaNaNaNaNaNaNaNaNaNaNaNaNaNaNaNaNaNaNaNaNaNaNaNaNaNaNaNaNaNaNaNaNaNaNaNaNaNaNaNaNaNaNaNaNaNaNasS'_formula_statement'
p445
g0
(cscisheets.core.helpers.formula_statement
FormulaStatement
p446
g2
Ntp447
Rp448
(dp449
S'_statement'
p450
Vsel = Eff > min_eff\u000agrouping_columns = [\u000a    Treatment[sel],\u000a     RunType[sel], \u000a    BRpl[sel],      \u000a  ]\u000aGroups, groupedCt = groupBy(\u000a     grouping_columns, Ct[sel])\u000aGroups, groupedEff = groupBy(\u000a     grouping_columns, Eff[sel])\u000aGroups = [[g[0], g[1], g[2]] for g in Groups]\u000aGroupedCt = roundValues(groupedCt,2)\u000aGroupedEff = roundValues(groupedEff,2)
p451
sS'_name'
p452
VGroups
p453
sS'_isExpression'
p454
I00
sS'_isStatement'
p455
I00
sS'_formula'
p456
Vsel = Eff > min_eff\u000agrouping_columns = [\u000a    Treatment[sel],\u000a     RunType[sel], \u000a    BRpl[sel],      \u000a  ]\u000aGroups, groupedCt = groupBy(\u000a     grouping_columns, Ct[sel])\u000aGroups, groupedEff = groupBy(\u000a     grouping_columns, Eff[sel])\u000aGroups = [[g[0], g[1], g[2]] for g in Groups]\u000aGroupedCt = roundValues(groupedCt,2)\u000aGroupedEff = roundValues(groupedEff,2)
p457
sbsS'_data_class'
p458
g0
(cscisheets.core.helpers.api_util
DataClass
p459
c__builtin__
tuple
p460
(cnumpy
ndarray
p461
cscisheets.core.helpers.api_util
makeArray
p462
tp463
tp464
Rp465
sg452
g453
sbag0
(g301
g2
Ntp466
Rp467
(dp468
g305
I00
sg306
g4
sg307
(lp469
(lp470
F0.92
aF0.91
aF0.91
aa(lp471
F0.83
aF0.83
aF0.85
aa(lp472
F0.82
aF0.85
aF0.82
aa(lp473
F0.85
aF0.84
aF0.85
aa(lp474
F0.87
aF0.78
aF0.85
aa(lp475
F0.84
aF0.84
aF0.77
aa(lp476
F0.92
aF0.98
aF0.9
aa(lp477
F0.9
aF0.83
aF0.84
aa(lp478
F0.87
aF0.85
aF0.83
aa(lp479
F0.79
aF0.84
aF0.86
aa(lp480
F0.83
aF0.82
aF0.83
aa(lp481
F0.81
aF0.82
aF0.8
aa(lp482
F0.84
aF0.79
aF0.81
aa(lp483
F0.77
aF0.87
aF0.81
aa(lp484
F0.78
aF0.77
aF0.79
aa(lp485
F0.88
aF0.86
aF0.89
aa(lp486
F0.87
aF0.9
aF0.86
aa(lp487
F0.82
aF0.82
aF0.79
aaNaNaNaNaNaNaNaNaNaNaNaNaNaNaNaNaNaNaNaNaNaNaNaNaNaNaNaNaNaNaNaNaNaNaNaNaNaNaNaNaNaNaNaNaNaNasg445
g0
(g446
g2
Ntp488
Rp489
(dp490
g450
NsS'_column'
p491
g467
sg454
I00
sg455
I00
sg456
Nsbsg458
g0
(g459
g460
(g461
g462
tp492
tp493
Rp494
sg452
VGroupedEff
p495
sbag0
(g301
g2
Ntp496
Rp497
(dp498
g305
I00
sg306
g4
sg307
(lp499
(lp500
F18.31
aF18.29
aF18.15
aa(lp501
F18.24
aF18.22
aF18.36
aa(lp502
F19.72
aF19.75
aF20.01
aa(lp503
F22.42
aF22.5
aF22.44
aa(lp504
F21.92
aF22.03
aF21.94
aa(lp505
F23.4
aF23.47
aF23.41
aa(lp506
F19.92
aF19.85
aF20.0
aa(lp507
F21.86
aF22.09
aF21.84
aa(lp508
F23.89
aF23.54
aF24.27
aa(lp509
F22.18
aF21.71
aF21.75
aa(lp510
F23.88
aF23.42
aF23.63
aa(lp511
F24.59
aF24.61
aF24.34
aa(lp512
F23.48
aF23.31
aF23.45
aa(lp513
F23.22
aF23.8
aF23.49
aa(lp514
F26.37
aF26.36
aF26.17
aa(lp515
F18.82
aF18.97
aF18.92
aa(lp516
F18.91
aF18.78
aF18.8
aa(lp517
F20.5
aF20.47
aF20.28
aaNaNaNaNaNaNaNaNaNaNaNaNaNaNaNaNaNaNaNaNaNaNaNaNaNaNaNaNaNaNaNaNaNaNaNaNaNaNaNaNaNaNaNaNaNaNasg445
g0
(g446
g2
Ntp518
Rp519
(dp520
g450
Nsg491
g497
sg454
I00
sg455
I00
sg456
Nsbsg458
g0
(g459
g460
(g461
g462
tp521
tp522
Rp523
sg452
VGroupedCt
p524
sbag0
(g301
g2
Ntp525
Rp526
(dp527
g305
I00
sg306
g4
sg307
(lp528
(lp529
F18.3
aF18.3
aF18.1
aa(lp530
F18.2
aF18.2
aF18.4
aa(lp531
F19.7
aF19.8
aF20.0
aa(lp532
F22.4
aF22.5
aF22.4
aa(lp533
F21.9
aF22.0
aF21.9
aa(lp534
F23.4
aF23.5
aF23.4
aa(lp535
F19.9
aF19.9
aF20.0
aa(lp536
F21.9
aF22.1
aF21.8
aa(lp537
F23.9
aF23.5
aF24.3
aa(lp538
F22.2
aF21.7
aF21.8
aa(lp539
F23.9
aF23.4
aF23.6
aa(lp540
F24.6
aF24.6
aF24.3
aa(lp541
F23.5
aF23.3
aF23.4
aa(lp542
F23.2
aF23.8
aF23.5
aa(lp543
F26.4
aF26.4
aF26.2
aa(lp544
F18.8
aF19.0
aF18.9
aa(lp545
F18.9
aF18.8
aF18.8
aa(lp546
F20.5
aF20.5
aF20.3
aaNaNaNaNaNaNaNaNaNaNaNaNaNaNaNaNaNaNaNaNaNaNaNaNaNaNaNaNaNaNaNaNaNaNaNaNaNaNaNaNaNaNaNaNaNaNasg445
g0
(g446
g2
Ntp547
Rp548
(dp549
g450
Vlength = len(Groups)\u000aStdFilteredGroupedCt = roundValues([filterExtremes(g, max_std, 2) for g in pruneNulls(GroupedCt,    required_length=length)])\u000a 
p550
sg452
VStdFilteredGroupedCt
p551
sg454
I00
sg455
I00
sg456
Vlength = len(Groups)\u000aStdFilteredGroupedCt = roundValues([filterExtremes(g, max_std, 2) for g in pruneNulls(GroupedCt,    required_length=length)])\u000a 
p552
sbsg458
g0
(g459
g460
(g461
g462
tp553
tp554
Rp555
sg452
g551
sbag0
(g301
g2
Ntp556
Rp557
(dp558
g305
I00
sg306
g4
sg307
(lp559
F18.2
aF18.3
aF19.8
aF22.4
aF21.9
aF23.4
aF19.9
aF21.9
aF23.9
aF21.9
aF23.6
aF24.5
aF23.4
aF23.5
aF26.3
aF18.9
aF18.8
aF20.4
aFnan
aFnan
aFnan
aFnan
aFnan
aFnan
aFnan
aFnan
aFnan
aFnan
aFnan
aFnan
aFnan
aFnan
aFnan
aFnan
aFnan
aFnan
aFnan
aFnan
aFnan
aFnan
aFnan
aFnan
aFnan
aFnan
aFnan
aFnan
aFnan
aFnan
aFnan
aFnan
aFnan
aFnan
aFnan
aFnan
aFnan
aFnan
aFnan
aFnan
aFnan
aFnan
aFnan
aFnan
aFnan
aFnan
asg445
g0
(g446
g2
Ntp560
Rp561
(dp562
g450
VMeanCt = [np.mean(g) for g in StdFilteredGroupedCt]\u000aMeanCt = roundValues(MeanCt,1)\u000aStdCt = [np.std(g, ddof=1) for g in StdFilteredGroupedCt]\u000aStdCt = roundValues(StdCt,3)
p563
sg452
VMeanCt
p564
sg454
I00
sg455
I00
sg456
VMeanCt = [np.mean(g) for g in StdFilteredGroupedCt]\u000aMeanCt = roundValues(MeanCt,1)\u000aStdCt = [np.std(g, ddof=1) for g in StdFilteredGroupedCt]\u000aStdCt = roundValues(StdCt,3)
p565
sbsg458
g0
(g459
g460
(g461
g462
tp566
tp567
Rp568
sg452
g564
sbag0
(g301
g2
Ntp569
Rp570
(dp571
g305
I00
sg306
g4
sg307
(lp572
F0.115
aF0.115
aF0.153
aF0.058
aF0.058
aF0.058
aF0.058
aF0.153
aF0.4
aF0.265
aF0.252
aF0.173
aF0.1
aF0.3
aF0.115
aF0.1
aF0.058
aF0.115
aFnan
aFnan
aFnan
aFnan
aFnan
aFnan
aFnan
aFnan
aFnan
aFnan
aFnan
aFnan
aFnan
aFnan
aFnan
aFnan
aFnan
aFnan
aFnan
aFnan
aFnan
aFnan
aFnan
aFnan
aFnan
aFnan
aFnan
aFnan
aFnan
aFnan
aFnan
aFnan
aFnan
aFnan
aFnan
aFnan
aFnan
aFnan
aFnan
aFnan
aFnan
aFnan
aFnan
aFnan
aFnan
aFnan
asg445
g0
(g446
g2
Ntp573
Rp574
(dp575
g450
Nsg491
g570
sg454
I00
sg455
I00
sg456
Nsbsg458
g0
(g459
g460
(g461
g462
tp576
tp577
Rp578
sg452
VStdCt
p579
sbag0
(g301
g2
Ntp580
Rp581
(dp582
g305
I00
sg306
g4
sg307
(lp583
(lp584
g310
(g314
S'\x00\x00\x00\x00\x00\x00\x00\x00'
p585
tp586
Rp587
ag310
(g314
S'\x01\x00\x00\x00\x00\x00\x00\x00'
p588
tp589
Rp590
aa(lp591
g310
(g314
S'\x01\x00\x00\x00\x00\x00\x00\x00'
p592
tp593
Rp594
ag310
(g314
S'\x01\x00\x00\x00\x00\x00\x00\x00'
p595
tp596
Rp597
aa(lp598
g310
(g314
S'\x01\x00\x00\x00\x00\x00\x00\x00'
p599
tp600
Rp601
ag310
(g314
S'\x02\x00\x00\x00\x00\x00\x00\x00'
p602
tp603
Rp604
aa(lp605
g310
(g314
S'\x01\x00\x00\x00\x00\x00\x00\x00'
p606
tp607
Rp608
ag310
(g314
S'\x03\x00\x00\x00\x00\x00\x00\x00'
p609
tp610
Rp611
aa(lp612
g310
(g314
S'\x02\x00\x00\x00\x00\x00\x00\x00'
p613
tp614
Rp615
ag310
(g314
S'\x01\x00\x00\x00\x00\x00\x00\x00'
p616
tp617
Rp618
aa(lp619
g310
(g314
S'\x03\x00\x00\x00\x00\x00\x00\x00'
p620
tp621
Rp622
ag310
(g314
S'\x01\x00\x00\x00\x00\x00\x00\x00'
p623
tp624
Rp625
aaNaNaNaNaNaNaNaNaNaNaNaNaNaNaNaNaNaNaNaNaNaNaNaNaNaNaNaNaNaNaNaNaNaNaNaNaNaNaNaNaNaNaNaNaNaNaNaNaNaNaNaNaNaNaNaNaNaNasg445
g0
(g446
g2
Ntp626
Rp627
(dp628
g450
Vdummy = tabularize(s, 'Groups', 1, 'MeanCt', \u000a          new_category_colnm='BioRuns',\u000a          values_colnm_prefix='Gene_')
p629
sg452
VBioRuns
p630
sg454
I00
sg455
I00
sg456
Vdummy = tabularize(s, 'Groups', 1, 'MeanCt', \u000a          new_category_colnm='BioRuns',\u000a          values_colnm_prefix='Gene_')
p631
sbsg458
g0
(g459
g460
(g461
g462
tp632
tp633
Rp634
sg452
g630
sbag0
(g301
g2
Ntp635
Rp636
(dp637
g305
I00
sg306
g4
sg307
(lp638
F18.2
aF22.4
aF21.9
aF23.4
aF23.4
aF18.9
aFnan
aFnan
aFnan
aFnan
aFnan
aFnan
aFnan
aFnan
aFnan
aFnan
aFnan
aFnan
aFnan
aFnan
aFnan
aFnan
aFnan
aFnan
aFnan
aFnan
aFnan
aFnan
aFnan
aFnan
aFnan
aFnan
aFnan
aFnan
aFnan
aFnan
aFnan
aFnan
aFnan
aFnan
aFnan
aFnan
aFnan
aFnan
aFnan
aFnan
aFnan
aFnan
aFnan
aFnan
aFnan
aFnan
aFnan
aFnan
aFnan
aFnan
aFnan
aFnan
aFnan
aFnan
aFnan
aFnan
aFnan
aFnan
asg445
g0
(g446
g2
Ntp639
Rp640
(dp641
g450
Nsg491
g636
sg454
I00
sg455
I00
sg456
Nsbsg458
g0
(g459
g460
(g461
g462
tp642
tp643
Rp644
sg452
S'Gene_I'
p645
sbag0
(g301
g2
Ntp646
Rp647
(dp648
g305
I00
sg306
g4
sg307
(lp649
F18.3
aF19.9
aF21.9
aF23.9
aF23.5
aF18.8
aFnan
aFnan
aFnan
aFnan
aFnan
aFnan
aFnan
aFnan
aFnan
aFnan
aFnan
aFnan
aFnan
aFnan
aFnan
aFnan
aFnan
aFnan
aFnan
aFnan
aFnan
aFnan
aFnan
aFnan
aFnan
aFnan
aFnan
aFnan
aFnan
aFnan
aFnan
aFnan
aFnan
aFnan
aFnan
aFnan
aFnan
aFnan
aFnan
aFnan
aFnan
aFnan
aFnan
aFnan
aFnan
aFnan
aFnan
aFnan
aFnan
aFnan
aFnan
aFnan
aFnan
aFnan
aFnan
aFnan
aFnan
aFnan
asg445
g0
(g446
g2
Ntp650
Rp651
(dp652
g450
Nsg491
g647
sg454
I00
sg455
I00
sg456
Nsbsg458
g644
sg452
S'Gene_R1'
p653
sbag0
(g301
g2
Ntp654
Rp655
(dp656
g305
I00
sg306
g4
sg307
(lp657
F19.8
aF21.9
aF23.6
aF24.5
aF26.3
aF20.4
aFnan
aFnan
aFnan
aFnan
aFnan
aFnan
aFnan
aFnan
aFnan
aFnan
aFnan
aFnan
aFnan
aFnan
aFnan
aFnan
aFnan
aFnan
aFnan
aFnan
aFnan
aFnan
aFnan
aFnan
aFnan
aFnan
aFnan
aFnan
aFnan
aFnan
aFnan
aFnan
aFnan
aFnan
aFnan
aFnan
aFnan
aFnan
aFnan
aFnan
aFnan
aFnan
aFnan
aFnan
aFnan
aFnan
aFnan
aFnan
aFnan
aFnan
aFnan
aFnan
aFnan
aFnan
aFnan
aFnan
aFnan
aFnan
asg445
g0
(g446
g2
Ntp658
Rp659
(dp660
g450
Nsg491
g655
sg454
I00
sg455
I00
sg456
Nsbsg458
g644
sg452
S'Gene_R2'
p661
sbag0
(g301
g2
Ntp662
Rp663
(dp664
g305
I00
sg306
g4
sg307
(lp665
F1.07177
aF0.17678
aF1.0
aF1.41421
aF1.07177
aF0.93303
aFnan
aFnan
aFnan
aFnan
aFnan
aFnan
aFnan
aFnan
aFnan
aFnan
aFnan
aFnan
aFnan
aFnan
aFnan
aFnan
aFnan
aFnan
aFnan
aFnan
aFnan
aFnan
aFnan
aFnan
aFnan
aFnan
aFnan
aFnan
aFnan
aFnan
aFnan
aFnan
aFnan
aFnan
aFnan
aFnan
aFnan
aFnan
aFnan
aFnan
aFnan
aFnan
aFnan
aFnan
aFnan
aFnan
aFnan
aFnan
aFnan
aFnan
aFnan
aFnan
aFnan
aFnan
aFnan
aFnan
aFnan
aFnan
asg445
g0
(g446
g2
Ntp666
Rp667
(dp668
g450
VExprR1 = roundValues(2**(Gene_R1 - Gene_I),5)
p669
sg452
VExprR1
p670
sg454
I01
sg455
I00
sg456
VroundValues(2**(Gene_R1 - Gene_I),5)
p671
sbsg458
g0
(g459
g460
(g461
g462
tp672
tp673
Rp674
sg452
g670
sbag0
(g301
g2
Ntp675
Rp676
(dp677
g305
I00
sg306
g4
sg307
(lp678
F3.03143
aF0.70711
aF3.24901
aF2.14355
aF7.46426
aF2.82843
aFnan
aFnan
aFnan
aFnan
aFnan
aFnan
aFnan
aFnan
aFnan
aFnan
aFnan
aFnan
aFnan
aFnan
aFnan
aFnan
aFnan
aFnan
aFnan
aFnan
aFnan
aFnan
aFnan
aFnan
aFnan
aFnan
aFnan
aFnan
aFnan
aFnan
aFnan
aFnan
aFnan
aFnan
aFnan
aFnan
aFnan
aFnan
aFnan
aFnan
aFnan
aFnan
aFnan
aFnan
aFnan
aFnan
aFnan
aFnan
aFnan
aFnan
aFnan
aFnan
aFnan
aFnan
aFnan
aFnan
aFnan
aFnan
asg445
g0
(g446
g2
Ntp679
Rp680
(dp681
g450
VExprR2 = roundValues(2**(Gene_R2 - Gene_I),5)
p682
sg452
VExprR2
p683
sg454
I01
sg455
I00
sg456
VroundValues(2**(Gene_R2 - Gene_I),5)
p684
sbsg458
g0
(g459
g460
(g461
g462
tp685
tp686
Rp687
sg452
g683
sbag0
(g301
g2
Ntp688
Rp689
(dp690
g305
I00
sg306
g4
sg307
(lp691
F1.802
aF0.354
aF1.803
aF1.741
aF2.828
aF1.625
aFnan
aFnan
aFnan
aFnan
aFnan
aFnan
aFnan
aFnan
aFnan
aFnan
aFnan
aFnan
aFnan
aFnan
aFnan
aFnan
aFnan
aFnan
aFnan
aFnan
aFnan
aFnan
aFnan
aFnan
aFnan
aFnan
aFnan
aFnan
aFnan
aFnan
aFnan
aFnan
aFnan
aFnan
aFnan
aFnan
aFnan
aFnan
aFnan
aFnan
aFnan
aFnan
aFnan
aFnan
aFnan
aFnan
aFnan
aFnan
aFnan
aFnan
aFnan
aFnan
aFnan
aFnan
aFnan
aFnan
aFnan
aFnan
asg445
g0
(g446
g2
Ntp692
Rp693
(dp694
g450
VGeoMean = roundValues(np.sqrt(ExprR1*ExprR2), 3)
p695
sg452
VGeoMean
p696
sg454
I01
sg455
I00
sg456
VroundValues(np.sqrt(ExprR1*ExprR2), 3)
p697
sbsg458
g0
(g459
g460
(g461
g462
tp698
tp699
Rp700
sg452
g696
sbag0
(g301
g2
Ntp701
Rp702
(dp703
g305
I00
sg306
g4
sg307
(lp704
F1.0
aF1.0
aF1.0
aF1.0
aF1.0
aF1.0
aF1.0
aF1.0
aF1.0
aF1.0
aF1.0
aF1.0
aF2.0
aF2.0
aF2.0
aF3.0
aF3.0
aF3.0
aF1.0
aF1.0
aF1.0
aF2.0
aF2.0
aF2.0
aF3.0
aF3.0
aF3.0
aF1.0
aF1.0
aF1.0
aF2.0
aF2.0
aF2.0
aF3.0
aF3.0
aF3.0
aF1.0
aF1.0
aF1.0
aF1.0
aF1.0
aF1.0
aF1.0
aF1.0
aF1.0
aF1.0
aF1.0
aF1.0
aF1.0
aF1.0
aF1.0
aF1.0
aF1.0
aF1.0
aFnan
aFnan
aFnan
aFnan
aFnan
aFnan
aFnan
aFnan
aFnan
aFnan
asg445
g0
(g446
g2
Ntp705
Rp706
(dp707
g450
Nsg452
S'BRpl'
p708
sg454
I00
sg455
I00
sg456
Nsbsg458
g0
(g459
g460
(g461
g462
tp709
tp710
Rp711
sg452
g708
sbag0
(g301
g2
Ntp712
Rp713
(dp714
g305
I00
sg306
g4
sg307
(lp715
F18.31
aF18.29
aF18.15
aF18.24
aF18.22
aF18.36
aF19.72
aF19.75
aF20.01
aF22.42
aF22.5
aF22.44
aF21.92
aF22.03
aF21.94
aF23.4
aF23.47
aF23.41
aF19.92
aF19.85
aF20.0
aF21.86
aF22.09
aF21.84
aF23.89
aF23.54
aF24.27
aF22.18
aF21.71
aF21.75
aF23.88
aF23.42
aF23.63
aF24.59
aF24.61
aF24.34
aF23.48
aF23.31
aF23.45
aF23.22
aF23.8
aF23.49
aF26.37
aF26.36
aF26.17
aF18.82
aF18.97
aF18.92
aF18.91
aF18.78
aF18.8
aF20.5
aF20.47
aF20.28
aFnan
aFnan
aFnan
aFnan
aFnan
aFnan
aFnan
aFnan
aFnan
aFnan
asg445
g0
(g446
g2
Ntp716
Rp717
(dp718
g450
Nsg452
S'Ct'
p719
sg454
I00
sg455
I00
sg456
Nsbsg458
g711
sg452
g719
sbag0
(g301
g2
Ntp720
Rp721
(dp722
g305
I00
sg306
g4
sg307
(lp723
F0.919
aF0.9106
aF0.9129
aF0.8266
aF0.8343
aF0.8496
aF0.8157
aF0.8543
aF0.8208
aF0.8453
aF0.8426
aF0.8524
aF0.8658
aF0.7809
aF0.8512
aF0.8442
aF0.8357
aF0.7658
aF0.9179
aF0.9783
aF0.8971
aF0.8957
aF0.8287
aF0.8387
aF0.8746
aF0.8493
aF0.8349
aF0.7857
aF0.8427
aF0.8637
aF0.8281
aF0.8203
aF0.8288
aF0.8138
aF0.8242
aF0.804
aF0.8352
aF0.7886
aF0.8105
aF0.7701
aF0.8746
aF0.8139
aF0.7795
aF0.7676
aF0.7947
aF0.876
aF0.8597
aF0.8873
aF0.8715
aF0.8977
aF0.856
aF0.8179
aF0.8173
aF0.7894
aFnan
aFnan
aFnan
aFnan
aFnan
aFnan
aFnan
aFnan
aFnan
aFnan
asg445
g0
(g446
g2
Ntp724
Rp725
(dp726
g450
Nsg452
S'Eff'
p727
sg454
I00
sg455
I00
sg456
Nsbsg458
g711
sg452
g727
sbag0
(g301
g2
Ntp728
Rp729
(dp730
g305
I00
sg306
g4
sg307
(lp731
g320
ag320
ag320
aVR1
p732
aVR1
p733
aVR1
p734
aVR2
p735
aVR2
p736
aVR2
p737
ag320
ag320
ag320
ag320
ag320
ag320
ag320
ag320
ag320
aVR1
p738
aVR1
p739
aVR1
p740
aVR1
p741
aVR1
p742
aVR1
p743
aVR1
p744
aVR1
p745
aVR1
p746
aVR2
p747
aVR2
p748
aVR2
p749
aVR2
p750
aVR2
p751
aVR2
p752
aVR2
p753
aVR2
p754
aVR2
p755
ag320
ag320
ag320
aVR1
p756
aVR1
p757
aVR1
p758
aVR2
p759
aVR2
p760
aVR2
p761
ag320
ag320
ag320
aVR1
p762
aVR1
p763
aVR1
p764
aVR2
p765
aVR2
p766
aVR2
p767
aNaNaNaNaNaNaNaNaNaNasg445
g0
(g446
g2
Ntp768
Rp769
(dp770
g450
Nsg452
S'RunType'
p771
sg454
I00
sg455
I00
sg456
Nsbsg458
g711
sg452
g771
sbag0
(g301
g2
Ntp772
Rp773
(dp774
g305
I00
sg306
g4
sg307
(lp775
Va
p776
aVb
p777
aVc
p778
ag776
ag777
ag778
ag776
ag777
ag778
ag776
ag777
ag778
ag776
ag777
ag778
ag776
ag777
ag778
ag776
ag777
ag778
ag776
ag777
ag778
ag776
ag777
ag778
ag776
ag777
ag778
ag776
ag777
ag778
ag776
ag777
ag778
ag776
ag777
ag778
ag776
ag777
ag778
ag776
ag777
ag778
ag776
ag777
ag778
ag776
ag777
ag778
ag776
ag777
ag778
aNaNaNaNaNaNaNaNaNaNasg445
g0
(g446
g2
Ntp779
Rp780
(dp781
g450
Nsg452
S'TRpl'
p782
sg454
I00
sg455
I00
sg456
Nsbsg458
g711
sg452
g782
sbag0
(g301
g2
Ntp783
Rp784
(dp785
g305
I00
sg306
g4
sg307
(lp786
F0.0
aF0.0
aF0.0
aF0.0
aF0.0
aF0.0
aF0.0
aF0.0
aF0.0
aF1.0
aF1.0
aF1.0
aF1.0
aF1.0
aF1.0
aF1.0
aF1.0
aF1.0
aF1.0
aF1.0
aF1.0
aF1.0
aF1.0
aF1.0
aF1.0
aF1.0
aF1.0
aF1.0
aF1.0
aF1.0
aF1.0
aF1.0
aF1.0
aF1.0
aF1.0
aF1.0
aF2.0
aF2.0
aF2.0
aF2.0
aF2.0
aF2.0
aF2.0
aF2.0
aF2.0
aF3.0
aF3.0
aF3.0
aF3.0
aF3.0
aF3.0
aF3.0
aF3.0
aF3.0
aFnan
aFnan
aFnan
aFnan
aFnan
aFnan
aFnan
aFnan
aFnan
aFnan
asg445
g0
(g446
g2
Ntp787
Rp788
(dp789
g450
Nsg452
S'Treatment'
p790
sg454
I00
sg455
I00
sg456
Nsbsg458
g711
sg452
g790
sbasS'_is_evaluate_formulas'
p791
I01
sS'_prologue'
p792
g0
(g446
g2
Ntp793
Rp794
(dp795
g450
V# Prologue\u000aimport math as mt\u000aimport numpy as np\u000afrom os import listdir\u000afrom os.path import isfile, join\u000aimport pandas as pd\u000aimport scipy as sp\u000afrom numpy import nan  # Must follow sympy import \u000a\u000axlsx_path =   '/mnt/hgfs/josephhellerstein/home/Technical/SciSheets/CaseStudies/Kristen/workbooks/data.xlsx'\u000agene = ParmValues[0]\u000arun = ParmValues[1] == 'True'\u000ashow_raw = ParmValues[2] == 'True'\u000ashow_block1 = ParmValues[3] == 'True'\u000ashow_block2 = ParmValues[4] == 'True'\u000ashow_block3 = ParmValues[5] == 'True'\u000ashow_params = ParmValues[8] == 'True'\u000a#show_params = True\u000amax_std  = float(ParmValues[6])\u000amin_eff = float(ParmValues[7])\u000aworksheet = gene + "-I"\u000as.getTable().setIsEvaluateFormulas(run)\u000as.setColumnVisibility()\u000as.setColumnVisibility(['Groups', 'GroupedEff', 'GroupedCt', 'StdFilteredGroupedCt', 'MeanCt',\u000a    'StdCt'], is_visible=show_block1)\u000as.setColumnVisibility(['BioRuns', 'Gene_I', 'Gene_R1', 'Gene_R2', 'ExprR1', 'ExprR2', \u000a    'GeoMean'], is_visible=show_block2)\u000as.setColumnVisibility(['GeoGroups', 'GroupedGeoMeans', 'NrmlGeoGroupedMeans', \u000a    'MeanNrmlGeoGroups', 'StdNrmlGeoGroups'], is_visible=show_block3)\u000aif False:\u000a  Groups = []\u000a  GroupedCt = []\u000a  GroupedEff = []\u000a  MeanCt = []\u000a  Imp = []\u000a  s.deleteColumn('Ct')\u000a  s.deleteColumn('RunType')\u000a  s.deleteColumn('BRpl')\u000a  s.deleteColumn('TRpl')\u000a  s.deleteColumn('Treatment')\u000a  s.deleteColumn('Eff')\u000aif run:\u000a  importExcelToTable(s, xlsx_path, worksheet=worksheet,\u000a      column_position='ParmValues',\u000a      names=['Treatment', 'RunType', 'BRpl', 'TRpl', 'Eff', 'Ct'])\u000as.setColumnVisibility(['BRpl', 'Ct', 'Eff', 'RunType', 'TRpl', 'Treatment'], is_visible=show_raw)\u000as.setColumnVisibility(['ParmNames', 'ParmValues'], show_params)
p796
sg452
VSingleGene
p797
sg454
I00
sg455
I00
sg456
V# Prologue\u000aimport math as mt\u000aimport numpy as np\u000afrom os import listdir\u000afrom os.path import isfile, join\u000aimport pandas as pd\u000aimport scipy as sp\u000afrom numpy import nan  # Must follow sympy import \u000a\u000axlsx_path =   '/mnt/hgfs/josephhellerstein/home/Technical/SciSheets/CaseStudies/Kristen/workbooks/data.xlsx'\u000agene = ParmValues[0]\u000arun = ParmValues[1] == 'True'\u000ashow_raw = ParmValues[2] == 'True'\u000ashow_block1 = ParmValues[3] == 'True'\u000ashow_block2 = ParmValues[4] == 'True'\u000ashow_block3 = ParmValues[5] == 'True'\u000ashow_params = ParmValues[8] == 'True'\u000a#show_params = True\u000amax_std  = float(ParmValues[6])\u000amin_eff = float(ParmValues[7])\u000aworksheet = gene + "-I"\u000as.getTable().setIsEvaluateFormulas(run)\u000as.setColumnVisibility()\u000as.setColumnVisibility(['Groups', 'GroupedEff', 'GroupedCt', 'StdFilteredGroupedCt', 'MeanCt',\u000a    'StdCt'], is_visible=show_block1)\u000as.setColumnVisibility(['BioRuns', 'Gene_I', 'Gene_R1', 'Gene_R2', 'ExprR1', 'ExprR2', \u000a    'GeoMean'], is_visible=show_block2)\u000as.setColumnVisibility(['GeoGroups', 'GroupedGeoMeans', 'NrmlGeoGroupedMeans', \u000a    'MeanNrmlGeoGroups', 'StdNrmlGeoGroups'], is_visible=show_block3)\u000aif False:\u000a  Groups = []\u000a  GroupedCt = []\u000a  GroupedEff = []\u000a  MeanCt = []\u000a  Imp = []\u000a  s.deleteColumn('Ct')\u000a  s.deleteColumn('RunType')\u000a  s.deleteColumn('BRpl')\u000a  s.deleteColumn('TRpl')\u000a  s.deleteColumn('Treatment')\u000a  s.deleteColumn('Eff')\u000aif run:\u000a  importExcelToTable(s, xlsx_path, worksheet=worksheet,\u000a      column_position='ParmValues',\u000a      names=['Treatment', 'RunType', 'BRpl', 'TRpl', 'Eff', 'Ct'])\u000as.setColumnVisibility(['BRpl', 'Ct', 'Eff', 'RunType', 'TRpl', 'Treatment'], is_visible=show_raw)\u000as.setColumnVisibility(['ParmNames', 'ParmValues'], show_params)
p798
sbsS'_epilogue'
p799
g0
(g446
g2
Ntp800
Rp801
(dp802
g450
V# Epilogue\u000aif run:\u000a  worksheet = "%s-O" % gene\u000a  exportTableToExcel(s, xlsx_path, worksheet=worksheet, columns=['GeoGroups',  \u000a      'MeanNrmlGeoGroups', 'StdNrmlGeoGroups'])\u000a
p803
sg452
g797
sg454
I00
sg455
I00
sg456
V# Epilogue\u000aif run:\u000a  worksheet = "%s-O" % gene\u000a  exportTableToExcel(s, xlsx_path, worksheet=worksheet, columns=['GeoGroups',  \u000a      'MeanNrmlGeoGroups', 'StdNrmlGeoGroups'])\u000a
p804
sbsg452
g797
sS'_columns'
p805
(lp806
g0
(g301
g2
Ntp807
Rp808
(dp809
g305
I01
sg306
g4
sg307
(lp810
S'1'
p811
aS'2'
p812
aS'3'
p813
aS'4'
p814
aS'5'
p815
aS'6'
p816
aS'7'
p817
aS'8'
p818
aS'9'
p819
aS'10'
p820
aS'11'
p821
aS'12'
p822
aS'13'
p823
aS'14'
p824
aS'15'
p825
aS'16'
p826
aS'17'
p827
aS'18'
p828
aS'19'
p829
aS'20'
p830
aS'21'
p831
aS'22'
p832
aS'23'
p833
aS'24'
p834
aS'25'
p835
aS'26'
p836
aS'27'
p837
aS'28'
p838
aS'29'
p839
aS'30'
p840
aS'31'
p841
aS'32'
p842
aS'33'
p843
aS'34'
p844
aS'35'
p845
aS'36'
p846
aS'37'
p847
aS'38'
p848
aS'39'
p849
aS'40'
p850
aS'41'
p851
aS'42'
p852
aS'43'
p853
aS'44'
p854
aS'45'
p855
aS'46'
p856
aS'47'
p857
aS'48'
p858
aS'49'
p859
aS'50'
p860
aS'51'
p861
aS'52'
p862
aS'53'
p863
aS'54'
p864
aS'55'
p865
aS'56'
p866
aS'57'
p867
aS'58'
p868
aS'59'
p869
aS'60'
p870
aS'61'
p871
aS'62'
p872
aS'63'
p873
aS'64'
p874
asg445
g0
(g446
g2
Ntp875
Rp876
(dp877
g450
Nsg491
g808
sg454
I00
sg455
I00
sg456
Nsbsg458
g0
(g459
g460
(g461
g462
tp878
tp879
Rp880
sg452
S'row'
p881
sbag0
(g301
g2
Ntp882
Rp883
(dp884
g305
I00
sg306
g4
sg307
(lp885
Vgene
p886
aVrun
p887
aVshow_raw
p888
aVshow_block1
p889
aVshow_block2
p890
aVshow_block3
p891
aVmax_std
p892
aVmin_eff
p893
aVshow_params
p894
aVnan
p895
aVnan
p896
aVnan
p897
aVnan
p898
aVnan
p899
aVnan
p900
aVnan
p901
aVnan
p902
aVnan
p903
aVnan
p904
aVnan
p905
aVnan
p906
aVnan
p907
aVnan
p908
aVnan
p909
aVnan
p910
aVnan
p911
aVnan
p912
aVnan
p913
aVnan
p914
aVnan
p915
aVnan
p916
aVnan
p917
aVnan
p918
aVnan
p919
aVnan
p920
aVnan
p921
aVnan
p922
aVnan
p923
aVnan
p924
aVnan
p925
aVnan
p926
aVnan
p927
aVnan
p928
aVnan
p929
aVnan
p930
aVnan
p931
aVnan
p932
aVnan
p933
aVnan
p934
aVnan
p935
aVnan
p936
aVnan
p937
aVnan
p938
aVnan
p939
aNaNaNaNaNaNaNaNaNaNasg445
g0
(g446
g2
Ntp940
Rp941
(dp942
g450
Nsg491
g883
sg454
I00
sg455
I00
sg456
Nsbsg458
g0
(g459
g460
(g461
g462
tp943
tp944
Rp945
sg452
VParmNames
p946
sbag0
(g301
g2
Ntp947
Rp948
(dp949
g305
I00
sg306
g4
sg307
(lp950
VGene2
p951
aVTrue
p952
aVFalse
p953
aVFalse
p954
aVFalse
p955
aVTrue
p956
aF0.5
aV0.7
p957
aVTrue
p958
aV
p959
aVnan
p960
aVnan
p961
aVnan
p962
aVnan
p963
aVnan
p964
aVnan
p965
aVnan
p966
aVnan
p967
aVnan
p968
aVnan
p969
aVnan
p970
aVnan
p971
aVnan
p972
aVnan
p973
aVnan
p974
aVnan
p975
aVnan
p976
aVnan
p977
aVnan
p978
aVnan
p979
aVnan
p980
aVnan
p981
aVnan
p982
aVnan
p983
aVnan
p984
aVnan
p985
aVnan
p986
aVnan
p987
aVnan
p988
aVnan
p989
aVnan
p990
aVnan
p991
aVnan
p992
aVnan
p993
aVnan
p994
aVnan
p995
aVnan
p996
aVnan
p997
aVnan
p998
aVnan
p999
aVnan
p1000
aVnan
p1001
aVnan
p1002
aVnan
p1003
aNaNaNaNaNaNaNaNaNaNasg445
g0
(g446
g2
Ntp1004
Rp1005
(dp1006
g450
Nsg452
VParmValues
p1007
sg454
I00
sg455
I00
sg456
Nsbsg458
g0
(g459
g460
(g461
g462
tp1008
tp1009
Rp1010
sg452
g1007
sbag784
ag729
ag702
ag773
ag721
ag713
ag303
ag467
ag497
ag526
ag557
ag570
ag581
ag636
ag647
ag655
ag663
ag676
ag689
ag0
(g301
g2
Ntp1011
Rp1012
(dp1013
g305
I00
sg306
g4
sg307
(lp1014
(lp1015
g310
(g314
S'\x00\x00\x00\x00\x00\x00\x00\x00'
p1016
tp1017
Rp1018
aa(lp1019
g310
(g314
S'\x01\x00\x00\x00\x00\x00\x00\x00'
p1020
tp1021
Rp1022
aa(lp1023
g310
(g314
S'\x02\x00\x00\x00\x00\x00\x00\x00'
p1024
tp1025
Rp1026
aa(lp1027
g310
(g314
S'\x03\x00\x00\x00\x00\x00\x00\x00'
p1028
tp1029
Rp1030
aaNaNaNaNaNaNaNaNaNaNaNaNaNaNaNaNaNaNaNaNaNaNaNaNaNaNaNaNaNaNaNaNaNaNaNaNaNaNaNaNaNaNaNaNaNaNaNaNaNaNaNaNaNaNaNaNaNaNaNaNasg445
g0
(g446
g2
Ntp1031
Rp1032
(dp1033
g450
Vcat_vals = [br[0] for br in pruneNulls(BioRuns)]\u000aclean_geo = [x for x in GeoMean if x is not None]\u000aGeoGroups, groupedGeoMeans = groupBy(cat_vals, clean_geo)\u000aGroupedGeoMeans = roundValues(groupedGeoMeans, 3)\u000aGeoGroups = [[x] for x in GeoGroups]
p1034
sg452
VGeoGroups
p1035
sg454
I00
sg455
I00
sg456
Vcat_vals = [br[0] for br in pruneNulls(BioRuns)]\u000aclean_geo = [x for x in GeoMean if x is not None]\u000aGeoGroups, groupedGeoMeans = groupBy(cat_vals, clean_geo)\u000aGroupedGeoMeans = roundValues(groupedGeoMeans, 3)\u000aGeoGroups = [[x] for x in GeoGroups]
p1036
sbsg458
g0
(g459
g460
(g461
g462
tp1037
tp1038
Rp1039
sg452
g1035
sbag0
(g301
g2
Ntp1040
Rp1041
(dp1042
g305
I00
sg306
g4
sg307
(lp1043
cnumpy.core.multiarray
_reconstruct
p1044
(g461
(I0
tp1045
S'b'
p1046
tp1047
Rp1048
(I1
(I1
tp1049
g311
(S'f8'
p1050
I0
I1
tp1051
Rp1052
(I3
S'<'
p1053
NNNI-1
I-1
I0
tp1054
bI00
S'\xa2E\xb6\xf3\xfd\xd4\xfc?'
p1055
tp1056
bag1044
(g461
(I0
tp1057
g1046
tp1058
Rp1059
(I1
(I3
tp1060
g1052
I00
S'\x0e-\xb2\x9d\xef\xa7\xd6?\x0c\x02+\x87\x16\xd9\xfc?B`\xe5\xd0"\xdb\xfb?'
p1061
tp1062
bag1044
(g461
(I0
tp1063
g1046
tp1064
Rp1065
(I1
(I1
tp1066
g1052
I00
S'9\xb4\xc8v\xbe\x9f\x06@'
p1067
tp1068
bag1044
(g461
(I0
tp1069
g1046
tp1070
Rp1071
(I1
(I1
tp1072
g1052
I00
S'\x00\x00\x00\x00\x00\x00\xfa?'
p1073
tp1074
baNaNaNaNaNaNaNaNaNaNaNaNaNaNaNaNaNaNaNaNaNaNaNaNaNaNaNaNaNaNaNaNaNaNaNaNaNaNaNaNaNaNaNaNaNaNaNaNaNaNaNaNaNaNaNaNaNaNaNaNasg445
g0
(g446
g2
Ntp1075
Rp1076
(dp1077
g450
Nsg491
g1041
sg454
I00
sg455
I00
sg456
Nsbsg458
g0
(g459
g460
(g461
g462
tp1078
tp1079
Rp1080
sg452
VGroupedGeoMeans
p1081
sbag0
(g301
g2
Ntp1082
Rp1083
(dp1084
g305
I00
sg306
g4
sg307
(lp1085
g1044
(g461
(I0
tp1086
g1046
tp1087
Rp1088
(I1
(I1
tp1089
g1052
I00
S'\x00\x00\x00\x00\x00\x00\xf0?'
p1090
tp1091
bag1044
(g461
(I0
tp1092
g1046
tp1093
Rp1094
(I1
(I3
tp1095
g1052
I00
S'J\x0c\x02+\x87\x16\xc9?j\xbct\x93\x18\x04\xf0?\xb6\xf3\xfd\xd4x\xe9\xee?'
p1096
tp1097
bag1044
(g461
(I0
tp1098
g1046
tp1099
Rp1100
(I1
(I1
tp1101
g1052
I00
S'\xb4\xc8v\xbe\x9f\x1a\xf9?'
p1102
tp1103
bag1044
(g461
(I0
tp1104
g1046
tp1105
Rp1106
(I1
(I1
tp1107
g1052
I00
S'w\xbe\x9f\x1a/\xdd\xec?'
p1108
tp1109
baNaNaNaNaNaNaNaNaNaNaNaNaNaNaNaNaNaNaNaNaNaNaNaNaNaNaNaNaNaNaNaNaNaNaNaNaNaNaNaNaNaNaNaNaNaNaNaNaNaNaNaNaNaNaNaNaNaNaNaNasg445
g0
(g446
g2
Ntp1110
Rp1111
(dp1112
g450
Vref = np.mean(GroupedGeoMeans[0])\u000aNrmlGeoGroupedMeans = [ [x/ref for x in g] for g in GroupedGeoMeans if g is not None]  \u000aNrmlGeoGroupedMeans = roundValues(NrmlGeoGroupedMeans, 3)
p1113
sg452
VNrmlGeoGroupedMeans
p1114
sg454
I00
sg455
I00
sg456
Vref = np.mean(GroupedGeoMeans[0])\u000aNrmlGeoGroupedMeans = [ [x/ref for x in g] for g in GroupedGeoMeans if g is not None]  \u000aNrmlGeoGroupedMeans = roundValues(NrmlGeoGroupedMeans, 3)
p1115
sbsg458
g0
(g459
g460
(g461
g462
tp1116
tp1117
Rp1118
sg452
g1114
sbag0
(g301
g2
Ntp1119
Rp1120
(dp1121
g305
I00
sg306
g4
sg307
(lp1122
F1.0
aF0.721
aF1.569
aF0.902
aFnan
aFnan
aFnan
aFnan
aFnan
aFnan
aFnan
aFnan
aFnan
aFnan
aFnan
aFnan
aFnan
aFnan
aFnan
aFnan
aFnan
aFnan
aFnan
aFnan
aFnan
aFnan
aFnan
aFnan
aFnan
aFnan
aFnan
aFnan
aFnan
aFnan
aFnan
aFnan
aFnan
aFnan
aFnan
aFnan
aFnan
aFnan
aFnan
aFnan
aFnan
aFnan
aFnan
aFnan
aFnan
aFnan
aFnan
aFnan
aFnan
aFnan
aFnan
aFnan
aFnan
aFnan
aFnan
aFnan
aFnan
aFnan
aFnan
aFnan
asg445
g0
(g446
g2
Ntp1123
Rp1124
(dp1125
g450
VMeanNrmlGeoGroups = [round(np.mean(g), 3) for g in NrmlGeoGroupedMeans]
p1126
sg452
VMeanNrmlGeoGroups
p1127
sg454
I01
sg455
I00
sg456
V[round(np.mean(g), 3) for g in NrmlGeoGroupedMeans]
p1128
sbsg458
g0
(g459
g460
(g461
g462
tp1129
tp1130
Rp1131
sg452
g1127
sbag0
(g301
g2
Ntp1132
Rp1133
(dp1134
g305
I00
sg306
g4
sg307
(lp1135
Fnan
aF0.263
aFnan
aFnan
aFnan
aFnan
aFnan
aFnan
aFnan
aFnan
aFnan
aFnan
aFnan
aFnan
aFnan
aFnan
aFnan
aFnan
aFnan
aFnan
aFnan
aFnan
aFnan
aFnan
aFnan
aFnan
aFnan
aFnan
aFnan
aFnan
aFnan
aFnan
aFnan
aFnan
aFnan
aFnan
aFnan
aFnan
aFnan
aFnan
aFnan
aFnan
aFnan
aFnan
aFnan
aFnan
aFnan
aFnan
aFnan
aFnan
aFnan
aFnan
aFnan
aFnan
aFnan
aFnan
aFnan
aFnan
aFnan
aFnan
aFnan
aFnan
aFnan
aFnan
asg445
g0
(g446
g2
Ntp1136
Rp1137
(dp1138
g450
VStdNrmlGeoGroups = [round(np.std(g, ddof=1)/np.sqrt(len(g)), 3) for g in NrmlGeoGroupedMeans]\u000a
p1139
sg452
VStdNrmlGeoGroups
p1140
sg454
I01
sg455
I00
sg456
V[round(np.std(g, ddof=1)/np.sqrt(len(g)), 3) for g in NrmlGeoGroupedMeans]\u000a
p1141
sbsg458
g0
(g459
g460
(g461
g462
tp1142
tp1143
Rp1144
sg452
g1140
sbasg294
V/home/ubuntu/SciSheets/mysite/user/guest/tables/kristen_single_gene.pcl
p1145
sb.