ccopy_reg
_reconstructor
p0
(cscisheets.ui.dt_table
DTTable
p1
c__builtin__
object
p2
Ntp3
Rp4
(dp5
S'_versioned_file'
p6
g0
(cmysite.helpers.versioned_file
VersionedFile
p7
g2
Ntp8
Rp9
(dp10
S'_redo_stack'
p11
g0
(cmysite.helpers.file_stack
FileStack
p12
g2
Ntp13
Rp14
(dp15
S'_dirpath'
p16
S'/home/ubuntu/SciSheets/mysite/user/guest/tables/backup'
p17
sS'_max_depth'
p18
I5
sS'_filename_pfx'
p19
Vkristen_single_gene.r
p20
sbsS'_max_versions'
p21
I5
sS'_undo_stack'
p22
g0
(g12
g2
Ntp23
Rp24
(dp25
g16
g17
sg18
I5
sg19
Vkristen_single_gene.u
p26
sbsS'_checkpoint_history'
p27
(lp28
VCell/Update
p29
aVCell/Update
p30
aVCell/Update
p31
aVCell/Update
p32
aVCell/Update
p33
aVCell/Update
p34
aVCell/Update
p35
aVCell/Update
p36
aVCell/Update
p37
aVCell/Update
p38
aVCell/Update
p39
aVCell/Update
p40
aVColumn/Formula
p41
aVColumn/Formula
p42
aVColumn/Append
p43
aVColumn/Formula
p44
aVColumn/Delete
p45
aVCell/Update
p46
aVColumn/Formula
p47
aVCell/Update
p48
aVCell/Update
p49
aVColumn/Formula
p50
aVColumn/Formula
p51
aVCell/Update
p52
aVColumn/Formula
p53
aVColumn/Formula
p54
aVCell/Update
p55
aVCell/Update
p56
aVCell/Update
p57
aVCell/Update
p58
aVColumn/Formula
p59
aVCell/Update
p60
aVCell/Update
p61
aVCell/Update
p62
aVColumn/Formula
p63
aVCell/Update
p64
aVColumn/Formula
p65
aVColumn/Formula
p66
aVCell/Update
p67
aVCell/Update
p68
aVCell/Update
p69
aVCell/Update
p70
aVCell/Update
p71
aVCell/Update
p72
aVCell/Update
p73
aVCell/Update
p74
aVCell/Update
p75
aVColumn/Formula
p76
aVCell/Update
p77
aVCell/Update
p78
aVCell/Update
p79
aVCell/Update
p80
aVCell/Update
p81
aVCell/Update
p82
aVCell/Update
p83
aVCell/Update
p84
aVCell/Update
p85
aVCell/Update
p86
aVCell/Update
p87
aVCell/Update
p88
aVColumn/Formula
p89
aVColumn/Formula
p90
aVColumn/Formula
p91
aVCell/Update
p92
aVCell/Update
p93
aVCell/Update
p94
aVCell/Update
p95
aVCell/Update
p96
aVColumn/Formula
p97
aVCell/Update
p98
aVCell/Update
p99
aVCell/Update
p100
aVCell/Update
p101
aVCell/Update
p102
aVCell/Update
p103
aVCell/Update
p104
aVColumn/Formula
p105
aVColumn/Formula
p106
aVColumn/Formula
p107
aVCell/Update
p108
aVCell/Update
p109
aVColumn/Formula
p110
aVCell/Update
p111
aVCell/Update
p112
aVCell/Update
p113
aVCell/Update
p114
aVCell/Update
p115
aVCell/Update
p116
aVCell/Update
p117
aVCell/Update
p118
aVColumn/Formula
p119
aVCell/Update
p120
aVColumn/Formula
p121
aVColumn/Formula
p122
aVColumn/Formula
p123
aVCell/Update
p124
aVCell/Update
p125
aVColumn/Formula
p126
aVColumn/Formula
p127
aVColumn/Formula
p128
aVColumn/Formula
p129
aVCell/Update
p130
aVColumn/Formula
p131
aVColumn/Formula
p132
aVColumn/Formula
p133
aVCell/Update
p134
aVCell/Update
p135
aVCell/Update
p136
aVCell/Update
p137
aVCell/Update
p138
aVCell/Update
p139
aVCell/Update
p140
aVCell/Update
p141
aVCell/Update
p142
aVCell/Update
p143
aVColumn/Formula
p144
aVColumn/Formula
p145
aVColumn/Formula
p146
aVColumn/Formula
p147
aVCell/Update
p148
aVCell/Update
p149
aVColumn/Formula
p150
aVCell/Update
p151
aVCell/Update
p152
aVCell/Update
p153
aVCell/Update
p154
aVCell/Update
p155
aVCell/Update
p156
aVCell/Update
p157
aVCell/Update
p158
aVCell/Update
p159
aVCell/Update
p160
aVCell/Update
p161
aVCell/Update
p162
aVCell/Update
p163
aVColumn/Formula
p164
aVColumn/Formula
p165
aVCell/Update
p166
aVCell/Update
p167
aVCell/Update
p168
aVColumn/Formula
p169
aVCell/Update
p170
aVCell/Update
p171
aVCell/Update
p172
aVCell/Update
p173
aVColumn/Formula
p174
aVColumn/Formula
p175
aVColumn/Formula
p176
aVColumn/Formula
p177
aVCell/Update
p178
aVColumn/Formula
p179
aVCell/Update
p180
aVCell/Update
p181
aVCell/Update
p182
aVCell/Update
p183
aVCell/Update
p184
aVCell/Update
p185
aVCell/Update
p186
aVCell/Update
p187
aVCell/Update
p188
aVColumn/Formula
p189
aVCell/Update
p190
aVCell/Update
p191
aVCell/Update
p192
aVCell/Update
p193
aVCell/Update
p194
aVCell/Update
p195
aVCell/Update
p196
aVCell/Update
p197
aVCell/Update
p198
aVCell/Update
p199
aVCell/Update
p200
aVCell/Update
p201
aVCell/Update
p202
aVCell/Update
p203
aVCell/Update
p204
aVCell/Update
p205
aVCell/Update
p206
aVCell/Update
p207
aVCell/Update
p208
aVCell/Update
p209
aVCell/Update
p210
aVCell/Update
p211
aVCell/Update
p212
aVCell/Update
p213
aVCell/Update
p214
aVCell/Update
p215
aVCell/Update
p216
aVCell/Update
p217
aVCell/Update
p218
aVCell/Update
p219
aVCell/Update
p220
aVCell/Update
p221
aVCell/Update
p222
aVCell/Update
p223
aVCell/Update
p224
aVCell/Update
p225
aVCell/Update
p226
aVCell/Update
p227
aVCell/Update
p228
aVCell/Update
p229
aVCell/Update
p230
aVCell/Update
p231
aVCell/Update
p232
aVCell/Update
p233
aVCell/Update
p234
aVCell/Update
p235
aVCell/Update
p236
aVCell/Update
p237
aVCell/Update
p238
aVCell/Update
p239
aVCell/Update
p240
aVCell/Update
p241
aVCell/Update
p242
aVCell/Update
p243
aVCell/Update
p244
aVCell/Update
p245
aVCell/Update
p246
aVCell/Update
p247
aVCell/Update
p248
aVCell/Update
p249
aVCell/Update
p250
aVCell/Update
p251
aVCell/Update
p252
aVCell/Update
p253
aVCell/Update
p254
aVCell/Update
p255
aVCell/Update
p256
aVCell/Update
p257
aVCell/Update
p258
aVCell/Update
p259
aVCell/Update
p260
aVCell/Update
p261
aVCell/Update
p262
aVCell/Update
p263
aVCell/Update
p264
aVCell/Update
p265
aVCell/Update
p266
aVCell/Update
p267
aVCell/Update
p268
aVCell/Update
p269
aVCell/Update
p270
aVCell/Update
p271
aVColumn/Formula
p272
aVColumn/Formula
p273
aVCell/Update
p274
aVCell/Update
p275
aVCell/Update
p276
aVCell/Update
p277
aVColumn/Formula
p278
aVColumn/Formula
p279
aVColumn/Formula
p280
aVCell/Update
p281
aVCell/Update
p282
aVCell/Update
p283
aVCell/Update
p284
aVColumn/Formula
p285
aVColumn/Formula
p286
aVColumn/Formula
p287
aVCell/Update
p288
aVCell/Update
p289
aVColumn/Formula
p290
aVCell/Update
p291
aVCell/Update
p292
aVCell/Update
p293
aVCell/Update
p294
aVCell/Update
p295
aVCell/Update
p296
aVColumn/Formula
p297
aVCell/Update
p298
aVColumn/Formula
p299
aVCell/Update
p300
aVCell/Update
p301
aVColumn/Formula
p302
aVColumn/Formula
p303
aVCell/Update
p304
aVCell/Update
p305
aVCell/Update
p306
aVCell/Update
p307
aVColumn/Formula
p308
aVColumn/Formula
p309
aVColumn/Formula
p310
aVColumn/Formula
p311
aVColumn/Formula
p312
aVCell/Update
p313
aVCell/Update
p314
aVColumn/Formula
p315
aVCell/Update
p316
aVColumn/Formula
p317
aVColumn/Formula
p318
aVCell/Update
p319
aVCell/Update
p320
aVCell/Update
p321
aVColumn/Formula
p322
aVColumn/Formula
p323
aVColumn/Formula
p324
aVCell/Update
p325
aVColumn/Formula
p326
aVCell/Update
p327
aVColumn/Formula
p328
aVColumn/Formula
p329
aVColumn/Formula
p330
aVColumn/Formula
p331
aVColumn/Formula
p332
aVColumn/Formula
p333
aVCell/Update
p334
aVColumn/Formula
p335
aVCell/Update
p336
aVCell/Update
p337
aVCell/Update
p338
aVColumn/Formula
p339
aVColumn/Formula
p340
aVColumn/Formula
p341
aVColumn/Formula
p342
aVColumn/Formula
p343
aVCell/Update
p344
aVCell/Update
p345
aVCell/Update
p346
asS'_filepath'
p347
V/home/ubuntu/SciSheets/mysite/user/guest/tables/kristen_single_gene.pcl
p348
sS'_backup_dir'
p349
g17
sbsS'_namespace'
p350
(dp351
sS'_hidden_columns'
p352
(lp353
g0
(cscisheets.core.column
Column
p354
g2
Ntp355
Rp356
(dp357
S'_asis'
p358
I00
sS'_owning_table'
p359
g4
sS'_cells'
p360
(lp361
(lp362
cnumpy.core.multiarray
scalar
p363
(cnumpy
dtype
p364
(S'f8'
p365
I0
I1
tp366
Rp367
(I3
S'<'
p368
NNNI-1
I-1
I0
tp369
bS'\x00\x00\x00\x00\x00\x00\x00\x00'
p370
tp371
Rp372
aVI
p373
ag363
(g367
S'\x00\x00\x00\x00\x00\x00\xf0?'
p374
tp375
Rp376
aa(lp377
g363
(g367
S'\x00\x00\x00\x00\x00\x00\x00\x00'
p378
tp379
Rp380
aVR1
p381
ag363
(g367
S'\x00\x00\x00\x00\x00\x00\xf0?'
p382
tp383
Rp384
aa(lp385
g363
(g367
S'\x00\x00\x00\x00\x00\x00\x00\x00'
p386
tp387
Rp388
aVR2
p389
ag363
(g367
S'\x00\x00\x00\x00\x00\x00\xf0?'
p390
tp391
Rp392
aa(lp393
g363
(g367
S'\x00\x00\x00\x00\x00\x00\xf0?'
p394
tp395
Rp396
ag373
ag363
(g367
S'\x00\x00\x00\x00\x00\x00\xf0?'
p397
tp398
Rp399
aa(lp400
g363
(g367
S'\x00\x00\x00\x00\x00\x00\xf0?'
p401
tp402
Rp403
ag373
ag363
(g367
S'\x00\x00\x00\x00\x00\x00\x00@'
p404
tp405
Rp406
aa(lp407
g363
(g367
S'\x00\x00\x00\x00\x00\x00\xf0?'
p408
tp409
Rp410
ag373
ag363
(g367
S'\x00\x00\x00\x00\x00\x00\x08@'
p411
tp412
Rp413
aa(lp414
g363
(g367
S'\x00\x00\x00\x00\x00\x00\xf0?'
p415
tp416
Rp417
ag381
ag363
(g367
S'\x00\x00\x00\x00\x00\x00\xf0?'
p418
tp419
Rp420
aa(lp421
g363
(g367
S'\x00\x00\x00\x00\x00\x00\xf0?'
p422
tp423
Rp424
ag381
ag363
(g367
S'\x00\x00\x00\x00\x00\x00\x00@'
p425
tp426
Rp427
aa(lp428
g363
(g367
S'\x00\x00\x00\x00\x00\x00\xf0?'
p429
tp430
Rp431
ag381
ag363
(g367
S'\x00\x00\x00\x00\x00\x00\x08@'
p432
tp433
Rp434
aa(lp435
g363
(g367
S'\x00\x00\x00\x00\x00\x00\xf0?'
p436
tp437
Rp438
ag389
ag363
(g367
S'\x00\x00\x00\x00\x00\x00\xf0?'
p439
tp440
Rp441
aa(lp442
g363
(g367
S'\x00\x00\x00\x00\x00\x00\xf0?'
p443
tp444
Rp445
ag389
ag363
(g367
S'\x00\x00\x00\x00\x00\x00\x00@'
p446
tp447
Rp448
aa(lp449
g363
(g367
S'\x00\x00\x00\x00\x00\x00\xf0?'
p450
tp451
Rp452
ag389
ag363
(g367
S'\x00\x00\x00\x00\x00\x00\x08@'
p453
tp454
Rp455
aa(lp456
g363
(g367
S'\x00\x00\x00\x00\x00\x00\x00@'
p457
tp458
Rp459
ag373
ag363
(g367
S'\x00\x00\x00\x00\x00\x00\xf0?'
p460
tp461
Rp462
aa(lp463
g363
(g367
S'\x00\x00\x00\x00\x00\x00\x00@'
p464
tp465
Rp466
ag381
ag363
(g367
S'\x00\x00\x00\x00\x00\x00\xf0?'
p467
tp468
Rp469
aa(lp470
g363
(g367
S'\x00\x00\x00\x00\x00\x00\x00@'
p471
tp472
Rp473
ag389
ag363
(g367
S'\x00\x00\x00\x00\x00\x00\xf0?'
p474
tp475
Rp476
aa(lp477
g363
(g367
S'\x00\x00\x00\x00\x00\x00\x08@'
p478
tp479
Rp480
ag373
ag363
(g367
S'\x00\x00\x00\x00\x00\x00\xf0?'
p481
tp482
Rp483
aa(lp484
g363
(g367
S'\x00\x00\x00\x00\x00\x00\x08@'
p485
tp486
Rp487
ag381
ag363
(g367
S'\x00\x00\x00\x00\x00\x00\xf0?'
p488
tp489
Rp490
aa(lp491
g363
(g367
S'\x00\x00\x00\x00\x00\x00\x08@'
p492
tp493
Rp494
ag389
ag363
(g367
S'\x00\x00\x00\x00\x00\x00\xf0?'
p495
tp496
Rp497
aaNaNaNaNaNaNaNaNaNaNaNaNaNaNaNaNaNaNaNaNaNaNaNaNaNaNaNaNaNaNaNaNaNaNaNaNaNaNaNaNaNaNaNaNaNaNasS'_formula_statement'
p498
g0
(cscisheets.core.helpers.formula_statement
FormulaStatement
p499
g2
Ntp500
Rp501
(dp502
S'_statement'
p503
Vsel = Eff > min_eff\u000agrouping_columns = [\u000a    Treatment[sel],\u000a     RunType[sel], \u000a    BRpl[sel],      \u000a  ]\u000aGroups, groupedCt = groupBy(\u000a     grouping_columns, Ct[sel])\u000aGroups, groupedEff = groupBy(\u000a     grouping_columns, Eff[sel])\u000aGroups = [[g[0], g[1], g[2]] for g in Groups]\u000aGroupedCt = roundValues(groupedCt,2)\u000aGroupedEff = roundValues(groupedEff,2)
p504
sS'_name'
p505
VGroups
p506
sS'_isExpression'
p507
I00
sS'_isStatement'
p508
I00
sS'_formula'
p509
Vsel = Eff > min_eff\u000agrouping_columns = [\u000a    Treatment[sel],\u000a     RunType[sel], \u000a    BRpl[sel],      \u000a  ]\u000aGroups, groupedCt = groupBy(\u000a     grouping_columns, Ct[sel])\u000aGroups, groupedEff = groupBy(\u000a     grouping_columns, Eff[sel])\u000aGroups = [[g[0], g[1], g[2]] for g in Groups]\u000aGroupedCt = roundValues(groupedCt,2)\u000aGroupedEff = roundValues(groupedEff,2)
p510
sbsS'_data_class'
p511
g0
(cscisheets.core.helpers.api_util
DataClass
p512
c__builtin__
tuple
p513
(cnumpy
ndarray
p514
cscisheets.core.helpers.api_util
makeArray
p515
tp516
tp517
Rp518
sg505
g506
sbag0
(g354
g2
Ntp519
Rp520
(dp521
g358
I00
sg359
g4
sg360
(lp522
(lp523
F0.92
aF0.91
aF0.91
aa(lp524
F0.83
aF0.83
aF0.85
aa(lp525
F0.82
aF0.85
aF0.82
aa(lp526
F0.85
aF0.84
aF0.85
aa(lp527
F0.87
aF0.78
aF0.85
aa(lp528
F0.84
aF0.84
aF0.77
aa(lp529
F0.92
aF0.98
aF0.9
aa(lp530
F0.9
aF0.83
aF0.84
aa(lp531
F0.87
aF0.85
aF0.83
aa(lp532
F0.79
aF0.84
aF0.86
aa(lp533
F0.83
aF0.82
aF0.83
aa(lp534
F0.81
aF0.82
aF0.8
aa(lp535
F0.84
aF0.79
aF0.81
aa(lp536
F0.77
aF0.87
aF0.81
aa(lp537
F0.78
aF0.77
aF0.79
aa(lp538
F0.88
aF0.86
aF0.89
aa(lp539
F0.87
aF0.9
aF0.86
aa(lp540
F0.82
aF0.82
aF0.79
aaNaNaNaNaNaNaNaNaNaNaNaNaNaNaNaNaNaNaNaNaNaNaNaNaNaNaNaNaNaNaNaNaNaNaNaNaNaNaNaNaNaNaNaNaNaNasg498
g0
(g499
g2
Ntp541
Rp542
(dp543
g503
NsS'_column'
p544
g520
sg507
I00
sg508
I00
sg509
Nsbsg511
g0
(g512
g513
(g514
g515
tp545
tp546
Rp547
sg505
VGroupedEff
p548
sbag0
(g354
g2
Ntp549
Rp550
(dp551
g358
I00
sg359
g4
sg360
(lp552
(lp553
F18.31
aF18.29
aF18.15
aa(lp554
F18.24
aF18.22
aF18.36
aa(lp555
F19.72
aF19.75
aF20.01
aa(lp556
F22.42
aF22.5
aF22.44
aa(lp557
F21.92
aF22.03
aF21.94
aa(lp558
F23.4
aF23.47
aF23.41
aa(lp559
F19.92
aF19.85
aF20.0
aa(lp560
F21.86
aF22.09
aF21.84
aa(lp561
F23.89
aF23.54
aF24.27
aa(lp562
F22.18
aF21.71
aF21.75
aa(lp563
F23.88
aF23.42
aF23.63
aa(lp564
F24.59
aF24.61
aF24.34
aa(lp565
F23.48
aF23.31
aF23.45
aa(lp566
F23.22
aF23.8
aF23.49
aa(lp567
F26.37
aF26.36
aF26.17
aa(lp568
F18.82
aF18.97
aF18.92
aa(lp569
F18.91
aF18.78
aF18.8
aa(lp570
F20.5
aF20.47
aF20.28
aaNaNaNaNaNaNaNaNaNaNaNaNaNaNaNaNaNaNaNaNaNaNaNaNaNaNaNaNaNaNaNaNaNaNaNaNaNaNaNaNaNaNaNaNaNaNasg498
g0
(g499
g2
Ntp571
Rp572
(dp573
g503
Nsg544
g550
sg507
I00
sg508
I00
sg509
Nsbsg511
g0
(g512
g513
(g514
g515
tp574
tp575
Rp576
sg505
VGroupedCt
p577
sbag0
(g354
g2
Ntp578
Rp579
(dp580
g358
I00
sg359
g4
sg360
(lp581
(lp582
F18.3
aF18.3
aF18.1
aa(lp583
F18.2
aF18.2
aF18.4
aa(lp584
F19.7
aF19.8
aF20.0
aa(lp585
F22.4
aF22.5
aF22.4
aa(lp586
F21.9
aF22.0
aF21.9
aa(lp587
F23.4
aF23.5
aF23.4
aa(lp588
F19.9
aF19.9
aF20.0
aa(lp589
F21.9
aF22.1
aF21.8
aa(lp590
F23.9
aF23.5
aF24.3
aa(lp591
F22.2
aF21.7
aF21.8
aa(lp592
F23.9
aF23.4
aF23.6
aa(lp593
F24.6
aF24.6
aF24.3
aa(lp594
F23.5
aF23.3
aF23.4
aa(lp595
F23.2
aF23.8
aF23.5
aa(lp596
F26.4
aF26.4
aF26.2
aa(lp597
F18.8
aF19.0
aF18.9
aa(lp598
F18.9
aF18.8
aF18.8
aa(lp599
F20.5
aF20.5
aF20.3
aaNaNaNaNaNaNaNaNaNaNaNaNaNaNaNaNaNaNaNaNaNaNaNaNaNaNaNaNaNaNaNaNaNaNaNaNaNaNaNaNaNaNaNaNaNaNasg498
g0
(g499
g2
Ntp600
Rp601
(dp602
g503
Vlength = len(Groups)\u000aStdFilteredGroupedCt = roundValues([filterExtremes(g, max_std, 2) for g in pruneNulls(GroupedCt)])\u000a 
p603
sg505
VStdFilteredGroupedCt
p604
sg507
I00
sg508
I00
sg509
Vlength = len(Groups)\u000aStdFilteredGroupedCt = roundValues([filterExtremes(g, max_std, 2) for g in pruneNulls(GroupedCt)])\u000a 
p605
sbsg511
g0
(g512
g513
(g514
g515
tp606
tp607
Rp608
sg505
g604
sbag0
(g354
g2
Ntp609
Rp610
(dp611
g358
I00
sg359
g4
sg360
(lp612
F18.2
aF18.3
aF19.8
aF22.4
aF21.9
aF23.4
aF19.9
aF21.9
aF23.9
aF21.9
aF23.6
aF24.5
aF23.4
aF23.5
aF26.3
aF18.9
aF18.8
aF20.4
aFnan
aFnan
aFnan
aFnan
aFnan
aFnan
aFnan
aFnan
aFnan
aFnan
aFnan
aFnan
aFnan
aFnan
aFnan
aFnan
aFnan
aFnan
aFnan
aFnan
aFnan
aFnan
aFnan
aFnan
aFnan
aFnan
aFnan
aFnan
aFnan
aFnan
aFnan
aFnan
aFnan
aFnan
aFnan
aFnan
aFnan
aFnan
aFnan
aFnan
aFnan
aFnan
aFnan
aFnan
aFnan
aFnan
asg498
g0
(g499
g2
Ntp613
Rp614
(dp615
g503
VMeanCt = [np.mean(g) for g in StdFilteredGroupedCt]\u000aMeanCt = roundValues(MeanCt,1)\u000aStdCt = [np.std(g, ddof=1) for g in StdFilteredGroupedCt]\u000aStdCt = roundValues(StdCt,3)
p616
sg505
VMeanCt
p617
sg507
I00
sg508
I00
sg509
VMeanCt = [np.mean(g) for g in StdFilteredGroupedCt]\u000aMeanCt = roundValues(MeanCt,1)\u000aStdCt = [np.std(g, ddof=1) for g in StdFilteredGroupedCt]\u000aStdCt = roundValues(StdCt,3)
p618
sbsg511
g0
(g512
g513
(g514
g515
tp619
tp620
Rp621
sg505
g617
sbag0
(g354
g2
Ntp622
Rp623
(dp624
g358
I00
sg359
g4
sg360
(lp625
F0.115
aF0.115
aF0.153
aF0.058
aF0.058
aF0.058
aF0.058
aF0.153
aF0.4
aF0.265
aF0.252
aF0.173
aF0.1
aF0.3
aF0.115
aF0.1
aF0.058
aF0.115
aFnan
aFnan
aFnan
aFnan
aFnan
aFnan
aFnan
aFnan
aFnan
aFnan
aFnan
aFnan
aFnan
aFnan
aFnan
aFnan
aFnan
aFnan
aFnan
aFnan
aFnan
aFnan
aFnan
aFnan
aFnan
aFnan
aFnan
aFnan
aFnan
aFnan
aFnan
aFnan
aFnan
aFnan
aFnan
aFnan
aFnan
aFnan
aFnan
aFnan
aFnan
aFnan
aFnan
aFnan
aFnan
aFnan
asg498
g0
(g499
g2
Ntp626
Rp627
(dp628
g503
Nsg544
g623
sg507
I00
sg508
I00
sg509
Nsbsg511
g0
(g512
g513
(g514
g515
tp629
tp630
Rp631
sg505
VStdCt
p632
sbag0
(g354
g2
Ntp633
Rp634
(dp635
g358
I00
sg359
g4
sg360
(lp636
(lp637
g363
(g367
S'\x00\x00\x00\x00\x00\x00\x00\x00'
p638
tp639
Rp640
ag363
(g367
S'\x00\x00\x00\x00\x00\x00\xf0?'
p641
tp642
Rp643
aa(lp644
g363
(g367
S'\x00\x00\x00\x00\x00\x00\xf0?'
p645
tp646
Rp647
ag363
(g367
S'\x00\x00\x00\x00\x00\x00\xf0?'
p648
tp649
Rp650
aa(lp651
g363
(g367
S'\x00\x00\x00\x00\x00\x00\xf0?'
p652
tp653
Rp654
ag363
(g367
S'\x00\x00\x00\x00\x00\x00\x00@'
p655
tp656
Rp657
aa(lp658
g363
(g367
S'\x00\x00\x00\x00\x00\x00\xf0?'
p659
tp660
Rp661
ag363
(g367
S'\x00\x00\x00\x00\x00\x00\x08@'
p662
tp663
Rp664
aa(lp665
g363
(g367
S'\x00\x00\x00\x00\x00\x00\x00@'
p666
tp667
Rp668
ag363
(g367
S'\x00\x00\x00\x00\x00\x00\xf0?'
p669
tp670
Rp671
aa(lp672
g363
(g367
S'\x00\x00\x00\x00\x00\x00\x08@'
p673
tp674
Rp675
ag363
(g367
S'\x00\x00\x00\x00\x00\x00\xf0?'
p676
tp677
Rp678
aaNaNaNaNaNaNaNaNaNaNaNaNaNaNaNaNaNaNaNaNaNaNaNaNaNaNaNaNaNaNaNaNaNaNaNaNaNaNaNaNaNaNaNaNaNaNaNaNaNaNaNaNaNaNaNaNaNaNasg498
g0
(g499
g2
Ntp679
Rp680
(dp681
g503
Vdummy = tabularize(s, 'Groups', 1, 'MeanCt', \u000a          new_category_colnm='BioRuns',\u000a          values_colnm_prefix='Gene_')
p682
sg505
VBioRuns
p683
sg507
I00
sg508
I00
sg509
Vdummy = tabularize(s, 'Groups', 1, 'MeanCt', \u000a          new_category_colnm='BioRuns',\u000a          values_colnm_prefix='Gene_')
p684
sbsg511
g0
(g512
g513
(g514
g515
tp685
tp686
Rp687
sg505
g683
sbag0
(g354
g2
Ntp688
Rp689
(dp690
g358
I00
sg359
g4
sg360
(lp691
F18.2
aF22.4
aF21.9
aF23.4
aF23.4
aF18.9
aFnan
aFnan
aFnan
aFnan
aFnan
aFnan
aFnan
aFnan
aFnan
aFnan
aFnan
aFnan
aFnan
aFnan
aFnan
aFnan
aFnan
aFnan
aFnan
aFnan
aFnan
aFnan
aFnan
aFnan
aFnan
aFnan
aFnan
aFnan
aFnan
aFnan
aFnan
aFnan
aFnan
aFnan
aFnan
aFnan
aFnan
aFnan
aFnan
aFnan
aFnan
aFnan
aFnan
aFnan
aFnan
aFnan
aFnan
aFnan
aFnan
aFnan
aFnan
aFnan
aFnan
aFnan
aFnan
aFnan
aFnan
aFnan
asg498
g0
(g499
g2
Ntp692
Rp693
(dp694
g503
Nsg544
g689
sg507
I00
sg508
I00
sg509
Nsbsg511
g0
(g512
g513
(g514
g515
tp695
tp696
Rp697
sg505
S'Gene_I'
p698
sbag0
(g354
g2
Ntp699
Rp700
(dp701
g358
I00
sg359
g4
sg360
(lp702
F18.3
aF19.9
aF21.9
aF23.9
aF23.5
aF18.8
aFnan
aFnan
aFnan
aFnan
aFnan
aFnan
aFnan
aFnan
aFnan
aFnan
aFnan
aFnan
aFnan
aFnan
aFnan
aFnan
aFnan
aFnan
aFnan
aFnan
aFnan
aFnan
aFnan
aFnan
aFnan
aFnan
aFnan
aFnan
aFnan
aFnan
aFnan
aFnan
aFnan
aFnan
aFnan
aFnan
aFnan
aFnan
aFnan
aFnan
aFnan
aFnan
aFnan
aFnan
aFnan
aFnan
aFnan
aFnan
aFnan
aFnan
aFnan
aFnan
aFnan
aFnan
aFnan
aFnan
aFnan
aFnan
asg498
g0
(g499
g2
Ntp703
Rp704
(dp705
g503
Nsg544
g700
sg507
I00
sg508
I00
sg509
Nsbsg511
g697
sg505
S'Gene_R1'
p706
sbag0
(g354
g2
Ntp707
Rp708
(dp709
g358
I00
sg359
g4
sg360
(lp710
F19.8
aF21.9
aF23.6
aF24.5
aF26.3
aF20.4
aFnan
aFnan
aFnan
aFnan
aFnan
aFnan
aFnan
aFnan
aFnan
aFnan
aFnan
aFnan
aFnan
aFnan
aFnan
aFnan
aFnan
aFnan
aFnan
aFnan
aFnan
aFnan
aFnan
aFnan
aFnan
aFnan
aFnan
aFnan
aFnan
aFnan
aFnan
aFnan
aFnan
aFnan
aFnan
aFnan
aFnan
aFnan
aFnan
aFnan
aFnan
aFnan
aFnan
aFnan
aFnan
aFnan
aFnan
aFnan
aFnan
aFnan
aFnan
aFnan
aFnan
aFnan
aFnan
aFnan
aFnan
aFnan
asg498
g0
(g499
g2
Ntp711
Rp712
(dp713
g503
Nsg544
g708
sg507
I00
sg508
I00
sg509
Nsbsg511
g697
sg505
S'Gene_R2'
p714
sbag0
(g354
g2
Ntp715
Rp716
(dp717
g358
I00
sg359
g4
sg360
(lp718
F1.07177
aF0.17678
aF1.0
aF1.41421
aF1.07177
aF0.93303
aFnan
aFnan
aFnan
aFnan
aFnan
aFnan
aFnan
aFnan
aFnan
aFnan
aFnan
aFnan
aFnan
aFnan
aFnan
aFnan
aFnan
aFnan
aFnan
aFnan
aFnan
aFnan
aFnan
aFnan
aFnan
aFnan
aFnan
aFnan
aFnan
aFnan
aFnan
aFnan
aFnan
aFnan
aFnan
aFnan
aFnan
aFnan
aFnan
aFnan
aFnan
aFnan
aFnan
aFnan
aFnan
aFnan
aFnan
aFnan
aFnan
aFnan
aFnan
aFnan
aFnan
aFnan
aFnan
aFnan
aFnan
aFnan
asg498
g0
(g499
g2
Ntp719
Rp720
(dp721
g503
VExprR1 = roundValues(2**(Gene_R1 - Gene_I),5)
p722
sg505
VExprR1
p723
sg507
I01
sg508
I00
sg509
VroundValues(2**(Gene_R1 - Gene_I),5)
p724
sbsg511
g0
(g512
g513
(g514
g515
tp725
tp726
Rp727
sg505
g723
sbag0
(g354
g2
Ntp728
Rp729
(dp730
g358
I00
sg359
g4
sg360
(lp731
F3.03143
aF0.70711
aF3.24901
aF2.14355
aF7.46426
aF2.82843
aFnan
aFnan
aFnan
aFnan
aFnan
aFnan
aFnan
aFnan
aFnan
aFnan
aFnan
aFnan
aFnan
aFnan
aFnan
aFnan
aFnan
aFnan
aFnan
aFnan
aFnan
aFnan
aFnan
aFnan
aFnan
aFnan
aFnan
aFnan
aFnan
aFnan
aFnan
aFnan
aFnan
aFnan
aFnan
aFnan
aFnan
aFnan
aFnan
aFnan
aFnan
aFnan
aFnan
aFnan
aFnan
aFnan
aFnan
aFnan
aFnan
aFnan
aFnan
aFnan
aFnan
aFnan
aFnan
aFnan
aFnan
aFnan
asg498
g0
(g499
g2
Ntp732
Rp733
(dp734
g503
VExprR2 = roundValues(2**(Gene_R2 - Gene_I),5)
p735
sg505
VExprR2
p736
sg507
I01
sg508
I00
sg509
VroundValues(2**(Gene_R2 - Gene_I),5)
p737
sbsg511
g0
(g512
g513
(g514
g515
tp738
tp739
Rp740
sg505
g736
sbag0
(g354
g2
Ntp741
Rp742
(dp743
g358
I00
sg359
g4
sg360
(lp744
F1.802
aF0.354
aF1.803
aF1.741
aF2.828
aF1.625
aFnan
aFnan
aFnan
aFnan
aFnan
aFnan
aFnan
aFnan
aFnan
aFnan
aFnan
aFnan
aFnan
aFnan
aFnan
aFnan
aFnan
aFnan
aFnan
aFnan
aFnan
aFnan
aFnan
aFnan
aFnan
aFnan
aFnan
aFnan
aFnan
aFnan
aFnan
aFnan
aFnan
aFnan
aFnan
aFnan
aFnan
aFnan
aFnan
aFnan
aFnan
aFnan
aFnan
aFnan
aFnan
aFnan
aFnan
aFnan
aFnan
aFnan
aFnan
aFnan
aFnan
aFnan
aFnan
aFnan
aFnan
aFnan
asg498
g0
(g499
g2
Ntp745
Rp746
(dp747
g503
VGeoMean = roundValues(np.sqrt(ExprR1*ExprR2), 3)
p748
sg505
VGeoMean
p749
sg507
I01
sg508
I00
sg509
VroundValues(np.sqrt(ExprR1*ExprR2), 3)
p750
sbsg511
g0
(g512
g513
(g514
g515
tp751
tp752
Rp753
sg505
g749
sbasS'_is_evaluate_formulas'
p754
I00
sS'_prologue'
p755
g0
(g499
g2
Ntp756
Rp757
(dp758
g503
V# Prologue\u000aimport math as mt\u000aimport numpy as np\u000afrom os import listdir\u000afrom os.path import isfile, join\u000aimport pandas as pd\u000aimport scipy as sp\u000afrom numpy import nan  # Must follow sympy import \u000a\u000axlsx_path =   '/mnt/hgfs/josephhellerstein/home/Technical/SciSheets/CaseStudies/Kristen/workbooks/data.xlsx'\u000agene = ParmValues[0]\u000arun = ParmValues[1] == 'True'\u000ashow_raw = ParmValues[2] == 'True'\u000ashow_block1 = ParmValues[3] == 'True'\u000ashow_block2 = ParmValues[4] == 'True'\u000ashow_block3 = ParmValues[5] == 'True'\u000ashow_params = ParmValues[8] == 'True'\u000a#show_params = True\u000amax_std  = float(ParmValues[6])\u000amin_eff = float(ParmValues[7])\u000aworksheet = gene + "-I"\u000as.getTable().setIsEvaluateFormulas(run)\u000as.setColumnVisibility()\u000as.setColumnVisibility(['Groups', 'GroupedEff', 'GroupedCt', 'StdFilteredGroupedCt', 'MeanCt',\u000a    'StdCt'], is_visible=show_block1)\u000as.setColumnVisibility(['BioRuns', 'Gene_I', 'Gene_R1', 'Gene_R2', 'ExprR1', 'ExprR2', \u000a    'GeoMean'], is_visible=show_block2)\u000as.setColumnVisibility(['GeoGroups', 'GroupedGeoMeans', 'NrmlGeoGroupedMeans', \u000a    'MeanNrmlGeoGroups', 'StdNrmlGeoGroups'], is_visible=show_block3)\u000aif run:\u000a  Groups = []\u000a  GroupedCt = []\u000a  GroupedEff = []\u000a  MeanCt = []\u000a  Imp = []\u000a  s.deleteColumn('Ct')\u000a  s.deleteColumn('RunType')\u000a  s.deleteColumn('BRpl')\u000a  s.deleteColumn('TRpl')\u000a  s.deleteColumn('Treatment')\u000a  s.deleteColumn('Eff')\u000aif run:\u000a  importExcelToTable(s, xlsx_path, worksheet=worksheet,\u000a      column_position='ParmValues',\u000a      names=['Treatment', 'RunType', 'BRpl', 'TRpl', 'Eff', 'Ct'])\u000a#s.setColumnVisibility(['BRpl', 'Ct', 'Eff', 'RunType', 'TRpl', 'Treatment'], is_visible=show_raw)\u000a#s.setColumnVisibility(['ParmNames', 'ParmValues'], show_params)
p759
sg505
VSingleGene
p760
sg507
I00
sg508
I00
sg509
V# Prologue\u000aimport math as mt\u000aimport numpy as np\u000afrom os import listdir\u000afrom os.path import isfile, join\u000aimport pandas as pd\u000aimport scipy as sp\u000afrom numpy import nan  # Must follow sympy import \u000a\u000axlsx_path =   '/mnt/hgfs/josephhellerstein/home/Technical/SciSheets/CaseStudies/Kristen/workbooks/data.xlsx'\u000agene = ParmValues[0]\u000arun = ParmValues[1] == 'True'\u000ashow_raw = ParmValues[2] == 'True'\u000ashow_block1 = ParmValues[3] == 'True'\u000ashow_block2 = ParmValues[4] == 'True'\u000ashow_block3 = ParmValues[5] == 'True'\u000ashow_params = ParmValues[8] == 'True'\u000a#show_params = True\u000amax_std  = float(ParmValues[6])\u000amin_eff = float(ParmValues[7])\u000aworksheet = gene + "-I"\u000as.getTable().setIsEvaluateFormulas(run)\u000as.setColumnVisibility()\u000as.setColumnVisibility(['Groups', 'GroupedEff', 'GroupedCt', 'StdFilteredGroupedCt', 'MeanCt',\u000a    'StdCt'], is_visible=show_block1)\u000as.setColumnVisibility(['BioRuns', 'Gene_I', 'Gene_R1', 'Gene_R2', 'ExprR1', 'ExprR2', \u000a    'GeoMean'], is_visible=show_block2)\u000as.setColumnVisibility(['GeoGroups', 'GroupedGeoMeans', 'NrmlGeoGroupedMeans', \u000a    'MeanNrmlGeoGroups', 'StdNrmlGeoGroups'], is_visible=show_block3)\u000aif run:\u000a  Groups = []\u000a  GroupedCt = []\u000a  GroupedEff = []\u000a  MeanCt = []\u000a  Imp = []\u000a  s.deleteColumn('Ct')\u000a  s.deleteColumn('RunType')\u000a  s.deleteColumn('BRpl')\u000a  s.deleteColumn('TRpl')\u000a  s.deleteColumn('Treatment')\u000a  s.deleteColumn('Eff')\u000aif run:\u000a  importExcelToTable(s, xlsx_path, worksheet=worksheet,\u000a      column_position='ParmValues',\u000a      names=['Treatment', 'RunType', 'BRpl', 'TRpl', 'Eff', 'Ct'])\u000a#s.setColumnVisibility(['BRpl', 'Ct', 'Eff', 'RunType', 'TRpl', 'Treatment'], is_visible=show_raw)\u000a#s.setColumnVisibility(['ParmNames', 'ParmValues'], show_params)
p761
sbsS'_epilogue'
p762
g0
(g499
g2
Ntp763
Rp764
(dp765
g503
V# Epilogue\u000aif run:\u000a  worksheet = "%s-O" % gene\u000a  exportTableToExcel(s, xlsx_path, worksheet=worksheet, columns=['GeoGroups',  \u000a      'MeanNrmlGeoGroups', 'StdNrmlGeoGroups'])\u000a
p766
sg505
g760
sg507
I00
sg508
I00
sg509
V# Epilogue\u000aif run:\u000a  worksheet = "%s-O" % gene\u000a  exportTableToExcel(s, xlsx_path, worksheet=worksheet, columns=['GeoGroups',  \u000a      'MeanNrmlGeoGroups', 'StdNrmlGeoGroups'])\u000a
p767
sbsg505
g760
sS'_columns'
p768
(lp769
g0
(g354
g2
Ntp770
Rp771
(dp772
g358
I01
sg359
g4
sg360
(lp773
S'1'
p774
aS'2'
p775
aS'3'
p776
aS'4'
p777
aS'5'
p778
aS'6'
p779
aS'7'
p780
aS'8'
p781
aS'9'
p782
aS'10'
p783
aS'11'
p784
aS'12'
p785
aS'13'
p786
aS'14'
p787
aS'15'
p788
aS'16'
p789
aS'17'
p790
aS'18'
p791
aS'19'
p792
aS'20'
p793
aS'21'
p794
aS'22'
p795
aS'23'
p796
aS'24'
p797
aS'25'
p798
aS'26'
p799
aS'27'
p800
aS'28'
p801
aS'29'
p802
aS'30'
p803
aS'31'
p804
aS'32'
p805
aS'33'
p806
aS'34'
p807
aS'35'
p808
aS'36'
p809
aS'37'
p810
aS'38'
p811
aS'39'
p812
aS'40'
p813
aS'41'
p814
aS'42'
p815
aS'43'
p816
aS'44'
p817
aS'45'
p818
aS'46'
p819
aS'47'
p820
aS'48'
p821
aS'49'
p822
aS'50'
p823
aS'51'
p824
aS'52'
p825
aS'53'
p826
aS'54'
p827
aS'55'
p828
aS'56'
p829
aS'57'
p830
aS'58'
p831
aS'59'
p832
aS'60'
p833
aS'61'
p834
aS'62'
p835
aS'63'
p836
aS'64'
p837
asg498
g0
(g499
g2
Ntp838
Rp839
(dp840
g503
Nsg544
g771
sg507
I00
sg508
I00
sg509
Nsbsg511
g0
(g512
g513
(g514
g515
tp841
tp842
Rp843
sg505
S'row'
p844
sbag0
(g354
g2
Ntp845
Rp846
(dp847
g358
I00
sg359
g4
sg360
(lp848
Vgene
p849
aVrun
p850
aVshow_raw
p851
aVshow_block1
p852
aVshow_block2
p853
aVshow_block3
p854
aVmax_std
p855
aVmin_eff
p856
aVshow_params
p857
aVnan
p858
aVnan
p859
aVnan
p860
aVnan
p861
aVnan
p862
aVnan
p863
aVnan
p864
aVnan
p865
aVnan
p866
aVnan
p867
aVnan
p868
aVnan
p869
aVnan
p870
aVnan
p871
aVnan
p872
aVnan
p873
aVnan
p874
aVnan
p875
aVnan
p876
aVnan
p877
aVnan
p878
aVnan
p879
aVnan
p880
aVnan
p881
aVnan
p882
aVnan
p883
aVnan
p884
aVnan
p885
aVnan
p886
aVnan
p887
aVnan
p888
aVnan
p889
aVnan
p890
aVnan
p891
aVnan
p892
aVnan
p893
aVnan
p894
aVnan
p895
aVnan
p896
aVnan
p897
aVnan
p898
aVnan
p899
aVnan
p900
aVnan
p901
aVnan
p902
aNaNaNaNaNaNaNaNaNaNasg498
g0
(g499
g2
Ntp903
Rp904
(dp905
g503
Nsg544
g846
sg507
I00
sg508
I00
sg509
Nsbsg511
g0
(g512
g513
(g514
g515
tp906
tp907
Rp908
sg505
VParmNames
p909
sbag0
(g354
g2
Ntp910
Rp911
(dp912
g358
I00
sg359
g4
sg360
(lp913
VGene1
p914
aVFalse
p915
aVFalse
p916
aVFalse
p917
aVFalse
p918
aVTrue
p919
aF0.5
aV0.7
p920
aVTrue
p921
aV
p922
aVnan
p923
aVnan
p924
aVnan
p925
aVnan
p926
aVnan
p927
aVnan
p928
aVnan
p929
aVnan
p930
aVnan
p931
aVnan
p932
aVnan
p933
aVnan
p934
aVnan
p935
aVnan
p936
aVnan
p937
aVnan
p938
aVnan
p939
aVnan
p940
aVnan
p941
aVnan
p942
aVnan
p943
aVnan
p944
aVnan
p945
aVnan
p946
aVnan
p947
aVnan
p948
aVnan
p949
aVnan
p950
aVnan
p951
aVnan
p952
aVnan
p953
aVnan
p954
aVnan
p955
aVnan
p956
aVnan
p957
aVnan
p958
aVnan
p959
aVnan
p960
aVnan
p961
aVnan
p962
aVnan
p963
aVnan
p964
aVnan
p965
aVnan
p966
aNaNaNaNaNaNaNaNaNaNasg498
g0
(g499
g2
Ntp967
Rp968
(dp969
g503
Nsg505
VParmValues
p970
sg507
I00
sg508
I00
sg509
Nsbsg511
g0
(g512
g513
(g514
g515
tp971
tp972
Rp973
sg505
g970
sbag356
ag520
ag550
ag579
ag610
ag623
ag634
ag689
ag700
ag708
ag716
ag729
ag742
ag0
(g354
g2
Ntp974
Rp975
(dp976
g358
I00
sg359
g4
sg360
(lp977
(lp978
g363
(g367
S'\x00\x00\x00\x00\x00\x00\x00\x00'
p979
tp980
Rp981
aa(lp982
g363
(g367
S'\x00\x00\x00\x00\x00\x00\xf0?'
p983
tp984
Rp985
aa(lp986
g363
(g367
S'\x00\x00\x00\x00\x00\x00\x00@'
p987
tp988
Rp989
aa(lp990
g363
(g367
S'\x00\x00\x00\x00\x00\x00\x08@'
p991
tp992
Rp993
aaNaNaNaNaNaNaNaNaNaNaNaNaNaNaNaNaNaNaNaNaNaNaNaNaNaNaNaNaNaNaNaNaNaNaNaNaNaNaNaNaNaNaNaNaNaNaNaNaNaNaNaNaNaNaNaNaNaNaNaNasg498
g0
(g499
g2
Ntp994
Rp995
(dp996
g503
Vcat_vals = [br[0] for br in pruneNulls(BioRuns)]\u000aclean_geo = [x for x in GeoMean if x is not None]\u000aGeoGroups, groupedGeoMeans = groupBy(cat_vals, clean_geo)\u000aGroupedGeoMeans = roundValues(groupedGeoMeans, 3)\u000aGeoGroups = [[x] for x in GeoGroups]
p997
sg505
VGeoGroups
p998
sg507
I00
sg508
I00
sg509
Vcat_vals = [br[0] for br in pruneNulls(BioRuns)]\u000aclean_geo = [x for x in GeoMean if x is not None]\u000aGeoGroups, groupedGeoMeans = groupBy(cat_vals, clean_geo)\u000aGroupedGeoMeans = roundValues(groupedGeoMeans, 3)\u000aGeoGroups = [[x] for x in GeoGroups]
p999
sbsg511
g0
(g512
g513
(g514
g515
tp1000
tp1001
Rp1002
sg505
g998
sbag0
(g354
g2
Ntp1003
Rp1004
(dp1005
g358
I00
sg359
g4
sg360
(lp1006
cnumpy.core.multiarray
_reconstruct
p1007
(g514
(I0
tp1008
S'b'
p1009
tp1010
Rp1011
(I1
(I1
tp1012
g364
(S'f8'
p1013
I0
I1
tp1014
Rp1015
(I3
S'<'
p1016
NNNI-1
I-1
I0
tp1017
bI00
S'\xa2E\xb6\xf3\xfd\xd4\xfc?'
p1018
tp1019
bag1007
(g514
(I0
tp1020
g1009
tp1021
Rp1022
(I1
(I3
tp1023
g1015
I00
S'\x0e-\xb2\x9d\xef\xa7\xd6?\x0c\x02+\x87\x16\xd9\xfc?B`\xe5\xd0"\xdb\xfb?'
p1024
tp1025
bag1007
(g514
(I0
tp1026
g1009
tp1027
Rp1028
(I1
(I1
tp1029
g1015
I00
S'9\xb4\xc8v\xbe\x9f\x06@'
p1030
tp1031
bag1007
(g514
(I0
tp1032
g1009
tp1033
Rp1034
(I1
(I1
tp1035
g1015
I00
S'\x00\x00\x00\x00\x00\x00\xfa?'
p1036
tp1037
baNaNaNaNaNaNaNaNaNaNaNaNaNaNaNaNaNaNaNaNaNaNaNaNaNaNaNaNaNaNaNaNaNaNaNaNaNaNaNaNaNaNaNaNaNaNaNaNaNaNaNaNaNaNaNaNaNaNaNaNasg498
g0
(g499
g2
Ntp1038
Rp1039
(dp1040
g503
Nsg544
g1004
sg507
I00
sg508
I00
sg509
Nsbsg511
g0
(g512
g513
(g514
g515
tp1041
tp1042
Rp1043
sg505
VGroupedGeoMeans
p1044
sbag0
(g354
g2
Ntp1045
Rp1046
(dp1047
g358
I00
sg359
g4
sg360
(lp1048
g1007
(g514
(I0
tp1049
g1009
tp1050
Rp1051
(I1
(I1
tp1052
g1015
I00
S'\x00\x00\x00\x00\x00\x00\xf0?'
p1053
tp1054
bag1007
(g514
(I0
tp1055
g1009
tp1056
Rp1057
(I1
(I3
tp1058
g1015
I00
S'J\x0c\x02+\x87\x16\xc9?j\xbct\x93\x18\x04\xf0?\xb6\xf3\xfd\xd4x\xe9\xee?'
p1059
tp1060
bag1007
(g514
(I0
tp1061
g1009
tp1062
Rp1063
(I1
(I1
tp1064
g1015
I00
S'\xb4\xc8v\xbe\x9f\x1a\xf9?'
p1065
tp1066
bag1007
(g514
(I0
tp1067
g1009
tp1068
Rp1069
(I1
(I1
tp1070
g1015
I00
S'w\xbe\x9f\x1a/\xdd\xec?'
p1071
tp1072
baNaNaNaNaNaNaNaNaNaNaNaNaNaNaNaNaNaNaNaNaNaNaNaNaNaNaNaNaNaNaNaNaNaNaNaNaNaNaNaNaNaNaNaNaNaNaNaNaNaNaNaNaNaNaNaNaNaNaNaNasg498
g0
(g499
g2
Ntp1073
Rp1074
(dp1075
g503
Vref = np.mean(GroupedGeoMeans[0])\u000aNrmlGeoGroupedMeans = [ [x/ref for x in g] for g in GroupedGeoMeans if g is not None]  \u000aNrmlGeoGroupedMeans = roundValues(NrmlGeoGroupedMeans, 3)
p1076
sg505
VNrmlGeoGroupedMeans
p1077
sg507
I00
sg508
I00
sg509
Vref = np.mean(GroupedGeoMeans[0])\u000aNrmlGeoGroupedMeans = [ [x/ref for x in g] for g in GroupedGeoMeans if g is not None]  \u000aNrmlGeoGroupedMeans = roundValues(NrmlGeoGroupedMeans, 3)
p1078
sbsg511
g0
(g512
g513
(g514
g515
tp1079
tp1080
Rp1081
sg505
g1077
sbag0
(g354
g2
Ntp1082
Rp1083
(dp1084
g358
I00
sg359
g4
sg360
(lp1085
F1.0
aF0.721
aF1.569
aF0.902
aFnan
aFnan
aFnan
aFnan
aFnan
aFnan
aFnan
aFnan
aFnan
aFnan
aFnan
aFnan
aFnan
aFnan
aFnan
aFnan
aFnan
aFnan
aFnan
aFnan
aFnan
aFnan
aFnan
aFnan
aFnan
aFnan
aFnan
aFnan
aFnan
aFnan
aFnan
aFnan
aFnan
aFnan
aFnan
aFnan
aFnan
aFnan
aFnan
aFnan
aFnan
aFnan
aFnan
aFnan
aFnan
aFnan
aFnan
aFnan
aFnan
aFnan
aFnan
aFnan
aFnan
aFnan
aFnan
aFnan
aFnan
aFnan
aFnan
aFnan
asg498
g0
(g499
g2
Ntp1086
Rp1087
(dp1088
g503
VMeanNrmlGeoGroups = [round(np.mean(g), 3) for g in NrmlGeoGroupedMeans]
p1089
sg505
VMeanNrmlGeoGroups
p1090
sg507
I01
sg508
I00
sg509
V[round(np.mean(g), 3) for g in NrmlGeoGroupedMeans]
p1091
sbsg511
g0
(g512
g513
(g514
g515
tp1092
tp1093
Rp1094
sg505
g1090
sbag0
(g354
g2
Ntp1095
Rp1096
(dp1097
g358
I00
sg359
g4
sg360
(lp1098
Fnan
aF0.263
aFnan
aFnan
aFnan
aFnan
aFnan
aFnan
aFnan
aFnan
aFnan
aFnan
aFnan
aFnan
aFnan
aFnan
aFnan
aFnan
aFnan
aFnan
aFnan
aFnan
aFnan
aFnan
aFnan
aFnan
aFnan
aFnan
aFnan
aFnan
aFnan
aFnan
aFnan
aFnan
aFnan
aFnan
aFnan
aFnan
aFnan
aFnan
aFnan
aFnan
aFnan
aFnan
aFnan
aFnan
aFnan
aFnan
aFnan
aFnan
aFnan
aFnan
aFnan
aFnan
aFnan
aFnan
aFnan
aFnan
aFnan
aFnan
aFnan
aFnan
aFnan
aFnan
asg498
g0
(g499
g2
Ntp1099
Rp1100
(dp1101
g503
VStdNrmlGeoGroups = [round(np.std(g, ddof=1)/np.sqrt(len(g)), 3) for g in NrmlGeoGroupedMeans]\u000a
p1102
sg505
VStdNrmlGeoGroups
p1103
sg507
I01
sg508
I00
sg509
V[round(np.std(g, ddof=1)/np.sqrt(len(g)), 3) for g in NrmlGeoGroupedMeans]\u000a
p1104
sbsg511
g0
(g512
g513
(g514
g515
tp1105
tp1106
Rp1107
sg505
g1103
sbasg347
V/home/ubuntu/SciSheets/mysite/user/guest/tables/kristen_single_gene.pcl
p1108
sb.