ccopy_reg
_reconstructor
p0
(cscisheets.ui.dt_table
DTTable
p1
c__builtin__
object
p2
Ntp3
Rp4
(dp5
S'_columns'
p6
(lp7
g0
(cscisheets.core.column
Column
p8
g2
Ntp9
Rp10
(dp11
S'_asis'
p12
I01
sS'_owning_table'
p13
g4
sS'_cells'
p14
(lp15
S'1'
p16
aS'2'
p17
aS'3'
p18
aS'4'
p19
asS'_formula_statement'
p20
g0
(cscisheets.core.column
FormulaStatement
p21
g2
Ntp22
Rp23
(dp24
S'_statement'
p25
NsS'_column'
p26
g10
sS'_isExpression'
p27
I00
sS'_isStatement'
p28
I00
sS'_formula'
p29
NsbsS'_data_class'
p30
g0
(cscisheets.core.helpers.api_util
DataClass
p31
c__builtin__
tuple
p32
(cnumpy
ndarray
p33
cscisheets.core.helpers.api_util
makeArray
p34
tp35
tp36
Rp37
sS'_name'
p38
S'row'
p39
<<<<<<< HEAD
sbag0
(g8
g2
Ntp40
Rp41
(dp42
=======
sbag0
(g8
g2
Ntp40
Rp41
(dp42
g12
I00
sg13
g4
sg14
(lp43
I42
aI5
aI61
aI30
asg20
g0
(g21
g2
Ntp44
Rp45
(dp46
g25
Nsg26
g41
sg27
I00
sg28
I00
sg29
Nsbsg30
g37
sg38
S'Col_0'
p47
sbag0
(g8
g2
Ntp48
Rp49
(dp50
>>>>>>> hotfix
g12
I00
sg13
g4
sg14
<<<<<<< HEAD
(lp43
S'EVWFE'
p44
aS'rSSYK'
p45
aS'HLIRH'
p46
aS'ycBAl'
p47
=======
(lp51
F0.0
aF0.5
aF1.0
aF1.5
>>>>>>> hotfix
asg20
g0
(g21
g2
<<<<<<< HEAD
Ntp48
Rp49
(dp50
g25
Nsg26
g41
sg27
I00
sg28
I00
sg29
Nsbsg30
g37
sg38
S'Col_0'
p51
sbag0
(g8
g2
Ntp52
Rp53
(dp54
=======
Ntp52
Rp53
(dp54
g25
VCol_1 = []\u000afor x in Col_2:\u000a  Col_1.append(np.average(x))\u000a
p55
sg26
g49
sg27
I00
sg28
I00
sg29
VCol_1 = []\u000afor x in Col_2:\u000a  Col_1.append(np.average(x))\u000a
p56
sbsg30
g37
sg38
S'Col_1'
p57
sbag0
(g8
g2
Ntp58
Rp59
(dp60
g12
I00
sg13
g4
sg14
(lp61
(lp62
I0
aa(lp63
I0
aI1
aa(lp64
I0
aI1
aI2
aa(lp65
I0
aI1
aI2
aI3
aasg20
g0
(g21
g2
Ntp66
Rp67
(dp68
g25
Vxx = range(1,5)\u000aCol_2 = []\u000afor x in xx:\u000a  Col_2.append(range(x))\u000a
p69
sg26
g59
sg27
I00
sg28
I00
sg29
Vxx = range(1,5)\u000aCol_2 = []\u000afor x in xx:\u000a  Col_2.append(range(x))\u000a
p70
sbsg30
g37
sg38
S'Col_2'
p71
sbag0
(g8
g2
Ntp72
Rp73
(dp74
>>>>>>> hotfix
g12
I00
sg13
g4
sg14
<<<<<<< HEAD
(lp55
I80
aI47
aI43
aI91
=======
(lp75
S'UUdto'
p76
aS'FIXMs'
p77
aS'nDjRC'
p78
aS'QeYJC'
p79
>>>>>>> hotfix
asg20
g0
(g21
g2
<<<<<<< HEAD
Ntp56
Rp57
(dp58
g25
Nsg26
g53
=======
Ntp80
Rp81
(dp82
g25
Nsg26
g73
>>>>>>> hotfix
sg27
I00
sg28
I00
sg29
Nsbsg30
g37
sg38
<<<<<<< HEAD
S'Col_1'
p59
sbag0
(g8
g2
Ntp60
Rp61
(dp62
g12
I00
sg13
g4
sg14
(lp63
I60
aI34
aI31
aI15
asg20
g0
(g21
g2
Ntp64
Rp65
(dp66
g25
Nsg26
g61
sg27
I00
sg28
I00
sg29
Nsbsg30
g37
sg38
S'Col_2'
p67
sbasS'_filepath'
p68
V/home/ubuntu/SciSheets/mysite/user/guest/tables/scisheet_table.pcl
p69
sg38
S'Demo'
p70
=======
S'Col_3'
p83
sbasS'_filepath'
p84
V/home/ubuntu/SciSheets/mysite/user/guest/tables/scisheet_table.pcl
p85
sg38
S'Demo'
p86
>>>>>>> hotfix
sb.