ccopy_reg
_reconstructor
p0
(cscisheets.ui.dt_table
DTTable
p1
c__builtin__
object
p2
Ntp3
Rp4
(dp5
S'_versioned_file'
p6
g0
(cmysite.helpers.versioned_file
VersionedFile
p7
g2
Ntp8
Rp9
(dp10
S'_redo_stack'
p11
g0
(cmysite.helpers.file_stack
FileStack
p12
g2
Ntp13
Rp14
(dp15
S'_dirpath'
p16
S'/home/ubuntu/SciSheets/mysite/user/guest/tables/backup'
p17
sS'_max_depth'
p18
I5
sS'_filename_pfx'
p19
Vkristen_single_gene.r
p20
sbsS'_max_versions'
p21
I5
sS'_undo_stack'
p22
g0
(g12
g2
Ntp23
Rp24
(dp25
g16
g17
sg18
I5
sg19
Vkristen_single_gene.u
p26
sbsS'_checkpoint_history'
p27
(lp28
VCell/Update
p29
aVCell/Update
p30
aVCell/Update
p31
aVCell/Update
p32
aVCell/Update
p33
aVCell/Update
p34
aVCell/Update
p35
aVCell/Update
p36
aVCell/Update
p37
aVCell/Update
p38
aVCell/Update
p39
aVCell/Update
p40
aVColumn/Formula
p41
aVColumn/Formula
p42
aVColumn/Append
p43
aVColumn/Formula
p44
aVColumn/Delete
p45
aVCell/Update
p46
aVColumn/Formula
p47
aVCell/Update
p48
aVCell/Update
p49
aVColumn/Formula
p50
aVColumn/Formula
p51
aVCell/Update
p52
aVColumn/Formula
p53
aVColumn/Formula
p54
aVCell/Update
p55
aVCell/Update
p56
aVCell/Update
p57
aVCell/Update
p58
aVColumn/Formula
p59
aVCell/Update
p60
aVCell/Update
p61
aVCell/Update
p62
aVColumn/Formula
p63
aVCell/Update
p64
aVColumn/Formula
p65
aVColumn/Formula
p66
aVCell/Update
p67
aVCell/Update
p68
aVCell/Update
p69
aVCell/Update
p70
aVCell/Update
p71
aVCell/Update
p72
aVCell/Update
p73
aVCell/Update
p74
aVCell/Update
p75
aVColumn/Formula
p76
aVCell/Update
p77
aVCell/Update
p78
aVCell/Update
p79
aVCell/Update
p80
aVCell/Update
p81
aVCell/Update
p82
aVCell/Update
p83
aVCell/Update
p84
aVCell/Update
p85
aVCell/Update
p86
aVCell/Update
p87
aVCell/Update
p88
aVColumn/Formula
p89
aVColumn/Formula
p90
aVColumn/Formula
p91
aVCell/Update
p92
aVCell/Update
p93
aVCell/Update
p94
aVCell/Update
p95
aVCell/Update
p96
aVColumn/Formula
p97
aVCell/Update
p98
aVCell/Update
p99
aVCell/Update
p100
aVCell/Update
p101
aVCell/Update
p102
aVCell/Update
p103
aVCell/Update
p104
aVColumn/Formula
p105
aVColumn/Formula
p106
aVColumn/Formula
p107
aVCell/Update
p108
aVCell/Update
p109
aVColumn/Formula
p110
aVCell/Update
p111
aVCell/Update
p112
aVCell/Update
p113
aVCell/Update
p114
aVCell/Update
p115
aVCell/Update
p116
aVCell/Update
p117
aVCell/Update
p118
aVColumn/Formula
p119
aVCell/Update
p120
aVColumn/Formula
p121
aVColumn/Formula
p122
aVColumn/Formula
p123
aVCell/Update
p124
aVCell/Update
p125
aVColumn/Formula
p126
aVColumn/Formula
p127
aVColumn/Formula
p128
aVColumn/Formula
p129
aVCell/Update
p130
aVColumn/Formula
p131
aVColumn/Formula
p132
aVColumn/Formula
p133
aVCell/Update
p134
aVCell/Update
p135
aVCell/Update
p136
aVCell/Update
p137
aVCell/Update
p138
aVCell/Update
p139
aVCell/Update
p140
aVCell/Update
p141
aVCell/Update
p142
aVCell/Update
p143
aVColumn/Formula
p144
aVColumn/Formula
p145
aVColumn/Formula
p146
aVColumn/Formula
p147
aVCell/Update
p148
aVCell/Update
p149
aVColumn/Formula
p150
aVCell/Update
p151
aVCell/Update
p152
aVCell/Update
p153
aVCell/Update
p154
aVCell/Update
p155
aVCell/Update
p156
aVCell/Update
p157
aVCell/Update
p158
aVCell/Update
p159
aVCell/Update
p160
aVCell/Update
p161
aVCell/Update
p162
aVCell/Update
p163
aVColumn/Formula
p164
aVColumn/Formula
p165
aVCell/Update
p166
aVCell/Update
p167
aVCell/Update
p168
aVColumn/Formula
p169
aVCell/Update
p170
aVCell/Update
p171
aVCell/Update
p172
aVCell/Update
p173
aVColumn/Formula
p174
aVColumn/Formula
p175
aVColumn/Formula
p176
aVColumn/Formula
p177
aVCell/Update
p178
aVColumn/Formula
p179
aVCell/Update
p180
aVCell/Update
p181
aVCell/Update
p182
aVCell/Update
p183
aVCell/Update
p184
aVCell/Update
p185
aVCell/Update
p186
aVCell/Update
p187
aVCell/Update
p188
aVColumn/Formula
p189
aVCell/Update
p190
aVCell/Update
p191
aVCell/Update
p192
aVCell/Update
p193
aVCell/Update
p194
aVCell/Update
p195
aVCell/Update
p196
aVCell/Update
p197
aVCell/Update
p198
aVCell/Update
p199
aVCell/Update
p200
aVCell/Update
p201
aVCell/Update
p202
aVCell/Update
p203
aVCell/Update
p204
aVCell/Update
p205
aVCell/Update
p206
aVCell/Update
p207
aVCell/Update
p208
aVCell/Update
p209
aVCell/Update
p210
aVCell/Update
p211
aVCell/Update
p212
aVCell/Update
p213
aVCell/Update
p214
aVCell/Update
p215
aVCell/Update
p216
aVCell/Update
p217
aVCell/Update
p218
aVCell/Update
p219
aVCell/Update
p220
aVCell/Update
p221
aVCell/Update
p222
aVCell/Update
p223
aVCell/Update
p224
aVCell/Update
p225
aVCell/Update
p226
aVCell/Update
p227
aVCell/Update
p228
aVCell/Update
p229
aVCell/Update
p230
aVCell/Update
p231
aVCell/Update
p232
aVCell/Update
p233
aVCell/Update
p234
aVCell/Update
p235
aVCell/Update
p236
aVCell/Update
p237
aVCell/Update
p238
aVCell/Update
p239
aVCell/Update
p240
aVCell/Update
p241
aVCell/Update
p242
aVCell/Update
p243
aVCell/Update
p244
aVCell/Update
p245
aVCell/Update
p246
aVCell/Update
p247
aVCell/Update
p248
aVCell/Update
p249
aVCell/Update
p250
aVCell/Update
p251
aVCell/Update
p252
aVCell/Update
p253
aVCell/Update
p254
aVCell/Update
p255
aVCell/Update
p256
aVCell/Update
p257
aVCell/Update
p258
aVCell/Update
p259
aVCell/Update
p260
aVCell/Update
p261
aVCell/Update
p262
aVCell/Update
p263
aVCell/Update
p264
aVCell/Update
p265
aVCell/Update
p266
aVCell/Update
p267
aVCell/Update
p268
aVCell/Update
p269
aVCell/Update
p270
aVCell/Update
p271
aVColumn/Formula
p272
aVColumn/Formula
p273
aVCell/Update
p274
aVCell/Update
p275
aVCell/Update
p276
aVCell/Update
p277
aVColumn/Formula
p278
aVColumn/Formula
p279
aVColumn/Formula
p280
aVCell/Update
p281
aVCell/Update
p282
aVCell/Update
p283
aVCell/Update
p284
aVColumn/Formula
p285
aVColumn/Formula
p286
aVColumn/Formula
p287
aVCell/Update
p288
aVCell/Update
p289
aVColumn/Formula
p290
aVCell/Update
p291
aVCell/Update
p292
aVCell/Update
p293
aVCell/Update
p294
aVCell/Update
p295
aVCell/Update
p296
aVColumn/Formula
p297
aVCell/Update
p298
aVColumn/Formula
p299
aVCell/Update
p300
aVCell/Update
p301
aVColumn/Formula
p302
aVColumn/Formula
p303
aVCell/Update
p304
aVCell/Update
p305
aVCell/Update
p306
aVCell/Update
p307
aVColumn/Formula
p308
aVColumn/Formula
p309
aVColumn/Formula
p310
aVColumn/Formula
p311
aVColumn/Formula
p312
aVCell/Update
p313
aVCell/Update
p314
aVColumn/Formula
p315
aVCell/Update
p316
aVColumn/Formula
p317
aVColumn/Formula
p318
aVCell/Update
p319
aVCell/Update
p320
aVCell/Update
p321
aVColumn/Formula
p322
aVColumn/Formula
p323
aVColumn/Formula
p324
aVCell/Update
p325
aVColumn/Formula
p326
aVCell/Update
p327
aVColumn/Formula
p328
aVColumn/Formula
p329
aVColumn/Formula
p330
aVColumn/Formula
p331
aVColumn/Formula
p332
aVColumn/Formula
p333
aVCell/Update
p334
aVColumn/Formula
p335
aVCell/Update
p336
aVCell/Update
p337
aVCell/Update
p338
aVColumn/Formula
p339
aVColumn/Formula
p340
aVColumn/Formula
p341
aVColumn/Formula
p342
aVColumn/Formula
p343
aVCell/Update
p344
aVCell/Update
p345
aVCell/Update
p346
aVColumn/Formula
p347
aVCell/Update
p348
aVCell/Update
p349
aVColumn/Formula
p350
aVColumn/Formula
p351
aVColumn/Formula
p352
aVColumn/Formula
p353
aVColumn/Formula
p354
aVColumn/Formula
p355
aVCell/Update
p356
aVColumn/Formula
p357
aVColumn/Formula
p358
aVColumn/Formula
p359
aVCell/Update
p360
aVCell/Update
p361
aVCell/Update
p362
aVColumn/Formula
p363
aVColumn/Formula
p364
aVCell/Update
p365
aVColumn/Formula
p366
aVColumn/Formula
p367
aVColumn/Formula
p368
aVColumn/Formula
p369
aVColumn/Formula
p370
aVColumn/Formula
p371
aVCell/Update
p372
aVCell/Update
p373
aVColumn/Formula
p374
aVCell/Update
p375
aVColumn/Formula
p376
aVColumn/Formula
p377
aVCell/Update
p378
aVCell/Update
p379
aVCell/Update
p380
aVCell/Update
p381
aVCell/Update
p382
aVColumn/Formula
p383
aVCell/Update
p384
aVCell/Update
p385
aVColumn/Formula
p386
aVColumn/Formula
p387
aVCell/Update
p388
aVCell/Update
p389
aVColumn/Formula
p390
aVColumn/Formula
p391
aVCell/Update
p392
aVCell/Update
p393
aVCell/Update
p394
aVCell/Update
p395
aVCell/Update
p396
aVCell/Update
p397
aVColumn/Formula
p398
aVCell/Update
p399
aVColumn/Formula
p400
aVCell/Update
p401
aVCell/Update
p402
aVColumn/Formula
p403
aVCell/Update
p404
aVColumn/Formula
p405
aVCell/Update
p406
aVColumn/Formula
p407
aVColumn/Formula
p408
aVCell/Update
p409
aVCell/Update
p410
aVCell/Update
p411
aVColumn/Formula
p412
aVColumn/Formula
p413
aVColumn/Formula
p414
aVCell/Update
p415
aVCell/Update
p416
aVColumn/Formula
p417
aVCell/Update
p418
aVColumn/Formula
p419
aVCell/Update
p420
aVCell/Update
p421
aVCell/Update
p422
aVCell/Update
p423
aVCell/Update
p424
aVCell/Update
p425
aVCell/Update
p426
aVCell/Update
p427
aVCell/Update
p428
aVCell/Update
p429
aVCell/Update
p430
aVCell/Update
p431
aVCell/Update
p432
aVCell/Update
p433
aVCell/Update
p434
aVCell/Update
p435
aVCell/Update
p436
aVCell/Update
p437
aVCell/Update
p438
aVCell/Update
p439
aVCell/Update
p440
aVCell/Update
p441
aVCell/Update
p442
aVColumn/Formula
p443
aVCell/Update
p444
aVColumn/Formula
p445
aVCell/Update
p446
aVCell/Update
p447
aVCell/Update
p448
aVCell/Update
p449
aVCell/Update
p450
aVCell/Update
p451
aVCell/Update
p452
aVCell/Update
p453
aVCell/Update
p454
aVCell/Update
p455
aVCell/Update
p456
aVCell/Update
p457
aVCell/Update
p458
aVColumn/Formula
p459
aVCell/Update
p460
aVCell/Update
p461
aVCell/Update
p462
aVCell/Update
p463
aVColumn/Formula
p464
aVCell/Update
p465
aVCell/Update
p466
aVCell/Update
p467
aVCell/Update
p468
aVCell/Update
p469
aVCell/Update
p470
aVCell/Update
p471
aVColumn/Formula
p472
aVColumn/Formula
p473
aVCell/Update
p474
aVCell/Update
p475
aVColumn/Formula
p476
aVCell/Update
p477
aVCell/Update
p478
aVCell/Update
p479
aVCell/Update
p480
aVCell/Update
p481
aVCell/Update
p482
aVColumn/Formula
p483
aVColumn/Formula
p484
aVColumn/Formula
p485
aVColumn/Formula
p486
aVColumn/Formula
p487
aVColumn/Formula
p488
aVColumn/Formula
p489
aVCell/Update
p490
aVCell/Update
p491
aVCell/Update
p492
aVColumn/Formula
p493
aVColumn/Formula
p494
aVColumn/Formula
p495
aVCell/Update
p496
aVCell/Update
p497
aVCell/Update
p498
aVCell/Update
p499
aVCell/Update
p500
aVColumn/Formula
p501
aVCell/Update
p502
aVColumn/Formula
p503
aVCell/Update
p504
aVCell/Update
p505
aVCell/Update
p506
aVColumn/Formula
p507
aVColumn/Formula
p508
aVColumn/Formula
p509
aVColumn/Formula
p510
aVCell/Update
p511
aVColumn/Formula
p512
asS'_filepath'
p513
V/home/ubuntu/SciSheets/mysite/user/guest/tables/kristen_single_gene.pcl
p514
sS'_backup_dir'
p515
g17
sbsS'_namespace'
p516
(dp517
sS'_columns'
p518
(lp519
g0
(cscisheets.core.column
Column
p520
g2
Ntp521
Rp522
(dp523
S'_asis'
p524
I01
sS'_children'
p525
(lp526
sS'_cells'
p527
(lp528
S'1'
p529
aS'2'
p530
aS'3'
p531
aS'4'
p532
aS'5'
p533
aS'6'
p534
aS'7'
p535
aS'8'
p536
aS'9'
p537
aS'10'
p538
aS'11'
p539
aS'12'
p540
aS'13'
p541
aS'14'
p542
aS'15'
p543
aS'16'
p544
aS'17'
p545
aS'18'
p546
aS'19'
p547
aS'20'
p548
aS'21'
p549
aS'22'
p550
aS'23'
p551
aS'24'
p552
aS'25'
p553
aS'26'
p554
aS'27'
p555
aS'28'
p556
aS'29'
p557
aS'30'
p558
aS'31'
p559
aS'32'
p560
aS'33'
p561
aS'34'
p562
aS'35'
p563
aS'36'
p564
aS'37'
p565
aS'38'
p566
aS'39'
p567
aS'40'
p568
aS'41'
p569
aS'42'
p570
aS'43'
p571
aS'44'
p572
aS'45'
p573
aS'46'
p574
aS'47'
p575
aS'48'
p576
aS'49'
p577
aS'50'
p578
aS'51'
p579
aS'52'
p580
aS'53'
p581
aS'54'
p582
aS'55'
p583
aS'56'
p584
aS'57'
p585
aS'58'
p586
aS'59'
p587
aS'60'
p588
aS'61'
p589
aS'62'
p590
aS'63'
p591
aS'64'
p592
asS'_formula_statement'
p593
g0
(cscisheets.core.helpers.formula_statement
FormulaStatement
p594
g2
Ntp595
Rp596
(dp597
S'_statement'
p598
NsS'_name'
p599
S'row'
p600
sS'_isExpression'
p601
I00
sS'_isStatement'
p602
I00
sS'_formula'
p603
NsbsS'_parent'
p604
g4
sS'_data_class'
p605
g0
(cscisheets.core.helpers.api_util
DataClass
p606
c__builtin__
tuple
p607
(cscisheets.core.helpers.extended_array
ExtendedArray
p608
cscisheets.core.helpers.api_util
makeArray
p609
tp610
tp611
Rp612
sg599
g600
sbag0
(g520
g2
Ntp613
Rp614
(dp615
g524
I00
sg525
(lp616
sg527
(lp617
Vgene
p618
aVrun
p619
aVshow_raw
p620
aVshow_block1
p621
aVshow_block2
p622
aVshow_block3
p623
aVmax_std
p624
aVmin_eff
p625
aVshow_params
p626
aVnan
p627
aVnan
p628
aVnan
p629
aVnan
p630
aVnan
p631
aVnan
p632
aVnan
p633
aVnan
p634
aVnan
p635
aVnan
p636
aVnan
p637
aVnan
p638
aVnan
p639
aVnan
p640
aVnan
p641
aVnan
p642
aVnan
p643
aVnan
p644
aVnan
p645
aVnan
p646
aVnan
p647
aVnan
p648
aVnan
p649
aVnan
p650
aVnan
p651
aVnan
p652
aVnan
p653
aVnan
p654
aVnan
p655
aVnan
p656
aVnan
p657
aVnan
p658
aVnan
p659
aVnan
p660
aVnan
p661
aVnan
p662
aVnan
p663
aVnan
p664
aVnan
p665
aVnan
p666
aVnan
p667
aVnan
p668
aVnan
p669
aVnan
p670
aVnan
p671
aNaNaNaNaNaNaNaNaNaNasg593
g0
(g594
g2
Ntp672
Rp673
(dp674
g598
Nsg599
VParmNames
p675
sg601
I00
sg602
I00
sg603
Nsbsg604
g4
sg605
g0
(g606
g607
(cnumpy
ndarray
p676
g609
tp677
tp678
Rp679
sg599
g675
sbag0
(g520
g2
Ntp680
Rp681
(dp682
g524
I00
sg525
(lp683
sg527
(lp684
VGene1
p685
aVTrue
p686
aVFalse
p687
aVFalse
p688
aVFalse
p689
aVTrue
p690
aF0.5
aF0.7
aVTrue
p691
aV
p692
aVnan
p693
aVnan
p694
aVnan
p695
aVnan
p696
aVnan
p697
aVnan
p698
aVnan
p699
aVnan
p700
aVnan
p701
aVnan
p702
aVnan
p703
aVnan
p704
aVnan
p705
aVnan
p706
aVnan
p707
aVnan
p708
aVnan
p709
aVnan
p710
aVnan
p711
aVnan
p712
aVnan
p713
aVnan
p714
aVnan
p715
aVnan
p716
aVnan
p717
aVnan
p718
aVnan
p719
aVnan
p720
aVnan
p721
aVnan
p722
aVnan
p723
aVnan
p724
aVnan
p725
aVnan
p726
aVnan
p727
aVnan
p728
aVnan
p729
aVnan
p730
aVnan
p731
aVnan
p732
aVnan
p733
aVnan
p734
aVnan
p735
aVnan
p736
aNaNaNaNaNaNaNaNaNaNasg593
g0
(g594
g2
Ntp737
Rp738
(dp739
g598
Nsg599
VParmValues
p740
sg601
I00
sg602
I00
sg603
Nsbsg604
g4
sg605
g0
(g606
g607
(g676
g609
tp741
tp742
Rp743
sg599
g740
sbag0
(g520
g2
Ntp744
Rp745
(dp746
g524
I00
sg525
(lp747
sg527
(lp748
I0
aI0
aI0
aI0
aI0
aI0
aI0
aI0
aI0
aI0
aI1
aI1
aI1
aI1
aI1
aI1
aI1
aI1
aI1
aI1
aI1
aI1
aI1
aI1
aI1
aI1
aI1
aI1
aI1
aI1
aI1
aI1
aI1
aI1
aI1
aI1
aI1
aI2
aI2
aI2
aI2
aI2
aI2
aI2
aI2
aI2
aI3
aI3
aI3
aI3
aI3
aI3
aI3
aI3
aI3
aI4
aI4
aI4
aI4
aI4
aI4
aI4
aI4
aI4
asg593
g0
(g594
g2
Ntp749
Rp750
(dp751
g598
Nsg599
S'Treatment'
p752
sg601
I00
sg602
I00
sg603
Nsbsg604
g4
sg605
g612
sg599
g752
sbag0
(g520
g2
Ntp753
Rp754
(dp755
g524
I00
sg525
(lp756
sg527
(lp757
VI
p758
ag758
ag758
ag758
aVR1
p759
ag759
ag759
aVR2
p760
ag760
ag760
ag758
ag758
ag758
ag758
ag758
ag758
ag758
ag758
ag758
ag759
ag759
ag759
ag759
ag759
ag759
ag759
ag759
ag759
ag760
ag760
ag760
ag760
ag760
ag760
ag760
ag760
ag760
ag758
ag758
ag758
ag759
ag759
ag759
ag760
ag760
ag760
ag758
ag758
ag758
ag759
ag759
ag759
ag760
ag760
ag760
ag758
ag758
ag758
ag759
ag759
ag759
ag760
ag760
ag760
asg593
g0
(g594
g2
Ntp761
Rp762
(dp763
g598
Nsg599
S'RunType'
p764
sg601
I00
sg602
I00
sg603
Nsbsg604
g4
sg605
g612
sg599
g764
sbag0
(g520
g2
Ntp765
Rp766
(dp767
g524
I00
sg525
(lp768
sg527
(lp769
I1
aI1
aI1
aI1
aI1
aI1
aI1
aI1
aI1
aI1
aI1
aI1
aI1
aI2
aI2
aI2
aI3
aI3
aI3
aI1
aI1
aI1
aI2
aI2
aI2
aI3
aI3
aI3
aI1
aI1
aI1
aI2
aI2
aI2
aI3
aI3
aI3
aI1
aI1
aI1
aI1
aI1
aI1
aI1
aI1
aI1
aI1
aI1
aI1
aI1
aI1
aI1
aI1
aI1
aI1
aI1
aI1
aI1
aI1
aI1
aI1
aI1
aI1
aI1
asg593
g0
(g594
g2
Ntp770
Rp771
(dp772
g598
Nsg599
S'BRpl'
p773
sg601
I00
sg602
I00
sg603
Nsbsg604
g4
sg605
g612
sg599
g773
sbag0
(g520
g2
Ntp774
Rp775
(dp776
g524
I00
sg525
(lp777
sg527
(lp778
Va
p779
aVb
p780
aVc
p781
aVd
p782
ag779
ag780
ag781
ag779
ag780
ag781
ag779
ag780
ag781
ag779
ag780
ag781
ag779
ag780
ag781
ag779
ag780
ag781
ag779
ag780
ag781
ag779
ag780
ag781
ag779
ag780
ag781
ag779
ag780
ag781
ag779
ag780
ag781
ag779
ag780
ag781
ag779
ag780
ag781
ag779
ag780
ag781
ag779
ag780
ag781
ag779
ag780
ag781
ag779
ag780
ag781
ag779
ag780
ag781
ag779
ag780
ag781
ag779
ag780
ag781
asg593
g0
(g594
g2
Ntp783
Rp784
(dp785
g598
Nsg599
S'TRpl'
p786
sg601
I00
sg602
I00
sg603
Nsbsg604
g4
sg605
g612
sg599
g786
sbag0
(g520
g2
Ntp787
Rp788
(dp789
g524
I00
sg525
(lp790
sg527
(lp791
F0.8371
aF0.891
aF0.8956
aF0.8671
aF0.8266
aF0.8343
aF0.8496
aF0.8157
aF0.8543
aF0.8208
aF0.9399
aF0.8296
aF0.8361
aF0.8039
aF0.8399
aF0.7935
aF0.8264
aF0.7974
aF0.8252
aF0.9179
aF0.9783
aF0.8971
aF0.8957
aF0.8287
aF0.8387
aF0.8746
aF0.8493
aF0.8349
aF0.7857
aF0.8427
aF0.8637
aF0.8281
aF0.8203
aF0.8288
aF0.8138
aF0.8242
aF0.804
aF0.8418
aF0.7959
aF0.8071
aF0.7701
aF0.8746
aF0.8139
aF0.7795
aF0.7676
aF0.7947
aF0.8513
aF0.8485
aF0.8401
aF0.8715
aF0.8977
aF0.856
aF0.8179
aF0.8173
aF0.7894
aF0.8513
aF0.8485
aF0.8401
aF0.8715
aF0.8977
aF0.856
aF0.8179
aF0.8173
aF0.7894
asg593
g0
(g594
g2
Ntp792
Rp793
(dp794
g598
Nsg599
S'Eff'
p795
sg601
I00
sg602
I00
sg603
Nsbsg604
g4
sg605
g612
sg599
g795
sbag0
(g520
g2
Ntp796
Rp797
(dp798
g524
I00
sg525
(lp799
sg527
(lp800
F23.0
aF22.86
aF22.8
aF23.0
aF18.24
aF18.22
aF18.36
aF19.72
aF19.75
aF20.01
aF26.68
aF27.13
aF27.21
aF26.76
aF26.71
aF26.19
aF29.98
aF30.12
aF29.41
aF19.92
aF19.85
aF20.0
aF21.86
aF22.09
aF21.84
aF23.89
aF23.54
aF24.27
aF22.18
aF21.71
aF21.75
aF23.88
aF23.42
aF23.63
aF24.59
aF24.61
aF24.34
aF29.95
aF30.45
aF29.88
aF23.22
aF23.8
aF23.49
aF26.37
aF26.36
aF26.17
aF24.8
aF24.97
aF24.63
aF18.91
aF18.78
aF18.8
aF20.5
aF20.47
aF20.28
aF24.8
aF24.97
aF24.63
aF18.91
aF18.78
aF18.8
aF20.5
aF20.47
aF20.28
asg593
g0
(g594
g2
Ntp801
Rp802
(dp803
g598
Nsg599
S'Ct'
p804
sg601
I00
sg602
I00
sg603
Nsbsg604
g4
sg605
g612
sg599
g804
sbag0
(g520
g2
Ntp805
Rp806
(dp807
g524
I00
sg525
(lp808
sg527
(lp809
(lp810
cnumpy.core.multiarray
scalar
p811
(cnumpy
dtype
p812
(S'i8'
p813
I0
I1
tp814
Rp815
(I3
S'<'
p816
NNNI-1
I-1
I0
tp817
bS'\x00\x00\x00\x00\x00\x00\x00\x00'
p818
tp819
Rp820
ag811
(g812
(S'U1'
p821
I0
I1
tp822
Rp823
(I3
S'<'
p824
NNNI4
I4
I8
tp825
bS'I\x00\x00\x00'
p826
tp827
Rp828
ag811
(g815
S'\x01\x00\x00\x00\x00\x00\x00\x00'
p829
tp830
Rp831
aa(lp832
g811
(g815
S'\x00\x00\x00\x00\x00\x00\x00\x00'
p833
tp834
Rp835
ag811
(g812
(S'U2'
p836
I0
I1
tp837
Rp838
(I3
S'<'
p839
NNNI8
I4
I8
tp840
bS'R\x00\x00\x001\x00\x00\x00'
p841
tp842
Rp843
ag811
(g815
S'\x01\x00\x00\x00\x00\x00\x00\x00'
p844
tp845
Rp846
aa(lp847
g811
(g815
S'\x00\x00\x00\x00\x00\x00\x00\x00'
p848
tp849
Rp850
ag811
(g812
(S'U2'
p851
I0
I1
tp852
Rp853
(I3
S'<'
p854
NNNI8
I4
I8
tp855
bS'R\x00\x00\x002\x00\x00\x00'
p856
tp857
Rp858
ag811
(g815
S'\x01\x00\x00\x00\x00\x00\x00\x00'
p859
tp860
Rp861
aa(lp862
g811
(g815
S'\x01\x00\x00\x00\x00\x00\x00\x00'
p863
tp864
Rp865
ag828
ag811
(g815
S'\x01\x00\x00\x00\x00\x00\x00\x00'
p866
tp867
Rp868
aa(lp869
g811
(g815
S'\x01\x00\x00\x00\x00\x00\x00\x00'
p870
tp871
Rp872
ag828
ag811
(g815
S'\x02\x00\x00\x00\x00\x00\x00\x00'
p873
tp874
Rp875
aa(lp876
g811
(g815
S'\x01\x00\x00\x00\x00\x00\x00\x00'
p877
tp878
Rp879
ag828
ag811
(g815
S'\x03\x00\x00\x00\x00\x00\x00\x00'
p880
tp881
Rp882
aa(lp883
g811
(g815
S'\x01\x00\x00\x00\x00\x00\x00\x00'
p884
tp885
Rp886
ag843
ag811
(g815
S'\x01\x00\x00\x00\x00\x00\x00\x00'
p887
tp888
Rp889
aa(lp890
g811
(g815
S'\x01\x00\x00\x00\x00\x00\x00\x00'
p891
tp892
Rp893
ag843
ag811
(g815
S'\x02\x00\x00\x00\x00\x00\x00\x00'
p894
tp895
Rp896
aa(lp897
g811
(g815
S'\x01\x00\x00\x00\x00\x00\x00\x00'
p898
tp899
Rp900
ag843
ag811
(g815
S'\x03\x00\x00\x00\x00\x00\x00\x00'
p901
tp902
Rp903
aa(lp904
g811
(g815
S'\x01\x00\x00\x00\x00\x00\x00\x00'
p905
tp906
Rp907
ag858
ag811
(g815
S'\x01\x00\x00\x00\x00\x00\x00\x00'
p908
tp909
Rp910
aa(lp911
g811
(g815
S'\x01\x00\x00\x00\x00\x00\x00\x00'
p912
tp913
Rp914
ag858
ag811
(g815
S'\x02\x00\x00\x00\x00\x00\x00\x00'
p915
tp916
Rp917
aa(lp918
g811
(g815
S'\x01\x00\x00\x00\x00\x00\x00\x00'
p919
tp920
Rp921
ag858
ag811
(g815
S'\x03\x00\x00\x00\x00\x00\x00\x00'
p922
tp923
Rp924
aa(lp925
g811
(g815
S'\x02\x00\x00\x00\x00\x00\x00\x00'
p926
tp927
Rp928
ag828
ag811
(g815
S'\x01\x00\x00\x00\x00\x00\x00\x00'
p929
tp930
Rp931
aa(lp932
g811
(g815
S'\x02\x00\x00\x00\x00\x00\x00\x00'
p933
tp934
Rp935
ag843
ag811
(g815
S'\x01\x00\x00\x00\x00\x00\x00\x00'
p936
tp937
Rp938
aa(lp939
g811
(g815
S'\x02\x00\x00\x00\x00\x00\x00\x00'
p940
tp941
Rp942
ag858
ag811
(g815
S'\x01\x00\x00\x00\x00\x00\x00\x00'
p943
tp944
Rp945
aa(lp946
g811
(g815
S'\x03\x00\x00\x00\x00\x00\x00\x00'
p947
tp948
Rp949
ag828
ag811
(g815
S'\x01\x00\x00\x00\x00\x00\x00\x00'
p950
tp951
Rp952
aa(lp953
g811
(g815
S'\x03\x00\x00\x00\x00\x00\x00\x00'
p954
tp955
Rp956
ag843
ag811
(g815
S'\x01\x00\x00\x00\x00\x00\x00\x00'
p957
tp958
Rp959
aa(lp960
g811
(g815
S'\x03\x00\x00\x00\x00\x00\x00\x00'
p961
tp962
Rp963
ag858
ag811
(g815
S'\x01\x00\x00\x00\x00\x00\x00\x00'
p964
tp965
Rp966
aa(lp967
g811
(g815
S'\x04\x00\x00\x00\x00\x00\x00\x00'
p968
tp969
Rp970
ag828
ag811
(g815
S'\x01\x00\x00\x00\x00\x00\x00\x00'
p971
tp972
Rp973
aa(lp974
g811
(g815
S'\x04\x00\x00\x00\x00\x00\x00\x00'
p975
tp976
Rp977
ag843
ag811
(g815
S'\x01\x00\x00\x00\x00\x00\x00\x00'
p978
tp979
Rp980
aa(lp981
g811
(g815
S'\x04\x00\x00\x00\x00\x00\x00\x00'
p982
tp983
Rp984
ag858
ag811
(g815
S'\x01\x00\x00\x00\x00\x00\x00\x00'
p985
tp986
Rp987
aaNaNaNaNaNaNaNaNaNaNaNaNaNaNaNaNaNaNaNaNaNaNaNaNaNaNaNaNaNaNaNaNaNaNaNaNaNaNaNaNaNaNaNasg593
g0
(g594
g2
Ntp988
Rp989
(dp990
g598
Vsel = [e > min_eff for e in Eff]\u000apairs = zip(range(len(sel)), sel)\u000apTreatment = [Treatment[i] for i,b in pairs if b]\u000apRunType = [RunType[i] for i,b in pairs if b]\u000apBRpl = [BRpl[i] for i,b in pairs if b]\u000agrouping_columns = [pTreatment, pRunType, pBRpl]\u000apCt = [Ct[i] for i,b in pairs if b]\u000apEff = [Eff[i] for i,b in pairs if b]\u000aGroups, groupedCt = groupBy(\u000a     grouping_columns, pCt)\u000aGroups, groupedEff = groupBy(\u000a     grouping_columns, pEff)\u000aGroups = [[g[0], g[1], g[2]] for g in Groups]\u000aGroupedCt = roundValues(groupedCt,2)\u000aGroupedEff = roundValues(groupedEff,2)
p991
sg599
VGroups
p992
sg601
I00
sg602
I00
sg603
Vsel = [e > min_eff for e in Eff]\u000apairs = zip(range(len(sel)), sel)\u000apTreatment = [Treatment[i] for i,b in pairs if b]\u000apRunType = [RunType[i] for i,b in pairs if b]\u000apBRpl = [BRpl[i] for i,b in pairs if b]\u000agrouping_columns = [pTreatment, pRunType, pBRpl]\u000apCt = [Ct[i] for i,b in pairs if b]\u000apEff = [Eff[i] for i,b in pairs if b]\u000aGroups, groupedCt = groupBy(\u000a     grouping_columns, pCt)\u000aGroups, groupedEff = groupBy(\u000a     grouping_columns, pEff)\u000aGroups = [[g[0], g[1], g[2]] for g in Groups]\u000aGroupedCt = roundValues(groupedCt,2)\u000aGroupedEff = roundValues(groupedEff,2)
p993
sbsg604
g4
sg605
g0
(g606
g607
(g676
g609
tp994
tp995
Rp996
sg599
g992
sbag0
(g520
g2
Ntp997
Rp998
(dp999
g524
I00
sg525
(lp1000
sg527
(lp1001
cnumpy.core.multiarray
_reconstruct
p1002
(g676
(I0
tp1003
S'b'
p1004
tp1005
Rp1006
(I1
(I4
tp1007
g812
(S'f8'
p1008
I0
I1
tp1009
Rp1010
(I3
S'<'
p1011
NNNI-1
I-1
I0
tp1012
bI00
S'\xe1z\x14\xaeG\xe1\xea?{\x14\xaeG\xe1z\xec?\xcd\xcc\xcc\xcc\xcc\xcc\xec?\xd7\xa3p=\n\xd7\xeb?'
p1013
tp1014
bag1002
(g676
(I0
tp1015
g1004
tp1016
Rp1017
(I1
(I3
tp1018
g1010
I00
S'\x8f\xc2\xf5(\\\x8f\xea?\x8f\xc2\xf5(\\\x8f\xea?333333\xeb?'
p1019
tp1020
bag1002
(g676
(I0
tp1021
g1004
tp1022
Rp1023
(I1
(I3
tp1024
g1010
I00
S'=\n\xd7\xa3p=\xea?333333\xeb?=\n\xd7\xa3p=\xea?'
p1025
tp1026
bag1002
(g676
(I0
tp1027
g1004
tp1028
Rp1029
(I1
(I3
tp1030
g1010
I00
S'\x14\xaeG\xe1z\x14\xee?\x8f\xc2\xf5(\\\x8f\xea?\xe1z\x14\xaeG\xe1\xea?'
p1031
tp1032
bag1002
(g676
(I0
tp1033
g1004
tp1034
Rp1035
(I1
(I3
tp1036
g1010
I00
S'\x9a\x99\x99\x99\x99\x99\xe9?\xe1z\x14\xaeG\xe1\xea?H\xe1z\x14\xaeG\xe9?'
p1037
tp1038
bag1002
(g676
(I0
tp1039
g1004
tp1040
Rp1041
(I1
(I3
tp1042
g1010
I00
S'\x8f\xc2\xf5(\\\x8f\xea?\x9a\x99\x99\x99\x99\x99\xe9?\x8f\xc2\xf5(\\\x8f\xea?'
p1043
tp1044
bag1002
(g676
(I0
tp1045
g1004
tp1046
Rp1047
(I1
(I3
tp1048
g1010
I00
S'q=\n\xd7\xa3p\xed?\\\x8f\xc2\xf5(\\\xef?\xcd\xcc\xcc\xcc\xcc\xcc\xec?'
p1049
tp1050
bag1002
(g676
(I0
tp1051
g1004
tp1052
Rp1053
(I1
(I3
tp1054
g1010
I00
S'\xcd\xcc\xcc\xcc\xcc\xcc\xec?\x8f\xc2\xf5(\\\x8f\xea?\xe1z\x14\xaeG\xe1\xea?'
p1055
tp1056
bag1002
(g676
(I0
tp1057
g1004
tp1058
Rp1059
(I1
(I3
tp1060
g1010
I00
S'\xd7\xa3p=\n\xd7\xeb?333333\xeb?\x8f\xc2\xf5(\\\x8f\xea?'
p1061
tp1062
bag1002
(g676
(I0
tp1063
g1004
tp1064
Rp1065
(I1
(I3
tp1066
g1010
I00
S'H\xe1z\x14\xaeG\xe9?\xe1z\x14\xaeG\xe1\xea?\x85\xebQ\xb8\x1e\x85\xeb?'
p1067
tp1068
bag1002
(g676
(I0
tp1069
g1004
tp1070
Rp1071
(I1
(I3
tp1072
g1010
I00
S'\x8f\xc2\xf5(\\\x8f\xea?=\n\xd7\xa3p=\xea?\x8f\xc2\xf5(\\\x8f\xea?'
p1073
tp1074
bag1002
(g676
(I0
tp1075
g1004
tp1076
Rp1077
(I1
(I3
tp1078
g1010
I00
S'\xecQ\xb8\x1e\x85\xeb\xe9?=\n\xd7\xa3p=\xea?\x9a\x99\x99\x99\x99\x99\xe9?'
p1079
tp1080
bag1002
(g676
(I0
tp1081
g1004
tp1082
Rp1083
(I1
(I3
tp1084
g1010
I00
S'\xe1z\x14\xaeG\xe1\xea?\x9a\x99\x99\x99\x99\x99\xe9?\xecQ\xb8\x1e\x85\xeb\xe9?'
p1085
tp1086
bag1002
(g676
(I0
tp1087
g1004
tp1088
Rp1089
(I1
(I3
tp1090
g1010
I00
S'\xa4p=\n\xd7\xa3\xe8?\xd7\xa3p=\n\xd7\xeb?\xecQ\xb8\x1e\x85\xeb\xe9?'
p1091
tp1092
bag1002
(g676
(I0
tp1093
g1004
tp1094
Rp1095
(I1
(I3
tp1096
g1010
I00
S'\xf6(\\\x8f\xc2\xf5\xe8?\xa4p=\n\xd7\xa3\xe8?H\xe1z\x14\xaeG\xe9?'
p1097
tp1098
bag1002
(g676
(I0
tp1099
g1004
tp1100
Rp1101
(I1
(I3
tp1102
g1010
I00
S'333333\xeb?333333\xeb?\xe1z\x14\xaeG\xe1\xea?'
p1103
tp1104
bag1002
(g676
(I0
tp1105
g1004
tp1106
Rp1107
(I1
(I3
tp1108
g1010
I00
S'\xd7\xa3p=\n\xd7\xeb?\xcd\xcc\xcc\xcc\xcc\xcc\xec?\x85\xebQ\xb8\x1e\x85\xeb?'
p1109
tp1110
bag1002
(g676
(I0
tp1111
g1004
tp1112
Rp1113
(I1
(I3
tp1114
g1010
I00
S'=\n\xd7\xa3p=\xea?=\n\xd7\xa3p=\xea?H\xe1z\x14\xaeG\xe9?'
p1115
tp1116
bag1002
(g676
(I0
tp1117
g1004
tp1118
Rp1119
(I1
(I3
tp1120
g1010
I00
S'333333\xeb?333333\xeb?\xe1z\x14\xaeG\xe1\xea?'
p1121
tp1122
bag1002
(g676
(I0
tp1123
g1004
tp1124
Rp1125
(I1
(I3
tp1126
g1010
I00
S'\xd7\xa3p=\n\xd7\xeb?\xcd\xcc\xcc\xcc\xcc\xcc\xec?\x85\xebQ\xb8\x1e\x85\xeb?'
p1127
tp1128
bag1002
(g676
(I0
tp1129
g1004
tp1130
Rp1131
(I1
(I3
tp1132
g1010
I00
S'=\n\xd7\xa3p=\xea?=\n\xd7\xa3p=\xea?H\xe1z\x14\xaeG\xe9?'
p1133
tp1134
baNaNaNaNaNaNaNaNaNaNaNaNaNaNaNaNaNaNaNaNaNaNaNaNaNaNaNaNaNaNaNaNaNaNaNaNaNaNaNaNaNaNaNasg593
g0
(g594
g2
Ntp1135
Rp1136
(dp1137
g598
Nsg599
VGroupedEff
p1138
sg601
I00
sg602
I00
sg603
Nsbsg604
g4
sg605
g0
(g606
g607
(g676
g609
tp1139
tp1140
Rp1141
sg599
g1138
sbag0
(g520
g2
Ntp1142
Rp1143
(dp1144
g524
I00
sg525
(lp1145
sg527
(lp1146
g1002
(g676
(I0
tp1147
g1004
tp1148
Rp1149
(I1
(I4
tp1150
g1010
I00
S'\x00\x00\x00\x00\x00\x007@\\\x8f\xc2\xf5(\xdc6@\xcd\xcc\xcc\xcc\xcc\xcc6@\x00\x00\x00\x00\x00\x007@'
p1151
tp1152
bag1002
(g676
(I0
tp1153
g1004
tp1154
Rp1155
(I1
(I3
tp1156
g1010
I00
S'=\n\xd7\xa3p=2@\xb8\x1e\x85\xebQ82@\\\x8f\xc2\xf5(\\2@'
p1157
tp1158
bag1002
(g676
(I0
tp1159
g1004
tp1160
Rp1161
(I1
(I3
tp1162
g1010
I00
S'\xb8\x1e\x85\xebQ\xb83@\x00\x00\x00\x00\x00\xc03@\xc3\xf5(\\\x8f\x024@'
p1163
tp1164
bag1002
(g676
(I0
tp1165
g1004
tp1166
Rp1167
(I1
(I3
tp1168
g1010
I00
S'\xaeG\xe1z\x14\xae:@\xe1z\x14\xaeG!;@\xf6(\\\x8f\xc25;@'
p1169
tp1170
bag1002
(g676
(I0
tp1171
g1004
tp1172
Rp1173
(I1
(I3
tp1174
g1010
I00
S'\xc3\xf5(\\\x8f\xc2:@\xf6(\\\x8f\xc2\xb5:@q=\n\xd7\xa30:@'
p1175
tp1176
bag1002
(g676
(I0
tp1177
g1004
tp1178
Rp1179
(I1
(I3
tp1180
g1010
I00
S'{\x14\xaeG\xe1\xfa=@\x1f\x85\xebQ\xb8\x1e>@)\\\x8f\xc2\xf5h=@'
p1181
tp1182
bag1002
(g676
(I0
tp1183
g1004
tp1184
Rp1185
(I1
(I3
tp1186
g1010
I00
S'\xecQ\xb8\x1e\x85\xeb3@\x9a\x99\x99\x99\x99\xd93@\x00\x00\x00\x00\x00\x004@'
p1187
tp1188
bag1002
(g676
(I0
tp1189
g1004
tp1190
Rp1191
(I1
(I3
tp1192
g1010
I00
S'\\\x8f\xc2\xf5(\xdc5@\xd7\xa3p=\n\x176@\xd7\xa3p=\n\xd75@'
p1193
tp1194
bag1002
(g676
(I0
tp1195
g1004
tp1196
Rp1197
(I1
(I3
tp1198
g1010
I00
S'\xa4p=\n\xd7\xe37@\n\xd7\xa3p=\x8a7@\x85\xebQ\xb8\x1eE8@'
p1199
tp1200
bag1002
(g676
(I0
tp1201
g1004
tp1202
Rp1203
(I1
(I3
tp1204
g1010
I00
S'\xaeG\xe1z\x14.6@\xf6(\\\x8f\xc2\xb55@\x00\x00\x00\x00\x00\xc05@'
p1205
tp1206
bag1002
(g676
(I0
tp1207
g1004
tp1208
Rp1209
(I1
(I3
tp1210
g1010
I00
S'\xe1z\x14\xaeG\xe17@\xecQ\xb8\x1e\x85k7@\xe1z\x14\xaeG\xa17@'
p1211
tp1212
bag1002
(g676
(I0
tp1213
g1004
tp1214
Rp1215
(I1
(I3
tp1216
g1010
I00
S'\xd7\xa3p=\n\x978@\\\x8f\xc2\xf5(\x9c8@\xd7\xa3p=\nW8@'
p1217
tp1218
bag1002
(g676
(I0
tp1219
g1004
tp1220
Rp1221
(I1
(I3
tp1222
g1010
I00
S'33333\xf3=@33333s>@\xe1z\x14\xaeG\xe1=@'
p1223
tp1224
bag1002
(g676
(I0
tp1225
g1004
tp1226
Rp1227
(I1
(I3
tp1228
g1010
I00
S'\xb8\x1e\x85\xebQ87@\xcd\xcc\xcc\xcc\xcc\xcc7@=\n\xd7\xa3p}7@'
p1229
tp1230
bag1002
(g676
(I0
tp1231
g1004
tp1232
Rp1233
(I1
(I3
tp1234
g1010
I00
S'\x1f\x85\xebQ\xb8^:@\\\x8f\xc2\xf5(\\:@\xecQ\xb8\x1e\x85+:@'
p1235
tp1236
bag1002
(g676
(I0
tp1237
g1004
tp1238
Rp1239
(I1
(I3
tp1240
g1010
I00
S'\xcd\xcc\xcc\xcc\xcc\xcc8@\xb8\x1e\x85\xebQ\xf88@\xe1z\x14\xaeG\xa18@'
p1241
tp1242
bag1002
(g676
(I0
tp1243
g1004
tp1244
Rp1245
(I1
(I3
tp1246
g1010
I00
S')\\\x8f\xc2\xf5\xe82@H\xe1z\x14\xae\xc72@\xcd\xcc\xcc\xcc\xcc\xcc2@'
p1247
tp1248
bag1002
(g676
(I0
tp1249
g1004
tp1250
Rp1251
(I1
(I3
tp1252
g1010
I00
S'\x00\x00\x00\x00\x00\x804@\xb8\x1e\x85\xebQx4@H\xe1z\x14\xaeG4@'
p1253
tp1254
bag1002
(g676
(I0
tp1255
g1004
tp1256
Rp1257
(I1
(I3
tp1258
g1010
I00
S'\xcd\xcc\xcc\xcc\xcc\xcc8@\xb8\x1e\x85\xebQ\xf88@\xe1z\x14\xaeG\xa18@'
p1259
tp1260
bag1002
(g676
(I0
tp1261
g1004
tp1262
Rp1263
(I1
(I3
tp1264
g1010
I00
S')\\\x8f\xc2\xf5\xe82@H\xe1z\x14\xae\xc72@\xcd\xcc\xcc\xcc\xcc\xcc2@'
p1265
tp1266
bag1002
(g676
(I0
tp1267
g1004
tp1268
Rp1269
(I1
(I3
tp1270
g1010
I00
S'\x00\x00\x00\x00\x00\x804@\xb8\x1e\x85\xebQx4@H\xe1z\x14\xaeG4@'
p1271
tp1272
baNaNaNaNaNaNaNaNaNaNaNaNaNaNaNaNaNaNaNaNaNaNaNaNaNaNaNaNaNaNaNaNaNaNaNaNaNaNaNaNaNaNaNasg593
g0
(g594
g2
Ntp1273
Rp1274
(dp1275
g598
Nsg599
VGroupedCt
p1276
sg601
I00
sg602
I00
sg603
Nsbsg604
g4
sg605
g0
(g606
g607
(g676
g609
tp1277
tp1278
Rp1279
sg599
g1276
sbag0
(g520
g2
Ntp1280
Rp1281
(dp1282
g524
I00
sg525
(lp1283
sg527
(lp1284
g1002
(g676
(I0
tp1285
g1004
tp1286
Rp1287
(I1
(I4
tp1288
g1010
I00
S'\x00\x00\x00\x00\x00\x007@fffff\xe66@\xcd\xcc\xcc\xcc\xcc\xcc6@\x00\x00\x00\x00\x00\x007@'
p1289
tp1290
bag1002
(g676
(I0
tp1291
g1004
tp1292
Rp1293
(I1
(I3
tp1294
g1010
I00
S'3333332@3333332@ffffff2@'
p1295
tp1296
bag1002
(g676
(I0
tp1297
g1004
tp1298
Rp1299
(I1
(I3
tp1300
g1010
I00
S'33333\xb33@\xcd\xcc\xcc\xcc\xcc\xcc3@\x00\x00\x00\x00\x00\x004@'
p1301
tp1302
bag1002
(g676
(I0
tp1303
g1004
tp1304
Rp1305
(I1
(I3
tp1306
g1010
I00
S'33333\xb3:@\x9a\x99\x99\x99\x99\x19;@333333;@'
p1307
tp1308
bag1002
(g676
(I0
tp1309
g1004
tp1310
Rp1311
(I1
(I3
tp1312
g1010
I00
S'\xcd\xcc\xcc\xcc\xcc\xcc:@33333\xb3:@333333:@'
p1313
tp1314
bag1002
(g676
(I0
tp1315
g1004
tp1316
Rp1317
(I1
(I3
tp1318
g1010
I00
S'\x00\x00\x00\x00\x00\x00>@\x9a\x99\x99\x99\x99\x19>@ffffff=@'
p1319
tp1320
bag1002
(g676
(I0
tp1321
g1004
tp1322
Rp1323
(I1
(I3
tp1324
g1010
I00
S'fffff\xe63@fffff\xe63@\x00\x00\x00\x00\x00\x004@'
p1325
tp1326
bag1002
(g676
(I0
tp1327
g1004
tp1328
Rp1329
(I1
(I3
tp1330
g1010
I00
S'fffff\xe65@\x9a\x99\x99\x99\x99\x196@\xcd\xcc\xcc\xcc\xcc\xcc5@'
p1331
tp1332
bag1002
(g676
(I0
tp1333
g1004
tp1334
Rp1335
(I1
(I3
tp1336
g1010
I00
S'fffff\xe67@\x00\x00\x00\x00\x00\x807@\xcd\xcc\xcc\xcc\xccL8@'
p1337
tp1338
bag1002
(g676
(I0
tp1339
g1004
tp1340
Rp1341
(I1
(I3
tp1342
g1010
I00
S'3333336@33333\xb35@\xcd\xcc\xcc\xcc\xcc\xcc5@'
p1343
tp1344
bag1002
(g676
(I0
tp1345
g1004
tp1346
Rp1347
(I1
(I3
tp1348
g1010
I00
S'fffff\xe67@ffffff7@\x9a\x99\x99\x99\x99\x997@'
p1349
tp1350
bag1002
(g676
(I0
tp1351
g1004
tp1352
Rp1353
(I1
(I3
tp1354
g1010
I00
S'\x9a\x99\x99\x99\x99\x998@\x9a\x99\x99\x99\x99\x998@\xcd\xcc\xcc\xcc\xccL8@'
p1355
tp1356
bag1002
(g676
(I0
tp1357
g1004
tp1358
Rp1359
(I1
(I3
tp1360
g1010
I00
S'fffff\xe6=@ffffff>@fffff\xe6=@'
p1361
tp1362
bag1002
(g676
(I0
tp1363
g1004
tp1364
Rp1365
(I1
(I3
tp1366
g1010
I00
S'3333337@\xcd\xcc\xcc\xcc\xcc\xcc7@\x00\x00\x00\x00\x00\x807@'
p1367
tp1368
bag1002
(g676
(I0
tp1369
g1004
tp1370
Rp1371
(I1
(I3
tp1372
g1010
I00
S'ffffff:@ffffff:@333333:@'
p1373
tp1374
bag1002
(g676
(I0
tp1375
g1004
tp1376
Rp1377
(I1
(I3
tp1378
g1010
I00
S'\xcd\xcc\xcc\xcc\xcc\xcc8@\x00\x00\x00\x00\x00\x009@\x9a\x99\x99\x99\x99\x998@'
p1379
tp1380
bag1002
(g676
(I0
tp1381
g1004
tp1382
Rp1383
(I1
(I3
tp1384
g1010
I00
S'fffff\xe62@\xcd\xcc\xcc\xcc\xcc\xcc2@\xcd\xcc\xcc\xcc\xcc\xcc2@'
p1385
tp1386
bag1002
(g676
(I0
tp1387
g1004
tp1388
Rp1389
(I1
(I3
tp1390
g1010
I00
S'\x00\x00\x00\x00\x00\x804@\x00\x00\x00\x00\x00\x804@\xcd\xcc\xcc\xcc\xccL4@'
p1391
tp1392
bag1002
(g676
(I0
tp1393
g1004
tp1394
Rp1395
(I1
(I3
tp1396
g1010
I00
S'\xcd\xcc\xcc\xcc\xcc\xcc8@\x00\x00\x00\x00\x00\x009@\x9a\x99\x99\x99\x99\x998@'
p1397
tp1398
bag1002
(g676
(I0
tp1399
g1004
tp1400
Rp1401
(I1
(I3
tp1402
g1010
I00
S'fffff\xe62@\xcd\xcc\xcc\xcc\xcc\xcc2@\xcd\xcc\xcc\xcc\xcc\xcc2@'
p1403
tp1404
bag1002
(g676
(I0
tp1405
g1004
tp1406
Rp1407
(I1
(I3
tp1408
g1010
I00
S'\x00\x00\x00\x00\x00\x804@\x00\x00\x00\x00\x00\x804@\xcd\xcc\xcc\xcc\xccL4@'
p1409
tp1410
baNaNaNaNaNaNaNaNaNaNaNaNaNaNaNaNaNaNaNaNaNaNaNaNaNaNaNaNaNaNaNaNaNaNaNaNaNaNaNaNaNaNaNasg593
g0
(g594
g2
Ntp1411
Rp1412
(dp1413
g598
Vlength = len(Groups)\u000aStdFilteredGroupedCt = roundValues([filterExtremes(g, max_std, 2) for g in pruneNulls(GroupedCt)])\u000a 
p1414
sg599
VStdFilteredGroupedCt
p1415
sg601
I00
sg602
I00
sg603
Vlength = len(Groups)\u000aStdFilteredGroupedCt = roundValues([filterExtremes(g, max_std, 2) for g in pruneNulls(GroupedCt)])\u000a 
p1416
sbsg604
g4
sg605
g0
(g606
g607
(g676
g609
tp1417
tp1418
Rp1419
sg599
g1415
sbag0
(g520
g2
Ntp1420
Rp1421
(dp1422
g524
I00
sg525
(lp1423
sg527
(lp1424
F22.9
aF18.3
aF19.8
aF27.0
aF26.6
aF29.8
aF19.9
aF21.9
aF23.9
aF21.9
aF23.6
aF24.5
aF30.1
aF23.5
aF26.3
aF24.8
aF18.8
aF20.4
aF24.8
aF18.8
aF20.4
aFnan
aFnan
aFnan
aFnan
aFnan
aFnan
aFnan
aFnan
aFnan
aFnan
aFnan
aFnan
aFnan
aFnan
aFnan
aFnan
aFnan
aFnan
aFnan
aFnan
aFnan
aFnan
aFnan
aFnan
aFnan
aFnan
aFnan
aFnan
aFnan
aFnan
aFnan
aFnan
aFnan
aFnan
aFnan
aFnan
aFnan
aFnan
aFnan
aFnan
aFnan
aFnan
aFnan
asg593
g0
(g594
g2
Ntp1425
Rp1426
(dp1427
g598
VMeanCt = [np.mean(g) for g in StdFilteredGroupedCt]\u000aMeanCt = roundValues(MeanCt,1)\u000aStdCt = [np.std(g, ddof=1) if len(g) > 2 else 0 for g in StdFilteredGroupedCt]\u000aStdCt = roundValues(StdCt,3)
p1428
sg599
VMeanCt
p1429
sg601
I00
sg602
I00
sg603
VMeanCt = [np.mean(g) for g in StdFilteredGroupedCt]\u000aMeanCt = roundValues(MeanCt,1)\u000aStdCt = [np.std(g, ddof=1) if len(g) > 2 else 0 for g in StdFilteredGroupedCt]\u000aStdCt = roundValues(StdCt,3)
p1430
sbsg604
g4
sg605
g0
(g606
g607
(g676
g609
tp1431
tp1432
Rp1433
sg599
g1429
sbag0
(g520
g2
Ntp1434
Rp1435
(dp1436
g524
I00
sg525
(lp1437
sg527
(lp1438
F0.096
aF0.115
aF0.153
aF0.265
aF0.321
aF0.379
aF0.058
aF0.153
aF0.4
aF0.265
aF0.252
aF0.173
aF0.289
aF0.3
aF0.115
aF0.2
aF0.058
aF0.115
aF0.2
aF0.058
aF0.115
aFnan
aFnan
aFnan
aFnan
aFnan
aFnan
aFnan
aFnan
aFnan
aFnan
aFnan
aFnan
aFnan
aFnan
aFnan
aFnan
aFnan
aFnan
aFnan
aFnan
aFnan
aFnan
aFnan
aFnan
aFnan
aFnan
aFnan
aFnan
aFnan
aFnan
aFnan
aFnan
aFnan
aFnan
aFnan
aFnan
aFnan
aFnan
aFnan
aFnan
aFnan
aFnan
aFnan
asg593
g0
(g594
g2
Ntp1439
Rp1440
(dp1441
g598
Nsg599
VStdCt
p1442
sg601
I00
sg602
I00
sg603
Nsbsg604
g4
sg605
g0
(g606
g607
(g676
g609
tp1443
tp1444
Rp1445
sg599
g1442
sbag0
(g520
g2
Ntp1446
Rp1447
(dp1448
g524
I00
sg525
(lp1449
sg527
(lp1450
(lp1451
g820
ag831
aa(lp1452
g865
ag868
aa(lp1453
g872
ag875
aa(lp1454
g879
ag882
aa(lp1455
g928
ag931
aa(lp1456
g949
ag952
aa(lp1457
g970
ag973
aaNaNaNaNaNaNaNaNaNaNaNaNaNaNaNaNaNaNaNaNaNaNaNaNaNaNaNaNaNaNaNaNaNaNaNaNaNaNaNaNaNaNaNaNaNaNaNaNaNaNaNaNaNaNaNaNaNasg593
g0
(g594
g2
Ntp1458
Rp1459
(dp1460
g598
Vdummy = tabularize(s, 'Groups', 1, 'MeanCt', \u000a          new_category_colnm='BioRuns',\u000a          values_colnm_prefix='Gene_')
p1461
sg599
VBioRuns
p1462
sg601
I00
sg602
I00
sg603
Vdummy = tabularize(s, 'Groups', 1, 'MeanCt', \u000a          new_category_colnm='BioRuns',\u000a          values_colnm_prefix='Gene_')
p1463
sbsg604
g4
sg605
g0
(g606
g607
(g676
g609
tp1464
tp1465
Rp1466
sg599
g1462
sbag0
(g520
g2
Ntp1467
Rp1468
(dp1469
g524
I00
sg525
(lp1470
sg527
(lp1471
F22.9
aF27.0
aF26.6
aF29.8
aF30.1
aF24.8
aF24.8
aFnan
aFnan
aFnan
aFnan
aFnan
aFnan
aFnan
aFnan
aFnan
aFnan
aFnan
aFnan
aFnan
aFnan
aFnan
aFnan
aFnan
aFnan
aFnan
aFnan
aFnan
aFnan
aFnan
aFnan
aFnan
aFnan
aFnan
aFnan
aFnan
aFnan
aFnan
aFnan
aFnan
aFnan
aFnan
aFnan
aFnan
aFnan
aFnan
aFnan
aFnan
aFnan
aFnan
aFnan
aFnan
aFnan
aFnan
aFnan
aFnan
aFnan
aFnan
aFnan
aFnan
aFnan
aFnan
aFnan
aFnan
asg593
g0
(g594
g2
Ntp1472
Rp1473
(dp1474
g598
Nsg599
S'Gene_I'
p1475
sg601
I00
sg602
I00
sg603
Nsbsg604
g4
sg605
g0
(g606
g607
(g676
g609
tp1476
tp1477
Rp1478
sg599
g1475
sbag0
(g520
g2
Ntp1479
Rp1480
(dp1481
g524
I00
sg525
(lp1482
sg527
(lp1483
F18.3
aF19.9
aF21.9
aF23.9
aF23.5
aF18.8
aF18.8
aFnan
aFnan
aFnan
aFnan
aFnan
aFnan
aFnan
aFnan
aFnan
aFnan
aFnan
aFnan
aFnan
aFnan
aFnan
aFnan
aFnan
aFnan
aFnan
aFnan
aFnan
aFnan
aFnan
aFnan
aFnan
aFnan
aFnan
aFnan
aFnan
aFnan
aFnan
aFnan
aFnan
aFnan
aFnan
aFnan
aFnan
aFnan
aFnan
aFnan
aFnan
aFnan
aFnan
aFnan
aFnan
aFnan
aFnan
aFnan
aFnan
aFnan
aFnan
aFnan
aFnan
aFnan
aFnan
aFnan
aFnan
asg593
g0
(g594
g2
Ntp1484
Rp1485
(dp1486
g598
Nsg599
S'Gene_R1'
p1487
sg601
I00
sg602
I00
sg603
Nsbsg604
g4
sg605
g1478
sg599
g1487
sbag0
(g520
g2
Ntp1488
Rp1489
(dp1490
g524
I00
sg525
(lp1491
sg527
(lp1492
F19.8
aF21.9
aF23.6
aF24.5
aF26.3
aF20.4
aF20.4
aFnan
aFnan
aFnan
aFnan
aFnan
aFnan
aFnan
aFnan
aFnan
aFnan
aFnan
aFnan
aFnan
aFnan
aFnan
aFnan
aFnan
aFnan
aFnan
aFnan
aFnan
aFnan
aFnan
aFnan
aFnan
aFnan
aFnan
aFnan
aFnan
aFnan
aFnan
aFnan
aFnan
aFnan
aFnan
aFnan
aFnan
aFnan
aFnan
aFnan
aFnan
aFnan
aFnan
aFnan
aFnan
aFnan
aFnan
aFnan
aFnan
aFnan
aFnan
aFnan
aFnan
aFnan
aFnan
aFnan
aFnan
asg593
g0
(g594
g2
Ntp1493
Rp1494
(dp1495
g598
Nsg599
S'Gene_R2'
p1496
sg601
I00
sg602
I00
sg603
Nsbsg604
g4
sg605
g1478
sg599
g1496
sbag0
(g520
g2
Ntp1497
Rp1498
(dp1499
g524
I00
sg525
(lp1500
sg527
(lp1501
F0.04123
aF0.00729
aF0.03847
aF0.01675
aF0.01031
aF0.01563
aF0.01563
aFnan
aFnan
aFnan
aFnan
aFnan
aFnan
aFnan
aFnan
aFnan
aFnan
aFnan
aFnan
aFnan
aFnan
aFnan
aFnan
aFnan
aFnan
aFnan
aFnan
aFnan
aFnan
aFnan
aFnan
aFnan
aFnan
aFnan
aFnan
aFnan
aFnan
aFnan
aFnan
aFnan
aFnan
aFnan
aFnan
aFnan
aFnan
aFnan
aFnan
aFnan
aFnan
aFnan
aFnan
aFnan
aFnan
aFnan
aFnan
aFnan
aFnan
aFnan
aFnan
aFnan
aFnan
aFnan
aFnan
aFnan
asg593
g0
(g594
g2
Ntp1502
Rp1503
(dp1504
g598
VExprR1 = roundValues(2**(Gene_R1 - Gene_I),5)
p1505
sg599
VExprR1
p1506
sg601
I01
sg602
I00
sg603
VroundValues(2**(Gene_R1 - Gene_I),5)
p1507
sbsg604
g4
sg605
g0
(g606
g607
(g676
g609
tp1508
tp1509
Rp1510
sg599
g1506
sbag0
(g520
g2
Ntp1511
Rp1512
(dp1513
g524
I00
sg525
(lp1514
sg527
(lp1515
F0.11663
aF0.02916
aF0.125
aF0.02538
aF0.07179
aF0.04737
aF0.04737
aFnan
aFnan
aFnan
aFnan
aFnan
aFnan
aFnan
aFnan
aFnan
aFnan
aFnan
aFnan
aFnan
aFnan
aFnan
aFnan
aFnan
aFnan
aFnan
aFnan
aFnan
aFnan
aFnan
aFnan
aFnan
aFnan
aFnan
aFnan
aFnan
aFnan
aFnan
aFnan
aFnan
aFnan
aFnan
aFnan
aFnan
aFnan
aFnan
aFnan
aFnan
aFnan
aFnan
aFnan
aFnan
aFnan
aFnan
aFnan
aFnan
aFnan
aFnan
aFnan
aFnan
aFnan
aFnan
aFnan
aFnan
asg593
g0
(g594
g2
Ntp1516
Rp1517
(dp1518
g598
VExprR2 = roundValues(2**(Gene_R2 - Gene_I),5)
p1519
sg599
VExprR2
p1520
sg601
I01
sg602
I00
sg603
VroundValues(2**(Gene_R2 - Gene_I),5)
p1521
sbsg604
g4
sg605
g0
(g606
g607
(g676
g609
tp1522
tp1523
Rp1524
sg599
g1520
sbag0
(g520
g2
Ntp1525
Rp1526
(dp1527
g524
I00
sg525
(lp1528
sg527
(lp1529
F0.069
aF0.015
aF0.069
aF0.021
aF0.027
aF0.027
aF0.027
aFnan
aFnan
aFnan
aFnan
aFnan
aFnan
aFnan
aFnan
aFnan
aFnan
aFnan
aFnan
aFnan
aFnan
aFnan
aFnan
aFnan
aFnan
aFnan
aFnan
aFnan
aFnan
aFnan
aFnan
aFnan
aFnan
aFnan
aFnan
aFnan
aFnan
aFnan
aFnan
aFnan
aFnan
aFnan
aFnan
aFnan
aFnan
aFnan
aFnan
aFnan
aFnan
aFnan
aFnan
aFnan
aFnan
aFnan
aFnan
aFnan
aFnan
aFnan
aFnan
aFnan
aFnan
aFnan
aFnan
aFnan
asg593
g0
(g594
g2
Ntp1530
Rp1531
(dp1532
g598
VGeoMean = roundValues(np.sqrt(ExprR1*ExprR2), 3)
p1533
sg599
VGeoMean
p1534
sg601
I01
sg602
I00
sg603
VroundValues(np.sqrt(ExprR1*ExprR2), 3)
p1535
sbsg604
g4
sg605
g0
(g606
g607
(g676
g609
tp1536
tp1537
Rp1538
sg599
g1534
sbag0
(g520
g2
Ntp1539
Rp1540
(dp1541
g524
I00
sg525
(lp1542
sg527
(lp1543
I0
aI1
aI2
aI3
aI4
asg593
g0
(g594
g2
Ntp1544
Rp1545
(dp1546
g598
Vcat_vals = [br[0] for br in pruneNulls(BioRuns)]\u000aclean_geo = [x for x in GeoMean if x is not None]\u000aGeoGroups, groupedGeoMeans = groupBy(cat_vals, clean_geo)\u000aGroupedGeoMeans = roundValues(groupedGeoMeans, 3)
p1547
sg599
VGeoGroups
p1548
sg601
I00
sg602
I00
sg603
Vcat_vals = [br[0] for br in pruneNulls(BioRuns)]\u000aclean_geo = [x for x in GeoMean if x is not None]\u000aGeoGroups, groupedGeoMeans = groupBy(cat_vals, clean_geo)\u000aGroupedGeoMeans = roundValues(groupedGeoMeans, 3)
p1549
sbsg604
g4
sg605
g0
(g606
g607
(g676
g609
tp1550
tp1551
Rp1552
sg599
g1548
sbag0
(g520
g2
Ntp1553
Rp1554
(dp1555
g524
I00
sg525
(lp1556
sg527
(lp1557
g1002
(g676
(I0
tp1558
g1004
tp1559
Rp1560
(I1
(I1
tp1561
g812
(S'f8'
p1562
I0
I1
tp1563
Rp1564
(I3
S'<'
p1565
NNNI-1
I-1
I0
tp1566
bI00
S'D\x8bl\xe7\xfb\xa9\xb1?'
p1567
tp1568
bag1002
(g676
(I0
tp1569
g1004
tp1570
Rp1571
(I1
(I3
tp1572
g1564
I00
S'\xb8\x1e\x85\xebQ\xb8\x8e?D\x8bl\xe7\xfb\xa9\xb1?\x1b/\xdd$\x06\x81\x95?'
p1573
tp1574
bag1002
(g676
(I0
tp1575
g1004
tp1576
Rp1577
(I1
(I1
tp1578
g1564
I00
S'\xd9\xce\xf7S\xe3\xa5\x9b?'
p1579
tp1580
bag1002
(g676
(I0
tp1581
g1004
tp1582
Rp1583
(I1
(I1
tp1584
g1564
I00
S'\xd9\xce\xf7S\xe3\xa5\x9b?'
p1585
tp1586
bag1002
(g676
(I0
tp1587
g1004
tp1588
Rp1589
(I1
(I1
tp1590
g1564
I00
S'\xd9\xce\xf7S\xe3\xa5\x9b?'
p1591
tp1592
basg593
g0
(g594
g2
Ntp1593
Rp1594
(dp1595
g598
Nsg599
VGroupedGeoMeans
p1596
sg601
I00
sg602
I00
sg603
Nsbsg604
g4
sg605
g0
(g606
g607
(g676
g609
tp1597
tp1598
Rp1599
sg599
g1596
sbag0
(g520
g2
Ntp1600
Rp1601
(dp1602
g524
I00
sg525
(lp1603
sg527
(lp1604
g1002
(g676
(I0
tp1605
g1004
tp1606
Rp1607
(I1
(I1
tp1608
g1564
I00
S'\x00\x00\x00\x00\x00\x00\xf0?'
p1609
tp1610
bag1002
(g676
(I0
tp1611
g1004
tp1612
Rp1613
(I1
(I3
tp1614
g1564
I00
S'-\xb2\x9d\xef\xa7\xc6\xcb?\x00\x00\x00\x00\x00\x00\xf0?\xdb\xf9~j\xbct\xd3?'
p1615
tp1616
bag1002
(g676
(I0
tp1617
g1004
tp1618
Rp1619
(I1
(I1
tp1620
g1564
I00
S'\xa0\x1a/\xdd$\x06\xd9?'
p1621
tp1622
bag1002
(g676
(I0
tp1623
g1004
tp1624
Rp1625
(I1
(I1
tp1626
g1564
I00
S'\xa0\x1a/\xdd$\x06\xd9?'
p1627
tp1628
bag1002
(g676
(I0
tp1629
g1004
tp1630
Rp1631
(I1
(I1
tp1632
g1564
I00
S'\xa0\x1a/\xdd$\x06\xd9?'
p1633
tp1634
basg593
g0
(g594
g2
Ntp1635
Rp1636
(dp1637
g598
Vref = np.mean(GroupedGeoMeans[0])\u000aNrmlGeoGroupedMeans = [ [x/ref for x in g] for g in GroupedGeoMeans if g is not None]  \u000aNrmlGeoGroupedMeans = roundValues(NrmlGeoGroupedMeans, 3)
p1638
sg599
VNrmlGeoGroupedMeans
p1639
sg601
I00
sg602
I00
sg603
Vref = np.mean(GroupedGeoMeans[0])\u000aNrmlGeoGroupedMeans = [ [x/ref for x in g] for g in GroupedGeoMeans if g is not None]  \u000aNrmlGeoGroupedMeans = roundValues(NrmlGeoGroupedMeans, 3)
p1640
sbsg604
g4
sg605
g0
(g606
g607
(g676
g609
tp1641
tp1642
Rp1643
sg599
g1639
sbag0
(g520
g2
Ntp1644
Rp1645
(dp1646
g524
I00
sg525
(lp1647
sg527
(lp1648
F1.0
aF0.507
aF0.391
aF0.391
aF0.391
asg593
g0
(g594
g2
Ntp1649
Rp1650
(dp1651
g598
VMeanNrmlGeoGroups = [round(np.mean(g), 3) for g in NrmlGeoGroupedMeans]
p1652
sg599
VMeanNrmlGeoGroups
p1653
sg601
I01
sg602
I00
sg603
V[round(np.mean(g), 3) for g in NrmlGeoGroupedMeans]
p1654
sbsg604
g4
sg605
g0
(g606
g607
(g676
g609
tp1655
tp1656
Rp1657
sg599
g1653
sbag0
(g520
g2
Ntp1658
Rp1659
(dp1660
g524
I00
sg525
(lp1661
sg527
(lp1662
F0.248
aFnan
aFnan
aFnan
aFnan
aFnan
aFnan
aFnan
aFnan
aFnan
aFnan
aFnan
aFnan
aFnan
aFnan
aFnan
aFnan
aFnan
aFnan
aFnan
aFnan
aFnan
aFnan
aFnan
aFnan
aFnan
aFnan
aFnan
aFnan
aFnan
aFnan
aFnan
aFnan
aFnan
aFnan
aFnan
aFnan
aFnan
aFnan
aFnan
aFnan
aFnan
aFnan
aFnan
aFnan
aFnan
aFnan
aFnan
aFnan
aFnan
aFnan
aFnan
aFnan
aFnan
aFnan
aFnan
aFnan
aFnan
aFnan
aFnan
aFnan
aFnan
aFnan
aFnan
asg593
g0
(g594
g2
Ntp1663
Rp1664
(dp1665
g598
VStdNrmlGeoGroups = []\u000afor grp in NrmlGeoGroupedMeans:\u000a  if len(grp) > 1:\u000a    val = np.std(grp, ddof=1)/np.sqrt(len(grp))\u000a    val = round(val, 3)\u000a    StdNrmlGeoGroups.append(val)\u000a
p1666
sg599
VStdNrmlGeoGroups
p1667
sg601
I00
sg602
I00
sg603
VStdNrmlGeoGroups = []\u000afor grp in NrmlGeoGroupedMeans:\u000a  if len(grp) > 1:\u000a    val = np.std(grp, ddof=1)/np.sqrt(len(grp))\u000a    val = round(val, 3)\u000a    StdNrmlGeoGroups.append(val)\u000a
p1668
sbsg604
g4
sg605
g0
(g606
g607
(g676
g609
tp1669
tp1670
Rp1671
sg599
g1667
sbasS'_is_evaluate_formulas'
p1672
I01
sS'_prologue'
p1673
g0
(g594
g2
Ntp1674
Rp1675
(dp1676
g598
V# Prologue\u000aimport math as mt\u000aimport numpy as np\u000afrom os import listdir\u000afrom os.path import isfile, join\u000aimport pandas as pd\u000aimport scipy as sp\u000afrom numpy import nan  # Must follow sympy import \u000a\u000axlsx_path =   '/mnt/hgfs/josephhellerstein/home/Technical/SciSheets/CaseStudies/Kristen/workbooks/data.xlsx'\u000agene = ParmValues[0]\u000arun = ParmValues[1] == 'True'\u000ashow_raw = ParmValues[2] == 'True'\u000ashow_block1 = ParmValues[3] == 'True'\u000ashow_block2 = ParmValues[4] == 'True'\u000ashow_block3 = ParmValues[5] == 'True'\u000ashow_params = ParmValues[8] == 'True'\u000a#show_params = True\u000amax_std  = float(ParmValues[6])\u000amin_eff = float(ParmValues[7])\u000aworksheet = gene + "-I"\u000as.getTable().setIsEvaluateFormulas(run)\u000a\u000aif run:\u000a  Groups = []\u000a  GroupedCt = []\u000a  GroupedEff = []\u000a  MeanCt = []\u000a  Imp = []\u000a  s.deleteColumn('Ct')\u000a  s.deleteColumn('RunType')\u000a  s.deleteColumn('BRpl')\u000a  s.deleteColumn('TRpl')\u000a  s.deleteColumn('Treatment')\u000a  s.deleteColumn('Eff')\u000aif run:\u000a  importExcelToTable(s, xlsx_path, worksheet=worksheet,\u000a      column_position='ParmValues',\u000a      names=['Treatment', 'RunType', 'BRpl', 'TRpl', 'Eff', 'Ct'])\u000as.setColumnVisibility(['BRpl', 'Ct', 'Eff', 'RunType', 'TRpl', 'Treatment'], is_visible=show_raw)\u000as.setColumnVisibility(['ParmNames', 'ParmValues'], show_params)\u000as.setColumnVisibility()\u000as.setColumnVisibility(['Groups', 'GroupedEff', 'GroupedCt', 'StdFilteredGroupedCt', 'MeanCt',\u000a    'StdCt'], is_visible=show_block1)\u000as.setColumnVisibility(['BioRuns', 'Gene_I', 'Gene_R1', 'Gene_R2', 'ExprR1', 'ExprR2', \u000a    'GeoMean'], is_visible=show_block2)\u000as.setColumnVisibility(['GeoGroups', 'GroupedGeoMeans', 'NrmlGeoGroupedMeans', \u000a    'MeanNrmlGeoGroups', 'StdNrmlGeoGroups'], is_visible=show_block3)
p1677
sg599
VSingleGene
p1678
sg601
I00
sg602
I00
sg603
V# Prologue\u000aimport math as mt\u000aimport numpy as np\u000afrom os import listdir\u000afrom os.path import isfile, join\u000aimport pandas as pd\u000aimport scipy as sp\u000afrom numpy import nan  # Must follow sympy import \u000a\u000axlsx_path =   '/mnt/hgfs/josephhellerstein/home/Technical/SciSheets/CaseStudies/Kristen/workbooks/data.xlsx'\u000agene = ParmValues[0]\u000arun = ParmValues[1] == 'True'\u000ashow_raw = ParmValues[2] == 'True'\u000ashow_block1 = ParmValues[3] == 'True'\u000ashow_block2 = ParmValues[4] == 'True'\u000ashow_block3 = ParmValues[5] == 'True'\u000ashow_params = ParmValues[8] == 'True'\u000a#show_params = True\u000amax_std  = float(ParmValues[6])\u000amin_eff = float(ParmValues[7])\u000aworksheet = gene + "-I"\u000as.getTable().setIsEvaluateFormulas(run)\u000a\u000aif run:\u000a  Groups = []\u000a  GroupedCt = []\u000a  GroupedEff = []\u000a  MeanCt = []\u000a  Imp = []\u000a  s.deleteColumn('Ct')\u000a  s.deleteColumn('RunType')\u000a  s.deleteColumn('BRpl')\u000a  s.deleteColumn('TRpl')\u000a  s.deleteColumn('Treatment')\u000a  s.deleteColumn('Eff')\u000aif run:\u000a  importExcelToTable(s, xlsx_path, worksheet=worksheet,\u000a      column_position='ParmValues',\u000a      names=['Treatment', 'RunType', 'BRpl', 'TRpl', 'Eff', 'Ct'])\u000as.setColumnVisibility(['BRpl', 'Ct', 'Eff', 'RunType', 'TRpl', 'Treatment'], is_visible=show_raw)\u000as.setColumnVisibility(['ParmNames', 'ParmValues'], show_params)\u000as.setColumnVisibility()\u000as.setColumnVisibility(['Groups', 'GroupedEff', 'GroupedCt', 'StdFilteredGroupedCt', 'MeanCt',\u000a    'StdCt'], is_visible=show_block1)\u000as.setColumnVisibility(['BioRuns', 'Gene_I', 'Gene_R1', 'Gene_R2', 'ExprR1', 'ExprR2', \u000a    'GeoMean'], is_visible=show_block2)\u000as.setColumnVisibility(['GeoGroups', 'GroupedGeoMeans', 'NrmlGeoGroupedMeans', \u000a    'MeanNrmlGeoGroups', 'StdNrmlGeoGroups'], is_visible=show_block3)
p1679
sbsS'_epilogue'
p1680
g0
(g594
g2
Ntp1681
Rp1682
(dp1683
g598
V# Epilogue\u000aif run:\u000a  worksheet = "%s-O" % gene\u000a  exportTableToExcel(s, xlsx_path, worksheet=worksheet, columns=['GeoGroups',  \u000a      'MeanNrmlGeoGroups', 'StdNrmlGeoGroups'])\u000a
p1684
sg599
g1678
sg601
I00
sg602
I00
sg603
V# Epilogue\u000aif run:\u000a  worksheet = "%s-O" % gene\u000a  exportTableToExcel(s, xlsx_path, worksheet=worksheet, columns=['GeoGroups',  \u000a      'MeanNrmlGeoGroups', 'StdNrmlGeoGroups'])\u000a
p1685
sbsg599
g1678
sS'_hidden_columns'
p1686
(lp1687
g806
ag998
ag1143
ag1281
ag1421
ag1435
ag1447
ag1468
ag1480
ag1489
ag1498
ag1512
ag1526
asb.