ccopy_reg
_reconstructor
p0
(cscisheets.ui.dt_table
DTTable
p1
c__builtin__
object
p2
Ntp3
Rp4
(dp5
S'_versioned_file'
p6
g0
(cmysite.helpers.versioned_file
VersionedFile
p7
g2
Ntp8
Rp9
(dp10
S'_redo_stack'
p11
g0
(cmysite.helpers.file_stack
FileStack
p12
g2
Ntp13
Rp14
(dp15
S'_dirpath'
p16
S'/home/ubuntu/SciSheets/mysite/user/guest/tables/backup'
p17
sS'_max_depth'
p18
I5
sS'_filename_pfx'
p19
Vkristen_single_gene.r
p20
sbsS'_max_versions'
p21
I5
sS'_undo_stack'
p22
g0
(g12
g2
Ntp23
Rp24
(dp25
g16
g17
sg18
I5
sg19
Vkristen_single_gene.u
p26
sbsS'_checkpoint_history'
p27
(lp28
VCell/Update
p29
aVCell/Update
p30
aVCell/Update
p31
aVCell/Update
p32
aVCell/Update
p33
aVCell/Update
p34
aVCell/Update
p35
aVCell/Update
p36
aVCell/Update
p37
aVCell/Update
p38
aVCell/Update
p39
aVCell/Update
p40
aVColumn/Formula
p41
aVColumn/Formula
p42
aVColumn/Append
p43
aVColumn/Formula
p44
aVColumn/Delete
p45
aVCell/Update
p46
aVColumn/Formula
p47
aVCell/Update
p48
aVCell/Update
p49
aVColumn/Formula
p50
aVColumn/Formula
p51
aVCell/Update
p52
aVColumn/Formula
p53
aVColumn/Formula
p54
aVCell/Update
p55
aVCell/Update
p56
aVCell/Update
p57
aVCell/Update
p58
aVColumn/Formula
p59
aVCell/Update
p60
aVCell/Update
p61
aVCell/Update
p62
aVColumn/Formula
p63
aVCell/Update
p64
aVColumn/Formula
p65
aVColumn/Formula
p66
aVCell/Update
p67
aVCell/Update
p68
aVCell/Update
p69
aVCell/Update
p70
aVCell/Update
p71
aVCell/Update
p72
aVCell/Update
p73
aVCell/Update
p74
aVCell/Update
p75
aVColumn/Formula
p76
aVCell/Update
p77
aVCell/Update
p78
aVCell/Update
p79
aVCell/Update
p80
aVCell/Update
p81
aVCell/Update
p82
aVCell/Update
p83
aVCell/Update
p84
aVCell/Update
p85
aVCell/Update
p86
aVCell/Update
p87
aVCell/Update
p88
aVColumn/Formula
p89
aVColumn/Formula
p90
aVColumn/Formula
p91
aVCell/Update
p92
aVCell/Update
p93
aVCell/Update
p94
aVCell/Update
p95
aVCell/Update
p96
aVColumn/Formula
p97
aVCell/Update
p98
aVCell/Update
p99
aVCell/Update
p100
aVCell/Update
p101
aVCell/Update
p102
aVCell/Update
p103
aVCell/Update
p104
aVColumn/Formula
p105
aVColumn/Formula
p106
aVColumn/Formula
p107
aVCell/Update
p108
aVCell/Update
p109
aVColumn/Formula
p110
aVCell/Update
p111
aVCell/Update
p112
aVCell/Update
p113
aVCell/Update
p114
aVCell/Update
p115
aVCell/Update
p116
aVCell/Update
p117
aVCell/Update
p118
aVColumn/Formula
p119
aVCell/Update
p120
aVColumn/Formula
p121
aVColumn/Formula
p122
aVColumn/Formula
p123
aVCell/Update
p124
aVCell/Update
p125
aVColumn/Formula
p126
aVColumn/Formula
p127
aVColumn/Formula
p128
aVColumn/Formula
p129
aVCell/Update
p130
aVColumn/Formula
p131
aVColumn/Formula
p132
aVColumn/Formula
p133
aVCell/Update
p134
aVCell/Update
p135
aVCell/Update
p136
aVCell/Update
p137
aVCell/Update
p138
aVCell/Update
p139
aVCell/Update
p140
aVCell/Update
p141
aVCell/Update
p142
aVCell/Update
p143
aVColumn/Formula
p144
aVColumn/Formula
p145
aVColumn/Formula
p146
aVColumn/Formula
p147
aVCell/Update
p148
aVCell/Update
p149
aVColumn/Formula
p150
aVCell/Update
p151
aVCell/Update
p152
aVCell/Update
p153
aVCell/Update
p154
aVCell/Update
p155
aVCell/Update
p156
aVCell/Update
p157
aVCell/Update
p158
aVCell/Update
p159
aVCell/Update
p160
aVCell/Update
p161
aVCell/Update
p162
aVCell/Update
p163
aVColumn/Formula
p164
aVColumn/Formula
p165
aVCell/Update
p166
aVCell/Update
p167
aVCell/Update
p168
aVColumn/Formula
p169
aVCell/Update
p170
aVCell/Update
p171
aVCell/Update
p172
aVCell/Update
p173
aVColumn/Formula
p174
aVColumn/Formula
p175
aVColumn/Formula
p176
aVColumn/Formula
p177
aVCell/Update
p178
aVColumn/Formula
p179
aVCell/Update
p180
aVCell/Update
p181
aVCell/Update
p182
aVCell/Update
p183
aVCell/Update
p184
aVCell/Update
p185
aVCell/Update
p186
aVCell/Update
p187
aVCell/Update
p188
aVColumn/Formula
p189
aVCell/Update
p190
aVCell/Update
p191
aVCell/Update
p192
aVCell/Update
p193
aVCell/Update
p194
aVCell/Update
p195
aVCell/Update
p196
aVCell/Update
p197
aVCell/Update
p198
aVCell/Update
p199
aVCell/Update
p200
aVCell/Update
p201
aVCell/Update
p202
aVCell/Update
p203
aVCell/Update
p204
aVCell/Update
p205
aVCell/Update
p206
aVCell/Update
p207
aVCell/Update
p208
aVCell/Update
p209
aVCell/Update
p210
aVCell/Update
p211
aVCell/Update
p212
aVCell/Update
p213
aVCell/Update
p214
aVCell/Update
p215
aVCell/Update
p216
aVCell/Update
p217
aVCell/Update
p218
aVCell/Update
p219
aVCell/Update
p220
aVCell/Update
p221
aVCell/Update
p222
aVCell/Update
p223
aVCell/Update
p224
aVCell/Update
p225
aVCell/Update
p226
aVCell/Update
p227
aVCell/Update
p228
aVCell/Update
p229
aVCell/Update
p230
aVCell/Update
p231
aVCell/Update
p232
aVCell/Update
p233
aVCell/Update
p234
aVCell/Update
p235
aVCell/Update
p236
aVCell/Update
p237
aVCell/Update
p238
aVCell/Update
p239
aVCell/Update
p240
aVCell/Update
p241
aVCell/Update
p242
aVCell/Update
p243
aVCell/Update
p244
aVCell/Update
p245
aVCell/Update
p246
aVCell/Update
p247
aVCell/Update
p248
aVCell/Update
p249
aVCell/Update
p250
aVCell/Update
p251
aVCell/Update
p252
aVCell/Update
p253
aVCell/Update
p254
aVCell/Update
p255
aVCell/Update
p256
aVCell/Update
p257
aVCell/Update
p258
aVCell/Update
p259
aVCell/Update
p260
aVCell/Update
p261
aVCell/Update
p262
aVCell/Update
p263
aVCell/Update
p264
aVCell/Update
p265
aVCell/Update
p266
aVCell/Update
p267
aVCell/Update
p268
aVCell/Update
p269
aVCell/Update
p270
aVCell/Update
p271
aVColumn/Formula
p272
aVColumn/Formula
p273
aVCell/Update
p274
aVCell/Update
p275
aVCell/Update
p276
aVCell/Update
p277
aVColumn/Formula
p278
aVColumn/Formula
p279
aVColumn/Formula
p280
aVCell/Update
p281
aVCell/Update
p282
aVCell/Update
p283
aVCell/Update
p284
aVColumn/Formula
p285
aVColumn/Formula
p286
aVColumn/Formula
p287
aVCell/Update
p288
aVCell/Update
p289
aVColumn/Formula
p290
aVCell/Update
p291
aVCell/Update
p292
aVCell/Update
p293
aVCell/Update
p294
aVCell/Update
p295
aVCell/Update
p296
aVColumn/Formula
p297
aVCell/Update
p298
aVColumn/Formula
p299
aVCell/Update
p300
aVCell/Update
p301
aVColumn/Formula
p302
aVColumn/Formula
p303
aVCell/Update
p304
aVCell/Update
p305
aVCell/Update
p306
aVCell/Update
p307
aVColumn/Formula
p308
aVColumn/Formula
p309
aVColumn/Formula
p310
aVColumn/Formula
p311
aVColumn/Formula
p312
aVCell/Update
p313
aVCell/Update
p314
aVColumn/Formula
p315
aVCell/Update
p316
aVColumn/Formula
p317
aVColumn/Formula
p318
aVCell/Update
p319
aVCell/Update
p320
aVCell/Update
p321
aVColumn/Formula
p322
aVColumn/Formula
p323
aVColumn/Formula
p324
aVCell/Update
p325
aVColumn/Formula
p326
aVCell/Update
p327
aVColumn/Formula
p328
aVColumn/Formula
p329
aVColumn/Formula
p330
aVColumn/Formula
p331
aVColumn/Formula
p332
aVColumn/Formula
p333
aVCell/Update
p334
aVColumn/Formula
p335
aVCell/Update
p336
aVCell/Update
p337
aVCell/Update
p338
aVColumn/Formula
p339
aVColumn/Formula
p340
aVColumn/Formula
p341
aVColumn/Formula
p342
aVColumn/Formula
p343
aVCell/Update
p344
aVCell/Update
p345
aVCell/Update
p346
aVColumn/Formula
p347
aVCell/Update
p348
aVCell/Update
p349
aVColumn/Formula
p350
aVColumn/Formula
p351
aVColumn/Formula
p352
aVColumn/Formula
p353
aVColumn/Formula
p354
aVColumn/Formula
p355
aVCell/Update
p356
aVColumn/Formula
p357
aVColumn/Formula
p358
aVColumn/Formula
p359
aVCell/Update
p360
aVCell/Update
p361
aVCell/Update
p362
aVColumn/Formula
p363
aVColumn/Formula
p364
aVCell/Update
p365
aVColumn/Formula
p366
aVColumn/Formula
p367
aVColumn/Formula
p368
aVColumn/Formula
p369
aVColumn/Formula
p370
aVColumn/Formula
p371
aVCell/Update
p372
aVCell/Update
p373
aVColumn/Formula
p374
aVCell/Update
p375
aVColumn/Formula
p376
aVColumn/Formula
p377
aVCell/Update
p378
aVCell/Update
p379
aVCell/Update
p380
aVCell/Update
p381
aVCell/Update
p382
aVColumn/Formula
p383
aVCell/Update
p384
aVCell/Update
p385
aVColumn/Formula
p386
aVColumn/Formula
p387
aVCell/Update
p388
aVCell/Update
p389
aVColumn/Formula
p390
aVColumn/Formula
p391
aVCell/Update
p392
aVCell/Update
p393
aVCell/Update
p394
aVCell/Update
p395
aVCell/Update
p396
aVCell/Update
p397
aVColumn/Formula
p398
aVCell/Update
p399
aVColumn/Formula
p400
aVCell/Update
p401
aVCell/Update
p402
aVColumn/Formula
p403
aVCell/Update
p404
aVColumn/Formula
p405
aVCell/Update
p406
aVColumn/Formula
p407
aVColumn/Formula
p408
aVCell/Update
p409
aVCell/Update
p410
aVCell/Update
p411
aVColumn/Formula
p412
aVColumn/Formula
p413
aVColumn/Formula
p414
aVCell/Update
p415
aVCell/Update
p416
aVColumn/Formula
p417
aVCell/Update
p418
aVColumn/Formula
p419
aVCell/Update
p420
aVCell/Update
p421
aVCell/Update
p422
aVCell/Update
p423
aVCell/Update
p424
aVCell/Update
p425
aVCell/Update
p426
aVCell/Update
p427
aVCell/Update
p428
aVCell/Update
p429
aVCell/Update
p430
aVCell/Update
p431
aVCell/Update
p432
aVCell/Update
p433
aVCell/Update
p434
aVCell/Update
p435
aVCell/Update
p436
aVCell/Update
p437
aVCell/Update
p438
aVCell/Update
p439
aVCell/Update
p440
aVCell/Update
p441
aVCell/Update
p442
aVColumn/Formula
p443
aVCell/Update
p444
aVColumn/Formula
p445
aVCell/Update
p446
aVCell/Update
p447
aVCell/Update
p448
aVCell/Update
p449
aVCell/Update
p450
aVCell/Update
p451
aVCell/Update
p452
aVCell/Update
p453
aVCell/Update
p454
aVCell/Update
p455
aVCell/Update
p456
aVCell/Update
p457
aVCell/Update
p458
aVColumn/Formula
p459
aVCell/Update
p460
aVCell/Update
p461
aVCell/Update
p462
aVCell/Update
p463
aVColumn/Formula
p464
aVCell/Update
p465
aVCell/Update
p466
aVCell/Update
p467
aVCell/Update
p468
aVCell/Update
p469
aVCell/Update
p470
aVCell/Update
p471
aVColumn/Formula
p472
aVColumn/Formula
p473
aVCell/Update
p474
aVCell/Update
p475
aVColumn/Formula
p476
aVCell/Update
p477
aVCell/Update
p478
aVCell/Update
p479
aVCell/Update
p480
aVCell/Update
p481
aVCell/Update
p482
aVColumn/Formula
p483
aVColumn/Formula
p484
aVColumn/Formula
p485
aVColumn/Formula
p486
aVColumn/Formula
p487
aVColumn/Formula
p488
aVColumn/Formula
p489
aVCell/Update
p490
aVCell/Update
p491
aVCell/Update
p492
aVColumn/Formula
p493
aVColumn/Formula
p494
aVColumn/Formula
p495
aVCell/Update
p496
aVCell/Update
p497
aVCell/Update
p498
aVCell/Update
p499
aVCell/Update
p500
aVColumn/Formula
p501
aVCell/Update
p502
aVColumn/Formula
p503
aVCell/Update
p504
aVCell/Update
p505
aVCell/Update
p506
aVCell/Update
p507
aVCell/Update
p508
aVCell/Update
p509
aVCell/Update
p510
aVCell/Update
p511
aVCell/Update
p512
asS'_filepath'
p513
V/home/ubuntu/SciSheets/mysite/user/guest/tables/kristen_single_gene.pcl
p514
sS'_backup_dir'
p515
g17
sbsS'_namespace'
p516
(dp517
sS'_columns'
p518
(lp519
g0
(cscisheets.core.column
Column
p520
g2
Ntp521
Rp522
(dp523
S'_asis'
p524
I01
sS'_children'
p525
(lp526
sS'_cells'
p527
(lp528
S'1'
p529
aS'2'
p530
aS'3'
p531
aS'4'
p532
aS'5'
p533
aS'6'
p534
aS'7'
p535
aS'8'
p536
aS'9'
p537
aS'10'
p538
aS'11'
p539
aS'12'
p540
aS'13'
p541
aS'14'
p542
aS'15'
p543
aS'16'
p544
aS'17'
p545
aS'18'
p546
aS'19'
p547
aS'20'
p548
aS'21'
p549
aS'22'
p550
aS'23'
p551
aS'24'
p552
aS'25'
p553
aS'26'
p554
aS'27'
p555
aS'28'
p556
aS'29'
p557
aS'30'
p558
aS'31'
p559
aS'32'
p560
aS'33'
p561
aS'34'
p562
aS'35'
p563
aS'36'
p564
aS'37'
p565
aS'38'
p566
aS'39'
p567
aS'40'
p568
aS'41'
p569
aS'42'
p570
aS'43'
p571
aS'44'
p572
aS'45'
p573
aS'46'
p574
aS'47'
p575
aS'48'
p576
aS'49'
p577
aS'50'
p578
aS'51'
p579
aS'52'
p580
aS'53'
p581
aS'54'
p582
aS'55'
p583
aS'56'
p584
aS'57'
p585
aS'58'
p586
aS'59'
p587
aS'60'
p588
aS'61'
p589
aS'62'
p590
aS'63'
p591
aS'64'
p592
asS'_formula_statement'
p593
g0
(cscisheets.core.helpers.formula_statement
FormulaStatement
p594
g2
Ntp595
Rp596
(dp597
S'_statement'
p598
NsS'_name'
p599
S'row'
p600
sS'_isExpression'
p601
I00
sS'_isStatement'
p602
I00
sS'_formula'
p603
NsbsS'_parent'
p604
g4
sS'_data_class'
p605
g0
(cscisheets.core.helpers.api_util
DataClass
p606
c__builtin__
tuple
p607
(cscisheets.core.helpers.extended_array
ExtendedArray
p608
cscisheets.core.helpers.api_util
makeArray
p609
tp610
tp611
Rp612
sg599
g600
sbag0
(g520
g2
Ntp613
Rp614
(dp615
g524
I00
sg525
(lp616
sg527
(lp617
Vgene
p618
aVrun
p619
aVshow_raw
p620
aVshow_block1
p621
aVshow_block2
p622
aVshow_block3
p623
aVmax_std
p624
aVmin_eff
p625
aVshow_params
p626
aVnan
p627
aVnan
p628
aVnan
p629
aVnan
p630
aVnan
p631
aVnan
p632
aVnan
p633
aVnan
p634
aVnan
p635
aVnan
p636
aVnan
p637
aVnan
p638
aVnan
p639
aVnan
p640
aVnan
p641
aVnan
p642
aVnan
p643
aVnan
p644
aVnan
p645
aVnan
p646
aVnan
p647
aVnan
p648
aVnan
p649
aVnan
p650
aVnan
p651
aVnan
p652
aVnan
p653
aVnan
p654
aVnan
p655
aVnan
p656
aVnan
p657
aVnan
p658
aVnan
p659
aVnan
p660
aVnan
p661
aVnan
p662
aVnan
p663
aVnan
p664
aVnan
p665
aVnan
p666
aVnan
p667
aVnan
p668
aVnan
p669
aVnan
p670
aVnan
p671
aNaNaNaNaNaNaNaNaNaNasg593
g0
(g594
g2
Ntp672
Rp673
(dp674
g598
Nsg599
VParmNames
p675
sg601
I00
sg602
I00
sg603
Nsbsg604
g4
sg605
g0
(g606
g607
(cnumpy
ndarray
p676
g609
tp677
tp678
Rp679
sg599
g675
sbag0
(g520
g2
Ntp680
Rp681
(dp682
g524
I00
sg525
(lp683
sg527
(lp684
VGene2
p685
aVTrue
p686
aVFalse
p687
aVFalse
p688
aVFalse
p689
aVTrue
p690
aF0.5
aF0.7
aVTrue
p691
aV
p692
aVnan
p693
aVnan
p694
aVnan
p695
aVnan
p696
aVnan
p697
aVnan
p698
aVnan
p699
aVnan
p700
aVnan
p701
aVnan
p702
aVnan
p703
aVnan
p704
aVnan
p705
aVnan
p706
aVnan
p707
aVnan
p708
aVnan
p709
aVnan
p710
aVnan
p711
aVnan
p712
aVnan
p713
aVnan
p714
aVnan
p715
aVnan
p716
aVnan
p717
aVnan
p718
aVnan
p719
aVnan
p720
aVnan
p721
aVnan
p722
aVnan
p723
aVnan
p724
aVnan
p725
aVnan
p726
aVnan
p727
aVnan
p728
aVnan
p729
aVnan
p730
aVnan
p731
aVnan
p732
aVnan
p733
aVnan
p734
aVnan
p735
aVnan
p736
aNaNaNaNaNaNaNaNaNaNasg593
g0
(g594
g2
Ntp737
Rp738
(dp739
g598
Nsg599
VParmValues
p740
sg601
I00
sg602
I00
sg603
Nsbsg604
g4
sg605
g0
(g606
g607
(g676
g609
tp741
tp742
Rp743
sg599
g740
sbag0
(g520
g2
Ntp744
Rp745
(dp746
g524
I00
sg525
(lp747
sg527
(lp748
I0
aI0
aI0
aI0
aI0
aI0
aI0
aI0
aI0
aI0
aI1
aI1
aI1
aI1
aI1
aI1
aI1
aI1
aI1
aI1
aI1
aI1
aI1
aI1
aI1
aI1
aI1
aI1
aI1
aI1
aI1
aI1
aI1
aI1
aI1
aI1
aI1
aI2
aI2
aI2
aI2
aI2
aI2
aI2
aI2
aI2
aI3
aI3
aI3
aI3
aI3
aI3
aI3
aI3
aI3
aI4
aI4
aI4
aI4
aI4
aI4
aI4
aI4
aI4
asg593
g0
(g594
g2
Ntp749
Rp750
(dp751
g598
Nsg599
S'Treatment'
p752
sg601
I00
sg602
I00
sg603
Nsbsg604
g4
sg605
g0
(g606
g607
(g608
g609
tp753
tp754
Rp755
sg599
g752
sbag0
(g520
g2
Ntp756
Rp757
(dp758
g524
I00
sg525
(lp759
sg527
(lp760
VI
p761
ag761
ag761
ag761
aVR1
p762
ag762
ag762
aVR2
p763
ag763
ag763
ag761
ag761
ag761
ag761
ag761
ag761
ag761
ag761
ag761
ag762
ag762
ag762
ag762
ag762
ag762
ag762
ag762
ag762
ag763
ag763
ag763
ag763
ag763
ag763
ag763
ag763
ag763
ag761
ag761
ag761
ag762
ag762
ag762
ag763
ag763
ag763
ag761
ag761
ag761
ag762
ag762
ag762
ag763
ag763
ag763
ag761
ag761
ag761
ag762
ag762
ag762
ag763
ag763
ag763
asg593
g0
(g594
g2
Ntp764
Rp765
(dp766
g598
Nsg599
S'RunType'
p767
sg601
I00
sg602
I00
sg603
Nsbsg604
g4
sg605
g755
sg599
g767
sbag0
(g520
g2
Ntp768
Rp769
(dp770
g524
I00
sg525
(lp771
sg527
(lp772
I1
aI1
aI1
aI1
aI1
aI1
aI1
aI1
aI1
aI1
aI1
aI1
aI1
aI2
aI2
aI2
aI3
aI3
aI3
aI1
aI1
aI1
aI2
aI2
aI2
aI3
aI3
aI3
aI1
aI1
aI1
aI2
aI2
aI2
aI3
aI3
aI3
aI1
aI1
aI1
aI1
aI1
aI1
aI1
aI1
aI1
aI1
aI1
aI1
aI1
aI1
aI1
aI1
aI1
aI1
aI1
aI1
aI1
aI1
aI1
aI1
aI1
aI1
aI1
asg593
g0
(g594
g2
Ntp773
Rp774
(dp775
g598
Nsg599
S'BRpl'
p776
sg601
I00
sg602
I00
sg603
Nsbsg604
g4
sg605
g755
sg599
g776
sbag0
(g520
g2
Ntp777
Rp778
(dp779
g524
I00
sg525
(lp780
sg527
(lp781
Va
p782
aVb
p783
aVc
p784
aVd
p785
ag782
ag783
ag784
ag782
ag783
ag784
ag782
ag783
ag784
ag782
ag783
ag784
ag782
ag783
ag784
ag782
ag783
ag784
ag782
ag783
ag784
ag782
ag783
ag784
ag782
ag783
ag784
ag782
ag783
ag784
ag782
ag783
ag784
ag782
ag783
ag784
ag782
ag783
ag784
ag782
ag783
ag784
ag782
ag783
ag784
ag782
ag783
ag784
ag782
ag783
ag784
ag782
ag783
ag784
ag782
ag783
ag784
ag782
ag783
ag784
asg593
g0
(g594
g2
Ntp786
Rp787
(dp788
g598
Nsg599
S'TRpl'
p789
sg601
I00
sg602
I00
sg603
Nsbsg604
g4
sg605
g755
sg599
g789
sbag0
(g520
g2
Ntp790
Rp791
(dp792
g524
I00
sg525
(lp793
sg527
(lp794
F0.8371
aF0.891
aF0.8956
aF0.8671
aF0.8266
aF0.8343
aF0.8496
aF0.8157
aF0.8543
aF0.8208
aF0.9399
aF0.8296
aF0.8361
aF0.8039
aF0.8399
aF0.7935
aF0.8264
aF0.7974
aF0.8252
aF0.9179
aF0.9783
aF0.8971
aF0.8957
aF0.8287
aF0.8387
aF0.8746
aF0.8493
aF0.8349
aF0.7857
aF0.8427
aF0.8637
aF0.8281
aF0.8203
aF0.8288
aF0.8138
aF0.8242
aF0.804
aF0.8418
aF0.7959
aF0.8071
aF0.7701
aF0.8746
aF0.8139
aF0.7795
aF0.7676
aF0.7947
aF0.8513
aF0.8485
aF0.8401
aF0.8715
aF0.8977
aF0.856
aF0.8179
aF0.8173
aF0.7894
aF0.8513
aF0.8485
aF0.8401
aF0.8715
aF0.8977
aF0.856
aF0.8179
aF0.8173
aF0.7894
asg593
g0
(g594
g2
Ntp795
Rp796
(dp797
g598
Nsg599
S'Eff'
p798
sg601
I00
sg602
I00
sg603
Nsbsg604
g4
sg605
g755
sg599
g798
sbag0
(g520
g2
Ntp799
Rp800
(dp801
g524
I00
sg525
(lp802
sg527
(lp803
F23.0
aF22.86
aF22.8
aF23.0
aF18.24
aF18.22
aF18.36
aF19.72
aF19.75
aF20.01
aF26.68
aF27.13
aF27.21
aF26.76
aF26.71
aF26.19
aF29.98
aF30.12
aF29.41
aF19.92
aF19.85
aF20.0
aF21.86
aF22.09
aF21.84
aF23.89
aF23.54
aF24.27
aF22.18
aF21.71
aF21.75
aF23.88
aF23.42
aF23.63
aF24.59
aF24.61
aF24.34
aF29.95
aF30.45
aF29.88
aF23.22
aF23.8
aF23.49
aF26.37
aF26.36
aF26.17
aF24.8
aF24.97
aF24.63
aF18.91
aF18.78
aF18.8
aF20.5
aF20.47
aF20.28
aF24.8
aF24.97
aF24.63
aF18.91
aF18.78
aF18.8
aF20.5
aF20.47
aF20.28
asg593
g0
(g594
g2
Ntp804
Rp805
(dp806
g598
Nsg599
S'Ct'
p807
sg601
I00
sg602
I00
sg603
Nsbsg604
g4
sg605
g755
sg599
g807
sbag0
(g520
g2
Ntp808
Rp809
(dp810
g524
I00
sg525
(lp811
sg527
(lp812
(lp813
cnumpy.core.multiarray
scalar
p814
(cnumpy
dtype
p815
(S'i8'
p816
I0
I1
tp817
Rp818
(I3
S'<'
p819
NNNI-1
I-1
I0
tp820
bS'\x00\x00\x00\x00\x00\x00\x00\x00'
p821
tp822
Rp823
ag814
(g815
(S'U1'
p824
I0
I1
tp825
Rp826
(I3
S'<'
p827
NNNI4
I4
I8
tp828
bS'I\x00\x00\x00'
p829
tp830
Rp831
ag814
(g818
S'\x01\x00\x00\x00\x00\x00\x00\x00'
p832
tp833
Rp834
aa(lp835
g814
(g818
S'\x00\x00\x00\x00\x00\x00\x00\x00'
p836
tp837
Rp838
ag814
(g815
(S'U2'
p839
I0
I1
tp840
Rp841
(I3
S'<'
p842
NNNI8
I4
I8
tp843
bS'R\x00\x00\x001\x00\x00\x00'
p844
tp845
Rp846
ag814
(g818
S'\x01\x00\x00\x00\x00\x00\x00\x00'
p847
tp848
Rp849
aa(lp850
g814
(g818
S'\x00\x00\x00\x00\x00\x00\x00\x00'
p851
tp852
Rp853
ag814
(g815
(S'U2'
p854
I0
I1
tp855
Rp856
(I3
S'<'
p857
NNNI8
I4
I8
tp858
bS'R\x00\x00\x002\x00\x00\x00'
p859
tp860
Rp861
ag814
(g818
S'\x01\x00\x00\x00\x00\x00\x00\x00'
p862
tp863
Rp864
aa(lp865
g814
(g818
S'\x01\x00\x00\x00\x00\x00\x00\x00'
p866
tp867
Rp868
ag831
ag814
(g818
S'\x01\x00\x00\x00\x00\x00\x00\x00'
p869
tp870
Rp871
aa(lp872
g814
(g818
S'\x01\x00\x00\x00\x00\x00\x00\x00'
p873
tp874
Rp875
ag831
ag814
(g818
S'\x02\x00\x00\x00\x00\x00\x00\x00'
p876
tp877
Rp878
aa(lp879
g814
(g818
S'\x01\x00\x00\x00\x00\x00\x00\x00'
p880
tp881
Rp882
ag831
ag814
(g818
S'\x03\x00\x00\x00\x00\x00\x00\x00'
p883
tp884
Rp885
aa(lp886
g814
(g818
S'\x01\x00\x00\x00\x00\x00\x00\x00'
p887
tp888
Rp889
ag846
ag814
(g818
S'\x01\x00\x00\x00\x00\x00\x00\x00'
p890
tp891
Rp892
aa(lp893
g814
(g818
S'\x01\x00\x00\x00\x00\x00\x00\x00'
p894
tp895
Rp896
ag846
ag814
(g818
S'\x02\x00\x00\x00\x00\x00\x00\x00'
p897
tp898
Rp899
aa(lp900
g814
(g818
S'\x01\x00\x00\x00\x00\x00\x00\x00'
p901
tp902
Rp903
ag846
ag814
(g818
S'\x03\x00\x00\x00\x00\x00\x00\x00'
p904
tp905
Rp906
aa(lp907
g814
(g818
S'\x01\x00\x00\x00\x00\x00\x00\x00'
p908
tp909
Rp910
ag861
ag814
(g818
S'\x01\x00\x00\x00\x00\x00\x00\x00'
p911
tp912
Rp913
aa(lp914
g814
(g818
S'\x01\x00\x00\x00\x00\x00\x00\x00'
p915
tp916
Rp917
ag861
ag814
(g818
S'\x02\x00\x00\x00\x00\x00\x00\x00'
p918
tp919
Rp920
aa(lp921
g814
(g818
S'\x01\x00\x00\x00\x00\x00\x00\x00'
p922
tp923
Rp924
ag861
ag814
(g818
S'\x03\x00\x00\x00\x00\x00\x00\x00'
p925
tp926
Rp927
aa(lp928
g814
(g818
S'\x02\x00\x00\x00\x00\x00\x00\x00'
p929
tp930
Rp931
ag831
ag814
(g818
S'\x01\x00\x00\x00\x00\x00\x00\x00'
p932
tp933
Rp934
aa(lp935
g814
(g818
S'\x02\x00\x00\x00\x00\x00\x00\x00'
p936
tp937
Rp938
ag846
ag814
(g818
S'\x01\x00\x00\x00\x00\x00\x00\x00'
p939
tp940
Rp941
aa(lp942
g814
(g818
S'\x02\x00\x00\x00\x00\x00\x00\x00'
p943
tp944
Rp945
ag861
ag814
(g818
S'\x01\x00\x00\x00\x00\x00\x00\x00'
p946
tp947
Rp948
aa(lp949
g814
(g818
S'\x03\x00\x00\x00\x00\x00\x00\x00'
p950
tp951
Rp952
ag831
ag814
(g818
S'\x01\x00\x00\x00\x00\x00\x00\x00'
p953
tp954
Rp955
aa(lp956
g814
(g818
S'\x03\x00\x00\x00\x00\x00\x00\x00'
p957
tp958
Rp959
ag846
ag814
(g818
S'\x01\x00\x00\x00\x00\x00\x00\x00'
p960
tp961
Rp962
aa(lp963
g814
(g818
S'\x03\x00\x00\x00\x00\x00\x00\x00'
p964
tp965
Rp966
ag861
ag814
(g818
S'\x01\x00\x00\x00\x00\x00\x00\x00'
p967
tp968
Rp969
aa(lp970
g814
(g818
S'\x04\x00\x00\x00\x00\x00\x00\x00'
p971
tp972
Rp973
ag831
ag814
(g818
S'\x01\x00\x00\x00\x00\x00\x00\x00'
p974
tp975
Rp976
aa(lp977
g814
(g818
S'\x04\x00\x00\x00\x00\x00\x00\x00'
p978
tp979
Rp980
ag846
ag814
(g818
S'\x01\x00\x00\x00\x00\x00\x00\x00'
p981
tp982
Rp983
aa(lp984
g814
(g818
S'\x04\x00\x00\x00\x00\x00\x00\x00'
p985
tp986
Rp987
ag861
ag814
(g818
S'\x01\x00\x00\x00\x00\x00\x00\x00'
p988
tp989
Rp990
aaNaNaNaNaNaNaNaNaNaNaNaNaNaNaNaNaNaNaNaNaNaNaNaNaNaNaNaNaNaNaNaNaNaNaNaNaNaNaNaNaNaNaNasg593
g0
(g594
g2
Ntp991
Rp992
(dp993
g598
Vsel = [e > min_eff for e in Eff]\u000apairs = zip(range(len(sel)), sel)\u000apTreatment = [Treatment[i] for i,b in pairs if b]\u000apRunType = [RunType[i] for i,b in pairs if b]\u000apBRpl = [BRpl[i] for i,b in pairs if b]\u000agrouping_columns = [pTreatment, pRunType, pBRpl]\u000apCt = [Ct[i] for i,b in pairs if b]\u000apEff = [Eff[i] for i,b in pairs if b]\u000aGroups, groupedCt = groupBy(\u000a     grouping_columns, pCt)\u000aGroups, groupedEff = groupBy(\u000a     grouping_columns, pEff)\u000aGroups = [[g[0], g[1], g[2]] for g in Groups]\u000aGroupedCt = roundValues(groupedCt,2)\u000aGroupedEff = roundValues(groupedEff,2)
p994
sg599
VGroups
p995
sg601
I00
sg602
I00
sg603
Vsel = [e > min_eff for e in Eff]\u000apairs = zip(range(len(sel)), sel)\u000apTreatment = [Treatment[i] for i,b in pairs if b]\u000apRunType = [RunType[i] for i,b in pairs if b]\u000apBRpl = [BRpl[i] for i,b in pairs if b]\u000agrouping_columns = [pTreatment, pRunType, pBRpl]\u000apCt = [Ct[i] for i,b in pairs if b]\u000apEff = [Eff[i] for i,b in pairs if b]\u000aGroups, groupedCt = groupBy(\u000a     grouping_columns, pCt)\u000aGroups, groupedEff = groupBy(\u000a     grouping_columns, pEff)\u000aGroups = [[g[0], g[1], g[2]] for g in Groups]\u000aGroupedCt = roundValues(groupedCt,2)\u000aGroupedEff = roundValues(groupedEff,2)
p996
sbsg604
g4
sg605
g0
(g606
g607
(g676
g609
tp997
tp998
Rp999
sg599
g995
sbag0
(g520
g2
Ntp1000
Rp1001
(dp1002
g524
I00
sg525
(lp1003
sg527
(lp1004
cnumpy.core.multiarray
_reconstruct
p1005
(g676
(I0
tp1006
S'b'
p1007
tp1008
Rp1009
(I1
(I4
tp1010
g815
(S'f8'
p1011
I0
I1
tp1012
Rp1013
(I3
S'<'
p1014
NNNI-1
I-1
I0
tp1015
bI00
S'\xe1z\x14\xaeG\xe1\xea?{\x14\xaeG\xe1z\xec?\xcd\xcc\xcc\xcc\xcc\xcc\xec?\xd7\xa3p=\n\xd7\xeb?'
p1016
tp1017
bag1005
(g676
(I0
tp1018
g1007
tp1019
Rp1020
(I1
(I3
tp1021
g1013
I00
S'\x8f\xc2\xf5(\\\x8f\xea?\x8f\xc2\xf5(\\\x8f\xea?333333\xeb?'
p1022
tp1023
bag1005
(g676
(I0
tp1024
g1007
tp1025
Rp1026
(I1
(I3
tp1027
g1013
I00
S'=\n\xd7\xa3p=\xea?333333\xeb?=\n\xd7\xa3p=\xea?'
p1028
tp1029
bag1005
(g676
(I0
tp1030
g1007
tp1031
Rp1032
(I1
(I3
tp1033
g1013
I00
S'\x14\xaeG\xe1z\x14\xee?\x8f\xc2\xf5(\\\x8f\xea?\xe1z\x14\xaeG\xe1\xea?'
p1034
tp1035
bag1005
(g676
(I0
tp1036
g1007
tp1037
Rp1038
(I1
(I3
tp1039
g1013
I00
S'\x9a\x99\x99\x99\x99\x99\xe9?\xe1z\x14\xaeG\xe1\xea?H\xe1z\x14\xaeG\xe9?'
p1040
tp1041
bag1005
(g676
(I0
tp1042
g1007
tp1043
Rp1044
(I1
(I3
tp1045
g1013
I00
S'\x8f\xc2\xf5(\\\x8f\xea?\x9a\x99\x99\x99\x99\x99\xe9?\x8f\xc2\xf5(\\\x8f\xea?'
p1046
tp1047
bag1005
(g676
(I0
tp1048
g1007
tp1049
Rp1050
(I1
(I3
tp1051
g1013
I00
S'q=\n\xd7\xa3p\xed?\\\x8f\xc2\xf5(\\\xef?\xcd\xcc\xcc\xcc\xcc\xcc\xec?'
p1052
tp1053
bag1005
(g676
(I0
tp1054
g1007
tp1055
Rp1056
(I1
(I3
tp1057
g1013
I00
S'\xcd\xcc\xcc\xcc\xcc\xcc\xec?\x8f\xc2\xf5(\\\x8f\xea?\xe1z\x14\xaeG\xe1\xea?'
p1058
tp1059
bag1005
(g676
(I0
tp1060
g1007
tp1061
Rp1062
(I1
(I3
tp1063
g1013
I00
S'\xd7\xa3p=\n\xd7\xeb?333333\xeb?\x8f\xc2\xf5(\\\x8f\xea?'
p1064
tp1065
bag1005
(g676
(I0
tp1066
g1007
tp1067
Rp1068
(I1
(I3
tp1069
g1013
I00
S'H\xe1z\x14\xaeG\xe9?\xe1z\x14\xaeG\xe1\xea?\x85\xebQ\xb8\x1e\x85\xeb?'
p1070
tp1071
bag1005
(g676
(I0
tp1072
g1007
tp1073
Rp1074
(I1
(I3
tp1075
g1013
I00
S'\x8f\xc2\xf5(\\\x8f\xea?=\n\xd7\xa3p=\xea?\x8f\xc2\xf5(\\\x8f\xea?'
p1076
tp1077
bag1005
(g676
(I0
tp1078
g1007
tp1079
Rp1080
(I1
(I3
tp1081
g1013
I00
S'\xecQ\xb8\x1e\x85\xeb\xe9?=\n\xd7\xa3p=\xea?\x9a\x99\x99\x99\x99\x99\xe9?'
p1082
tp1083
bag1005
(g676
(I0
tp1084
g1007
tp1085
Rp1086
(I1
(I3
tp1087
g1013
I00
S'\xe1z\x14\xaeG\xe1\xea?\x9a\x99\x99\x99\x99\x99\xe9?\xecQ\xb8\x1e\x85\xeb\xe9?'
p1088
tp1089
bag1005
(g676
(I0
tp1090
g1007
tp1091
Rp1092
(I1
(I3
tp1093
g1013
I00
S'\xa4p=\n\xd7\xa3\xe8?\xd7\xa3p=\n\xd7\xeb?\xecQ\xb8\x1e\x85\xeb\xe9?'
p1094
tp1095
bag1005
(g676
(I0
tp1096
g1007
tp1097
Rp1098
(I1
(I3
tp1099
g1013
I00
S'\xf6(\\\x8f\xc2\xf5\xe8?\xa4p=\n\xd7\xa3\xe8?H\xe1z\x14\xaeG\xe9?'
p1100
tp1101
bag1005
(g676
(I0
tp1102
g1007
tp1103
Rp1104
(I1
(I3
tp1105
g1013
I00
S'333333\xeb?333333\xeb?\xe1z\x14\xaeG\xe1\xea?'
p1106
tp1107
bag1005
(g676
(I0
tp1108
g1007
tp1109
Rp1110
(I1
(I3
tp1111
g1013
I00
S'\xd7\xa3p=\n\xd7\xeb?\xcd\xcc\xcc\xcc\xcc\xcc\xec?\x85\xebQ\xb8\x1e\x85\xeb?'
p1112
tp1113
bag1005
(g676
(I0
tp1114
g1007
tp1115
Rp1116
(I1
(I3
tp1117
g1013
I00
S'=\n\xd7\xa3p=\xea?=\n\xd7\xa3p=\xea?H\xe1z\x14\xaeG\xe9?'
p1118
tp1119
bag1005
(g676
(I0
tp1120
g1007
tp1121
Rp1122
(I1
(I3
tp1123
g1013
I00
S'333333\xeb?333333\xeb?\xe1z\x14\xaeG\xe1\xea?'
p1124
tp1125
bag1005
(g676
(I0
tp1126
g1007
tp1127
Rp1128
(I1
(I3
tp1129
g1013
I00
S'\xd7\xa3p=\n\xd7\xeb?\xcd\xcc\xcc\xcc\xcc\xcc\xec?\x85\xebQ\xb8\x1e\x85\xeb?'
p1130
tp1131
bag1005
(g676
(I0
tp1132
g1007
tp1133
Rp1134
(I1
(I3
tp1135
g1013
I00
S'=\n\xd7\xa3p=\xea?=\n\xd7\xa3p=\xea?H\xe1z\x14\xaeG\xe9?'
p1136
tp1137
baNaNaNaNaNaNaNaNaNaNaNaNaNaNaNaNaNaNaNaNaNaNaNaNaNaNaNaNaNaNaNaNaNaNaNaNaNaNaNaNaNaNaNasg593
g0
(g594
g2
Ntp1138
Rp1139
(dp1140
g598
Nsg599
VGroupedEff
p1141
sg601
I00
sg602
I00
sg603
Nsbsg604
g4
sg605
g0
(g606
g607
(g676
g609
tp1142
tp1143
Rp1144
sg599
g1141
sbag0
(g520
g2
Ntp1145
Rp1146
(dp1147
g524
I00
sg525
(lp1148
sg527
(lp1149
g1005
(g676
(I0
tp1150
g1007
tp1151
Rp1152
(I1
(I4
tp1153
g1013
I00
S'\x00\x00\x00\x00\x00\x007@\\\x8f\xc2\xf5(\xdc6@\xcd\xcc\xcc\xcc\xcc\xcc6@\x00\x00\x00\x00\x00\x007@'
p1154
tp1155
bag1005
(g676
(I0
tp1156
g1007
tp1157
Rp1158
(I1
(I3
tp1159
g1013
I00
S'=\n\xd7\xa3p=2@\xb8\x1e\x85\xebQ82@\\\x8f\xc2\xf5(\\2@'
p1160
tp1161
bag1005
(g676
(I0
tp1162
g1007
tp1163
Rp1164
(I1
(I3
tp1165
g1013
I00
S'\xb8\x1e\x85\xebQ\xb83@\x00\x00\x00\x00\x00\xc03@\xc3\xf5(\\\x8f\x024@'
p1166
tp1167
bag1005
(g676
(I0
tp1168
g1007
tp1169
Rp1170
(I1
(I3
tp1171
g1013
I00
S'\xaeG\xe1z\x14\xae:@\xe1z\x14\xaeG!;@\xf6(\\\x8f\xc25;@'
p1172
tp1173
bag1005
(g676
(I0
tp1174
g1007
tp1175
Rp1176
(I1
(I3
tp1177
g1013
I00
S'\xc3\xf5(\\\x8f\xc2:@\xf6(\\\x8f\xc2\xb5:@q=\n\xd7\xa30:@'
p1178
tp1179
bag1005
(g676
(I0
tp1180
g1007
tp1181
Rp1182
(I1
(I3
tp1183
g1013
I00
S'{\x14\xaeG\xe1\xfa=@\x1f\x85\xebQ\xb8\x1e>@)\\\x8f\xc2\xf5h=@'
p1184
tp1185
bag1005
(g676
(I0
tp1186
g1007
tp1187
Rp1188
(I1
(I3
tp1189
g1013
I00
S'\xecQ\xb8\x1e\x85\xeb3@\x9a\x99\x99\x99\x99\xd93@\x00\x00\x00\x00\x00\x004@'
p1190
tp1191
bag1005
(g676
(I0
tp1192
g1007
tp1193
Rp1194
(I1
(I3
tp1195
g1013
I00
S'\\\x8f\xc2\xf5(\xdc5@\xd7\xa3p=\n\x176@\xd7\xa3p=\n\xd75@'
p1196
tp1197
bag1005
(g676
(I0
tp1198
g1007
tp1199
Rp1200
(I1
(I3
tp1201
g1013
I00
S'\xa4p=\n\xd7\xe37@\n\xd7\xa3p=\x8a7@\x85\xebQ\xb8\x1eE8@'
p1202
tp1203
bag1005
(g676
(I0
tp1204
g1007
tp1205
Rp1206
(I1
(I3
tp1207
g1013
I00
S'\xaeG\xe1z\x14.6@\xf6(\\\x8f\xc2\xb55@\x00\x00\x00\x00\x00\xc05@'
p1208
tp1209
bag1005
(g676
(I0
tp1210
g1007
tp1211
Rp1212
(I1
(I3
tp1213
g1013
I00
S'\xe1z\x14\xaeG\xe17@\xecQ\xb8\x1e\x85k7@\xe1z\x14\xaeG\xa17@'
p1214
tp1215
bag1005
(g676
(I0
tp1216
g1007
tp1217
Rp1218
(I1
(I3
tp1219
g1013
I00
S'\xd7\xa3p=\n\x978@\\\x8f\xc2\xf5(\x9c8@\xd7\xa3p=\nW8@'
p1220
tp1221
bag1005
(g676
(I0
tp1222
g1007
tp1223
Rp1224
(I1
(I3
tp1225
g1013
I00
S'33333\xf3=@33333s>@\xe1z\x14\xaeG\xe1=@'
p1226
tp1227
bag1005
(g676
(I0
tp1228
g1007
tp1229
Rp1230
(I1
(I3
tp1231
g1013
I00
S'\xb8\x1e\x85\xebQ87@\xcd\xcc\xcc\xcc\xcc\xcc7@=\n\xd7\xa3p}7@'
p1232
tp1233
bag1005
(g676
(I0
tp1234
g1007
tp1235
Rp1236
(I1
(I3
tp1237
g1013
I00
S'\x1f\x85\xebQ\xb8^:@\\\x8f\xc2\xf5(\\:@\xecQ\xb8\x1e\x85+:@'
p1238
tp1239
bag1005
(g676
(I0
tp1240
g1007
tp1241
Rp1242
(I1
(I3
tp1243
g1013
I00
S'\xcd\xcc\xcc\xcc\xcc\xcc8@\xb8\x1e\x85\xebQ\xf88@\xe1z\x14\xaeG\xa18@'
p1244
tp1245
bag1005
(g676
(I0
tp1246
g1007
tp1247
Rp1248
(I1
(I3
tp1249
g1013
I00
S')\\\x8f\xc2\xf5\xe82@H\xe1z\x14\xae\xc72@\xcd\xcc\xcc\xcc\xcc\xcc2@'
p1250
tp1251
bag1005
(g676
(I0
tp1252
g1007
tp1253
Rp1254
(I1
(I3
tp1255
g1013
I00
S'\x00\x00\x00\x00\x00\x804@\xb8\x1e\x85\xebQx4@H\xe1z\x14\xaeG4@'
p1256
tp1257
bag1005
(g676
(I0
tp1258
g1007
tp1259
Rp1260
(I1
(I3
tp1261
g1013
I00
S'\xcd\xcc\xcc\xcc\xcc\xcc8@\xb8\x1e\x85\xebQ\xf88@\xe1z\x14\xaeG\xa18@'
p1262
tp1263
bag1005
(g676
(I0
tp1264
g1007
tp1265
Rp1266
(I1
(I3
tp1267
g1013
I00
S')\\\x8f\xc2\xf5\xe82@H\xe1z\x14\xae\xc72@\xcd\xcc\xcc\xcc\xcc\xcc2@'
p1268
tp1269
bag1005
(g676
(I0
tp1270
g1007
tp1271
Rp1272
(I1
(I3
tp1273
g1013
I00
S'\x00\x00\x00\x00\x00\x804@\xb8\x1e\x85\xebQx4@H\xe1z\x14\xaeG4@'
p1274
tp1275
baNaNaNaNaNaNaNaNaNaNaNaNaNaNaNaNaNaNaNaNaNaNaNaNaNaNaNaNaNaNaNaNaNaNaNaNaNaNaNaNaNaNaNasg593
g0
(g594
g2
Ntp1276
Rp1277
(dp1278
g598
Nsg599
VGroupedCt
p1279
sg601
I00
sg602
I00
sg603
Nsbsg604
g4
sg605
g0
(g606
g607
(g676
g609
tp1280
tp1281
Rp1282
sg599
g1279
sbag0
(g520
g2
Ntp1283
Rp1284
(dp1285
g524
I00
sg525
(lp1286
sg527
(lp1287
g1005
(g676
(I0
tp1288
g1007
tp1289
Rp1290
(I1
(I4
tp1291
g1013
I00
S'\x00\x00\x00\x00\x00\x007@fffff\xe66@\xcd\xcc\xcc\xcc\xcc\xcc6@\x00\x00\x00\x00\x00\x007@'
p1292
tp1293
bag1005
(g676
(I0
tp1294
g1007
tp1295
Rp1296
(I1
(I3
tp1297
g1013
I00
S'3333332@3333332@ffffff2@'
p1298
tp1299
bag1005
(g676
(I0
tp1300
g1007
tp1301
Rp1302
(I1
(I3
tp1303
g1013
I00
S'33333\xb33@\xcd\xcc\xcc\xcc\xcc\xcc3@\x00\x00\x00\x00\x00\x004@'
p1304
tp1305
bag1005
(g676
(I0
tp1306
g1007
tp1307
Rp1308
(I1
(I3
tp1309
g1013
I00
S'33333\xb3:@\x9a\x99\x99\x99\x99\x19;@333333;@'
p1310
tp1311
bag1005
(g676
(I0
tp1312
g1007
tp1313
Rp1314
(I1
(I3
tp1315
g1013
I00
S'\xcd\xcc\xcc\xcc\xcc\xcc:@33333\xb3:@333333:@'
p1316
tp1317
bag1005
(g676
(I0
tp1318
g1007
tp1319
Rp1320
(I1
(I3
tp1321
g1013
I00
S'\x00\x00\x00\x00\x00\x00>@\x9a\x99\x99\x99\x99\x19>@ffffff=@'
p1322
tp1323
bag1005
(g676
(I0
tp1324
g1007
tp1325
Rp1326
(I1
(I3
tp1327
g1013
I00
S'fffff\xe63@fffff\xe63@\x00\x00\x00\x00\x00\x004@'
p1328
tp1329
bag1005
(g676
(I0
tp1330
g1007
tp1331
Rp1332
(I1
(I3
tp1333
g1013
I00
S'fffff\xe65@\x9a\x99\x99\x99\x99\x196@\xcd\xcc\xcc\xcc\xcc\xcc5@'
p1334
tp1335
bag1005
(g676
(I0
tp1336
g1007
tp1337
Rp1338
(I1
(I3
tp1339
g1013
I00
S'fffff\xe67@\x00\x00\x00\x00\x00\x807@\xcd\xcc\xcc\xcc\xccL8@'
p1340
tp1341
bag1005
(g676
(I0
tp1342
g1007
tp1343
Rp1344
(I1
(I3
tp1345
g1013
I00
S'3333336@33333\xb35@\xcd\xcc\xcc\xcc\xcc\xcc5@'
p1346
tp1347
bag1005
(g676
(I0
tp1348
g1007
tp1349
Rp1350
(I1
(I3
tp1351
g1013
I00
S'fffff\xe67@ffffff7@\x9a\x99\x99\x99\x99\x997@'
p1352
tp1353
bag1005
(g676
(I0
tp1354
g1007
tp1355
Rp1356
(I1
(I3
tp1357
g1013
I00
S'\x9a\x99\x99\x99\x99\x998@\x9a\x99\x99\x99\x99\x998@\xcd\xcc\xcc\xcc\xccL8@'
p1358
tp1359
bag1005
(g676
(I0
tp1360
g1007
tp1361
Rp1362
(I1
(I3
tp1363
g1013
I00
S'fffff\xe6=@ffffff>@fffff\xe6=@'
p1364
tp1365
bag1005
(g676
(I0
tp1366
g1007
tp1367
Rp1368
(I1
(I3
tp1369
g1013
I00
S'3333337@\xcd\xcc\xcc\xcc\xcc\xcc7@\x00\x00\x00\x00\x00\x807@'
p1370
tp1371
bag1005
(g676
(I0
tp1372
g1007
tp1373
Rp1374
(I1
(I3
tp1375
g1013
I00
S'ffffff:@ffffff:@333333:@'
p1376
tp1377
bag1005
(g676
(I0
tp1378
g1007
tp1379
Rp1380
(I1
(I3
tp1381
g1013
I00
S'\xcd\xcc\xcc\xcc\xcc\xcc8@\x00\x00\x00\x00\x00\x009@\x9a\x99\x99\x99\x99\x998@'
p1382
tp1383
bag1005
(g676
(I0
tp1384
g1007
tp1385
Rp1386
(I1
(I3
tp1387
g1013
I00
S'fffff\xe62@\xcd\xcc\xcc\xcc\xcc\xcc2@\xcd\xcc\xcc\xcc\xcc\xcc2@'
p1388
tp1389
bag1005
(g676
(I0
tp1390
g1007
tp1391
Rp1392
(I1
(I3
tp1393
g1013
I00
S'\x00\x00\x00\x00\x00\x804@\x00\x00\x00\x00\x00\x804@\xcd\xcc\xcc\xcc\xccL4@'
p1394
tp1395
bag1005
(g676
(I0
tp1396
g1007
tp1397
Rp1398
(I1
(I3
tp1399
g1013
I00
S'\xcd\xcc\xcc\xcc\xcc\xcc8@\x00\x00\x00\x00\x00\x009@\x9a\x99\x99\x99\x99\x998@'
p1400
tp1401
bag1005
(g676
(I0
tp1402
g1007
tp1403
Rp1404
(I1
(I3
tp1405
g1013
I00
S'fffff\xe62@\xcd\xcc\xcc\xcc\xcc\xcc2@\xcd\xcc\xcc\xcc\xcc\xcc2@'
p1406
tp1407
bag1005
(g676
(I0
tp1408
g1007
tp1409
Rp1410
(I1
(I3
tp1411
g1013
I00
S'\x00\x00\x00\x00\x00\x804@\x00\x00\x00\x00\x00\x804@\xcd\xcc\xcc\xcc\xccL4@'
p1412
tp1413
baNaNaNaNaNaNaNaNaNaNaNaNaNaNaNaNaNaNaNaNaNaNaNaNaNaNaNaNaNaNaNaNaNaNaNaNaNaNaNaNaNaNaNasg593
g0
(g594
g2
Ntp1414
Rp1415
(dp1416
g598
Vlength = len(Groups)\u000aStdFilteredGroupedCt = roundValues([filterExtremes(g, max_std, 2) for g in pruneNulls(GroupedCt)])\u000a 
p1417
sg599
VStdFilteredGroupedCt
p1418
sg601
I00
sg602
I00
sg603
Vlength = len(Groups)\u000aStdFilteredGroupedCt = roundValues([filterExtremes(g, max_std, 2) for g in pruneNulls(GroupedCt)])\u000a 
p1419
sbsg604
g4
sg605
g0
(g606
g607
(g676
g609
tp1420
tp1421
Rp1422
sg599
g1418
sbag0
(g520
g2
Ntp1423
Rp1424
(dp1425
g524
I00
sg525
(lp1426
sg527
(lp1427
F22.9
aF18.3
aF19.8
aF27.0
aF26.6
aF29.8
aF19.9
aF21.9
aF23.9
aF21.9
aF23.6
aF24.5
aF30.1
aF23.5
aF26.3
aF24.8
aF18.8
aF20.4
aF24.8
aF18.8
aF20.4
aFnan
aFnan
aFnan
aFnan
aFnan
aFnan
aFnan
aFnan
aFnan
aFnan
aFnan
aFnan
aFnan
aFnan
aFnan
aFnan
aFnan
aFnan
aFnan
aFnan
aFnan
aFnan
aFnan
aFnan
aFnan
aFnan
aFnan
aFnan
aFnan
aFnan
aFnan
aFnan
aFnan
aFnan
aFnan
aFnan
aFnan
aFnan
aFnan
aFnan
aFnan
aFnan
aFnan
asg593
g0
(g594
g2
Ntp1428
Rp1429
(dp1430
g598
VMeanCt = [np.mean(g) for g in StdFilteredGroupedCt]\u000aMeanCt = roundValues(MeanCt,1)\u000aStdCt = [np.std(g, ddof=1) if len(g) > 2 else 0 for g in StdFilteredGroupedCt]\u000aStdCt = roundValues(StdCt,3)
p1431
sg599
VMeanCt
p1432
sg601
I00
sg602
I00
sg603
VMeanCt = [np.mean(g) for g in StdFilteredGroupedCt]\u000aMeanCt = roundValues(MeanCt,1)\u000aStdCt = [np.std(g, ddof=1) if len(g) > 2 else 0 for g in StdFilteredGroupedCt]\u000aStdCt = roundValues(StdCt,3)
p1433
sbsg604
g4
sg605
g0
(g606
g607
(g676
g609
tp1434
tp1435
Rp1436
sg599
g1432
sbag0
(g520
g2
Ntp1437
Rp1438
(dp1439
g524
I00
sg525
(lp1440
sg527
(lp1441
F0.096
aF0.115
aF0.153
aF0.265
aF0.321
aF0.379
aF0.058
aF0.153
aF0.4
aF0.265
aF0.252
aF0.173
aF0.289
aF0.3
aF0.115
aF0.2
aF0.058
aF0.115
aF0.2
aF0.058
aF0.115
aFnan
aFnan
aFnan
aFnan
aFnan
aFnan
aFnan
aFnan
aFnan
aFnan
aFnan
aFnan
aFnan
aFnan
aFnan
aFnan
aFnan
aFnan
aFnan
aFnan
aFnan
aFnan
aFnan
aFnan
aFnan
aFnan
aFnan
aFnan
aFnan
aFnan
aFnan
aFnan
aFnan
aFnan
aFnan
aFnan
aFnan
aFnan
aFnan
aFnan
aFnan
aFnan
aFnan
asg593
g0
(g594
g2
Ntp1442
Rp1443
(dp1444
g598
Nsg599
VStdCt
p1445
sg601
I00
sg602
I00
sg603
Nsbsg604
g4
sg605
g0
(g606
g607
(g676
g609
tp1446
tp1447
Rp1448
sg599
g1445
sbag0
(g520
g2
Ntp1449
Rp1450
(dp1451
g524
I00
sg525
(lp1452
sg527
(lp1453
(lp1454
g814
(g815
(S'f8'
p1455
I0
I1
tp1456
Rp1457
(I3
S'<'
p1458
NNNI-1
I-1
I0
tp1459
bS'\x00\x00\x00\x00\x00\x00\x00\x00'
p1460
tp1461
Rp1462
ag814
(g1457
S'\x00\x00\x00\x00\x00\x00\xf0?'
p1463
tp1464
Rp1465
aa(lp1466
g814
(g1457
S'\x00\x00\x00\x00\x00\x00\xf0?'
p1467
tp1468
Rp1469
ag814
(g1457
S'\x00\x00\x00\x00\x00\x00\xf0?'
p1470
tp1471
Rp1472
aa(lp1473
g814
(g1457
S'\x00\x00\x00\x00\x00\x00\xf0?'
p1474
tp1475
Rp1476
ag814
(g1457
S'\x00\x00\x00\x00\x00\x00\x00@'
p1477
tp1478
Rp1479
aa(lp1480
g814
(g1457
S'\x00\x00\x00\x00\x00\x00\xf0?'
p1481
tp1482
Rp1483
ag814
(g1457
S'\x00\x00\x00\x00\x00\x00\x08@'
p1484
tp1485
Rp1486
aa(lp1487
g814
(g1457
S'\x00\x00\x00\x00\x00\x00\x00@'
p1488
tp1489
Rp1490
ag814
(g1457
S'\x00\x00\x00\x00\x00\x00\xf0?'
p1491
tp1492
Rp1493
aa(lp1494
g814
(g1457
S'\x00\x00\x00\x00\x00\x00\x08@'
p1495
tp1496
Rp1497
ag814
(g1457
S'\x00\x00\x00\x00\x00\x00\xf0?'
p1498
tp1499
Rp1500
aaNaNaNaNaNaNaNaNaNaNaNaNaNaNaNaNaNaNaNaNaNaNaNaNaNaNaNaNaNaNaNaNaNaNaNaNaNaNaNaNaNaNaNaNaNaNaNaNaNaNaNaNaNaNaNaNaNaNasg593
g0
(g594
g2
Ntp1501
Rp1502
(dp1503
g598
Vdummy = tabularize(s, 'Groups', 1, 'MeanCt', \u000a          new_category_colnm='BioRuns',\u000a          values_colnm_prefix='Gene_')
p1504
sg599
VBioRuns
p1505
sg601
I00
sg602
I00
sg603
Vdummy = tabularize(s, 'Groups', 1, 'MeanCt', \u000a          new_category_colnm='BioRuns',\u000a          values_colnm_prefix='Gene_')
p1506
sbsg604
g4
sg605
g0
(g606
g607
(g676
g609
tp1507
tp1508
Rp1509
sg599
g1505
sbag0
(g520
g2
Ntp1510
Rp1511
(dp1512
g524
I00
sg525
(lp1513
sg527
(lp1514
F22.9
aF27.0
aF26.6
aF29.8
aF30.1
aF24.8
aFnan
aFnan
aFnan
aFnan
aFnan
aFnan
aFnan
aFnan
aFnan
aFnan
aFnan
aFnan
aFnan
aFnan
aFnan
aFnan
aFnan
aFnan
aFnan
aFnan
aFnan
aFnan
aFnan
aFnan
aFnan
aFnan
aFnan
aFnan
aFnan
aFnan
aFnan
aFnan
aFnan
aFnan
aFnan
aFnan
aFnan
aFnan
aFnan
aFnan
aFnan
aFnan
aFnan
aFnan
aFnan
aFnan
aFnan
aFnan
aFnan
aFnan
aFnan
aFnan
aFnan
aFnan
aFnan
aFnan
aFnan
aFnan
asg593
g0
(g594
g2
Ntp1515
Rp1516
(dp1517
g598
Nsg599
S'Gene_I'
p1518
sg601
I00
sg602
I00
sg603
Nsbsg604
g4
sg605
g0
(g606
g607
(g676
g609
tp1519
tp1520
Rp1521
sg599
g1518
sbag0
(g520
g2
Ntp1522
Rp1523
(dp1524
g524
I00
sg525
(lp1525
sg527
(lp1526
F18.3
aF19.9
aF21.9
aF23.9
aF23.5
aF18.8
aFnan
aFnan
aFnan
aFnan
aFnan
aFnan
aFnan
aFnan
aFnan
aFnan
aFnan
aFnan
aFnan
aFnan
aFnan
aFnan
aFnan
aFnan
aFnan
aFnan
aFnan
aFnan
aFnan
aFnan
aFnan
aFnan
aFnan
aFnan
aFnan
aFnan
aFnan
aFnan
aFnan
aFnan
aFnan
aFnan
aFnan
aFnan
aFnan
aFnan
aFnan
aFnan
aFnan
aFnan
aFnan
aFnan
aFnan
aFnan
aFnan
aFnan
aFnan
aFnan
aFnan
aFnan
aFnan
aFnan
aFnan
aFnan
asg593
g0
(g594
g2
Ntp1527
Rp1528
(dp1529
g598
Nsg599
S'Gene_R1'
p1530
sg601
I00
sg602
I00
sg603
Nsbsg604
g4
sg605
g1521
sg599
g1530
sbag0
(g520
g2
Ntp1531
Rp1532
(dp1533
g524
I00
sg525
(lp1534
sg527
(lp1535
F19.8
aF21.9
aF23.6
aF24.5
aF26.3
aF20.4
aFnan
aFnan
aFnan
aFnan
aFnan
aFnan
aFnan
aFnan
aFnan
aFnan
aFnan
aFnan
aFnan
aFnan
aFnan
aFnan
aFnan
aFnan
aFnan
aFnan
aFnan
aFnan
aFnan
aFnan
aFnan
aFnan
aFnan
aFnan
aFnan
aFnan
aFnan
aFnan
aFnan
aFnan
aFnan
aFnan
aFnan
aFnan
aFnan
aFnan
aFnan
aFnan
aFnan
aFnan
aFnan
aFnan
aFnan
aFnan
aFnan
aFnan
aFnan
aFnan
aFnan
aFnan
aFnan
aFnan
aFnan
aFnan
asg593
g0
(g594
g2
Ntp1536
Rp1537
(dp1538
g598
Nsg599
S'Gene_R2'
p1539
sg601
I00
sg602
I00
sg603
Nsbsg604
g4
sg605
g1521
sg599
g1539
sbag0
(g520
g2
Ntp1540
Rp1541
(dp1542
g524
I00
sg525
(lp1543
sg527
(lp1544
F0.04123
aF0.00729
aF0.03847
aF0.01675
aF0.01031
aF0.01563
aFnan
aFnan
aFnan
aFnan
aFnan
aFnan
aFnan
aFnan
aFnan
aFnan
aFnan
aFnan
aFnan
aFnan
aFnan
aFnan
aFnan
aFnan
aFnan
aFnan
aFnan
aFnan
aFnan
aFnan
aFnan
aFnan
aFnan
aFnan
aFnan
aFnan
aFnan
aFnan
aFnan
aFnan
aFnan
aFnan
aFnan
aFnan
aFnan
aFnan
aFnan
aFnan
aFnan
aFnan
aFnan
aFnan
aFnan
aFnan
aFnan
aFnan
aFnan
aFnan
aFnan
aFnan
aFnan
aFnan
aFnan
aFnan
asg593
g0
(g594
g2
Ntp1545
Rp1546
(dp1547
g598
VExprR1 = roundValues(2**(Gene_R1 - Gene_I),5)
p1548
sg599
VExprR1
p1549
sg601
I01
sg602
I00
sg603
VroundValues(2**(Gene_R1 - Gene_I),5)
p1550
sbsg604
g4
sg605
g0
(g606
g607
(g676
g609
tp1551
tp1552
Rp1553
sg599
g1549
sbag0
(g520
g2
Ntp1554
Rp1555
(dp1556
g524
I00
sg525
(lp1557
sg527
(lp1558
F0.11663
aF0.02916
aF0.125
aF0.02538
aF0.07179
aF0.04737
aFnan
aFnan
aFnan
aFnan
aFnan
aFnan
aFnan
aFnan
aFnan
aFnan
aFnan
aFnan
aFnan
aFnan
aFnan
aFnan
aFnan
aFnan
aFnan
aFnan
aFnan
aFnan
aFnan
aFnan
aFnan
aFnan
aFnan
aFnan
aFnan
aFnan
aFnan
aFnan
aFnan
aFnan
aFnan
aFnan
aFnan
aFnan
aFnan
aFnan
aFnan
aFnan
aFnan
aFnan
aFnan
aFnan
aFnan
aFnan
aFnan
aFnan
aFnan
aFnan
aFnan
aFnan
aFnan
aFnan
aFnan
aFnan
asg593
g0
(g594
g2
Ntp1559
Rp1560
(dp1561
g598
VExprR2 = roundValues(2**(Gene_R2 - Gene_I),5)
p1562
sg599
VExprR2
p1563
sg601
I01
sg602
I00
sg603
VroundValues(2**(Gene_R2 - Gene_I),5)
p1564
sbsg604
g4
sg605
g0
(g606
g607
(g676
g609
tp1565
tp1566
Rp1567
sg599
g1563
sbag0
(g520
g2
Ntp1568
Rp1569
(dp1570
g524
I00
sg525
(lp1571
sg527
(lp1572
F0.069
aF0.015
aF0.069
aF0.021
aF0.027
aF0.027
aFnan
aFnan
aFnan
aFnan
aFnan
aFnan
aFnan
aFnan
aFnan
aFnan
aFnan
aFnan
aFnan
aFnan
aFnan
aFnan
aFnan
aFnan
aFnan
aFnan
aFnan
aFnan
aFnan
aFnan
aFnan
aFnan
aFnan
aFnan
aFnan
aFnan
aFnan
aFnan
aFnan
aFnan
aFnan
aFnan
aFnan
aFnan
aFnan
aFnan
aFnan
aFnan
aFnan
aFnan
aFnan
aFnan
aFnan
aFnan
aFnan
aFnan
aFnan
aFnan
aFnan
aFnan
aFnan
aFnan
aFnan
aFnan
asg593
g0
(g594
g2
Ntp1573
Rp1574
(dp1575
g598
VGeoMean = roundValues(np.sqrt(ExprR1*ExprR2), 3)
p1576
sg599
VGeoMean
p1577
sg601
I01
sg602
I00
sg603
VroundValues(np.sqrt(ExprR1*ExprR2), 3)
p1578
sbsg604
g4
sg605
g0
(g606
g607
(g676
g609
tp1579
tp1580
Rp1581
sg599
g1577
sbag0
(g520
g2
Ntp1582
Rp1583
(dp1584
g524
I00
sg525
(lp1585
sg527
(lp1586
F0.0
aF1.0
aF2.0
aF3.0
aFnan
aFnan
aFnan
aFnan
aFnan
aFnan
aFnan
aFnan
aFnan
aFnan
aFnan
aFnan
aFnan
aFnan
aFnan
aFnan
aFnan
aFnan
aFnan
aFnan
aFnan
aFnan
aFnan
aFnan
aFnan
aFnan
aFnan
aFnan
aFnan
aFnan
aFnan
aFnan
aFnan
aFnan
aFnan
aFnan
aFnan
aFnan
aFnan
aFnan
aFnan
aFnan
aFnan
aFnan
aFnan
aFnan
aFnan
aFnan
aFnan
aFnan
aFnan
aFnan
aFnan
aFnan
aFnan
aFnan
aFnan
aFnan
aFnan
aFnan
asg593
g0
(g594
g2
Ntp1587
Rp1588
(dp1589
g598
Vcat_vals = [br[0] for br in pruneNulls(BioRuns)]\u000aclean_geo = [x for x in GeoMean if x is not None]\u000aGeoGroups, groupedGeoMeans = groupBy(cat_vals, clean_geo)\u000aGroupedGeoMeans = roundValues(groupedGeoMeans, 3)
p1590
sg599
VGeoGroups
p1591
sg601
I00
sg602
I00
sg603
Vcat_vals = [br[0] for br in pruneNulls(BioRuns)]\u000aclean_geo = [x for x in GeoMean if x is not None]\u000aGeoGroups, groupedGeoMeans = groupBy(cat_vals, clean_geo)\u000aGroupedGeoMeans = roundValues(groupedGeoMeans, 3)
p1592
sbsg604
g4
sg605
g0
(g606
g607
(g676
g609
tp1593
tp1594
Rp1595
sg599
g1591
sbag0
(g520
g2
Ntp1596
Rp1597
(dp1598
g524
I00
sg525
(lp1599
sg527
(lp1600
g1005
(g676
(I0
tp1601
g1007
tp1602
Rp1603
(I1
(I1
tp1604
g1013
I00
S'D\x8bl\xe7\xfb\xa9\xb1?'
p1605
tp1606
bag1005
(g676
(I0
tp1607
g1007
tp1608
Rp1609
(I1
(I3
tp1610
g1013
I00
S'\xb8\x1e\x85\xebQ\xb8\x8e?D\x8bl\xe7\xfb\xa9\xb1?\x1b/\xdd$\x06\x81\x95?'
p1611
tp1612
bag1005
(g676
(I0
tp1613
g1007
tp1614
Rp1615
(I1
(I1
tp1616
g1013
I00
S'\xd9\xce\xf7S\xe3\xa5\x9b?'
p1617
tp1618
bag1005
(g676
(I0
tp1619
g1007
tp1620
Rp1621
(I1
(I1
tp1622
g1013
I00
S'\xd9\xce\xf7S\xe3\xa5\x9b?'
p1623
tp1624
baNaNaNaNaNaNaNaNaNaNaNaNaNaNaNaNaNaNaNaNaNaNaNaNaNaNaNaNaNaNaNaNaNaNaNaNaNaNaNaNaNaNaNaNaNaNaNaNaNaNaNaNaNaNaNaNaNaNaNaNasg593
g0
(g594
g2
Ntp1625
Rp1626
(dp1627
g598
Nsg599
VGroupedGeoMeans
p1628
sg601
I00
sg602
I00
sg603
Nsbsg604
g4
sg605
g0
(g606
g607
(g676
g609
tp1629
tp1630
Rp1631
sg599
g1628
sbag0
(g520
g2
Ntp1632
Rp1633
(dp1634
g524
I00
sg525
(lp1635
sg527
(lp1636
g1005
(g676
(I0
tp1637
g1007
tp1638
Rp1639
(I1
(I1
tp1640
g1013
I00
S'\x00\x00\x00\x00\x00\x00\xf0?'
p1641
tp1642
bag1005
(g676
(I0
tp1643
g1007
tp1644
Rp1645
(I1
(I3
tp1646
g1013
I00
S'-\xb2\x9d\xef\xa7\xc6\xcb?\x00\x00\x00\x00\x00\x00\xf0?\xdb\xf9~j\xbct\xd3?'
p1647
tp1648
bag1005
(g676
(I0
tp1649
g1007
tp1650
Rp1651
(I1
(I1
tp1652
g1013
I00
S'\xa0\x1a/\xdd$\x06\xd9?'
p1653
tp1654
bag1005
(g676
(I0
tp1655
g1007
tp1656
Rp1657
(I1
(I1
tp1658
g1013
I00
S'\xa0\x1a/\xdd$\x06\xd9?'
p1659
tp1660
baNaNaNaNaNaNaNaNaNaNaNaNaNaNaNaNaNaNaNaNaNaNaNaNaNaNaNaNaNaNaNaNaNaNaNaNaNaNaNaNaNaNaNaNaNaNaNaNaNaNaNaNaNaNaNaNaNaNaNaNasg593
g0
(g594
g2
Ntp1661
Rp1662
(dp1663
g598
Vref = np.mean(GroupedGeoMeans[0])\u000aNrmlGeoGroupedMeans = [ [x/ref for x in g] for g in GroupedGeoMeans if g is not None]  \u000aNrmlGeoGroupedMeans = roundValues(NrmlGeoGroupedMeans, 3)
p1664
sg599
VNrmlGeoGroupedMeans
p1665
sg601
I00
sg602
I00
sg603
Vref = np.mean(GroupedGeoMeans[0])\u000aNrmlGeoGroupedMeans = [ [x/ref for x in g] for g in GroupedGeoMeans if g is not None]  \u000aNrmlGeoGroupedMeans = roundValues(NrmlGeoGroupedMeans, 3)
p1666
sbsg604
g4
sg605
g0
(g606
g607
(g676
g609
tp1667
tp1668
Rp1669
sg599
g1665
sbag0
(g520
g2
Ntp1670
Rp1671
(dp1672
g524
I00
sg525
(lp1673
sg527
(lp1674
F1.0
aF0.507
aF0.391
aF0.391
aFnan
aFnan
aFnan
aFnan
aFnan
aFnan
aFnan
aFnan
aFnan
aFnan
aFnan
aFnan
aFnan
aFnan
aFnan
aFnan
aFnan
aFnan
aFnan
aFnan
aFnan
aFnan
aFnan
aFnan
aFnan
aFnan
aFnan
aFnan
aFnan
aFnan
aFnan
aFnan
aFnan
aFnan
aFnan
aFnan
aFnan
aFnan
aFnan
aFnan
aFnan
aFnan
aFnan
aFnan
aFnan
aFnan
aFnan
aFnan
aFnan
aFnan
aFnan
aFnan
aFnan
aFnan
aFnan
aFnan
aFnan
aFnan
aFnan
aFnan
asg593
g0
(g594
g2
Ntp1675
Rp1676
(dp1677
g598
VMeanNrmlGeoGroups = [round(np.mean(g), 3) for g in NrmlGeoGroupedMeans]
p1678
sg599
VMeanNrmlGeoGroups
p1679
sg601
I01
sg602
I00
sg603
V[round(np.mean(g), 3) for g in NrmlGeoGroupedMeans]
p1680
sbsg604
g4
sg605
g0
(g606
g607
(g676
g609
tp1681
tp1682
Rp1683
sg599
g1679
sbag0
(g520
g2
Ntp1684
Rp1685
(dp1686
g524
I00
sg525
(lp1687
sg527
(lp1688
F0.248
aFnan
aFnan
aFnan
aFnan
aFnan
aFnan
aFnan
aFnan
aFnan
aFnan
aFnan
aFnan
aFnan
aFnan
aFnan
aFnan
aFnan
aFnan
aFnan
aFnan
aFnan
aFnan
aFnan
aFnan
aFnan
aFnan
aFnan
aFnan
aFnan
aFnan
aFnan
aFnan
aFnan
aFnan
aFnan
aFnan
aFnan
aFnan
aFnan
aFnan
aFnan
aFnan
aFnan
aFnan
aFnan
aFnan
aFnan
aFnan
aFnan
aFnan
aFnan
aFnan
aFnan
aFnan
aFnan
aFnan
aFnan
aFnan
aFnan
aFnan
aFnan
aFnan
aFnan
asg593
g0
(g594
g2
Ntp1689
Rp1690
(dp1691
g598
VStdNrmlGeoGroups = []\u000afor grp in NrmlGeoGroupedMeans:\u000a  if len(grp) > 1:\u000a    val = np.std(grp, ddof=1)/np.sqrt(len(grp))\u000a    val = round(val, 3)\u000a    StdNrmlGeoGroups.append(val)\u000a
p1692
sg599
VStdNrmlGeoGroups
p1693
sg601
I00
sg602
I00
sg603
VStdNrmlGeoGroups = []\u000afor grp in NrmlGeoGroupedMeans:\u000a  if len(grp) > 1:\u000a    val = np.std(grp, ddof=1)/np.sqrt(len(grp))\u000a    val = round(val, 3)\u000a    StdNrmlGeoGroups.append(val)\u000a
p1694
sbsg604
g4
sg605
g0
(g606
g607
(g676
g609
tp1695
tp1696
Rp1697
sg599
g1693
sbasS'_is_evaluate_formulas'
p1698
I00
sS'_prologue'
p1699
g0
(g594
g2
Ntp1700
Rp1701
(dp1702
g598
V# Prologue\u000aimport math as mt\u000aimport numpy as np\u000afrom os import listdir\u000afrom os.path import isfile, join\u000aimport pandas as pd\u000aimport scipy as sp\u000afrom numpy import nan  # Must follow sympy import \u000a\u000as.getTable().setIsEvaluateFormulas(False)
p1703
sg599
VSingleGene
p1704
sg601
I00
sg602
I00
sg603
V# Prologue\u000aimport math as mt\u000aimport numpy as np\u000afrom os import listdir\u000afrom os.path import isfile, join\u000aimport pandas as pd\u000aimport scipy as sp\u000afrom numpy import nan  # Must follow sympy import \u000a\u000as.getTable().setIsEvaluateFormulas(False)
p1705
sbsS'_epilogue'
p1706
g0
(g594
g2
Ntp1707
Rp1708
(dp1709
g598
Nsg599
S'x'
p1710
sg601
I00
sg602
I00
sg603
S'# Epilogue\n'
p1711
sbsg599
g1704
sS'_hidden_columns'
p1712
(lp1713
sb.